
key_led_elf:     file format elf32-littlearm

Disassembly of section .text:

00000000 <_start>:
   0:	e3a00453 	mov	r0, #1392508928	; 0x53000000
   4:	e3a01000 	mov	r1, #0	; 0x0
   8:	e5801000 	str	r1, [r0]
   c:	e3a0da01 	mov	sp, #4096	; 0x1000
  10:	eb000000 	bl	18 <main>

00000014 <halt_loop>:
  14:	eafffffe 	b	14 <halt_loop>

00000018 <main>:
  18:	e1a0c00d 	mov	ip, sp
  1c:	e92dd800 	stmdb	sp!, {fp, ip, lr, pc}
  20:	e24cb004 	sub	fp, ip, #4	; 0x4
  24:	e24dd004 	sub	sp, sp, #4	; 0x4
  28:	e3a02456 	mov	r2, #1442840576	; 0x56000000
  2c:	e2822050 	add	r2, r2, #80	; 0x50
  30:	e3a03456 	mov	r3, #1442840576	; 0x56000000
  34:	e2833050 	add	r3, r3, #80	; 0x50
  38:	e5933000 	ldr	r3, [r3]
  3c:	e3c33c3f 	bic	r3, r3, #16128	; 0x3f00
  40:	e5823000 	str	r3, [r2]
  44:	e3a02456 	mov	r2, #1442840576	; 0x56000000
  48:	e2822050 	add	r2, r2, #80	; 0x50
  4c:	e3a03456 	mov	r3, #1442840576	; 0x56000000
  50:	e2833050 	add	r3, r3, #80	; 0x50
  54:	e5933000 	ldr	r3, [r3]
  58:	e3833c15 	orr	r3, r3, #5376	; 0x1500
  5c:	e5823000 	str	r3, [r2]
  60:	e3a02456 	mov	r2, #1442840576	; 0x56000000
  64:	e2822050 	add	r2, r2, #80	; 0x50
  68:	e3a03456 	mov	r3, #1442840576	; 0x56000000
  6c:	e2833050 	add	r3, r3, #80	; 0x50
  70:	e5933000 	ldr	r3, [r3]
  74:	e3c33033 	bic	r3, r3, #51	; 0x33
  78:	e5823000 	str	r3, [r2]
  7c:	e3a02456 	mov	r2, #1442840576	; 0x56000000
  80:	e2822050 	add	r2, r2, #80	; 0x50
  84:	e3a03456 	mov	r3, #1442840576	; 0x56000000
  88:	e2833050 	add	r3, r3, #80	; 0x50
  8c:	e5933000 	ldr	r3, [r3]
  90:	e5823000 	str	r3, [r2]
  94:	e3a02456 	mov	r2, #1442840576	; 0x56000000
  98:	e2822060 	add	r2, r2, #96	; 0x60
  9c:	e3a03456 	mov	r3, #1442840576	; 0x56000000
  a0:	e2833060 	add	r3, r3, #96	; 0x60
  a4:	e5933000 	ldr	r3, [r3]
  a8:	e3c330c0 	bic	r3, r3, #192	; 0xc0
  ac:	e5823000 	str	r3, [r2]
  b0:	e3a02456 	mov	r2, #1442840576	; 0x56000000
  b4:	e2822060 	add	r2, r2, #96	; 0x60
  b8:	e3a03456 	mov	r3, #1442840576	; 0x56000000
  bc:	e2833060 	add	r3, r3, #96	; 0x60
  c0:	e5933000 	ldr	r3, [r3]
  c4:	e5823000 	str	r3, [r2]
  c8:	e3a03456 	mov	r3, #1442840576	; 0x56000000
  cc:	e2833054 	add	r3, r3, #84	; 0x54
  d0:	e5933000 	ldr	r3, [r3]
  d4:	e50b3010 	str	r3, [fp, #-16]
  d8:	e51b3010 	ldr	r3, [fp, #-16]
  dc:	e2033001 	and	r3, r3, #1	; 0x1
  e0:	e3530000 	cmp	r3, #0	; 0x0
  e4:	0a000007 	beq	108 <main+0xf0>
  e8:	e3a02456 	mov	r2, #1442840576	; 0x56000000
  ec:	e2822054 	add	r2, r2, #84	; 0x54
  f0:	e3a03456 	mov	r3, #1442840576	; 0x56000000
  f4:	e2833054 	add	r3, r3, #84	; 0x54
  f8:	e5933000 	ldr	r3, [r3]
  fc:	e3833010 	orr	r3, r3, #16	; 0x10
 100:	e5823000 	str	r3, [r2]
 104:	ea000006 	b	124 <main+0x10c>
 108:	e3a02456 	mov	r2, #1442840576	; 0x56000000
 10c:	e2822054 	add	r2, r2, #84	; 0x54
 110:	e3a03456 	mov	r3, #1442840576	; 0x56000000
 114:	e2833054 	add	r3, r3, #84	; 0x54
 118:	e5933000 	ldr	r3, [r3]
 11c:	e3c33010 	bic	r3, r3, #16	; 0x10
 120:	e5823000 	str	r3, [r2]
 124:	e51b3010 	ldr	r3, [fp, #-16]
 128:	e2033004 	and	r3, r3, #4	; 0x4
 12c:	e3530000 	cmp	r3, #0	; 0x0
 130:	0a000007 	beq	154 <main+0x13c>
 134:	e3a02456 	mov	r2, #1442840576	; 0x56000000
 138:	e2822054 	add	r2, r2, #84	; 0x54
 13c:	e3a03456 	mov	r3, #1442840576	; 0x56000000
 140:	e2833054 	add	r3, r3, #84	; 0x54
 144:	e5933000 	ldr	r3, [r3]
 148:	e3833020 	orr	r3, r3, #32	; 0x20
 14c:	e5823000 	str	r3, [r2]
 150:	ea000006 	b	170 <main+0x158>
 154:	e3a02456 	mov	r2, #1442840576	; 0x56000000
 158:	e2822054 	add	r2, r2, #84	; 0x54
 15c:	e3a03456 	mov	r3, #1442840576	; 0x56000000
 160:	e2833054 	add	r3, r3, #84	; 0x54
 164:	e5933000 	ldr	r3, [r3]
 168:	e3c33020 	bic	r3, r3, #32	; 0x20
 16c:	e5823000 	str	r3, [r2]
 170:	e3a03456 	mov	r3, #1442840576	; 0x56000000
 174:	e2833064 	add	r3, r3, #100	; 0x64
 178:	e5933000 	ldr	r3, [r3]
 17c:	e50b3010 	str	r3, [fp, #-16]
 180:	e51b3010 	ldr	r3, [fp, #-16]
 184:	e2033008 	and	r3, r3, #8	; 0x8
 188:	e3530000 	cmp	r3, #0	; 0x0
 18c:	0a000007 	beq	1b0 <main+0x198>
 190:	e3a02456 	mov	r2, #1442840576	; 0x56000000
 194:	e2822054 	add	r2, r2, #84	; 0x54
 198:	e3a03456 	mov	r3, #1442840576	; 0x56000000
 19c:	e2833054 	add	r3, r3, #84	; 0x54
 1a0:	e5933000 	ldr	r3, [r3]
 1a4:	e3833040 	orr	r3, r3, #64	; 0x40
 1a8:	e5823000 	str	r3, [r2]
 1ac:	eaffffc5 	b	c8 <main+0xb0>
 1b0:	e3a02456 	mov	r2, #1442840576	; 0x56000000
 1b4:	e2822054 	add	r2, r2, #84	; 0x54
 1b8:	e3a03456 	mov	r3, #1442840576	; 0x56000000
 1bc:	e2833054 	add	r3, r3, #84	; 0x54
 1c0:	e5933000 	ldr	r3, [r3]
 1c4:	e3c33040 	bic	r3, r3, #64	; 0x40
 1c8:	e5823000 	str	r3, [r2]
 1cc:	eaffffbd 	b	c8 <main+0xb0>