
test_sc:     file format elf32-littlearm

Disassembly of section .init:

00008344 <_init>:
    8344:	e52de004 	str	lr, [sp, #-4]!
    8348:	eb000021 	bl	83d4 <call_gmon_start>
    834c:	eb000043 	bl	8460 <frame_dummy>
    8350:	eb0000aa 	bl	8600 <__do_global_ctors_aux>
    8354:	e49df004 	ldr	pc, [sp], #4
Disassembly of section .plt:

00008358 <.plt>:
    8358:	e52de004 	str	lr, [sp, #-4]!
    835c:	e59fe004 	ldr	lr, [pc, #4]	; 8368 <.plt+0x10>
    8360:	e08fe00e 	add	lr, pc, lr
    8364:	e5bef008 	ldr	pc, [lr, #8]!
    8368:	000083f0 	streqd	r8, [r0], -r0
    836c:	e28fc600 	add	ip, pc, #0	; 0x0
    8370:	e28cca08 	add	ip, ip, #32768	; 0x8000
    8374:	e5bcf3f0 	ldr	pc, [ip, #1008]!
    8378:	e28fc600 	add	ip, pc, #0	; 0x0
    837c:	e28cca08 	add	ip, ip, #32768	; 0x8000
    8380:	e5bcf3e8 	ldr	pc, [ip, #1000]!
    8384:	e28fc600 	add	ip, pc, #0	; 0x0
    8388:	e28cca08 	add	ip, ip, #32768	; 0x8000
    838c:	e5bcf3e0 	ldr	pc, [ip, #992]!
    8390:	e28fc600 	add	ip, pc, #0	; 0x0
    8394:	e28cca08 	add	ip, ip, #32768	; 0x8000
    8398:	e5bcf3d8 	ldr	pc, [ip, #984]!
Disassembly of section .text:

0000839c <_start>:
    839c:	e59fc024 	ldr	ip, [pc, #36]	; 83c8 <.text+0x2c>
    83a0:	e3a0b000 	mov	fp, #0	; 0x0
    83a4:	e49d1004 	ldr	r1, [sp], #4
    83a8:	e1a0200d 	mov	r2, sp
    83ac:	e52d2004 	str	r2, [sp, #-4]!
    83b0:	e52d0004 	str	r0, [sp, #-4]!
    83b4:	e59f0010 	ldr	r0, [pc, #16]	; 83cc <.text+0x30>
    83b8:	e59f3010 	ldr	r3, [pc, #16]	; 83d0 <.text+0x34>
    83bc:	e52dc004 	str	ip, [sp, #-4]!
    83c0:	ebffffef 	bl	8384 <.text-0x18>
    83c4:	ebffffe8 	bl	836c <.text-0x30>
    83c8:	000085a0 	andeq	r8, r0, r0, lsr #11
    83cc:	00008510 	andeq	r8, r0, r0, lsl r5
    83d0:	0000853c 	andeq	r8, r0, ip, lsr r5

000083d4 <call_gmon_start>:
    83d4:	e92d4400 	stmdb	sp!, {sl, lr}
    83d8:	e59fa01c 	ldr	sl, [pc, #28]	; 83fc <.text+0x60>
    83dc:	e08fa00a 	add	sl, pc, sl
    83e0:	e59f3018 	ldr	r3, [pc, #24]	; 8400 <.text+0x64>
    83e4:	e79a3003 	ldr	r3, [sl, r3]
    83e8:	e3530000 	cmp	r3, #0	; 0x0
    83ec:	08bd8400 	ldmeqia	sp!, {sl, pc}
    83f0:	e1a0e00f 	mov	lr, pc
    83f4:	e1a0f003 	mov	pc, r3
    83f8:	e8bd8400 	ldmia	sp!, {sl, pc}
    83fc:	00008374 	andeq	r8, r0, r4, ror r3
    8400:	00000020 	andeq	r0, r0, r0, lsr #32

00008404 <__do_global_dtors_aux>:
    8404:	e92d4030 	stmdb	sp!, {r4, r5, lr}
    8408:	e59f5040 	ldr	r5, [pc, #64]	; 8450 <.text+0xb4>
    840c:	e5d53000 	ldrb	r3, [r5]
    8410:	e3530000 	cmp	r3, #0	; 0x0
    8414:	18bd8030 	ldmneia	sp!, {r4, r5, pc}
    8418:	e59f4034 	ldr	r4, [pc, #52]	; 8454 <.text+0xb8>
    841c:	ea000004 	b	8434 <__do_global_dtors_aux+0x30>
    8420:	e5943000 	ldr	r3, [r4]
    8424:	e2833004 	add	r3, r3, #4	; 0x4
    8428:	e5843000 	str	r3, [r4]
    842c:	e1a0e00f 	mov	lr, pc
    8430:	e1a0f002 	mov	pc, r2
    8434:	e5943000 	ldr	r3, [r4]
    8438:	e5932000 	ldr	r2, [r3]
    843c:	e3520000 	cmp	r2, #0	; 0x0
    8440:	1afffff6 	bne	8420 <__do_global_dtors_aux+0x1c>
    8444:	e3a03001 	mov	r3, #1	; 0x1
    8448:	e5c53000 	strb	r3, [r5]
    844c:	e8bd8030 	ldmia	sp!, {r4, r5, pc}
    8450:	00010788 	andeq	r0, r1, r8, lsl #15
    8454:	00010674 	andeq	r0, r1, r4, ror r6

00008458 <call___do_global_dtors_aux>:
    8458:	e52de004 	str	lr, [sp, #-4]!
    845c:	e49df004 	ldr	pc, [sp], #4

00008460 <frame_dummy>:
    8460:	e59f0018 	ldr	r0, [pc, #24]	; 8480 <.text+0xe4>
    8464:	e5903000 	ldr	r3, [r0]
    8468:	e3530000 	cmp	r3, #0	; 0x0
    846c:	01a0f00e 	moveq	pc, lr
    8470:	e59f300c 	ldr	r3, [pc, #12]	; 8484 <.text+0xe8>
    8474:	e3530000 	cmp	r3, #0	; 0x0
    8478:	01a0f00e 	moveq	pc, lr
    847c:	eaffffbd 	b	8378 <.text-0x24>
    8480:	00010754 	andeq	r0, r1, r4, asr r7
    8484:	00000000 	andeq	r0, r0, r0

00008488 <call_frame_dummy>:
    8488:	e52de004 	str	lr, [sp, #-4]!
    848c:	e49df004 	ldr	pc, [sp], #4

00008490 <C>:
    8490:	e1a0c00d 	mov	ip, sp
    8494:	e92dd800 	stmdb	sp!, {fp, ip, lr, pc}
    8498:	e24cb004 	sub	fp, ip, #4	; 0x4
    849c:	e24dd004 	sub	sp, sp, #4	; 0x4
    84a0:	e3a03000 	mov	r3, #0	; 0x0
    84a4:	e50b3010 	str	r3, [fp, #-16]
    84a8:	e59f3030 	ldr	r3, [pc, #48]	; 84e0 <.text+0x144>
    84ac:	e59f0030 	ldr	r0, [pc, #48]	; 84e4 <.text+0x148>
    84b0:	e5931000 	ldr	r1, [r3]
    84b4:	e51b2010 	ldr	r2, [fp, #-16]
    84b8:	ebffffb4 	bl	8390 <.text-0xc>
    84bc:	e59f201c 	ldr	r2, [pc, #28]	; 84e0 <.text+0x144>
    84c0:	e59f3018 	ldr	r3, [pc, #24]	; 84e0 <.text+0x144>
    84c4:	e5933000 	ldr	r3, [r3]
    84c8:	e2833001 	add	r3, r3, #1	; 0x1
    84cc:	e5823000 	str	r3, [r2]
    84d0:	e51b3010 	ldr	r3, [fp, #-16]
    84d4:	e2833002 	add	r3, r3, #2	; 0x2 
                        // 因为这条指令比较简单
                        // 把它替换为swi指令"ef900160        swi     0x00900160"
    
    84d8:	e50b3010 	str	r3, [fp, #-16]
    84dc:	eafffff1 	b	84a8 <C+0x18>
    84e0:	0001078c 	andeq	r0, r1, ip, lsl #15
    84e4:	00008650 	andeq	r8, r0, r0, asr r6

000084e8 <B>:
    84e8:	e1a0c00d 	mov	ip, sp
    84ec:	e92dd800 	stmdb	sp!, {fp, ip, lr, pc}
    84f0:	e24cb004 	sub	fp, ip, #4	; 0x4
    84f4:	ebffffe5 	bl	8490 <C>
    84f8:	e89da800 	ldmia	sp, {fp, sp, pc}

000084fc <A>:
    84fc:	e1a0c00d 	mov	ip, sp
    8500:	e92dd800 	stmdb	sp!, {fp, ip, lr, pc}
    8504:	e24cb004 	sub	fp, ip, #4	; 0x4
    8508:	ebfffff6 	bl	84e8 <B>
    850c:	e89da800 	ldmia	sp, {fp, sp, pc}

00008510 <main>:
    8510:	e1a0c00d 	mov	ip, sp
    8514:	e92dd800 	stmdb	sp!, {fp, ip, lr, pc}
    8518:	e24cb004 	sub	fp, ip, #4	; 0x4
    851c:	e24dd008 	sub	sp, sp, #8	; 0x8
    8520:	e50b0010 	str	r0, [fp, #-16]
    8524:	e50b1014 	str	r1, [fp, #-20]
    8528:	ebfffff3 	bl	84fc <A>
    852c:	e3a03000 	mov	r3, #0	; 0x0
    8530:	e1a00003 	mov	r0, r3
    8534:	e24bd00c 	sub	sp, fp, #12	; 0xc
    8538:	e89da800 	ldmia	sp, {fp, sp, pc}

0000853c <__libc_csu_init>:
    853c:	e92d4470 	stmdb	sp!, {r4, r5, r6, sl, lr}
    8540:	e59fa04c 	ldr	sl, [pc, #76]	; 8594 <.text+0x1f8>
    8544:	e08fa00a 	add	sl, pc, sl
    8548:	ebffff7d 	bl	8344 <_init>
    854c:	e3a04000 	mov	r4, #0	; 0x0
    8550:	e59f3040 	ldr	r3, [pc, #64]	; 8598 <.text+0x1fc>
    8554:	e79a3003 	ldr	r3, [sl, r3]
    8558:	e59f203c 	ldr	r2, [pc, #60]	; 859c <.text+0x200>
    855c:	e79a2002 	ldr	r2, [sl, r2]
    8560:	e0623003 	rsb	r3, r2, r3
    8564:	e1540143 	cmp	r4, r3, asr #2
    8568:	28bd8470 	ldmcsia	sp!, {r4, r5, r6, sl, pc}
    856c:	e1a06002 	mov	r6, r2
    8570:	e59f3020 	ldr	r3, [pc, #32]	; 8598 <.text+0x1fc>
    8574:	e79a3003 	ldr	r3, [sl, r3]
    8578:	e0625003 	rsb	r5, r2, r3
    857c:	e1a0e00f 	mov	lr, pc
    8580:	e796f104 	ldr	pc, [r6, r4, lsl #2]
    8584:	e2844001 	add	r4, r4, #1	; 0x1
    8588:	e1540145 	cmp	r4, r5, asr #2
    858c:	3afffffa 	bcc	857c <__libc_csu_init+0x40>
    8590:	e8bd8470 	ldmia	sp!, {r4, r5, r6, sl, pc}
    8594:	0000820c 	andeq	r8, r0, ip, lsl #4
    8598:	00000028 	andeq	r0, r0, r8, lsr #32
    859c:	0000002c 	andeq	r0, r0, ip, lsr #32

000085a0 <__libc_csu_fini>:
    85a0:	e92d4430 	stmdb	sp!, {r4, r5, sl, lr}
    85a4:	e59fa048 	ldr	sl, [pc, #72]	; 85f4 <.text+0x258>
    85a8:	e08fa00a 	add	sl, pc, sl
    85ac:	e59f3044 	ldr	r3, [pc, #68]	; 85f8 <.text+0x25c>
    85b0:	e79a2003 	ldr	r2, [sl, r3]
    85b4:	e59f3040 	ldr	r3, [pc, #64]	; 85fc <.text+0x260>
    85b8:	e79a3003 	ldr	r3, [sl, r3]
    85bc:	e0634002 	rsb	r4, r3, r2
    85c0:	e1a04144 	mov	r4, r4, asr #2
    85c4:	e2444001 	sub	r4, r4, #1	; 0x1
    85c8:	e3740001 	cmn	r4, #1	; 0x1
    85cc:	0a000006 	beq	85ec <__libc_csu_fini+0x4c>
    85d0:	e59f3024 	ldr	r3, [pc, #36]	; 85fc <.text+0x260>
    85d4:	e79a5003 	ldr	r5, [sl, r3]
    85d8:	e1a0e00f 	mov	lr, pc
    85dc:	e795f104 	ldr	pc, [r5, r4, lsl #2]
    85e0:	e2444001 	sub	r4, r4, #1	; 0x1
    85e4:	e3740001 	cmn	r4, #1	; 0x1
    85e8:	1afffffa 	bne	85d8 <__libc_csu_fini+0x38>
    85ec:	eb000013 	bl	8640 <_fini>
    85f0:	e8bd8430 	ldmia	sp!, {r4, r5, sl, pc}
    85f4:	000081a8 	andeq	r8, r0, r8, lsr #3
    85f8:	0000001c 	andeq	r0, r0, ip, lsl r0
    85fc:	00000024 	andeq	r0, r0, r4, lsr #32

00008600 <__do_global_ctors_aux>:
    8600:	e92d4010 	stmdb	sp!, {r4, lr}
    8604:	e59f3028 	ldr	r3, [pc, #40]	; 8634 <.text+0x298>
    8608:	e2434004 	sub	r4, r3, #4	; 0x4
    860c:	e5132004 	ldr	r2, [r3, #-4]
    8610:	e3720001 	cmn	r2, #1	; 0x1
    8614:	08bd8010 	ldmeqia	sp!, {r4, pc}
    8618:	e1a03002 	mov	r3, r2
    861c:	e1a0e00f 	mov	lr, pc
    8620:	e1a0f003 	mov	pc, r3
    8624:	e5343004 	ldr	r3, [r4, #-4]!
    8628:	e3730001 	cmn	r3, #1	; 0x1
    862c:	1afffffa 	bne	861c <__do_global_ctors_aux+0x1c>
    8630:	e8bd8010 	ldmia	sp!, {r4, pc}
    8634:	00010748 	andeq	r0, r1, r8, asr #14

00008638 <call___do_global_ctors_aux>:
    8638:	e52de004 	str	lr, [sp, #-4]!
    863c:	e49df004 	ldr	pc, [sp], #4
Disassembly of section .fini:

00008640 <_fini>:
    8640:	e52de004 	str	lr, [sp, #-4]!
    8644:	ebffff6e 	bl	8404 <__do_global_dtors_aux>
    8648:	e49df004 	ldr	pc, [sp], #4