
ld-linux.so.2:     file format elf32-littlearm

Disassembly of section .hash:

00000094 <.hash>:
  94:	00000025 	andeq	r0, r0, r5, lsr #32
  98:	00000029 	andeq	r0, r0, r9, lsr #32
  9c:	0000001c 	andeq	r0, r0, ip, lsl r0
  a0:	00000000 	andeq	r0, r0, r0
  a4:	00000021 	andeq	r0, r0, r1, lsr #32
  a8:	00000026 	andeq	r0, r0, r6, lsr #32
  ac:	00000000 	andeq	r0, r0, r0
  b0:	00000022 	andeq	r0, r0, r2, lsr #32
	...
  cc:	00000027 	andeq	r0, r0, r7, lsr #32
  d0:	0000001e 	andeq	r0, r0, lr, lsl r0
  d4:	00000025 	andeq	r0, r0, r5, lsr #32
  d8:	00000028 	andeq	r0, r0, r8, lsr #32
	...
  ec:	00000018 	andeq	r0, r0, r8, lsl r0
	...
  f8:	0000001b 	andeq	r0, r0, fp, lsl r0
	...
 104:	00000015 	andeq	r0, r0, r5, lsl r0
 108:	00000017 	andeq	r0, r0, r7, lsl r0
 10c:	00000000 	andeq	r0, r0, r0
 110:	00000024 	andeq	r0, r0, r4, lsr #32
 114:	00000000 	andeq	r0, r0, r0
 118:	00000023 	andeq	r0, r0, r3, lsr #32
	...
 12c:	0000001f 	andeq	r0, r0, pc, lsl r0
	...
 184:	00000014 	andeq	r0, r0, r4, lsl r0
	...
 1a0:	00000019 	andeq	r0, r0, r9, lsl r0
 1a4:	00000000 	andeq	r0, r0, r0
 1a8:	00000016 	andeq	r0, r0, r6, lsl r0
	...
 1b8:	0000001d 	andeq	r0, r0, sp, lsl r0
	...
 1c4:	00000020 	andeq	r0, r0, r0, lsr #32
 1c8:	0000001a 	andeq	r0, r0, sl, lsl r0
	...
Disassembly of section .dynsym:

000001d4 <.dynsym>:
	...
 1e8:	00000094 	muleq	r0, r4, r0
 1ec:	00000000 	andeq	r0, r0, r0
 1f0:	00010003 	andeq	r0, r1, r3
 1f4:	00000000 	andeq	r0, r0, r0
 1f8:	000001d4 	ldreqd	r0, [r0], -r4
 1fc:	00000000 	andeq	r0, r0, r0
 200:	00020003 	andeq	r0, r2, r3
 204:	00000000 	andeq	r0, r0, r0
 208:	00000464 	andeq	r0, r0, r4, ror #8
 20c:	00000000 	andeq	r0, r0, r0
 210:	00030003 	andeq	r0, r3, r3
 214:	00000000 	andeq	r0, r0, r0
 218:	00000580 	andeq	r0, r0, r0, lsl #11
 21c:	00000000 	andeq	r0, r0, r0
 220:	00040003 	andeq	r0, r4, r3
 224:	00000000 	andeq	r0, r0, r0
 228:	000005d4 	ldreqd	r0, [r0], -r4
 22c:	00000000 	andeq	r0, r0, r0
 230:	00050003 	andeq	r0, r5, r3
 234:	00000000 	andeq	r0, r0, r0
 238:	00000678 	andeq	r0, r0, r8, ror r6
 23c:	00000000 	andeq	r0, r0, r0
 240:	00060003 	andeq	r0, r6, r3
 244:	00000000 	andeq	r0, r0, r0
 248:	00000b60 	andeq	r0, r0, r0, ror #22
 24c:	00000000 	andeq	r0, r0, r0
 250:	00070003 	andeq	r0, r7, r3
 254:	00000000 	andeq	r0, r0, r0
 258:	00000b80 	andeq	r0, r0, r0, lsl #23
 25c:	00000000 	andeq	r0, r0, r0
 260:	00080003 	andeq	r0, r8, r3
 264:	00000000 	andeq	r0, r0, r0
 268:	00000bd0 	ldreqd	r0, [r0], -r0
 26c:	00000000 	andeq	r0, r0, r0
 270:	00090003 	andeq	r0, r9, r3
 274:	00000000 	andeq	r0, r0, r0
 278:	00012050 	andeq	r2, r1, r0, asr r0
 27c:	00000000 	andeq	r0, r0, r0
 280:	000a0003 	andeq	r0, sl, r3
 284:	00000000 	andeq	r0, r0, r0
 288:	0001d000 	andeq	sp, r1, r0
 28c:	00000000 	andeq	r0, r0, r0
 290:	000b0003 	andeq	r0, fp, r3
 294:	00000000 	andeq	r0, r0, r0
 298:	0001d4e4 	andeq	sp, r1, r4, ror #9
 29c:	00000000 	andeq	r0, r0, r0
 2a0:	000c0003 	andeq	r0, ip, r3
 2a4:	00000000 	andeq	r0, r0, r0
 2a8:	0001d594 	muleq	r1, r4, r5
 2ac:	00000000 	andeq	r0, r0, r0
 2b0:	000d0003 	andeq	r0, sp, r3
 2b4:	00000000 	andeq	r0, r0, r0
 2b8:	0001d7e0 	andeq	sp, r1, r0, ror #15
 2bc:	00000000 	andeq	r0, r0, r0
 2c0:	000e0003 	andeq	r0, lr, r3
	...
 2d0:	000f0003 	andeq	r0, pc, r3
	...
 2e0:	00100003 	andeqs	r0, r0, r3
	...
 2f0:	00110003 	andeqs	r0, r1, r3
	...
 300:	00120003 	andeqs	r0, r2, r3
	...
 310:	00130003 	andeqs	r0, r3, r3
 314:	00000001 	andeq	r0, r0, r1
 318:	0000f578 	andeq	pc, r0, r8, ror r5
 31c:	00000010 	andeq	r0, r0, r0, lsl r0
 320:	00090022 	andeq	r0, r9, r2, lsr #32
 324:	00000008 	andeq	r0, r0, r8
 328:	0001d89c 	muleq	r1, ip, r8
 32c:	00000004 	andeq	r0, r0, r4
 330:	000e0011 	andeq	r0, lr, r1, lsl r0
 334:	00000019 	andeq	r0, r0, r9, lsl r0
 338:	0001d894 	muleq	r1, r4, r8
 33c:	00000004 	andeq	r0, r0, r4
 340:	000e0011 	andeq	r0, lr, r1, lsl r0
 344:	0000002e 	andeq	r0, r0, lr, lsr #32
 348:	0000f5d8 	ldreqd	pc, [r0], -r8
 34c:	000000b8 	streqh	r0, [r0], -r8
 350:	00090022 	andeq	r0, r9, r2, lsr #32
 354:	00000036 	andeq	r0, r0, r6, lsr r0
 358:	0001d3ec 	andeq	sp, r1, ip, ror #7
 35c:	000000f8 	streqd	r0, [r0], -r8
 360:	000b0011 	andeq	r0, fp, r1, lsl r0
 364:	00000046 	andeq	r0, r0, r6, asr #32
	...
 370:	00000010 	andeq	r0, r0, r0, lsl r0
 374:	0000004c 	andeq	r0, r0, ip, asr #32
 378:	000070a4 	andeq	r7, r0, r4, lsr #1
 37c:	000001a0 	andeq	r0, r0, r0, lsr #3
 380:	00090012 	andeq	r0, r9, r2, lsl r0
 384:	00000060 	andeq	r0, r0, r0, rrx
 388:	0000f54c 	andeq	pc, r0, ip, asr #10
 38c:	0000002c 	andeq	r0, r0, ip, lsr #32
 390:	00090022 	andeq	r0, r9, r2, lsr #32
 394:	000000fa 	streqd	r0, [r0], -sl
	...
 3a0:	fff10011 	swinv	0x00f10011
 3a4:	00000067 	andeq	r0, r0, r7, rrx
 3a8:	0000f3dc 	ldreqd	pc, [r0], -ip
 3ac:	00000170 	andeq	r0, r0, r0, ror r1
 3b0:	00090022 	andeq	r0, r9, r2, lsr #32
 3b4:	00000077 	andeq	r0, r0, r7, ror r0
 3b8:	0000da94 	muleq	r0, r4, sl
 3bc:	0000050c 	andeq	r0, r0, ip, lsl #10
 3c0:	00090012 	andeq	r0, r9, r2, lsl r0
 3c4:	000000f0 	streqd	r0, [r0], -r0
	...
 3d0:	fff10011 	swinv	0x00f10011
 3d4:	00000082 	andeq	r0, r0, r2, lsl #1
 3d8:	0001d8d0 	ldreqd	sp, [r1], -r0
 3dc:	00000014 	andeq	r0, r0, r4, lsl r0
 3e0:	000e0011 	andeq	r0, lr, r1, lsl r0
 3e4:	00000104 	andeq	r0, r0, r4, lsl #2
	...
 3f0:	fff10011 	swinv	0x00f10011
 3f4:	0000008b 	andeq	r0, r0, fp, lsl #1
 3f8:	000125f0 	streqd	r2, [r1], -r0
 3fc:	0000000e 	andeq	r0, r0, lr
 400:	000a0011 	andeq	r0, sl, r1, lsl r0
 404:	0000009d 	muleq	r0, sp, r0
 408:	0000f588 	andeq	pc, r0, r8, lsl #11
 40c:	00000050 	andeq	r0, r0, r0, asr r0
 410:	00090022 	andeq	r0, r9, r2, lsr #32
 414:	000000a2 	andeq	r0, r0, r2, lsr #1
 418:	0000c418 	andeq	ip, r0, r8, lsl r4
 41c:	00000004 	andeq	r0, r0, r4
 420:	00090012 	andeq	r0, r9, r2, lsl r0
 424:	000000b2 	streqh	r0, [r0], -r2
 428:	0001d7e0 	andeq	sp, r1, r0, ror #15
 42c:	00000004 	andeq	r0, r0, r4
 430:	000e0011 	andeq	r0, lr, r1, lsl r0
 434:	000000bb 	streqh	r0, [r0], -fp
 438:	0000e4a0 	andeq	lr, r0, r0, lsr #9
 43c:	00000194 	muleq	r0, r4, r1
 440:	00090012 	andeq	r0, r9, r2, lsl r0
 444:	0000010e 	andeq	r0, r0, lr, lsl #2
	...
 450:	fff10011 	swinv	0x00f10011
 454:	000000d5 	ldreqd	r0, [r0], -r5
 458:	0001d000 	andeq	sp, r1, r0
 45c:	000003e8 	andeq	r0, r0, r8, ror #7
 460:	000b0011 	andeq	r0, fp, r1, lsl r0
Disassembly of section .dynstr:

00000464 <.dynstr>:
 464:	6c616300 	stcvsl	3, cr6, [r1]
 468:	00636f6c 	rsbeq	r6, r3, ip, ror #30
 46c:	696c5f5f 	stmvsdb	ip!, {r0, r1, r2, r3, r4, r6, r8, r9, sl, fp, ip, lr}^
 470:	735f6362 	cmpvc	pc, #-2013265919	; 0x88000001
 474:	6b636174 	blvs	18d8a4c <__bss_end__+0x18bb15c>
 478:	646e655f 	strvsbt	r6, [lr], #-1375
 47c:	6c5f5f00 	mrrcvs	15, 0, r5, pc, cr0
 480:	5f636269 	swipl	0x00636269
 484:	62616e65 	rsbvs	r6, r1, #1616	; 0x650
 488:	735f656c 	cmpvc	pc, #452984832	; 0x1b000000
 48c:	72756365 	rsbvcs	r6, r5, #-1811939327	; 0x94000001
 490:	65720065 	ldrvsb	r0, [r2, #-101]!
 494:	6f6c6c61 	swivs	0x006c6c61
 498:	725f0063 	subvcs	r0, pc, #99	; 0x63
 49c:	5f646c74 	swipl	0x00646c74
 4a0:	626f6c67 	rsbvs	r6, pc, #26368	; 0x6700
 4a4:	725f6c61 	subvcs	r6, pc, #24832	; 0x6100
 4a8:	7265006f 	rsbvc	r0, r5, #111	; 0x6f
 4ac:	006f6e72 	rsbeq	r6, pc, r2, ror lr
 4b0:	5f6c645f 	swipl	0x006c645f
 4b4:	646c7472 	strvsbt	r7, [ip], #-1138
 4b8:	5f69645f 	swipl	0x0069645f
 4bc:	69726573 	ldmvsdb	r2!, {r0, r1, r4, r5, r6, r8, sl, sp, lr}^
 4c0:	006f666e 	rsbeq	r6, pc, lr, ror #12
 4c4:	6c6c616d 	stfvse	f6, [ip], #-436
 4c8:	5f00636f 	swipl	0x0000636f
 4cc:	62696c5f 	rsbvs	r6, r9, #24320	; 0x5f00
 4d0:	656d5f63 	strvsb	r5, [sp, #-3939]!
 4d4:	696c616d 	stmvsdb	ip!, {r0, r2, r3, r5, r6, r8, sp, lr}^
 4d8:	5f006e67 	swipl	0x00006e67
 4dc:	6d5f6c64 	ldcvsl	12, cr6, [pc, #-400]
 4e0:	6e756f63 	cdpvs	15, 7, cr6, cr5, cr3, {3}
 4e4:	725f0074 	subvcs	r0, pc, #116	; 0x74
 4e8:	6265645f 	rsbvs	r6, r5, #1593835520	; 0x5f000000
 4ec:	5f006775 	swipl	0x00006775
 4f0:	6f5f6c64 	swivs	0x005f6c64
 4f4:	6f5f7475 	swivs	0x005f7475
 4f8:	656d5f66 	strvsb	r5, [sp, #-3942]!
 4fc:	79726f6d 	ldmvcdb	r2!, {r0, r2, r3, r5, r6, r8, r9, sl, fp, sp, lr}^
 500:	65726600 	ldrvsb	r6, [r2, #-1536]!
 504:	645f0065 	ldrvsb	r0, [pc], #101	; 50c <GLIBC_2.0+0x50c>
 508:	65645f6c 	strvsb	r5, [r4, #-3948]!
 50c:	5f677562 	swipl	0x00677562
 510:	74617473 	strvcbt	r7, [r1], #-1139
 514:	645f0065 	ldrvsb	r0, [pc], #101	; 51c <GLIBC_2.0+0x51c>
 518:	72615f6c 	rsbvc	r5, r1, #432	; 0x1b0
 51c:	5f007667 	swipl	0x00007667
 520:	6d5f6c64 	ldcvsl	12, cr6, [pc, #-400]
 524:	5f656b61 	swipl	0x00656b61
 528:	63617473 	cmnvs	r1, #1929379840	; 0x73000000
 52c:	78655f6b 	stmvcda	r5!, {r0, r1, r3, r5, r6, r8, r9, sl, fp, ip, lr}^
 530:	74756365 	ldrvcbt	r6, [r5], #-869
 534:	656c6261 	strvsb	r6, [ip, #-609]!
 538:	74725f00 	ldrvcbt	r5, [r2], #-3840
 53c:	675f646c 	ldrvsb	r6, [pc, -ip, ror #8]
 540:	61626f6c 	cmnvs	r2, ip, ror #30
 544:	646c006c 	strvsbt	r0, [ip], #-108
 548:	6e696c2d 	cdpvs	12, 6, cr6, cr9, cr13, {1}
 54c:	732e7875 	teqvc	lr, #7667712	; 0x750000
 550:	00322e6f 	eoreqs	r2, r2, pc, ror #28
 554:	42494c47 	submi	r4, r9, #18176	; 0x4700
 558:	2e325f43 	cdpcs	15, 3, cr5, cr2, cr3, {2}
 55c:	4c470030 	mcrrmi	0, 3, r0, r7, cr0
 560:	5f434249 	swipl	0x00434249
 564:	00312e32 	eoreqs	r2, r1, r2, lsr lr
 568:	42494c47 	submi	r4, r9, #18176	; 0x4700
 56c:	2e325f43 	cdpcs	15, 3, cr5, cr2, cr3, {2}
 570:	4c470033 	mcrrmi	0, 3, r0, r7, cr3
 574:	5f434249 	swipl	0x00434249
 578:	56495250 	undefined
 57c:	00455441 	subeq	r5, r5, r1, asr #8
Disassembly of section .gnu.version:

00000580 <.gnu.version>:
	...
 5a8:	00030002 	andeq	r0, r3, r2
 5ac:	00020005 	andeq	r0, r2, r5
 5b0:	00000005 	andeq	r0, r0, r5
 5b4:	00020005 	andeq	r0, r2, r5
 5b8:	00020003 	andeq	r0, r2, r3
 5bc:	00020003 	andeq	r0, r2, r3
 5c0:	00040002 	andeq	r0, r4, r2
 5c4:	00020005 	andeq	r0, r2, r5
 5c8:	00050005 	andeq	r0, r5, r5
 5cc:	00050005 	andeq	r0, r5, r5
 5d0:	Address 0x5d0 is out of bounds.

Disassembly of section .gnu.version_d:

000005d4 <.gnu.version_d>:
 5d4:	00010001 	andeq	r0, r1, r1
 5d8:	00010001 	andeq	r0, r1, r1
 5dc:	0ee1b232 	mcreq	2, 7, fp, cr1, cr2, {1}
 5e0:	00000014 	andeq	r0, r0, r4, lsl r0
 5e4:	0000001c 	andeq	r0, r0, ip, lsl r0
 5e8:	000000e2 	andeq	r0, r0, r2, ror #1
 5ec:	00000000 	andeq	r0, r0, r0
 5f0:	00000001 	andeq	r0, r0, r1
 5f4:	00010002 	andeq	r0, r1, r2
 5f8:	0d696910 	stceql	9, cr6, [r9, #-64]!
 5fc:	00000014 	andeq	r0, r0, r4, lsl r0
 600:	0000001c 	andeq	r0, r0, ip, lsl r0
 604:	000000f0 	streqd	r0, [r0], -r0
 608:	00000000 	andeq	r0, r0, r0
 60c:	00000001 	andeq	r0, r0, r1
 610:	00020003 	andeq	r0, r2, r3
 614:	0d696911 	stceql	9, cr6, [r9, #-68]!
 618:	00000014 	andeq	r0, r0, r4, lsl r0
 61c:	00000024 	andeq	r0, r0, r4, lsr #32
 620:	000000fa 	streqd	r0, [r0], -sl
 624:	00000008 	andeq	r0, r0, r8
 628:	000000f0 	streqd	r0, [r0], -r0
 62c:	00000000 	andeq	r0, r0, r0
 630:	00000001 	andeq	r0, r0, r1
 634:	00020004 	andeq	r0, r2, r4
 638:	0d696913 	stceql	9, cr6, [r9, #-76]!
 63c:	00000014 	andeq	r0, r0, r4, lsl r0
 640:	00000024 	andeq	r0, r0, r4, lsr #32
 644:	00000104 	andeq	r0, r0, r4, lsl #2
 648:	00000008 	andeq	r0, r0, r8
 64c:	000000fa 	streqd	r0, [r0], -sl
 650:	00000000 	andeq	r0, r0, r0
 654:	00000001 	andeq	r0, r0, r1
 658:	00020005 	andeq	r0, r2, r5
 65c:	0963cf85 	stmeqdb	r3!, {r0, r2, r7, r8, r9, sl, fp, lr, pc}^
 660:	00000014 	andeq	r0, r0, r4, lsl r0
 664:	00000000 	andeq	r0, r0, r0
 668:	0000010e 	andeq	r0, r0, lr, lsl #2
 66c:	00000008 	andeq	r0, r0, r8
 670:	00000104 	andeq	r0, r0, r4, lsl #2
 674:	00000000 	andeq	r0, r0, r0
Disassembly of section .rel.dyn:

00000678 <.rel.dyn>:
 678:	0001d4a0 	andeq	sp, r1, r0, lsr #9
 67c:	00000017 	andeq	r0, r0, r7, lsl r0
 680:	0001d4a4 	andeq	sp, r1, r4, lsr #9
 684:	00000017 	andeq	r0, r0, r7, lsl r0
 688:	0001d4a8 	andeq	sp, r1, r8, lsr #9
 68c:	00000017 	andeq	r0, r0, r7, lsl r0
 690:	0001d4ac 	andeq	sp, r1, ip, lsr #9
 694:	00000017 	andeq	r0, r0, r7, lsl r0
 698:	0001d4b0 	streqh	sp, [r1], -r0
 69c:	00000017 	andeq	r0, r0, r7, lsl r0
 6a0:	0001d4b4 	streqh	sp, [r1], -r4
 6a4:	00000017 	andeq	r0, r0, r7, lsl r0
 6a8:	0001d4b8 	streqh	sp, [r1], -r8
 6ac:	00000017 	andeq	r0, r0, r7, lsl r0
 6b0:	0001d4bc 	streqh	sp, [r1], -ip
 6b4:	00000017 	andeq	r0, r0, r7, lsl r0
 6b8:	0001d4c0 	andeq	sp, r1, r0, asr #9
 6bc:	00000017 	andeq	r0, r0, r7, lsl r0
 6c0:	0001d4c4 	andeq	sp, r1, r4, asr #9
 6c4:	00000017 	andeq	r0, r0, r7, lsl r0
 6c8:	0001d4c8 	andeq	sp, r1, r8, asr #9
 6cc:	00000017 	andeq	r0, r0, r7, lsl r0
 6d0:	0001d4cc 	andeq	sp, r1, ip, asr #9
 6d4:	00000017 	andeq	r0, r0, r7, lsl r0
 6d8:	0001d4d0 	ldreqd	sp, [r1], -r0
 6dc:	00000017 	andeq	r0, r0, r7, lsl r0
 6e0:	0001d4d4 	ldreqd	sp, [r1], -r4
 6e4:	00000017 	andeq	r0, r0, r7, lsl r0
 6e8:	0001d4d8 	ldreqd	sp, [r1], -r8
 6ec:	00000017 	andeq	r0, r0, r7, lsl r0
 6f0:	0001d4dc 	ldreqd	sp, [r1], -ip
 6f4:	00000017 	andeq	r0, r0, r7, lsl r0
 6f8:	0001d4e0 	andeq	sp, r1, r0, ror #9
 6fc:	00000017 	andeq	r0, r0, r7, lsl r0
 700:	0001d5b0 	streqh	sp, [r1], -r0
 704:	00000017 	andeq	r0, r0, r7, lsl r0
 708:	0001d5b4 	streqh	sp, [r1], -r4
 70c:	00000017 	andeq	r0, r0, r7, lsl r0
 710:	0001d5b8 	streqh	sp, [r1], -r8
 714:	00000017 	andeq	r0, r0, r7, lsl r0
 718:	0001d5bc 	streqh	sp, [r1], -ip
 71c:	00000017 	andeq	r0, r0, r7, lsl r0
 720:	0001d5c0 	andeq	sp, r1, r0, asr #11
 724:	00000017 	andeq	r0, r0, r7, lsl r0
 728:	0001d5c4 	andeq	sp, r1, r4, asr #11
 72c:	00000017 	andeq	r0, r0, r7, lsl r0
 730:	0001d5c8 	andeq	sp, r1, r8, asr #11
 734:	00000017 	andeq	r0, r0, r7, lsl r0
 738:	0001d5cc 	andeq	sp, r1, ip, asr #11
 73c:	00000017 	andeq	r0, r0, r7, lsl r0
 740:	0001d5d0 	ldreqd	sp, [r1], -r0
 744:	00000017 	andeq	r0, r0, r7, lsl r0
 748:	0001d5d4 	ldreqd	sp, [r1], -r4
 74c:	00000017 	andeq	r0, r0, r7, lsl r0
 750:	0001d5d8 	ldreqd	sp, [r1], -r8
 754:	00000017 	andeq	r0, r0, r7, lsl r0
 758:	0001d5dc 	ldreqd	sp, [r1], -ip
 75c:	00000017 	andeq	r0, r0, r7, lsl r0
 760:	0001d5e0 	andeq	sp, r1, r0, ror #11
 764:	00000017 	andeq	r0, r0, r7, lsl r0
 768:	0001d5e4 	andeq	sp, r1, r4, ror #11
 76c:	00000017 	andeq	r0, r0, r7, lsl r0
 770:	0001d5e8 	andeq	sp, r1, r8, ror #11
 774:	00000017 	andeq	r0, r0, r7, lsl r0
 778:	0001d5ec 	andeq	sp, r1, ip, ror #11
 77c:	00000017 	andeq	r0, r0, r7, lsl r0
 780:	0001d5f0 	streqd	sp, [r1], -r0
 784:	00000017 	andeq	r0, r0, r7, lsl r0
 788:	0001d5f4 	streqd	sp, [r1], -r4
 78c:	00000017 	andeq	r0, r0, r7, lsl r0
 790:	0001d5f8 	streqd	sp, [r1], -r8
 794:	00000017 	andeq	r0, r0, r7, lsl r0
 798:	0001d5fc 	streqd	sp, [r1], -ip
 79c:	00000017 	andeq	r0, r0, r7, lsl r0
 7a0:	0001d600 	andeq	sp, r1, r0, lsl #12
 7a4:	00000017 	andeq	r0, r0, r7, lsl r0
 7a8:	0001d604 	andeq	sp, r1, r4, lsl #12
 7ac:	00000017 	andeq	r0, r0, r7, lsl r0
 7b0:	0001d608 	andeq	sp, r1, r8, lsl #12
 7b4:	00000017 	andeq	r0, r0, r7, lsl r0
 7b8:	0001d60c 	andeq	sp, r1, ip, lsl #12
 7bc:	00000017 	andeq	r0, r0, r7, lsl r0
 7c0:	0001d610 	andeq	sp, r1, r0, lsl r6
 7c4:	00000017 	andeq	r0, r0, r7, lsl r0
 7c8:	0001d614 	andeq	sp, r1, r4, lsl r6
 7cc:	00000017 	andeq	r0, r0, r7, lsl r0
 7d0:	0001d618 	andeq	sp, r1, r8, lsl r6
 7d4:	00000017 	andeq	r0, r0, r7, lsl r0
 7d8:	0001d61c 	andeq	sp, r1, ip, lsl r6
 7dc:	00000017 	andeq	r0, r0, r7, lsl r0
 7e0:	0001d620 	andeq	sp, r1, r0, lsr #12
 7e4:	00000017 	andeq	r0, r0, r7, lsl r0
 7e8:	0001d624 	andeq	sp, r1, r4, lsr #12
 7ec:	00000017 	andeq	r0, r0, r7, lsl r0
 7f0:	0001d628 	andeq	sp, r1, r8, lsr #12
 7f4:	00000017 	andeq	r0, r0, r7, lsl r0
 7f8:	0001d62c 	andeq	sp, r1, ip, lsr #12
 7fc:	00000017 	andeq	r0, r0, r7, lsl r0
 800:	0001d630 	andeq	sp, r1, r0, lsr r6
 804:	00000017 	andeq	r0, r0, r7, lsl r0
 808:	0001d634 	andeq	sp, r1, r4, lsr r6
 80c:	00000017 	andeq	r0, r0, r7, lsl r0
 810:	0001d638 	andeq	sp, r1, r8, lsr r6
 814:	00000017 	andeq	r0, r0, r7, lsl r0
 818:	0001d63c 	andeq	sp, r1, ip, lsr r6
 81c:	00000017 	andeq	r0, r0, r7, lsl r0
 820:	0001d640 	andeq	sp, r1, r0, asr #12
 824:	00000017 	andeq	r0, r0, r7, lsl r0
 828:	0001d644 	andeq	sp, r1, r4, asr #12
 82c:	00000017 	andeq	r0, r0, r7, lsl r0
 830:	0001d648 	andeq	sp, r1, r8, asr #12
 834:	00000017 	andeq	r0, r0, r7, lsl r0
 838:	0001d64c 	andeq	sp, r1, ip, asr #12
 83c:	00000017 	andeq	r0, r0, r7, lsl r0
 840:	0001d650 	andeq	sp, r1, r0, asr r6
 844:	00000017 	andeq	r0, r0, r7, lsl r0
 848:	0001d654 	andeq	sp, r1, r4, asr r6
 84c:	00000017 	andeq	r0, r0, r7, lsl r0
 850:	0001d658 	andeq	sp, r1, r8, asr r6
 854:	00000017 	andeq	r0, r0, r7, lsl r0
 858:	0001d65c 	andeq	sp, r1, ip, asr r6
 85c:	00000017 	andeq	r0, r0, r7, lsl r0
 860:	0001d660 	andeq	sp, r1, r0, ror #12
 864:	00000017 	andeq	r0, r0, r7, lsl r0
 868:	0001d664 	andeq	sp, r1, r4, ror #12
 86c:	00000017 	andeq	r0, r0, r7, lsl r0
 870:	0001d668 	andeq	sp, r1, r8, ror #12
 874:	00000017 	andeq	r0, r0, r7, lsl r0
 878:	0001d66c 	andeq	sp, r1, ip, ror #12
 87c:	00000017 	andeq	r0, r0, r7, lsl r0
 880:	0001d670 	andeq	sp, r1, r0, ror r6
 884:	00000017 	andeq	r0, r0, r7, lsl r0
 888:	0001d674 	andeq	sp, r1, r4, ror r6
 88c:	00000017 	andeq	r0, r0, r7, lsl r0
 890:	0001d678 	andeq	sp, r1, r8, ror r6
 894:	00000017 	andeq	r0, r0, r7, lsl r0
 898:	0001d67c 	andeq	sp, r1, ip, ror r6
 89c:	00000017 	andeq	r0, r0, r7, lsl r0
 8a0:	0001d680 	andeq	sp, r1, r0, lsl #13
 8a4:	00000017 	andeq	r0, r0, r7, lsl r0
 8a8:	0001d684 	andeq	sp, r1, r4, lsl #13
 8ac:	00000017 	andeq	r0, r0, r7, lsl r0
 8b0:	0001d688 	andeq	sp, r1, r8, lsl #13
 8b4:	00000017 	andeq	r0, r0, r7, lsl r0
 8b8:	0001d68c 	andeq	sp, r1, ip, lsl #13
 8bc:	00000017 	andeq	r0, r0, r7, lsl r0
 8c0:	0001d690 	muleq	r1, r0, r6
 8c4:	00000017 	andeq	r0, r0, r7, lsl r0
 8c8:	0001d694 	muleq	r1, r4, r6
 8cc:	00000017 	andeq	r0, r0, r7, lsl r0
 8d0:	0001d698 	muleq	r1, r8, r6
 8d4:	00000017 	andeq	r0, r0, r7, lsl r0
 8d8:	0001d69c 	muleq	r1, ip, r6
 8dc:	00000017 	andeq	r0, r0, r7, lsl r0
 8e0:	0001d6a0 	andeq	sp, r1, r0, lsr #13
 8e4:	00000017 	andeq	r0, r0, r7, lsl r0
 8e8:	0001d6a4 	andeq	sp, r1, r4, lsr #13
 8ec:	00000017 	andeq	r0, r0, r7, lsl r0
 8f0:	0001d6a8 	andeq	sp, r1, r8, lsr #13
 8f4:	00000017 	andeq	r0, r0, r7, lsl r0
 8f8:	0001d6ac 	andeq	sp, r1, ip, lsr #13
 8fc:	00000017 	andeq	r0, r0, r7, lsl r0
 900:	0001d6b0 	streqh	sp, [r1], -r0
 904:	00000017 	andeq	r0, r0, r7, lsl r0
 908:	0001d6b4 	streqh	sp, [r1], -r4
 90c:	00000017 	andeq	r0, r0, r7, lsl r0
 910:	0001d6b8 	streqh	sp, [r1], -r8
 914:	00000017 	andeq	r0, r0, r7, lsl r0
 918:	0001d6bc 	streqh	sp, [r1], -ip
 91c:	00000017 	andeq	r0, r0, r7, lsl r0
 920:	0001d6c0 	andeq	sp, r1, r0, asr #13
 924:	00000017 	andeq	r0, r0, r7, lsl r0
 928:	0001d6c4 	andeq	sp, r1, r4, asr #13
 92c:	00000017 	andeq	r0, r0, r7, lsl r0
 930:	0001d6c8 	andeq	sp, r1, r8, asr #13
 934:	00000017 	andeq	r0, r0, r7, lsl r0
 938:	0001d6cc 	andeq	sp, r1, ip, asr #13
 93c:	00000017 	andeq	r0, r0, r7, lsl r0
 940:	0001d6d0 	ldreqd	sp, [r1], -r0
 944:	00000017 	andeq	r0, r0, r7, lsl r0
 948:	0001d6d4 	ldreqd	sp, [r1], -r4
 94c:	00000017 	andeq	r0, r0, r7, lsl r0
 950:	0001d6d8 	ldreqd	sp, [r1], -r8
 954:	00000017 	andeq	r0, r0, r7, lsl r0
 958:	0001d6dc 	ldreqd	sp, [r1], -ip
 95c:	00000017 	andeq	r0, r0, r7, lsl r0
 960:	0001d6e0 	andeq	sp, r1, r0, ror #13
 964:	00000017 	andeq	r0, r0, r7, lsl r0
 968:	0001d6e4 	andeq	sp, r1, r4, ror #13
 96c:	00000017 	andeq	r0, r0, r7, lsl r0
 970:	0001d6e8 	andeq	sp, r1, r8, ror #13
 974:	00000017 	andeq	r0, r0, r7, lsl r0
 978:	0001d6ec 	andeq	sp, r1, ip, ror #13
 97c:	00000017 	andeq	r0, r0, r7, lsl r0
 980:	0001d6f0 	streqd	sp, [r1], -r0
 984:	00000017 	andeq	r0, r0, r7, lsl r0
 988:	0001d6f4 	streqd	sp, [r1], -r4
 98c:	00000017 	andeq	r0, r0, r7, lsl r0
 990:	0001d6f8 	streqd	sp, [r1], -r8
 994:	00000017 	andeq	r0, r0, r7, lsl r0
 998:	0001d6fc 	streqd	sp, [r1], -ip
 99c:	00000017 	andeq	r0, r0, r7, lsl r0
 9a0:	0001d700 	andeq	sp, r1, r0, lsl #14
 9a4:	00000017 	andeq	r0, r0, r7, lsl r0
 9a8:	0001d704 	andeq	sp, r1, r4, lsl #14
 9ac:	00000017 	andeq	r0, r0, r7, lsl r0
 9b0:	0001d708 	andeq	sp, r1, r8, lsl #14
 9b4:	00000017 	andeq	r0, r0, r7, lsl r0
 9b8:	0001d70c 	andeq	sp, r1, ip, lsl #14
 9bc:	00000017 	andeq	r0, r0, r7, lsl r0
 9c0:	0001d710 	andeq	sp, r1, r0, lsl r7
 9c4:	00000017 	andeq	r0, r0, r7, lsl r0
 9c8:	0001d714 	andeq	sp, r1, r4, lsl r7
 9cc:	00000017 	andeq	r0, r0, r7, lsl r0
 9d0:	0001d718 	andeq	sp, r1, r8, lsl r7
 9d4:	00000017 	andeq	r0, r0, r7, lsl r0
 9d8:	0001d71c 	andeq	sp, r1, ip, lsl r7
 9dc:	00000017 	andeq	r0, r0, r7, lsl r0
 9e0:	0001d720 	andeq	sp, r1, r0, lsr #14
 9e4:	00000017 	andeq	r0, r0, r7, lsl r0
 9e8:	0001d724 	andeq	sp, r1, r4, lsr #14
 9ec:	00000017 	andeq	r0, r0, r7, lsl r0
 9f0:	0001d728 	andeq	sp, r1, r8, lsr #14
 9f4:	00000017 	andeq	r0, r0, r7, lsl r0
 9f8:	0001d72c 	andeq	sp, r1, ip, lsr #14
 9fc:	00000017 	andeq	r0, r0, r7, lsl r0
 a00:	0001d730 	andeq	sp, r1, r0, lsr r7
 a04:	00000017 	andeq	r0, r0, r7, lsl r0
 a08:	0001d734 	andeq	sp, r1, r4, lsr r7
 a0c:	00000017 	andeq	r0, r0, r7, lsl r0
 a10:	0001d738 	andeq	sp, r1, r8, lsr r7
 a14:	00000017 	andeq	r0, r0, r7, lsl r0
 a18:	0001d73c 	andeq	sp, r1, ip, lsr r7
 a1c:	00000017 	andeq	r0, r0, r7, lsl r0
 a20:	0001d740 	andeq	sp, r1, r0, asr #14
 a24:	00000017 	andeq	r0, r0, r7, lsl r0
 a28:	0001d744 	andeq	sp, r1, r4, asr #14
 a2c:	00000017 	andeq	r0, r0, r7, lsl r0
 a30:	0001d748 	andeq	sp, r1, r8, asr #14
 a34:	00000017 	andeq	r0, r0, r7, lsl r0
 a38:	0001d74c 	andeq	sp, r1, ip, asr #14
 a3c:	00000017 	andeq	r0, r0, r7, lsl r0
 a40:	0001d750 	andeq	sp, r1, r0, asr r7
 a44:	00000017 	andeq	r0, r0, r7, lsl r0
 a48:	0001d754 	andeq	sp, r1, r4, asr r7
 a4c:	00000017 	andeq	r0, r0, r7, lsl r0
 a50:	0001d758 	andeq	sp, r1, r8, asr r7
 a54:	00000017 	andeq	r0, r0, r7, lsl r0
 a58:	0001d75c 	andeq	sp, r1, ip, asr r7
 a5c:	00000017 	andeq	r0, r0, r7, lsl r0
 a60:	0001d760 	andeq	sp, r1, r0, ror #14
 a64:	00000017 	andeq	r0, r0, r7, lsl r0
 a68:	0001d764 	andeq	sp, r1, r4, ror #14
 a6c:	00000017 	andeq	r0, r0, r7, lsl r0
 a70:	0001d768 	andeq	sp, r1, r8, ror #14
 a74:	00000017 	andeq	r0, r0, r7, lsl r0
 a78:	0001d76c 	andeq	sp, r1, ip, ror #14
 a7c:	00000017 	andeq	r0, r0, r7, lsl r0
 a80:	0001d770 	andeq	sp, r1, r0, ror r7
 a84:	00000017 	andeq	r0, r0, r7, lsl r0
 a88:	0001d774 	andeq	sp, r1, r4, ror r7
 a8c:	00000017 	andeq	r0, r0, r7, lsl r0
 a90:	0001d778 	andeq	sp, r1, r8, ror r7
 a94:	00000017 	andeq	r0, r0, r7, lsl r0
 a98:	0001d77c 	andeq	sp, r1, ip, ror r7
 a9c:	00000017 	andeq	r0, r0, r7, lsl r0
 aa0:	0001d780 	andeq	sp, r1, r0, lsl #15
 aa4:	00000017 	andeq	r0, r0, r7, lsl r0
 aa8:	0001d784 	andeq	sp, r1, r4, lsl #15
 aac:	00000017 	andeq	r0, r0, r7, lsl r0
 ab0:	0001d78c 	andeq	sp, r1, ip, lsl #15
 ab4:	00000017 	andeq	r0, r0, r7, lsl r0
 ab8:	0001d790 	muleq	r1, r0, r7
 abc:	00000017 	andeq	r0, r0, r7, lsl r0
 ac0:	0001d794 	muleq	r1, r4, r7
 ac4:	00000017 	andeq	r0, r0, r7, lsl r0
 ac8:	0001d798 	muleq	r1, r8, r7
 acc:	00000017 	andeq	r0, r0, r7, lsl r0
 ad0:	0001d79c 	muleq	r1, ip, r7
 ad4:	00000017 	andeq	r0, r0, r7, lsl r0
 ad8:	0001d7a0 	andeq	sp, r1, r0, lsr #15
 adc:	00000017 	andeq	r0, r0, r7, lsl r0
 ae0:	0001d7a4 	andeq	sp, r1, r4, lsr #15
 ae4:	00000017 	andeq	r0, r0, r7, lsl r0
 ae8:	0001d7ac 	andeq	sp, r1, ip, lsr #15
 aec:	00000017 	andeq	r0, r0, r7, lsl r0
 af0:	0001d7b0 	streqh	sp, [r1], -r0
 af4:	00000017 	andeq	r0, r0, r7, lsl r0
 af8:	0001d7b4 	streqh	sp, [r1], -r4
 afc:	00000017 	andeq	r0, r0, r7, lsl r0
 b00:	0001d7b8 	streqh	sp, [r1], -r8
 b04:	00000017 	andeq	r0, r0, r7, lsl r0
 b08:	0001d7bc 	streqh	sp, [r1], -ip
 b0c:	00000017 	andeq	r0, r0, r7, lsl r0
 b10:	0001d7c0 	andeq	sp, r1, r0, asr #15
 b14:	00000017 	andeq	r0, r0, r7, lsl r0
 b18:	0001d7c4 	andeq	sp, r1, r4, asr #15
 b1c:	00000017 	andeq	r0, r0, r7, lsl r0
 b20:	0001d7c8 	andeq	sp, r1, r8, asr #15
 b24:	00000017 	andeq	r0, r0, r7, lsl r0
 b28:	0001d7cc 	andeq	sp, r1, ip, asr #15
 b2c:	00000017 	andeq	r0, r0, r7, lsl r0
 b30:	0001d7d0 	ldreqd	sp, [r1], -r0
 b34:	00000017 	andeq	r0, r0, r7, lsl r0
 b38:	0001d7d4 	ldreqd	sp, [r1], -r4
 b3c:	00000017 	andeq	r0, r0, r7, lsl r0
 b40:	0001d7d8 	ldreqd	sp, [r1], -r8
 b44:	00000017 	andeq	r0, r0, r7, lsl r0
 b48:	0001d7dc 	ldreqd	sp, [r1], -ip
 b4c:	00000017 	andeq	r0, r0, r7, lsl r0
 b50:	0001d788 	andeq	sp, r1, r8, lsl #15
 b54:	00001d15 	andeq	r1, r0, r5, lsl sp
 b58:	0001d7a8 	andeq	sp, r1, r8, lsr #15
 b5c:	00002015 	andeq	r2, r0, r5, lsl r0
Disassembly of section .rel.plt:

00000b60 <.rel.plt>:
 b60:	0001d5a0 	andeq	sp, r1, r0, lsr #11
 b64:	00001416 	andeq	r1, r0, r6, lsl r4
 b68:	0001d5a4 	andeq	sp, r1, r4, lsr #11
 b6c:	00001716 	andeq	r1, r0, r6, lsl r7
 b70:	0001d5a8 	andeq	sp, r1, r8, lsr #11
 b74:	00001b16 	andeq	r1, r0, r6, lsl fp
 b78:	0001d5ac 	andeq	sp, r1, ip, lsr #11
 b7c:	00002316 	andeq	r2, r0, r6, lsl r3
Disassembly of section .plt:

00000b80 <.plt>:
 b80:	e52de004 	str	lr, [sp, #-4]!
 b84:	e59fe004 	ldr	lr, [pc, #4]	; b90 <GLIBC_2.0+0xb90>
 b88:	e08fe00e 	add	lr, pc, lr
 b8c:	e5bef008 	ldr	pc, [lr, #8]!
 b90:	0001ca04 	andeq	ip, r1, r4, lsl #20
 b94:	e28fc600 	add	ip, pc, #0	; 0x0
 b98:	e28cca1c 	add	ip, ip, #114688	; 0x1c000
 b9c:	e5bcfa04 	ldr	pc, [ip, #2564]!
 ba0:	e28fc600 	add	ip, pc, #0	; 0x0
 ba4:	e28cca1c 	add	ip, ip, #114688	; 0x1c000
 ba8:	e5bcf9fc 	ldr	pc, [ip, #2556]!
 bac:	e28fc600 	add	ip, pc, #0	; 0x0
 bb0:	e28cca1c 	add	ip, ip, #114688	; 0x1c000
 bb4:	e5bcf9f4 	ldr	pc, [ip, #2548]!
 bb8:	e28fc600 	add	ip, pc, #0	; 0x0
 bbc:	e28cca1c 	add	ip, ip, #114688	; 0x1c000
 bc0:	e5bcf9ec 	ldr	pc, [ip, #2540]!
Disassembly of section .text:

00000bd0 <_start>:
     bd0:	e59fa048 	ldr	sl, [pc, #72]	; c20 <.text+0x50>
     bd4:	e59f4048 	ldr	r4, [pc, #72]	; c24 <.text+0x54>
     bd8:	e1a0000d 	mov	r0, sp
     bdc:	eb000049 	bl	d08 <_dl_start>

00000be0 <_dl_start_user>:
     be0:	e08fa00a 	add	sl, pc, sl
     be4:	e79a4004 	ldr	r4, [sl, r4]
     be8:	e59d1000 	ldr	r1, [sp]
     bec:	e1a06000 	mov	r6, r0
     bf0:	e08dd104 	add	sp, sp, r4, lsl #2
     bf4:	e0411004 	sub	r1, r1, r4
     bf8:	e28d2004 	add	r2, sp, #4	; 0x4
     bfc:	e58d1000 	str	r1, [sp]
     c00:	e0823101 	add	r3, r2, r1, lsl #2
     c04:	e2833004 	add	r3, r3, #4	; 0x4
     c08:	e59f001c 	ldr	r0, [pc, #28]	; c2c <.text+0x5c>
     c0c:	e79a0000 	ldr	r0, [sl, r0]
     c10:	eb002c3c 	bl	bd08 <_dl_init>
     c14:	e59f000c 	ldr	r0, [pc, #12]	; c28 <.text+0x58>
     c18:	e08a0000 	add	r0, sl, r0
     c1c:	e1a0f006 	mov	pc, r6
     c20:	0001c9ac 	andeq	ip, r1, ip, lsr #19
     c24:	00000334 	andeq	r0, r0, r4, lsr r3
     c28:	fffeea98 	swinv	0x00feea98
     c2c:	fffffa6c 	swinv	0x00fffa6c

00000c30 <_dl_start_final>:
     c30:	e92d4c70 	stmdb	sp!, {r4, r5, r6, sl, fp, lr}
     c34:	e59fa0ac 	ldr	sl, [pc, #172]	; ce8 <.text+0x118>
     c38:	e08fa00a 	add	sl, pc, sl
     c3c:	e1a06000 	mov	r6, r0
     c40:	e1a05001 	mov	r5, r1
     c44:	e59f30a0 	ldr	r3, [pc, #160]	; cec <.text+0x11c>
     c48:	e79a4003 	ldr	r4, [sl, r3]
     c4c:	e5913000 	ldr	r3, [r1]
     c50:	e58431b8 	str	r3, [r4, #440]
     c54:	e5913008 	ldr	r3, [r1, #8]
     c58:	e58431c0 	str	r3, [r4, #448]
     c5c:	e2840f76 	add	r0, r4, #472	; 0x1d8
     c60:	e2811020 	add	r1, r1, #32	; 0x20
     c64:	e3a02f4b 	mov	r2, #300	; 0x12c
     c68:	eb004319 	bl	118d4 <memcpy>
     c6c:	e5953204 	ldr	r3, [r5, #516]
     c70:	e58433bc 	str	r3, [r4, #956]
     c74:	e2845f6e 	add	r5, r4, #440	; 0x1b8
     c78:	e1a00005 	mov	r0, r5
     c7c:	eb001e5d 	bl	85f8 <_dl_setup_hash>
     c80:	e58451cc 	str	r5, [r4, #460]
     c84:	e59f3064 	ldr	r3, [pc, #100]	; cf0 <.text+0x120>
     c88:	e79a3003 	ldr	r3, [sl, r3]
     c8c:	e5843358 	str	r3, [r4, #856]
     c90:	e59f305c 	ldr	r3, [pc, #92]	; cf4 <.text+0x124>
     c94:	e79a3003 	ldr	r3, [sl, r3]
     c98:	e584335c 	str	r3, [r4, #860]
     c9c:	e59f3054 	ldr	r3, [pc, #84]	; cf8 <.text+0x128>
     ca0:	e79a3003 	ldr	r3, [sl, r3]
     ca4:	e5843360 	str	r3, [r4, #864]
     ca8:	e59f304c 	ldr	r3, [pc, #76]	; cfc <.text+0x12c>
     cac:	e79a3003 	ldr	r3, [sl, r3]
     cb0:	e583b000 	str	fp, [r3]
     cb4:	e1a00006 	mov	r0, r6
     cb8:	e59f3040 	ldr	r3, [pc, #64]	; d00 <.text+0x130>
     cbc:	e79a1003 	ldr	r1, [sl, r3]
     cc0:	eb0036cd 	bl	e7fc <_dl_sysdep_start>
     cc4:	e1a04000 	mov	r4, r0
     cc8:	e59f3034 	ldr	r3, [pc, #52]	; d04 <.text+0x134>
     ccc:	e79a3003 	ldr	r3, [sl, r3]
     cd0:	e5933000 	ldr	r3, [r3]
     cd4:	e3130080 	tst	r3, #128	; 0x80
     cd8:	13a00000 	movne	r0, #0	; 0x0
     cdc:	1b000c68 	blne	3e84 <print_statistics>
     ce0:	e1a00004 	mov	r0, r4
     ce4:	e8bd8c70 	ldmia	sp!, {r4, r5, r6, sl, fp, pc}
     ce8:	0001c954 	andeq	ip, r1, r4, asr r9
     cec:	0000023c 	andeq	r0, r0, ip, lsr r2
     cf0:	00000240 	andeq	r0, r0, r0, asr #4
     cf4:	00000228 	andeq	r0, r0, r8, lsr #4
     cf8:	00000204 	andeq	r0, r0, r4, lsl #4
     cfc:	00000230 	andeq	r0, r0, r0, lsr r2
     d00:	00000020 	andeq	r0, r0, r0, lsr #32
     d04:	00000210 	andeq	r0, r0, r0, lsl r2

00000d08 <_dl_start>:
     d08:	e92d4ff0 	stmdb	sp!, {r4, r5, r6, r7, r8, r9, sl, fp, lr}
     d0c:	e24dde26 	sub	sp, sp, #608	; 0x260
     d10:	e59fa910 	ldr	sl, [pc, #2320]	; 1628 <.text+0xa58>
     d14:	e08fa00a 	add	sl, pc, sl
     d18:	e58d0024 	str	r0, [sp, #36]
     d1c:	e3a02000 	mov	r2, #0	; 0x0
     d20:	e1a01002 	mov	r1, r2
     d24:	e28d0e26 	add	r0, sp, #608	; 0x260
     d28:	e0803102 	add	r3, r0, r2, lsl #2
     d2c:	e5031200 	str	r1, [r3, #-512]
     d30:	e2822001 	add	r2, r2, #1	; 0x1
     d34:	e352004a 	cmp	r2, #74	; 0x4a
     d38:	9afffff9 	bls	d24 <_dl_start+0x1c>
     d3c:	e24f203c 	sub	r2, pc, #60	; 0x3c
     d40:	e59f38e4 	ldr	r3, [pc, #2276]	; 162c <.text+0xa5c>
     d44:	e79a3003 	ldr	r3, [sl, r3]
     d48:	e0632002 	rsb	r2, r3, r2
     d4c:	e58d2040 	str	r2, [sp, #64]
     d50:	e59a1000 	ldr	r1, [sl]
     d54:	e0813002 	add	r3, r1, r2
     d58:	e58d3048 	str	r3, [sp, #72]
     d5c:	e3a0e000 	mov	lr, #0	; 0x0
     d60:	e1a00003 	mov	r0, r3
     d64:	e28dc060 	add	ip, sp, #96	; 0x60
     d68:	e7913002 	ldr	r3, [r1, r2]
     d6c:	e153000e 	cmp	r3, lr
     d70:	0a000030 	beq	e38 <_dl_start+0x130>
     d74:	e5903000 	ldr	r3, [r0]
     d78:	e3530021 	cmp	r3, #33	; 0x21
     d7c:	d78c0103 	strle	r0, [ip, r3, lsl #2]
     d80:	da000029 	ble	e2c <_dl_start+0x124>
     d84:	e5902000 	ldr	r2, [r0]
     d88:	e262346f 	rsb	r3, r2, #1862270976	; 0x6f000000
     d8c:	e28338ff 	add	r3, r3, #16711680	; 0xff0000
     d90:	e2833cff 	add	r3, r3, #65280	; 0xff00
     d94:	e28330ff 	add	r3, r3, #255	; 0xff
     d98:	e353000f 	cmp	r3, #15	; 0xf
     d9c:	92623207 	rsbls	r3, r2, #1879048192	; 0x70000000
     da0:	92833021 	addls	r3, r3, #33	; 0x21
     da4:	978c0103 	strls	r0, [ip, r3, lsl #2]
     da8:	9a00001f 	bls	e2c <_dl_start+0x124>
     dac:	e5903000 	ldr	r3, [r0]
     db0:	e1a03083 	mov	r3, r3, lsl #1
     db4:	e1a020c3 	mov	r2, r3, asr #1
     db8:	e1e03002 	mvn	r3, r2
     dbc:	e3530002 	cmp	r3, #2	; 0x2
     dc0:	92623031 	rsbls	r3, r2, #49	; 0x31
     dc4:	978c0103 	strls	r0, [ip, r3, lsl #2]
     dc8:	9a000017 	bls	e2c <_dl_start+0x124>
     dcc:	e5902000 	ldr	r2, [r0]
     dd0:	e262346f 	rsb	r3, r2, #1862270976	; 0x6f000000
     dd4:	e28338ff 	add	r3, r3, #16711680	; 0xff0000
     dd8:	e2833cfd 	add	r3, r3, #64768	; 0xfd00
     ddc:	e28330ff 	add	r3, r3, #255	; 0xff
     de0:	e353000b 	cmp	r3, #11	; 0xb
     de4:	8a000005 	bhi	e00 <_dl_start+0xf8>
     de8:	e262346f 	rsb	r3, r2, #1862270976	; 0x6f000000
     dec:	e28338ff 	add	r3, r3, #16711680	; 0xff0000
     df0:	e2833cfe 	add	r3, r3, #65024	; 0xfe00
     df4:	e2833034 	add	r3, r3, #52	; 0x34
     df8:	e78c0103 	str	r0, [ip, r3, lsl #2]
     dfc:	ea00000a 	b	e2c <_dl_start+0x124>
     e00:	e5902000 	ldr	r2, [r0]
     e04:	e262346f 	rsb	r3, r2, #1862270976	; 0x6f000000
     e08:	e28338ff 	add	r3, r3, #16711680	; 0xff0000
     e0c:	e2833cfe 	add	r3, r3, #65024	; 0xfe00
     e10:	e28330ff 	add	r3, r3, #255	; 0xff
     e14:	e3530009 	cmp	r3, #9	; 0x9
     e18:	9262346f 	rsbls	r3, r2, #1862270976	; 0x6f000000
     e1c:	928338ff 	addls	r3, r3, #16711680	; 0xff0000
     e20:	92833cff 	addls	r3, r3, #65280	; 0xff00
     e24:	92833040 	addls	r3, r3, #64	; 0x40
     e28:	978c0103 	strls	r0, [ip, r3, lsl #2]
     e2c:	e5b03008 	ldr	r3, [r0, #8]!
     e30:	e3530000 	cmp	r3, #0	; 0x0
     e34:	1affffce 	bne	d74 <_dl_start+0x6c>
     e38:	e59d3040 	ldr	r3, [sp, #64]
     e3c:	e3530000 	cmp	r3, #0	; 0x0
     e40:	0a00008e 	beq	1080 <_dl_start+0x378>
     e44:	e1a04003 	mov	r4, r3
     e48:	e3a00000 	mov	r0, #0	; 0x0
     e4c:	e59c3010 	ldr	r3, [ip, #16]
     e50:	e1530000 	cmp	r3, r0
     e54:	0a00000d 	beq	e90 <_dl_start+0x188>
     e58:	e15e0000 	cmp	lr, r0
     e5c:	059c2010 	ldreq	r2, [ip, #16]
     e60:	05923004 	ldreq	r3, [r2, #4]
     e64:	00843003 	addeq	r3, r4, r3
     e68:	05823004 	streq	r3, [r2, #4]
     e6c:	0a000007 	beq	e90 <_dl_start+0x188>
     e70:	e5933000 	ldr	r3, [r3]
     e74:	e58e3000 	str	r3, [lr]
     e78:	e59c3010 	ldr	r3, [ip, #16]
     e7c:	e5933004 	ldr	r3, [r3, #4]
     e80:	e0843003 	add	r3, r4, r3
     e84:	e58e3004 	str	r3, [lr, #4]
     e88:	e2800001 	add	r0, r0, #1	; 0x1
     e8c:	e58ce010 	str	lr, [ip, #16]
     e90:	e59c300c 	ldr	r3, [ip, #12]
     e94:	e3530000 	cmp	r3, #0	; 0x0
     e98:	0a00000f 	beq	edc <_dl_start+0x1d4>
     e9c:	e35e0000 	cmp	lr, #0	; 0x0
     ea0:	059c200c 	ldreq	r2, [ip, #12]
     ea4:	05923004 	ldreq	r3, [r2, #4]
     ea8:	00843003 	addeq	r3, r4, r3
     eac:	05823004 	streq	r3, [r2, #4]
     eb0:	0a000009 	beq	edc <_dl_start+0x1d4>
     eb4:	e1a02180 	mov	r2, r0, lsl #3
     eb8:	e082100e 	add	r1, r2, lr
     ebc:	e5933000 	ldr	r3, [r3]
     ec0:	e782300e 	str	r3, [r2, lr]
     ec4:	e59c300c 	ldr	r3, [ip, #12]
     ec8:	e5933004 	ldr	r3, [r3, #4]
     ecc:	e0843003 	add	r3, r4, r3
     ed0:	e5813004 	str	r3, [r1, #4]
     ed4:	e2800001 	add	r0, r0, #1	; 0x1
     ed8:	e58c100c 	str	r1, [ip, #12]
     edc:	e59c3014 	ldr	r3, [ip, #20]
     ee0:	e3530000 	cmp	r3, #0	; 0x0
     ee4:	0a00000f 	beq	f28 <_dl_start+0x220>
     ee8:	e35e0000 	cmp	lr, #0	; 0x0
     eec:	059c2014 	ldreq	r2, [ip, #20]
     ef0:	05923004 	ldreq	r3, [r2, #4]
     ef4:	00843003 	addeq	r3, r4, r3
     ef8:	05823004 	streq	r3, [r2, #4]
     efc:	0a000009 	beq	f28 <_dl_start+0x220>
     f00:	e1a02180 	mov	r2, r0, lsl #3
     f04:	e082100e 	add	r1, r2, lr
     f08:	e5933000 	ldr	r3, [r3]
     f0c:	e782300e 	str	r3, [r2, lr]
     f10:	e59c3014 	ldr	r3, [ip, #20]
     f14:	e5933004 	ldr	r3, [r3, #4]
     f18:	e0843003 	add	r3, r4, r3
     f1c:	e5813004 	str	r3, [r1, #4]
     f20:	e2800001 	add	r0, r0, #1	; 0x1
     f24:	e58c1014 	str	r1, [ip, #20]
     f28:	e59c3018 	ldr	r3, [ip, #24]
     f2c:	e3530000 	cmp	r3, #0	; 0x0
     f30:	0a00000f 	beq	f74 <_dl_start+0x26c>
     f34:	e35e0000 	cmp	lr, #0	; 0x0
     f38:	059c2018 	ldreq	r2, [ip, #24]
     f3c:	05923004 	ldreq	r3, [r2, #4]
     f40:	00843003 	addeq	r3, r4, r3
     f44:	05823004 	streq	r3, [r2, #4]
     f48:	0a000009 	beq	f74 <_dl_start+0x26c>
     f4c:	e1a02180 	mov	r2, r0, lsl #3
     f50:	e082100e 	add	r1, r2, lr
     f54:	e5933000 	ldr	r3, [r3]
     f58:	e782300e 	str	r3, [r2, lr]
     f5c:	e59c3018 	ldr	r3, [ip, #24]
     f60:	e5933004 	ldr	r3, [r3, #4]
     f64:	e0843003 	add	r3, r4, r3
     f68:	e5813004 	str	r3, [r1, #4]
     f6c:	e2800001 	add	r0, r0, #1	; 0x1
     f70:	e58c1018 	str	r1, [ip, #24]
     f74:	e59c3044 	ldr	r3, [ip, #68]
     f78:	e3530000 	cmp	r3, #0	; 0x0
     f7c:	0a00000f 	beq	fc0 <_dl_start+0x2b8>
     f80:	e35e0000 	cmp	lr, #0	; 0x0
     f84:	059c2044 	ldreq	r2, [ip, #68]
     f88:	05923004 	ldreq	r3, [r2, #4]
     f8c:	00843003 	addeq	r3, r4, r3
     f90:	05823004 	streq	r3, [r2, #4]
     f94:	0a000009 	beq	fc0 <_dl_start+0x2b8>
     f98:	e1a02180 	mov	r2, r0, lsl #3
     f9c:	e082100e 	add	r1, r2, lr
     fa0:	e5933000 	ldr	r3, [r3]
     fa4:	e782300e 	str	r3, [r2, lr]
     fa8:	e59c3044 	ldr	r3, [ip, #68]
     fac:	e5933004 	ldr	r3, [r3, #4]
     fb0:	e0843003 	add	r3, r4, r3
     fb4:	e5813004 	str	r3, [r1, #4]
     fb8:	e2800001 	add	r0, r0, #1	; 0x1
     fbc:	e58c1044 	str	r1, [ip, #68]
     fc0:	e59c305c 	ldr	r3, [ip, #92]
     fc4:	e3530000 	cmp	r3, #0	; 0x0
     fc8:	0a00000f 	beq	100c <_dl_start+0x304>
     fcc:	e35e0000 	cmp	lr, #0	; 0x0
     fd0:	059c205c 	ldreq	r2, [ip, #92]
     fd4:	05923004 	ldreq	r3, [r2, #4]
     fd8:	00843003 	addeq	r3, r4, r3
     fdc:	05823004 	streq	r3, [r2, #4]
     fe0:	0a000009 	beq	100c <_dl_start+0x304>
     fe4:	e1a02180 	mov	r2, r0, lsl #3
     fe8:	e082100e 	add	r1, r2, lr
     fec:	e5933000 	ldr	r3, [r3]
     ff0:	e782300e 	str	r3, [r2, lr]
     ff4:	e59c305c 	ldr	r3, [ip, #92]
     ff8:	e5933004 	ldr	r3, [r3, #4]
     ffc:	e0843003 	add	r3, r4, r3
    1000:	e5813004 	str	r3, [r1, #4]
    1004:	e2800001 	add	r0, r0, #1	; 0x1
    1008:	e58c105c 	str	r1, [ip, #92]
    100c:	e59c30c4 	ldr	r3, [ip, #196]
    1010:	e3530000 	cmp	r3, #0	; 0x0
    1014:	0a00000f 	beq	1058 <_dl_start+0x350>
    1018:	e35e0000 	cmp	lr, #0	; 0x0
    101c:	059c20c4 	ldreq	r2, [ip, #196]
    1020:	05923004 	ldreq	r3, [r2, #4]
    1024:	00843003 	addeq	r3, r4, r3
    1028:	05823004 	streq	r3, [r2, #4]
    102c:	0a000009 	beq	1058 <_dl_start+0x350>
    1030:	e1a02180 	mov	r2, r0, lsl #3
    1034:	e082100e 	add	r1, r2, lr
    1038:	e5933000 	ldr	r3, [r3]
    103c:	e782300e 	str	r3, [r2, lr]
    1040:	e59c30c4 	ldr	r3, [ip, #196]
    1044:	e5933004 	ldr	r3, [r3, #4]
    1048:	e0843003 	add	r3, r4, r3
    104c:	e5813004 	str	r3, [r1, #4]
    1050:	e2800001 	add	r0, r0, #1	; 0x1
    1054:	e58c10c4 	str	r1, [ip, #196]
    1058:	e3500008 	cmp	r0, #8	; 0x8
    105c:	da000007 	ble	1080 <_dl_start+0x378>
    1060:	e59f05c8 	ldr	r0, [pc, #1480]	; 1630 <.text+0xa60>
    1064:	e08a0000 	add	r0, sl, r0
    1068:	e59f15c4 	ldr	r1, [pc, #1476]	; 1634 <.text+0xa64>
    106c:	e08a1001 	add	r1, sl, r1
    1070:	e3a0206a 	mov	r2, #106	; 0x6a
    1074:	e59f35bc 	ldr	r3, [pc, #1468]	; 1638 <.text+0xa68>
    1078:	e79a3003 	ldr	r3, [sl, r3]
    107c:	eb0039cf 	bl	f7c0 <__GI___assert_fail>
    1080:	e59c3050 	ldr	r3, [ip, #80]
    1084:	e3530000 	cmp	r3, #0	; 0x0
    1088:	0a00000a 	beq	10b8 <_dl_start+0x3b0>
    108c:	e5933004 	ldr	r3, [r3, #4]
    1090:	e3530011 	cmp	r3, #17	; 0x11
    1094:	0a000007 	beq	10b8 <_dl_start+0x3b0>
    1098:	e59f059c 	ldr	r0, [pc, #1436]	; 163c <.text+0xa6c>
    109c:	e08a0000 	add	r0, sl, r0
    10a0:	e59f158c 	ldr	r1, [pc, #1420]	; 1634 <.text+0xa64>
    10a4:	e08a1001 	add	r1, sl, r1
    10a8:	e3a02070 	mov	r2, #112	; 0x70
    10ac:	e59f3584 	ldr	r3, [pc, #1412]	; 1638 <.text+0xa68>
    10b0:	e79a3003 	ldr	r3, [sl, r3]
    10b4:	eb0039c1 	bl	f7c0 <__GI___assert_fail>
    10b8:	e59c3044 	ldr	r3, [ip, #68]
    10bc:	e3530000 	cmp	r3, #0	; 0x0
    10c0:	0a00000b 	beq	10f4 <_dl_start+0x3ec>
    10c4:	e59c304c 	ldr	r3, [ip, #76]
    10c8:	e5933004 	ldr	r3, [r3, #4]
    10cc:	e3530008 	cmp	r3, #8	; 0x8
    10d0:	0a000007 	beq	10f4 <_dl_start+0x3ec>
    10d4:	e59f0564 	ldr	r0, [pc, #1380]	; 1640 <.text+0xa70>
    10d8:	e08a0000 	add	r0, sl, r0
    10dc:	e59f1550 	ldr	r1, [pc, #1360]	; 1634 <.text+0xa64>
    10e0:	e08a1001 	add	r1, sl, r1
    10e4:	e3a0207e 	mov	r2, #126	; 0x7e
    10e8:	e59f3548 	ldr	r3, [pc, #1352]	; 1638 <.text+0xa68>
    10ec:	e79a3003 	ldr	r3, [sl, r3]
    10f0:	eb0039b2 	bl	f7c0 <__GI___assert_fail>
    10f4:	e59c3098 	ldr	r3, [ip, #152]
    10f8:	e3530000 	cmp	r3, #0	; 0x0
    10fc:	0a00000a 	beq	112c <_dl_start+0x424>
    1100:	e5933004 	ldr	r3, [r3, #4]
    1104:	e3530001 	cmp	r3, #1	; 0x1
    1108:	0a000007 	beq	112c <_dl_start+0x424>
    110c:	e59f0530 	ldr	r0, [pc, #1328]	; 1644 <.text+0xa74>
    1110:	e08a0000 	add	r0, sl, r0
    1114:	e59f1518 	ldr	r1, [pc, #1304]	; 1634 <.text+0xa64>
    1118:	e08a1001 	add	r1, sl, r1
    111c:	e3a02083 	mov	r2, #131	; 0x83
    1120:	e59f3510 	ldr	r3, [pc, #1296]	; 1638 <.text+0xa68>
    1124:	e79a3003 	ldr	r3, [sl, r3]
    1128:	eb0039a4 	bl	f7c0 <__GI___assert_fail>
    112c:	e59c3078 	ldr	r3, [ip, #120]
    1130:	e3530000 	cmp	r3, #0	; 0x0
    1134:	0a00000a 	beq	1164 <_dl_start+0x45c>
    1138:	e5933004 	ldr	r3, [r3, #4]
    113c:	e3530008 	cmp	r3, #8	; 0x8
    1140:	0a000007 	beq	1164 <_dl_start+0x45c>
    1144:	e59f04fc 	ldr	r0, [pc, #1276]	; 1648 <.text+0xa78>
    1148:	e08a0000 	add	r0, sl, r0
    114c:	e59f14e0 	ldr	r1, [pc, #1248]	; 1634 <.text+0xa64>
    1150:	e08a1001 	add	r1, sl, r1
    1154:	e3a02085 	mov	r2, #133	; 0x85
    1158:	e59f34d8 	ldr	r3, [pc, #1240]	; 1638 <.text+0xa68>
    115c:	e79a3003 	ldr	r3, [sl, r3]
    1160:	eb003996 	bl	f7c0 <__GI___assert_fail>
    1164:	e59c3074 	ldr	r3, [ip, #116]
    1168:	e3530000 	cmp	r3, #0	; 0x0
    116c:	0a000007 	beq	1190 <_dl_start+0x488>
    1170:	e59f04d4 	ldr	r0, [pc, #1236]	; 164c <.text+0xa7c>
    1174:	e08a0000 	add	r0, sl, r0
    1178:	e59f14b4 	ldr	r1, [pc, #1204]	; 1634 <.text+0xa64>
    117c:	e08a1001 	add	r1, sl, r1
    1180:	e3a02087 	mov	r2, #135	; 0x87
    1184:	e59f34ac 	ldr	r3, [pc, #1196]	; 1638 <.text+0xa68>
    1188:	e79a3003 	ldr	r3, [sl, r3]
    118c:	eb00398b 	bl	f7c0 <__GI___assert_fail>
    1190:	e59c303c 	ldr	r3, [ip, #60]
    1194:	e3530000 	cmp	r3, #0	; 0x0
    1198:	0a000007 	beq	11bc <_dl_start+0x4b4>
    119c:	e59f04ac 	ldr	r0, [pc, #1196]	; 1650 <.text+0xa80>
    11a0:	e08a0000 	add	r0, sl, r0
    11a4:	e59f1488 	ldr	r1, [pc, #1160]	; 1634 <.text+0xa64>
    11a8:	e08a1001 	add	r1, sl, r1
    11ac:	e3a02088 	mov	r2, #136	; 0x88
    11b0:	e59f3480 	ldr	r3, [pc, #1152]	; 1638 <.text+0xa68>
    11b4:	e79a3003 	ldr	r3, [sl, r3]
    11b8:	eb003980 	bl	f7c0 <__GI___assert_fail>
    11bc:	e59d3040 	ldr	r3, [sp, #64]
    11c0:	e3530000 	cmp	r3, #0	; 0x0
    11c4:	1a000002 	bne	11d4 <_dl_start+0x4cc>
    11c8:	e59d315c 	ldr	r3, [sp, #348]
    11cc:	e3530000 	cmp	r3, #0	; 0x0
    11d0:	1a00010f 	bne	1614 <_dl_start+0x90c>
    11d4:	e3a03000 	mov	r3, #0	; 0x0
    11d8:	e58d3030 	str	r3, [sp, #48]
    11dc:	e58d3038 	str	r3, [sp, #56]
    11e0:	e58d302c 	str	r3, [sp, #44]
    11e4:	e58d3028 	str	r3, [sp, #40]
    11e8:	e59d30a4 	ldr	r3, [sp, #164]
    11ec:	e3530000 	cmp	r3, #0	; 0x0
    11f0:	15933004 	ldrne	r3, [r3, #4]
    11f4:	158d3028 	strne	r3, [sp, #40]
    11f8:	159d30a8 	ldrne	r3, [sp, #168]
    11fc:	15933004 	ldrne	r3, [r3, #4]
    1200:	158d302c 	strne	r3, [sp, #44]
    1204:	e59d30b0 	ldr	r3, [sp, #176]
    1208:	e3530000 	cmp	r3, #0	; 0x0
    120c:	0a000014 	beq	1264 <_dl_start+0x55c>
    1210:	e59d30bc 	ldr	r3, [sp, #188]
    1214:	e5931004 	ldr	r1, [r3, #4]
    1218:	e59d3028 	ldr	r3, [sp, #40]
    121c:	e59d202c 	ldr	r2, [sp, #44]
    1220:	e0833002 	add	r3, r3, r2
    1224:	e1530001 	cmp	r3, r1
    1228:	0a000008 	beq	1250 <_dl_start+0x548>
    122c:	e59f0420 	ldr	r0, [pc, #1056]	; 1654 <.text+0xa84>
    1230:	e08a0000 	add	r0, sl, r0
    1234:	e59f141c 	ldr	r1, [pc, #1052]	; 1658 <.text+0xa88>
    1238:	e08a1001 	add	r1, sl, r1
    123c:	e3a02c02 	mov	r2, #512	; 0x200
    1240:	e2822003 	add	r2, r2, #3	; 0x3
    1244:	e59f3410 	ldr	r3, [pc, #1040]	; 165c <.text+0xa8c>
    1248:	e79a3003 	ldr	r3, [sl, r3]
    124c:	eb00395b 	bl	f7c0 <__GI___assert_fail>
    1250:	e59d3068 	ldr	r3, [sp, #104]
    1254:	e5932004 	ldr	r2, [r3, #4]
    1258:	e59d302c 	ldr	r3, [sp, #44]
    125c:	e0833002 	add	r3, r3, r2
    1260:	e58d302c 	str	r3, [sp, #44]
    1264:	e28d0040 	add	r0, sp, #64	; 0x40
    1268:	e28d5028 	add	r5, sp, #40	; 0x28
    126c:	e8951020 	ldmia	r5, {r5, ip}
    1270:	e085100c 	add	r1, r5, ip
    1274:	e58d1020 	str	r1, [sp, #32]
    1278:	e59d9040 	ldr	r9, [sp, #64]
    127c:	e59d3078 	ldr	r3, [sp, #120]
    1280:	e5933004 	ldr	r3, [r3, #4]
    1284:	e58d301c 	str	r3, [sp, #28]
    1288:	e59d30fc 	ldr	r3, [sp, #252]
    128c:	e3530000 	cmp	r3, #0	; 0x0
    1290:	15932004 	ldrne	r2, [r3, #4]
    1294:	03a02000 	moveq	r2, #0	; 0x0
    1298:	e1a01005 	mov	r1, r5
    129c:	e1a031ac 	mov	r3, ip, lsr #3
    12a0:	e1530002 	cmp	r3, r2
    12a4:	21a03002 	movcs	r3, r2
    12a8:	e0855183 	add	r5, r5, r3, lsl #3
    12ac:	e1510005 	cmp	r1, r5
    12b0:	2a000005 	bcs	12cc <_dl_start+0x5c4>
    12b4:	e4912008 	ldr	r2, [r1], #8
    12b8:	e7993002 	ldr	r3, [r9, r2]
    12bc:	e0893003 	add	r3, r9, r3
    12c0:	e7893002 	str	r3, [r9, r2]
    12c4:	e1510005 	cmp	r1, r5
    12c8:	3afffff9 	bcc	12b4 <_dl_start+0x5ac>
    12cc:	e59030e4 	ldr	r3, [r0, #228]
    12d0:	e3530000 	cmp	r3, #0	; 0x0
    12d4:	1a000007 	bne	12f8 <_dl_start+0x5f0>
    12d8:	e59f0380 	ldr	r0, [pc, #896]	; 1660 <.text+0xa90>
    12dc:	e08a0000 	add	r0, sl, r0
    12e0:	e59f137c 	ldr	r1, [pc, #892]	; 1664 <.text+0xa94>
    12e4:	e08a1001 	add	r1, sl, r1
    12e8:	e3a0206d 	mov	r2, #109	; 0x6d
    12ec:	e59f3374 	ldr	r3, [pc, #884]	; 1668 <.text+0xa98>
    12f0:	e79a3003 	ldr	r3, [sl, r3]
    12f4:	eb003931 	bl	f7c0 <__GI___assert_fail>
    12f8:	e59d2020 	ldr	r2, [sp, #32]
    12fc:	e1550002 	cmp	r5, r2
    1300:	2a0000c3 	bcs	1614 <_dl_start+0x90c>
    1304:	e58d0018 	str	r0, [sp, #24]
    1308:	e59f335c 	ldr	r3, [pc, #860]	; 166c <.text+0xa9c>
    130c:	e79a3003 	ldr	r3, [sl, r3]
    1310:	e58d3014 	str	r3, [sp, #20]
    1314:	e59f3354 	ldr	r3, [pc, #852]	; 1670 <.text+0xaa0>
    1318:	e79a3003 	ldr	r3, [sl, r3]
    131c:	e58d300c 	str	r3, [sp, #12]
    1320:	e59f3348 	ldr	r3, [pc, #840]	; 1670 <.text+0xaa0>
    1324:	e79a3003 	ldr	r3, [sl, r3]
    1328:	e58d3010 	str	r3, [sp, #16]
    132c:	e59f3338 	ldr	r3, [pc, #824]	; 166c <.text+0xa9c>
    1330:	e79a3003 	ldr	r3, [sl, r3]
    1334:	e58d3008 	str	r3, [sp, #8]
    1338:	e5953004 	ldr	r3, [r5, #4]
    133c:	e1a03423 	mov	r3, r3, lsr #8
    1340:	e59d001c 	ldr	r0, [sp, #28]
    1344:	e0804203 	add	r4, r0, r3, lsl #4
    1348:	e5953000 	ldr	r3, [r5]
    134c:	e0898003 	add	r8, r9, r3
    1350:	e1a0b008 	mov	fp, r8
    1354:	e5d51004 	ldrb	r1, [r5, #4]
    1358:	e1a07004 	mov	r7, r4
    135c:	e5d4200e 	ldrb	r2, [r4, #14]
    1360:	e5d4300f 	ldrb	r3, [r4, #15]
    1364:	e1922403 	orrs	r2, r2, r3, lsl #8
    1368:	159d6040 	ldrne	r6, [sp, #64]
    136c:	03a06000 	moveq	r6, #0	; 0x0
    1370:	e2543000 	subs	r3, r4, #0	; 0x0
    1374:	15933004 	ldrne	r3, [r3, #4]
    1378:	10866003 	addne	r6, r6, r3
    137c:	e2413001 	sub	r3, r1, #1	; 0x1
    1380:	e3530015 	cmp	r3, #21	; 0x15
    1384:	908ff103 	addls	pc, pc, r3, lsl #2
    1388:	ea00009a 	b	15f8 <_dl_start+0x8f0>
    138c:	ea000045 	b	14a8 <_dl_start+0x7a0>
    1390:	ea000040 	b	1498 <_dl_start+0x790>
    1394:	ea000097 	b	15f8 <_dl_start+0x8f0>
    1398:	ea000096 	b	15f8 <_dl_start+0x8f0>
    139c:	ea000095 	b	15f8 <_dl_start+0x8f0>
    13a0:	ea000094 	b	15f8 <_dl_start+0x8f0>
    13a4:	ea000093 	b	15f8 <_dl_start+0x8f0>
    13a8:	ea000092 	b	15f8 <_dl_start+0x8f0>
    13ac:	ea000091 	b	15f8 <_dl_start+0x8f0>
    13b0:	ea000090 	b	15f8 <_dl_start+0x8f0>
    13b4:	ea00008f 	b	15f8 <_dl_start+0x8f0>
    13b8:	ea00008e 	b	15f8 <_dl_start+0x8f0>
    13bc:	ea00008d 	b	15f8 <_dl_start+0x8f0>
    13c0:	ea00008c 	b	15f8 <_dl_start+0x8f0>
    13c4:	ea00008b 	b	15f8 <_dl_start+0x8f0>
    13c8:	ea00008a 	b	15f8 <_dl_start+0x8f0>
    13cc:	ea000089 	b	15f8 <_dl_start+0x8f0>
    13d0:	ea000088 	b	15f8 <_dl_start+0x8f0>
    13d4:	ea000087 	b	15f8 <_dl_start+0x8f0>
    13d8:	ea000001 	b	13e4 <_dl_start+0x6dc>
    13dc:	ea000025 	b	1478 <_dl_start+0x770>
    13e0:	ea000024 	b	1478 <_dl_start+0x770>
    13e4:	e2543000 	subs	r3, r4, #0	; 0x0
    13e8:	0a000085 	beq	1604 <_dl_start+0x8fc>
    13ec:	e5932008 	ldr	r2, [r3, #8]
    13f0:	e5941008 	ldr	r1, [r4, #8]
    13f4:	e1520001 	cmp	r2, r1
    13f8:	8a000006 	bhi	1418 <_dl_start+0x710>
    13fc:	e59f3270 	ldr	r3, [pc, #624]	; 1674 <.text+0xaa4>
    1400:	e79a3003 	ldr	r3, [sl, r3]
    1404:	e5933020 	ldr	r3, [r3, #32]
    1408:	e3530000 	cmp	r3, #0	; 0x0
    140c:	0a000011 	beq	1458 <_dl_start+0x750>
    1410:	e1520001 	cmp	r2, r1
    1414:	2a00000f 	bcs	1458 <_dl_start+0x750>
    1418:	e59d1018 	ldr	r1, [sp, #24]
    141c:	e5913034 	ldr	r3, [r1, #52]
    1420:	e593c004 	ldr	ip, [r3, #4]
    1424:	e59f324c 	ldr	r3, [pc, #588]	; 1678 <.text+0xaa8>
    1428:	e79a3003 	ldr	r3, [sl, r3]
    142c:	e5933000 	ldr	r3, [r3]
    1430:	e5932000 	ldr	r2, [r3]
    1434:	e3520000 	cmp	r2, #0	; 0x0
    1438:	059f323c 	ldreq	r3, [pc, #572]	; 167c <.text+0xaac>
    143c:	008a2003 	addeq	r2, sl, r3
    1440:	e5973000 	ldr	r3, [r7]
    1444:	e3a00002 	mov	r0, #2	; 0x2
    1448:	e59f1230 	ldr	r1, [pc, #560]	; 1680 <.text+0xab0>
    144c:	e08a1001 	add	r1, sl, r1
    1450:	e08c3003 	add	r3, ip, r3
    1454:	eb002d24 	bl	c8ec <_dl_dprintf>
    1458:	e5973008 	ldr	r3, [r7, #8]
    145c:	e5942008 	ldr	r2, [r4, #8]
    1460:	e1a0000b 	mov	r0, fp
    1464:	e1a01006 	mov	r1, r6
    1468:	e1530002 	cmp	r3, r2
    146c:	31a02003 	movcc	r2, r3
    1470:	eb004117 	bl	118d4 <memcpy>
    1474:	ea000062 	b	1604 <_dl_start+0x8fc>
    1478:	e2543000 	subs	r3, r4, #0	; 0x0
    147c:	0a000003 	beq	1490 <_dl_start+0x788>
    1480:	e5933004 	ldr	r3, [r3, #4]
    1484:	e3530000 	cmp	r3, #0	; 0x0
    1488:	05883000 	streq	r3, [r8]
    148c:	0a00005c 	beq	1604 <_dl_start+0x8fc>
    1490:	e5886000 	str	r6, [r8]
    1494:	ea00005a 	b	1604 <_dl_start+0x8fc>
    1498:	e5983000 	ldr	r3, [r8]
    149c:	e0863003 	add	r3, r6, r3
    14a0:	e5883000 	str	r3, [r8]
    14a4:	ea000056 	b	1604 <_dl_start+0x8fc>
    14a8:	e5983000 	ldr	r3, [r8]
    14ac:	e3c374ff 	bic	r7, r3, #-16777216	; 0xff000000
    14b0:	e3130502 	tst	r3, #8388608	; 0x800000
    14b4:	138774ff 	orrne	r7, r7, #-16777216	; 0xff000000
    14b8:	e0680006 	rsb	r0, r8, r6
    14bc:	e0800107 	add	r0, r0, r7, lsl #2
    14c0:	e20034fe 	and	r3, r0, #-33554432	; 0xfe000000
    14c4:	e35304fe 	cmp	r3, #-33554432	; 0xfe000000
    14c8:	13530000 	cmpne	r3, #0	; 0x0
    14cc:	0a000043 	beq	15e0 <_dl_start+0x8d8>
    14d0:	e59d2014 	ldr	r2, [sp, #20]
    14d4:	e5923000 	ldr	r3, [r2]
    14d8:	e3530000 	cmp	r3, #0	; 0x0
    14dc:	1a00001f 	bne	1560 <_dl_start+0x858>
    14e0:	e59d400c 	ldr	r4, [sp, #12]
    14e4:	e5943000 	ldr	r3, [r4]
    14e8:	e3530000 	cmp	r3, #0	; 0x0
    14ec:	1a000001 	bne	14f8 <_dl_start+0x7f0>
    14f0:	eb003dc0 	bl	10bf8 <__getpagesize>
    14f4:	e5840000 	str	r0, [r4]
    14f8:	e3e03000 	mvn	r3, #0	; 0x0
    14fc:	e58d3000 	str	r3, [sp]
    1500:	e3a00000 	mov	r0, #0	; 0x0
    1504:	e58d0004 	str	r0, [sp, #4]
    1508:	e59d3010 	ldr	r3, [sp, #16]
    150c:	e5931000 	ldr	r1, [r3]
    1510:	e3a02007 	mov	r2, #7	; 0x7
    1514:	e3a03022 	mov	r3, #34	; 0x22
    1518:	eb003dc4 	bl	10c30 <__mmap>
    151c:	e59d1014 	ldr	r1, [sp, #20]
    1520:	e5810000 	str	r0, [r1]
    1524:	e3500000 	cmp	r0, #0	; 0x0
    1528:	1a000008 	bne	1550 <_dl_start+0x848>
    152c:	e59f0150 	ldr	r0, [pc, #336]	; 1684 <.text+0xab4>
    1530:	e08a0000 	add	r0, sl, r0
    1534:	e59f114c 	ldr	r1, [pc, #332]	; 1688 <.text+0xab8>
    1538:	e08a1001 	add	r1, sl, r1
    153c:	e3a02f5f 	mov	r2, #380	; 0x17c
    1540:	e2822002 	add	r2, r2, #2	; 0x2
    1544:	e59f3140 	ldr	r3, [pc, #320]	; 168c <.text+0xabc>
    1548:	e79a3003 	ldr	r3, [sl, r3]
    154c:	eb00389b 	bl	f7c0 <__GI___assert_fail>
    1550:	e3a03000 	mov	r3, #0	; 0x0
    1554:	e59f2134 	ldr	r2, [pc, #308]	; 1690 <.text+0xac0>
    1558:	e79a2002 	ldr	r2, [sl, r2]
    155c:	e5823000 	str	r3, [r2]
    1560:	e59de008 	ldr	lr, [sp, #8]
    1564:	e59f3124 	ldr	r3, [pc, #292]	; 1690 <.text+0xac0>
    1568:	e79a2003 	ldr	r2, [sl, r3]
    156c:	e59e0000 	ldr	r0, [lr]
    1570:	e5921000 	ldr	r1, [r2]
    1574:	e080c001 	add	ip, r0, r1
    1578:	e3a0324e 	mov	r3, #-536870908	; 0xe0000004
    157c:	e2833651 	add	r3, r3, #84934656	; 0x5100000
    1580:	e2833aff 	add	r3, r3, #1044480	; 0xff000
    1584:	e7803001 	str	r3, [r0, r1]
    1588:	e58c6004 	str	r6, [ip, #4]
    158c:	e5923000 	ldr	r3, [r2]
    1590:	e2833008 	add	r3, r3, #8	; 0x8
    1594:	e5823000 	str	r3, [r2]
    1598:	e59d0010 	ldr	r0, [sp, #16]
    159c:	e5902000 	ldr	r2, [r0]
    15a0:	e1530002 	cmp	r3, r2
    15a4:	23a03000 	movcs	r3, #0	; 0x0
    15a8:	258e3000 	strcs	r3, [lr]
    15ac:	e068000c 	rsb	r0, r8, ip
    15b0:	e0800107 	add	r0, r0, r7, lsl #2
    15b4:	e20034fe 	and	r3, r0, #-33554432	; 0xfe000000
    15b8:	e35304fe 	cmp	r3, #-33554432	; 0xfe000000
    15bc:	13530000 	cmpne	r3, #0	; 0x0
    15c0:	0a000006 	beq	15e0 <_dl_start+0x8d8>
    15c4:	e3a00000 	mov	r0, #0	; 0x0
    15c8:	e59d2018 	ldr	r2, [sp, #24]
    15cc:	e5921004 	ldr	r1, [r2, #4]
    15d0:	e1a02000 	mov	r2, r0
    15d4:	e59f30b8 	ldr	r3, [pc, #184]	; 1694 <.text+0xac4>
    15d8:	e08a3003 	add	r3, sl, r3
    15dc:	eb002892 	bl	b82c <_dl_signal_error>
    15e0:	e5983000 	ldr	r3, [r8]
    15e4:	e20364ff 	and	r6, r3, #-16777216	; 0xff000000
    15e8:	e1a03300 	mov	r3, r0, lsl #6
    15ec:	e1866423 	orr	r6, r6, r3, lsr #8
    15f0:	e5886000 	str	r6, [r8]
    15f4:	ea000002 	b	1604 <_dl_start+0x8fc>
    15f8:	e59d0018 	ldr	r0, [sp, #24]
    15fc:	e3a02000 	mov	r2, #0	; 0x0
    1600:	eb0023cd 	bl	a53c <_dl_reloc_bad_type>
    1604:	e2855008 	add	r5, r5, #8	; 0x8
    1608:	e59d3020 	ldr	r3, [sp, #32]
    160c:	e1550003 	cmp	r5, r3
    1610:	3affff48 	bcc	1338 <_dl_start+0x630>
    1614:	e59d0024 	ldr	r0, [sp, #36]
    1618:	e28d1040 	add	r1, sp, #64	; 0x40
    161c:	ebfffd83 	bl	c30 <_dl_start_final>
    1620:	e28dde26 	add	sp, sp, #608	; 0x260
    1624:	e8bd8ff0 	ldmia	sp!, {r4, r5, r6, r7, r8, r9, sl, fp, pc}
    1628:	0001c878 	andeq	ip, r1, r8, ror r8
    162c:	0000001c 	andeq	r0, r0, ip, lsl r0
    1630:	ffff56d0 	swinv	0x00ff56d0
    1634:	ffff56dc 	swinv	0x00ff56dc
    1638:	00000038 	andeq	r0, r0, r8, lsr r0
    163c:	ffff56ec 	swinv	0x00ff56ec
    1640:	ffff5708 	swinv	0x00ff5708
    1644:	ffff5734 	swinv	0x00ff5734
    1648:	ffff57bc 	swinv	0x00ff57bc
    164c:	ffff57fc 	swinv	0x00ff57fc
    1650:	ffff5814 	swinv	0x00ff5814
    1654:	ffff582c 	swinv	0x00ff582c
    1658:	ffff5858 	swinv	0x00ff5858
    165c:	00000024 	andeq	r0, r0, r4, lsr #32
    1660:	ffff5860 	swinv	0x00ff5860
    1664:	ffff58a4 	swinv	0x00ff58a4
    1668:	0000003c 	andeq	r0, r0, ip, lsr r0
    166c:	0000002c 	andeq	r0, r0, ip, lsr #32
    1670:	00000034 	andeq	r0, r0, r4, lsr r0
    1674:	00000210 	andeq	r0, r0, r0, lsl r2
    1678:	000001d8 	ldreqd	r0, [r0], -r8
    167c:	ffff58b0 	swinv	0x00ff58b0
    1680:	ffff58c8 	swinv	0x00ff58c8
    1684:	ffff5914 	swinv	0x00ff5914
    1688:	ffff5938 	swinv	0x00ff5938
    168c:	00000028 	andeq	r0, r0, r8, lsr #32
    1690:	00000030 	andeq	r0, r0, r0, lsr r0
    1694:	ffff5954 	swinv	0x00ff5954

00001698 <relocate_doit>:
    1698:	e52de004 	str	lr, [sp, #-4]!
    169c:	e1a02000 	mov	r2, r0
    16a0:	e5903000 	ldr	r3, [r0]
    16a4:	e1a00003 	mov	r0, r3
    16a8:	e59311c0 	ldr	r1, [r3, #448]
    16ac:	e5922004 	ldr	r2, [r2, #4]
    16b0:	e3a03000 	mov	r3, #0	; 0x0
    16b4:	eb001d49 	bl	8be0 <_dl_relocate_object>
    16b8:	e49df004 	ldr	pc, [sp], #4

000016bc <map_doit>:
    16bc:	e92d4010 	stmdb	sp!, {r4, lr}
    16c0:	e24dd00c 	sub	sp, sp, #12	; 0xc
    16c4:	e1a04000 	mov	r4, r0
    16c8:	e3a02000 	mov	r2, #0	; 0x0
    16cc:	e58d2000 	str	r2, [sp]
    16d0:	e590300c 	ldr	r3, [r0, #12]
    16d4:	e58d3004 	str	r3, [sp, #4]
    16d8:	e58d2008 	str	r2, [sp, #8]
    16dc:	e5900004 	ldr	r0, [r0, #4]
    16e0:	e5941000 	ldr	r1, [r4]
    16e4:	e5942008 	ldr	r2, [r4, #8]
    16e8:	e3a03001 	mov	r3, #1	; 0x1
    16ec:	eb001470 	bl	68b4 <_dl_map_object>
    16f0:	e5840010 	str	r0, [r4, #16]
    16f4:	e28dd00c 	add	sp, sp, #12	; 0xc
    16f8:	e8bd8010 	ldmia	sp!, {r4, pc}

000016fc <version_check_doit>:
    16fc:	e92d4410 	stmdb	sp!, {r4, sl, lr}
    1700:	e59fa03c 	ldr	sl, [pc, #60]	; 1744 <.text+0xb74>
    1704:	e08fa00a 	add	sl, pc, sl
    1708:	e1a04000 	mov	r4, r0
    170c:	e59f3034 	ldr	r3, [pc, #52]	; 1748 <.text+0xb78>
    1710:	e79a3003 	ldr	r3, [sl, r3]
    1714:	e5930000 	ldr	r0, [r3]
    1718:	e3a01001 	mov	r1, #1	; 0x1
    171c:	e5942004 	ldr	r2, [r4, #4]
    1720:	eb002ed1 	bl	d26c <_dl_check_all_versions>
    1724:	e3500000 	cmp	r0, #0	; 0x0
    1728:	08bd8410 	ldmeqia	sp!, {r4, sl, pc}
    172c:	e5943000 	ldr	r3, [r4]
    1730:	e3530000 	cmp	r3, #0	; 0x0
    1734:	08bd8410 	ldmeqia	sp!, {r4, sl, pc}
    1738:	e3a00001 	mov	r0, #1	; 0x1
    173c:	eb003d77 	bl	10d20 <_Exit>
    1740:	e8bd8410 	ldmia	sp!, {r4, sl, pc}
    1744:	0001be88 	andeq	fp, r1, r8, lsl #29
    1748:	0000023c 	andeq	r0, r0, ip, lsr r2

0000174c <match_version>:
    174c:	e92d4070 	stmdb	sp!, {r4, r5, r6, lr}
    1750:	e1a06000 	mov	r6, r0
    1754:	e5913034 	ldr	r3, [r1, #52]
    1758:	e5935004 	ldr	r5, [r3, #4]
    175c:	e59100b4 	ldr	r0, [r1, #180]
    1760:	e3500000 	cmp	r0, #0	; 0x0
    1764:	08bd8070 	ldmeqia	sp!, {r4, r5, r6, pc}
    1768:	ea000001 	b	1774 <match_version+0x28>
    176c:	e3a00001 	mov	r0, #1	; 0x1
    1770:	e8bd8070 	ldmia	sp!, {r4, r5, r6, pc}
    1774:	e59130b4 	ldr	r3, [r1, #180]
    1778:	e5912000 	ldr	r2, [r1]
    177c:	e5933004 	ldr	r3, [r3, #4]
    1780:	e0824003 	add	r4, r2, r3
    1784:	e594300c 	ldr	r3, [r4, #12]
    1788:	e7941003 	ldr	r1, [r4, r3]
    178c:	e1a00006 	mov	r0, r6
    1790:	e0851001 	add	r1, r5, r1
    1794:	eb003e15 	bl	10ff0 <strcmp>
    1798:	e3500000 	cmp	r0, #0	; 0x0
    179c:	0afffff2 	beq	176c <match_version+0x20>
    17a0:	e5943010 	ldr	r3, [r4, #16]
    17a4:	e3530000 	cmp	r3, #0	; 0x0
    17a8:	10844003 	addne	r4, r4, r3
    17ac:	1afffff4 	bne	1784 <match_version+0x38>
    17b0:	e3a00000 	mov	r0, #0	; 0x0
    17b4:	e8bd8070 	ldmia	sp!, {r4, r5, r6, pc}

000017b8 <_dl_initial_error_catch_tsd>:
    17b8:	e52da004 	str	sl, [sp, #-4]!
    17bc:	e59fa010 	ldr	sl, [pc, #16]	; 17d4 <.text+0xc04>
    17c0:	e08fa00a 	add	sl, pc, sl
    17c4:	e59f300c 	ldr	r3, [pc, #12]	; 17d8 <.text+0xc08>
    17c8:	e79a0003 	ldr	r0, [sl, r3]
    17cc:	e8bd0400 	ldmia	sp!, {sl}
    17d0:	e1a0f00e 	mov	pc, lr
    17d4:	0001bdcc 	andeq	fp, r1, ip, asr #27
    17d8:	0000004c 	andeq	r0, r0, ip, asr #32

000017dc <do_preload>:
    17dc:	e92d4470 	stmdb	sp!, {r4, r5, r6, sl, lr}
    17e0:	e24dd01c 	sub	sp, sp, #28	; 0x1c
    17e4:	e59fa094 	ldr	sl, [pc, #148]	; 1880 <.text+0xcb0>
    17e8:	e08fa00a 	add	sl, pc, sl
    17ec:	e1a05000 	mov	r5, r0
    17f0:	e1a06002 	mov	r6, r2
    17f4:	e3a02000 	mov	r2, #0	; 0x0
    17f8:	e58d2000 	str	r2, [sp]
    17fc:	e58d0008 	str	r0, [sp, #8]
    1800:	e58d100c 	str	r1, [sp, #12]
    1804:	e3a03001 	mov	r3, #1	; 0x1
    1808:	e58d3010 	str	r3, [sp, #16]
    180c:	e58d2014 	str	r2, [sp, #20]
    1810:	e59f306c 	ldr	r3, [pc, #108]	; 1884 <.text+0xcb4>
    1814:	e79a3003 	ldr	r3, [sl, r3]
    1818:	e5934004 	ldr	r4, [r3, #4]
    181c:	e28d0004 	add	r0, sp, #4	; 0x4
    1820:	e1a0100d 	mov	r1, sp
    1824:	e59f305c 	ldr	r3, [pc, #92]	; 1888 <.text+0xcb8>
    1828:	e79a2003 	ldr	r2, [sl, r3]
    182c:	e28d3008 	add	r3, sp, #8	; 0x8
    1830:	eb002899 	bl	ba9c <_dl_catch_error>
    1834:	e59d3000 	ldr	r3, [sp]
    1838:	e3530000 	cmp	r3, #0	; 0x0
    183c:	0a000006 	beq	185c <do_preload+0x80>
    1840:	e3a00002 	mov	r0, #2	; 0x2
    1844:	e59f1040 	ldr	r1, [pc, #64]	; 188c <.text+0xcbc>
    1848:	e08a1001 	add	r1, sl, r1
    184c:	e1a02005 	mov	r2, r5
    1850:	e1a03006 	mov	r3, r6
    1854:	eb002c24 	bl	c8ec <_dl_dprintf>
    1858:	ea000005 	b	1874 <do_preload+0x98>
    185c:	e59f3020 	ldr	r3, [pc, #32]	; 1884 <.text+0xcb4>
    1860:	e79a3003 	ldr	r3, [sl, r3]
    1864:	e5933004 	ldr	r3, [r3, #4]
    1868:	e1530004 	cmp	r3, r4
    186c:	13a00001 	movne	r0, #1	; 0x1
    1870:	1a000000 	bne	1878 <do_preload+0x9c>
    1874:	e3a00000 	mov	r0, #0	; 0x0
    1878:	e28dd01c 	add	sp, sp, #28	; 0x1c
    187c:	e8bd8470 	ldmia	sp!, {r4, r5, r6, sl, pc}
    1880:	0001bda4 	andeq	fp, r1, r4, lsr #27
    1884:	0000023c 	andeq	r0, r0, ip, lsr r2
    1888:	00000044 	andeq	r0, r0, r4, asr #32
    188c:	ffff5978 	swinv	0x00ff5978

00001890 <rtld_lock_default_lock_recursive>:
    1890:	e5903004 	ldr	r3, [r0, #4]
    1894:	e2833001 	add	r3, r3, #1	; 0x1
    1898:	e5803004 	str	r3, [r0, #4]
    189c:	e1a0f00e 	mov	pc, lr

000018a0 <rtld_lock_default_unlock_recursive>:
    18a0:	e5903004 	ldr	r3, [r0, #4]
    18a4:	e2433001 	sub	r3, r3, #1	; 0x1
    18a8:	e5803004 	str	r3, [r0, #4]
    18ac:	e1a0f00e 	mov	pc, lr

000018b0 <dl_main>:
    18b0:	e1a0c00d 	mov	ip, sp
    18b4:	e92ddff0 	stmdb	sp!, {r4, r5, r6, r7, r8, r9, sl, fp, ip, lr, pc}
    18b8:	e24cb004 	sub	fp, ip, #4	; 0x4
    18bc:	e24dd084 	sub	sp, sp, #132	; 0x84
    18c0:	e59faf90 	ldr	sl, [pc, #3984]	; 2858 <.text+0x1c88>
    18c4:	e08fa00a 	add	sl, pc, sl
    18c8:	e1a06000 	mov	r6, r0
    18cc:	e1a08001 	mov	r8, r1
    18d0:	e1a09002 	mov	r9, r2
    18d4:	e3a00000 	mov	r0, #0	; 0x0
    18d8:	e50b0078 	str	r0, [fp, #-120]
    18dc:	e50b0074 	str	r0, [fp, #-116]
    18e0:	e50b007c 	str	r0, [fp, #-124]
    18e4:	e59f3f70 	ldr	r3, [pc, #3952]	; 285c <.text+0x1c8c>
    18e8:	e79a4003 	ldr	r4, [sl, r3]
    18ec:	e59f3f6c 	ldr	r3, [pc, #3948]	; 2860 <.text+0x1c90>
    18f0:	e79a3003 	ldr	r3, [sl, r3]
    18f4:	e58431b4 	str	r3, [r4, #436]
    18f8:	e59f3f64 	ldr	r3, [pc, #3940]	; 2864 <.text+0x1c94>
    18fc:	e79a3003 	ldr	r3, [sl, r3]
    1900:	e58433d8 	str	r3, [r4, #984]
    1904:	e59f3f5c 	ldr	r3, [pc, #3932]	; 2868 <.text+0x1c98>
    1908:	e79a3003 	ldr	r3, [sl, r3]
    190c:	e58433dc 	str	r3, [r4, #988]
    1910:	e59f3f54 	ldr	r3, [pc, #3924]	; 286c <.text+0x1c9c>
    1914:	e79a3003 	ldr	r3, [sl, r3]
    1918:	e58433e4 	str	r3, [r4, #996]
    191c:	e24b0040 	sub	r0, fp, #64	; 0x40
    1920:	eb0007a2 	bl	37b0 <process_envvars>
    1924:	e5992000 	ldr	r2, [r9]
    1928:	e59f3f40 	ldr	r3, [pc, #3904]	; 2870 <.text+0x1ca0>
    192c:	e79a3003 	ldr	r3, [sl, r3]
    1930:	e1520003 	cmp	r2, r3
    1934:	1a0000d7 	bne	1c98 <dl_main+0x3e8>
    1938:	e3a01001 	mov	r1, #1	; 0x1
    193c:	e50b107c 	str	r1, [fp, #-124]
    1940:	e59f3fac 	ldr	r3, [pc, #4012]	; 28f4 <.text+0x1d24>
    1944:	e79a3003 	ldr	r3, [sl, r3]
    1948:	e5933000 	ldr	r3, [r3]
    194c:	e5933000 	ldr	r3, [r3]
    1950:	e58431bc 	str	r3, [r4, #444]
    1954:	e59f3fc0 	ldr	r3, [pc, #4032]	; 291c <.text+0x1d4c>
    1958:	e79a3003 	ldr	r3, [sl, r3]
    195c:	e5933000 	ldr	r3, [r3]
    1960:	e1530001 	cmp	r3, r1
    1964:	da00006d 	ble	1b20 <dl_main+0x270>
    1968:	e59f3f84 	ldr	r3, [pc, #3972]	; 28f4 <.text+0x1d24>
    196c:	e79a4003 	ldr	r4, [sl, r3]
    1970:	e59f3fb8 	ldr	r3, [pc, #4024]	; 2930 <.text+0x1d60>
    1974:	e79a7003 	ldr	r7, [sl, r3]
    1978:	e59f3ef4 	ldr	r3, [pc, #3828]	; 2874 <.text+0x1ca4>
    197c:	e79a5003 	ldr	r5, [sl, r3]
    1980:	e59f3f94 	ldr	r3, [pc, #3988]	; 291c <.text+0x1d4c>
    1984:	e79a3003 	ldr	r3, [sl, r3]
    1988:	e50b3098 	str	r3, [fp, #-152]
    198c:	e59f3f88 	ldr	r3, [pc, #3976]	; 291c <.text+0x1d4c>
    1990:	e79a3003 	ldr	r3, [sl, r3]
    1994:	e50b309c 	str	r3, [fp, #-156]
    1998:	e5943000 	ldr	r3, [r4]
    199c:	e5930004 	ldr	r0, [r3, #4]
    19a0:	e59f1ed0 	ldr	r1, [pc, #3792]	; 2878 <.text+0x1ca8>
    19a4:	e08a1001 	add	r1, sl, r1
    19a8:	eb003d90 	bl	10ff0 <strcmp>
    19ac:	e3500000 	cmp	r0, #0	; 0x0
    19b0:	1a00000f 	bne	19f4 <dl_main+0x144>
    19b4:	e3a03001 	mov	r3, #1	; 0x1
    19b8:	e50b3040 	str	r3, [fp, #-64]
    19bc:	e2433002 	sub	r3, r3, #2	; 0x2
    19c0:	e5873028 	str	r3, [r7, #40]
    19c4:	e5953000 	ldr	r3, [r5]
    19c8:	e2833001 	add	r3, r3, #1	; 0x1
    19cc:	e5853000 	str	r3, [r5]
    19d0:	e59f3f44 	ldr	r3, [pc, #3908]	; 291c <.text+0x1d4c>
    19d4:	e79a2003 	ldr	r2, [sl, r3]
    19d8:	e5923000 	ldr	r3, [r2]
    19dc:	e2433001 	sub	r3, r3, #1	; 0x1
    19e0:	e5823000 	str	r3, [r2]
    19e4:	e5943000 	ldr	r3, [r4]
    19e8:	e2833004 	add	r3, r3, #4	; 0x4
    19ec:	e5843000 	str	r3, [r4]
    19f0:	ea00003f 	b	1af4 <dl_main+0x244>
    19f4:	e5943000 	ldr	r3, [r4]
    19f8:	e5930004 	ldr	r0, [r3, #4]
    19fc:	e59f1e78 	ldr	r1, [pc, #3704]	; 287c <.text+0x1cac>
    1a00:	e08a1001 	add	r1, sl, r1
    1a04:	eb003d79 	bl	10ff0 <strcmp>
    1a08:	e3500000 	cmp	r0, #0	; 0x0
    1a0c:	1a00000d 	bne	1a48 <dl_main+0x198>
    1a10:	e3a03002 	mov	r3, #2	; 0x2
    1a14:	e50b3040 	str	r3, [fp, #-64]
    1a18:	e5953000 	ldr	r3, [r5]
    1a1c:	e2833001 	add	r3, r3, #1	; 0x1
    1a20:	e5853000 	str	r3, [r5]
    1a24:	e59f3ef0 	ldr	r3, [pc, #3824]	; 291c <.text+0x1d4c>
    1a28:	e79a2003 	ldr	r2, [sl, r3]
    1a2c:	e5923000 	ldr	r3, [r2]
    1a30:	e2433001 	sub	r3, r3, #1	; 0x1
    1a34:	e5823000 	str	r3, [r2]
    1a38:	e5943000 	ldr	r3, [r4]
    1a3c:	e2833004 	add	r3, r3, #4	; 0x4
    1a40:	e5843000 	str	r3, [r4]
    1a44:	ea00002a 	b	1af4 <dl_main+0x244>
    1a48:	e5943000 	ldr	r3, [r4]
    1a4c:	e5930004 	ldr	r0, [r3, #4]
    1a50:	e59f1e28 	ldr	r1, [pc, #3624]	; 2880 <.text+0x1cb0>
    1a54:	e08a1001 	add	r1, sl, r1
    1a58:	eb003d64 	bl	10ff0 <strcmp>
    1a5c:	e3500000 	cmp	r0, #0	; 0x0
    1a60:	1a00000f 	bne	1aa4 <dl_main+0x1f4>
    1a64:	e51b0098 	ldr	r0, [fp, #-152]
    1a68:	e590c000 	ldr	ip, [r0]
    1a6c:	e35c0002 	cmp	ip, #2	; 0x2
    1a70:	da00000b 	ble	1aa4 <dl_main+0x1f4>
    1a74:	e5942000 	ldr	r2, [r4]
    1a78:	e5b21008 	ldr	r1, [r2, #8]!
    1a7c:	e59f3e00 	ldr	r3, [pc, #3584]	; 2884 <.text+0x1cb4>
    1a80:	e79a3003 	ldr	r3, [sl, r3]
    1a84:	e5831000 	str	r1, [r3]
    1a88:	e5953000 	ldr	r3, [r5]
    1a8c:	e2833002 	add	r3, r3, #2	; 0x2
    1a90:	e5853000 	str	r3, [r5]
    1a94:	e24c3002 	sub	r3, ip, #2	; 0x2
    1a98:	e5803000 	str	r3, [r0]
    1a9c:	e5842000 	str	r2, [r4]
    1aa0:	ea000013 	b	1af4 <dl_main+0x244>
    1aa4:	e5943000 	ldr	r3, [r4]
    1aa8:	e5930004 	ldr	r0, [r3, #4]
    1aac:	e59f1dd4 	ldr	r1, [pc, #3540]	; 2888 <.text+0x1cb8>
    1ab0:	e08a1001 	add	r1, sl, r1
    1ab4:	eb003d4d 	bl	10ff0 <strcmp>
    1ab8:	e3500000 	cmp	r0, #0	; 0x0
    1abc:	1a000012 	bne	1b0c <dl_main+0x25c>
    1ac0:	e51b009c 	ldr	r0, [fp, #-156]
    1ac4:	e5901000 	ldr	r1, [r0]
    1ac8:	e3510002 	cmp	r1, #2	; 0x2
    1acc:	da00000e 	ble	1b0c <dl_main+0x25c>
    1ad0:	e5942000 	ldr	r2, [r4]
    1ad4:	e5b23008 	ldr	r3, [r2, #8]!
    1ad8:	e5873094 	str	r3, [r7, #148]
    1adc:	e5953000 	ldr	r3, [r5]
    1ae0:	e2833002 	add	r3, r3, #2	; 0x2
    1ae4:	e5853000 	str	r3, [r5]
    1ae8:	e2413002 	sub	r3, r1, #2	; 0x2
    1aec:	e5803000 	str	r3, [r0]
    1af0:	e5842000 	str	r2, [r4]
    1af4:	e59f3e20 	ldr	r3, [pc, #3616]	; 291c <.text+0x1d4c>
    1af8:	e79a3003 	ldr	r3, [sl, r3]
    1afc:	e5933000 	ldr	r3, [r3]
    1b00:	e3530001 	cmp	r3, #1	; 0x1
    1b04:	caffffa3 	bgt	1998 <dl_main+0xe8>
    1b08:	ea000004 	b	1b20 <dl_main+0x270>
    1b0c:	e59f3e08 	ldr	r3, [pc, #3592]	; 291c <.text+0x1d4c>
    1b10:	e79a3003 	ldr	r3, [sl, r3]
    1b14:	e5933000 	ldr	r3, [r3]
    1b18:	e3530001 	cmp	r3, #1	; 0x1
    1b1c:	ca000006 	bgt	1b3c <dl_main+0x28c>
    1b20:	e59f4d64 	ldr	r4, [pc, #3428]	; 288c <.text+0x1cbc>
    1b24:	e3a00002 	mov	r0, #2	; 0x2
    1b28:	e08a1004 	add	r1, sl, r4
    1b2c:	eb002b6e 	bl	c8ec <_dl_dprintf>
    1b30:	e3a0007f 	mov	r0, #127	; 0x7f
    1b34:	eb003c79 	bl	10d20 <_Exit>
    1b38:	eafffff9 	b	1b24 <dl_main+0x274>
    1b3c:	e59f3d30 	ldr	r3, [pc, #3376]	; 2874 <.text+0x1ca4>
    1b40:	e79a2003 	ldr	r2, [sl, r3]
    1b44:	e5923000 	ldr	r3, [r2]
    1b48:	e2833001 	add	r3, r3, #1	; 0x1
    1b4c:	e5823000 	str	r3, [r2]
    1b50:	e59f3dc4 	ldr	r3, [pc, #3524]	; 291c <.text+0x1d4c>
    1b54:	e79a2003 	ldr	r2, [sl, r3]
    1b58:	e5923000 	ldr	r3, [r2]
    1b5c:	e2433001 	sub	r3, r3, #1	; 0x1
    1b60:	e5823000 	str	r3, [r2]
    1b64:	e59f3d88 	ldr	r3, [pc, #3464]	; 28f4 <.text+0x1d24>
    1b68:	e79a2003 	ldr	r2, [sl, r3]
    1b6c:	e5923000 	ldr	r3, [r2]
    1b70:	e2833004 	add	r3, r3, #4	; 0x4
    1b74:	e5823000 	str	r3, [r2]
    1b78:	e59f3d04 	ldr	r3, [pc, #3332]	; 2884 <.text+0x1cb4>
    1b7c:	e79a3003 	ldr	r3, [sl, r3]
    1b80:	e5930000 	ldr	r0, [r3]
    1b84:	eb000bbb 	bl	4a78 <_dl_init_paths>
    1b88:	e1a0c006 	mov	ip, r6
    1b8c:	e0863288 	add	r3, r6, r8, lsl #5
    1b90:	e1530006 	cmp	r3, r6
    1b94:	9a000007 	bls	1bb8 <dl_main+0x308>
    1b98:	e59f2cf0 	ldr	r2, [pc, #3312]	; 2890 <.text+0x1cc0>
    1b9c:	e0860288 	add	r0, r6, r8, lsl #5
    1ba0:	e59c3000 	ldr	r3, [ip]
    1ba4:	e1530002 	cmp	r3, r2
    1ba8:	0a00001c 	beq	1c20 <dl_main+0x370>
    1bac:	e28cc020 	add	ip, ip, #32	; 0x20
    1bb0:	e150000c 	cmp	r0, ip
    1bb4:	8afffff9 	bhi	1ba0 <dl_main+0x2f0>
    1bb8:	e51b3040 	ldr	r3, [fp, #-64]
    1bbc:	e3530002 	cmp	r3, #2	; 0x2
    1bc0:	1a00001b 	bne	1c34 <dl_main+0x384>
    1bc4:	e3a02000 	mov	r2, #0	; 0x0
    1bc8:	e50b2048 	str	r2, [fp, #-72]
    1bcc:	e59f3d20 	ldr	r3, [pc, #3360]	; 28f4 <.text+0x1d24>
    1bd0:	e79a3003 	ldr	r3, [sl, r3]
    1bd4:	e5933000 	ldr	r3, [r3]
    1bd8:	e5933000 	ldr	r3, [r3]
    1bdc:	e50b303c 	str	r3, [fp, #-60]
    1be0:	e50b2038 	str	r2, [fp, #-56]
    1be4:	e50b2034 	str	r2, [fp, #-52]
    1be8:	e3a03202 	mov	r3, #536870912	; 0x20000000
    1bec:	e50b3030 	str	r3, [fp, #-48]
    1bf0:	e24b0044 	sub	r0, fp, #68	; 0x44
    1bf4:	e24b1048 	sub	r1, fp, #72	; 0x48
    1bf8:	e59f3c94 	ldr	r3, [pc, #3220]	; 2894 <.text+0x1cc4>
    1bfc:	e79a2003 	ldr	r2, [sl, r3]
    1c00:	e24b303c 	sub	r3, fp, #60	; 0x3c
    1c04:	eb0027a4 	bl	ba9c <_dl_catch_error>
    1c08:	e51b3048 	ldr	r3, [fp, #-72]
    1c0c:	e3530000 	cmp	r3, #0	; 0x0
    1c10:	0a000013 	beq	1c64 <dl_main+0x3b4>
    1c14:	e3a00001 	mov	r0, #1	; 0x1
    1c18:	eb003c40 	bl	10d20 <_Exit>
    1c1c:	ea000010 	b	1c64 <dl_main+0x3b4>
    1c20:	e59c3018 	ldr	r3, [ip, #24]
    1c24:	e59f2c30 	ldr	r2, [pc, #3120]	; 285c <.text+0x1c8c>
    1c28:	e79a2002 	ldr	r2, [sl, r2]
    1c2c:	e58233e0 	str	r3, [r2, #992]
    1c30:	eaffffe0 	b	1bb8 <dl_main+0x308>
    1c34:	e59f3cb8 	ldr	r3, [pc, #3256]	; 28f4 <.text+0x1d24>
    1c38:	e79a3003 	ldr	r3, [sl, r3]
    1c3c:	e5931000 	ldr	r1, [r3]
    1c40:	e3a02000 	mov	r2, #0	; 0x0
    1c44:	e58d2000 	str	r2, [sp]
    1c48:	e3a03202 	mov	r3, #536870912	; 0x20000000
    1c4c:	e58d3004 	str	r3, [sp, #4]
    1c50:	e58d2008 	str	r2, [sp, #8]
    1c54:	e1a00002 	mov	r0, r2
    1c58:	e5911000 	ldr	r1, [r1]
    1c5c:	e283321e 	add	r3, r3, #-536870911	; 0xe0000001
    1c60:	eb001313 	bl	68b4 <_dl_map_object>
    1c64:	e59f3bf0 	ldr	r3, [pc, #3056]	; 285c <.text+0x1c8c>
    1c68:	e79a3003 	ldr	r3, [sl, r3]
    1c6c:	e5937000 	ldr	r7, [r3]
    1c70:	e597614c 	ldr	r6, [r7, #332]
    1c74:	e5d72154 	ldrb	r2, [r7, #340]
    1c78:	e5d73155 	ldrb	r3, [r7, #341]
    1c7c:	e1828403 	orr	r8, r2, r3, lsl #8
    1c80:	e59f3cc4 	ldr	r3, [pc, #3268]	; 294c <.text+0x1d7c>
    1c84:	e08a3003 	add	r3, sl, r3
    1c88:	e5873004 	str	r3, [r7, #4]
    1c8c:	e5973150 	ldr	r3, [r7, #336]
    1c90:	e5893000 	str	r3, [r9]
    1c94:	ea000019 	b	1d00 <dl_main+0x450>
    1c98:	e3a03000 	mov	r3, #0	; 0x0
    1c9c:	e58d3000 	str	r3, [sp]
    1ca0:	e58d3004 	str	r3, [sp, #4]
    1ca4:	e59f2ca0 	ldr	r2, [pc, #3232]	; 294c <.text+0x1d7c>
    1ca8:	e08a1002 	add	r1, sl, r2
    1cac:	e1a00001 	mov	r0, r1
    1cb0:	e1a02003 	mov	r2, r3
    1cb4:	eb001b15 	bl	8910 <_dl_new_object>
    1cb8:	e59f3b9c 	ldr	r3, [pc, #2972]	; 285c <.text+0x1c8c>
    1cbc:	e79a3003 	ldr	r3, [sl, r3]
    1cc0:	e5937000 	ldr	r7, [r3]
    1cc4:	e3570000 	cmp	r7, #0	; 0x0
    1cc8:	1a000006 	bne	1ce8 <dl_main+0x438>
    1ccc:	e59f4bc4 	ldr	r4, [pc, #3012]	; 2898 <.text+0x1cc8>
    1cd0:	e3a00002 	mov	r0, #2	; 0x2
    1cd4:	e08a1004 	add	r1, sl, r4
    1cd8:	eb002b03 	bl	c8ec <_dl_dprintf>
    1cdc:	e3a0007f 	mov	r0, #127	; 0x7f
    1ce0:	eb003c0e 	bl	10d20 <_Exit>
    1ce4:	eafffff9 	b	1cd0 <dl_main+0x420>
    1ce8:	e587614c 	str	r6, [r7, #332]
    1cec:	e5c78154 	strb	r8, [r7, #340]
    1cf0:	e1a03448 	mov	r3, r8, asr #8
    1cf4:	e5c73155 	strb	r3, [r7, #341]
    1cf8:	e5993000 	ldr	r3, [r9]
    1cfc:	e5873150 	str	r3, [r7, #336]
    1d00:	e3a03000 	mov	r3, #0	; 0x0
    1d04:	e58731a4 	str	r3, [r7, #420]
    1d08:	e58731a8 	str	r3, [r7, #424]
    1d0c:	e2433001 	sub	r3, r3, #1	; 0x1
    1d10:	e58731a0 	str	r3, [r7, #416]
    1d14:	e597317c 	ldr	r3, [r7, #380]
    1d18:	e2833001 	add	r3, r3, #1	; 0x1
    1d1c:	e587317c 	str	r3, [r7, #380]
    1d20:	e1a0c006 	mov	ip, r6
    1d24:	e0863288 	add	r3, r6, r8, lsl #5
    1d28:	e1530006 	cmp	r3, r6
    1d2c:	9a000056 	bls	1e8c <dl_main+0x5dc>
    1d30:	e59f3b64 	ldr	r3, [pc, #2916]	; 289c <.text+0x1ccc>
    1d34:	e79a4003 	ldr	r4, [sl, r3]
    1d38:	e59f3b1c 	ldr	r3, [pc, #2844]	; 285c <.text+0x1c8c>
    1d3c:	e79a5003 	ldr	r5, [sl, r3]
    1d40:	e59f3b58 	ldr	r3, [pc, #2904]	; 28a0 <.text+0x1cd0>
    1d44:	e79a9003 	ldr	r9, [sl, r3]
    1d48:	e59c2000 	ldr	r2, [ip]
    1d4c:	e3520003 	cmp	r2, #3	; 0x3
    1d50:	0a00001a 	beq	1dc0 <dl_main+0x510>
    1d54:	8a000007 	bhi	1d78 <dl_main+0x4c8>
    1d58:	e3520001 	cmp	r2, #1	; 0x1
    1d5c:	0a00002f 	beq	1e20 <dl_main+0x570>
    1d60:	e3520002 	cmp	r2, #2	; 0x2
    1d64:	05973000 	ldreq	r3, [r7]
    1d68:	059c2008 	ldreq	r2, [ip, #8]
    1d6c:	00833002 	addeq	r3, r3, r2
    1d70:	05873008 	streq	r3, [r7, #8]
    1d74:	ea000040 	b	1e7c <dl_main+0x5cc>
    1d78:	e59f3b10 	ldr	r3, [pc, #2832]	; 2890 <.text+0x1cc0>
    1d7c:	e1520003 	cmp	r2, r3
    1d80:	059c3018 	ldreq	r3, [ip, #24]
    1d84:	058533e0 	streq	r3, [r5, #992]
    1d88:	0a00003b 	beq	1e7c <dl_main+0x5cc>
    1d8c:	8a000004 	bhi	1da4 <dl_main+0x4f4>
    1d90:	e3520006 	cmp	r2, #6	; 0x6
    1d94:	059c3008 	ldreq	r3, [ip, #8]
    1d98:	00633006 	rsbeq	r3, r3, r6
    1d9c:	05873000 	streq	r3, [r7]
    1da0:	ea000035 	b	1e7c <dl_main+0x5cc>
    1da4:	e59f3af8 	ldr	r3, [pc, #2808]	; 28a4 <.text+0x1cd4>
    1da8:	e1520003 	cmp	r2, r3
    1dac:	059c3008 	ldreq	r3, [ip, #8]
    1db0:	05873218 	streq	r3, [r7, #536]
    1db4:	059c3014 	ldreq	r3, [ip, #20]
    1db8:	0587321c 	streq	r3, [r7, #540]
    1dbc:	ea00002e 	b	1e7c <dl_main+0x5cc>
    1dc0:	e597e000 	ldr	lr, [r7]
    1dc4:	e59c0008 	ldr	r0, [ip, #8]
    1dc8:	e08e2000 	add	r2, lr, r0
    1dcc:	e5842000 	str	r2, [r4]
    1dd0:	e58541d4 	str	r4, [r5, #468]
    1dd4:	e59531c0 	ldr	r3, [r5, #448]
    1dd8:	e3530000 	cmp	r3, #0	; 0x0
    1ddc:	1a00000c 	bne	1e14 <dl_main+0x564>
    1de0:	e1a01003 	mov	r1, r3
    1de4:	e7de3000 	ldrb	r3, [lr, r0]
    1de8:	e3530000 	cmp	r3, #0	; 0x0
    1dec:	0a000005 	beq	1e08 <dl_main+0x558>
    1df0:	e4d23001 	ldrb	r3, [r2], #1
    1df4:	e353002f 	cmp	r3, #47	; 0x2f
    1df8:	01a01002 	moveq	r1, r2
    1dfc:	e5d23000 	ldrb	r3, [r2]
    1e00:	e3530000 	cmp	r3, #0	; 0x0
    1e04:	1afffff9 	bne	1df0 <dl_main+0x540>
    1e08:	e3510000 	cmp	r1, #0	; 0x0
    1e0c:	15891000 	strne	r1, [r9]
    1e10:	15849004 	strne	r9, [r4, #4]
    1e14:	e3a03001 	mov	r3, #1	; 0x1
    1e18:	e50b3074 	str	r3, [fp, #-116]
    1e1c:	ea000016 	b	1e7c <dl_main+0x5cc>
    1e20:	e59c301c 	ldr	r3, [ip, #28]
    1e24:	e2633000 	rsb	r3, r3, #0	; 0x0
    1e28:	e59c2008 	ldr	r2, [ip, #8]
    1e2c:	e0033002 	and	r3, r3, r2
    1e30:	e5972000 	ldr	r2, [r7]
    1e34:	e0832002 	add	r2, r3, r2
    1e38:	e59731a0 	ldr	r3, [r7, #416]
    1e3c:	e1530002 	cmp	r3, r2
    1e40:	858721a0 	strhi	r2, [r7, #416]
    1e44:	e5972000 	ldr	r2, [r7]
    1e48:	e59c3008 	ldr	r3, [ip, #8]
    1e4c:	e0822003 	add	r2, r2, r3
    1e50:	e59c3014 	ldr	r3, [ip, #20]
    1e54:	e0822003 	add	r2, r2, r3
    1e58:	e59731a4 	ldr	r3, [r7, #420]
    1e5c:	e1530002 	cmp	r3, r2
    1e60:	358721a4 	strcc	r2, [r7, #420]
    1e64:	e59c3018 	ldr	r3, [ip, #24]
    1e68:	e3130001 	tst	r3, #1	; 0x1
    1e6c:	0a000002 	beq	1e7c <dl_main+0x5cc>
    1e70:	e59731a8 	ldr	r3, [r7, #424]
    1e74:	e1530002 	cmp	r3, r2
    1e78:	358721a8 	strcc	r2, [r7, #424]
    1e7c:	e28cc020 	add	ip, ip, #32	; 0x20
    1e80:	e0863288 	add	r3, r6, r8, lsl #5
    1e84:	e153000c 	cmp	r3, ip
    1e88:	8affffae 	bhi	1d48 <dl_main+0x498>
    1e8c:	e59731a4 	ldr	r3, [r7, #420]
    1e90:	e3530000 	cmp	r3, #0	; 0x0
    1e94:	02433001 	subeq	r3, r3, #1	; 0x1
    1e98:	058731a4 	streq	r3, [r7, #420]
    1e9c:	e59731a8 	ldr	r3, [r7, #424]
    1ea0:	e3530000 	cmp	r3, #0	; 0x0
    1ea4:	02433001 	subeq	r3, r3, #1	; 0x1
    1ea8:	058731a8 	streq	r3, [r7, #424]
    1eac:	e59f39a8 	ldr	r3, [pc, #2472]	; 285c <.text+0x1c8c>
    1eb0:	e79a1003 	ldr	r1, [sl, r3]
    1eb4:	e59131d4 	ldr	r3, [r1, #468]
    1eb8:	e3530000 	cmp	r3, #0	; 0x0
    1ebc:	1a000015 	bne	1f18 <dl_main+0x668>
    1ec0:	e59121bc 	ldr	r2, [r1, #444]
    1ec4:	e3520000 	cmp	r2, #0	; 0x0
    1ec8:	0a000004 	beq	1ee0 <dl_main+0x630>
    1ecc:	e59f39c8 	ldr	r3, [pc, #2504]	; 289c <.text+0x1ccc>
    1ed0:	e79a3003 	ldr	r3, [sl, r3]
    1ed4:	e5832000 	str	r2, [r3]
    1ed8:	e58131d4 	str	r3, [r1, #468]
    1edc:	ea00000d 	b	1f18 <dl_main+0x668>
    1ee0:	e59f3974 	ldr	r3, [pc, #2420]	; 285c <.text+0x1c8c>
    1ee4:	e79a3003 	ldr	r3, [sl, r3]
    1ee8:	e59331d4 	ldr	r3, [r3, #468]
    1eec:	e3530000 	cmp	r3, #0	; 0x0
    1ef0:	1a000008 	bne	1f18 <dl_main+0x668>
    1ef4:	e59f09ac 	ldr	r0, [pc, #2476]	; 28a8 <.text+0x1cd8>
    1ef8:	e08a0000 	add	r0, sl, r0
    1efc:	e59f1a64 	ldr	r1, [pc, #2660]	; 2968 <.text+0x1d98>
    1f00:	e08a1001 	add	r1, sl, r1
    1f04:	e3a02e43 	mov	r2, #1072	; 0x430
    1f08:	e2822003 	add	r2, r2, #3	; 0x3
    1f0c:	e59f3a58 	ldr	r3, [pc, #2648]	; 296c <.text+0x1d9c>
    1f10:	e79a3003 	ldr	r3, [sl, r3]
    1f14:	eb003629 	bl	f7c0 <__GI___assert_fail>
    1f18:	e51b007c 	ldr	r0, [fp, #-124]
    1f1c:	e3500000 	cmp	r0, #0	; 0x0
    1f20:	1a000129 	bne	23cc <dl_main+0xb1c>
    1f24:	e1a05007 	mov	r5, r7
    1f28:	e1a0e000 	mov	lr, r0
    1f2c:	e5972008 	ldr	r2, [r7, #8]
    1f30:	e3520000 	cmp	r2, #0	; 0x0
    1f34:	0a000122 	beq	23c4 <dl_main+0xb14>
    1f38:	e2870020 	add	r0, r7, #32	; 0x20
    1f3c:	e5923000 	ldr	r3, [r2]
    1f40:	e3530000 	cmp	r3, #0	; 0x0
    1f44:	0a000030 	beq	200c <dl_main+0x75c>
    1f48:	e5923000 	ldr	r3, [r2]
    1f4c:	e3530021 	cmp	r3, #33	; 0x21
    1f50:	d7802103 	strle	r2, [r0, r3, lsl #2]
    1f54:	da000029 	ble	2000 <dl_main+0x750>
    1f58:	e5921000 	ldr	r1, [r2]
    1f5c:	e261346f 	rsb	r3, r1, #1862270976	; 0x6f000000
    1f60:	e28338ff 	add	r3, r3, #16711680	; 0xff0000
    1f64:	e2833cff 	add	r3, r3, #65280	; 0xff00
    1f68:	e28330ff 	add	r3, r3, #255	; 0xff
    1f6c:	e353000f 	cmp	r3, #15	; 0xf
    1f70:	92613207 	rsbls	r3, r1, #1879048192	; 0x70000000
    1f74:	92833021 	addls	r3, r3, #33	; 0x21
    1f78:	97802103 	strls	r2, [r0, r3, lsl #2]
    1f7c:	9a00001f 	bls	2000 <dl_main+0x750>
    1f80:	e5923000 	ldr	r3, [r2]
    1f84:	e1a03083 	mov	r3, r3, lsl #1
    1f88:	e1a010c3 	mov	r1, r3, asr #1
    1f8c:	e1e03001 	mvn	r3, r1
    1f90:	e3530002 	cmp	r3, #2	; 0x2
    1f94:	92613031 	rsbls	r3, r1, #49	; 0x31
    1f98:	97802103 	strls	r2, [r0, r3, lsl #2]
    1f9c:	9a000017 	bls	2000 <dl_main+0x750>
    1fa0:	e5921000 	ldr	r1, [r2]
    1fa4:	e261346f 	rsb	r3, r1, #1862270976	; 0x6f000000
    1fa8:	e28338ff 	add	r3, r3, #16711680	; 0xff0000
    1fac:	e2833cfd 	add	r3, r3, #64768	; 0xfd00
    1fb0:	e28330ff 	add	r3, r3, #255	; 0xff
    1fb4:	e353000b 	cmp	r3, #11	; 0xb
    1fb8:	8a000005 	bhi	1fd4 <dl_main+0x724>
    1fbc:	e261346f 	rsb	r3, r1, #1862270976	; 0x6f000000
    1fc0:	e28338ff 	add	r3, r3, #16711680	; 0xff0000
    1fc4:	e2833cfe 	add	r3, r3, #65024	; 0xfe00
    1fc8:	e2833034 	add	r3, r3, #52	; 0x34
    1fcc:	e7802103 	str	r2, [r0, r3, lsl #2]
    1fd0:	ea00000a 	b	2000 <dl_main+0x750>
    1fd4:	e5921000 	ldr	r1, [r2]
    1fd8:	e261346f 	rsb	r3, r1, #1862270976	; 0x6f000000
    1fdc:	e28338ff 	add	r3, r3, #16711680	; 0xff0000
    1fe0:	e2833cfe 	add	r3, r3, #65024	; 0xfe00
    1fe4:	e28330ff 	add	r3, r3, #255	; 0xff
    1fe8:	e3530009 	cmp	r3, #9	; 0x9
    1fec:	9261346f 	rsbls	r3, r1, #1862270976	; 0x6f000000
    1ff0:	928338ff 	addls	r3, r3, #16711680	; 0xff0000
    1ff4:	92833cff 	addls	r3, r3, #65280	; 0xff00
    1ff8:	92833040 	addls	r3, r3, #64	; 0x40
    1ffc:	97802103 	strls	r2, [r0, r3, lsl #2]
    2000:	e5b23008 	ldr	r3, [r2, #8]!
    2004:	e3530000 	cmp	r3, #0	; 0x0
    2008:	1affffce 	bne	1f48 <dl_main+0x698>
    200c:	e5953000 	ldr	r3, [r5]
    2010:	e3530000 	cmp	r3, #0	; 0x0
    2014:	0a0000a1 	beq	22a0 <dl_main+0x9f0>
    2018:	e1a0c003 	mov	ip, r3
    201c:	e3a04000 	mov	r4, #0	; 0x0
    2020:	e5903010 	ldr	r3, [r0, #16]
    2024:	e1530004 	cmp	r3, r4
    2028:	0a00000d 	beq	2064 <dl_main+0x7b4>
    202c:	e15e0004 	cmp	lr, r4
    2030:	05902010 	ldreq	r2, [r0, #16]
    2034:	05923004 	ldreq	r3, [r2, #4]
    2038:	008c3003 	addeq	r3, ip, r3
    203c:	05823004 	streq	r3, [r2, #4]
    2040:	0a000007 	beq	2064 <dl_main+0x7b4>
    2044:	e5933000 	ldr	r3, [r3]
    2048:	e58e3000 	str	r3, [lr]
    204c:	e5903010 	ldr	r3, [r0, #16]
    2050:	e5933004 	ldr	r3, [r3, #4]
    2054:	e08c3003 	add	r3, ip, r3
    2058:	e58e3004 	str	r3, [lr, #4]
    205c:	e2844001 	add	r4, r4, #1	; 0x1
    2060:	e580e010 	str	lr, [r0, #16]
    2064:	e590300c 	ldr	r3, [r0, #12]
    2068:	e3530000 	cmp	r3, #0	; 0x0
    206c:	0a00000f 	beq	20b0 <dl_main+0x800>
    2070:	e35e0000 	cmp	lr, #0	; 0x0
    2074:	0590200c 	ldreq	r2, [r0, #12]
    2078:	05923004 	ldreq	r3, [r2, #4]
    207c:	008c3003 	addeq	r3, ip, r3
    2080:	05823004 	streq	r3, [r2, #4]
    2084:	0a000009 	beq	20b0 <dl_main+0x800>
    2088:	e1a02184 	mov	r2, r4, lsl #3
    208c:	e082100e 	add	r1, r2, lr
    2090:	e5933000 	ldr	r3, [r3]
    2094:	e782300e 	str	r3, [r2, lr]
    2098:	e590300c 	ldr	r3, [r0, #12]
    209c:	e5933004 	ldr	r3, [r3, #4]
    20a0:	e08c3003 	add	r3, ip, r3
    20a4:	e5813004 	str	r3, [r1, #4]
    20a8:	e2844001 	add	r4, r4, #1	; 0x1
    20ac:	e580100c 	str	r1, [r0, #12]
    20b0:	e5903014 	ldr	r3, [r0, #20]
    20b4:	e3530000 	cmp	r3, #0	; 0x0
    20b8:	0a00000f 	beq	20fc <dl_main+0x84c>
    20bc:	e35e0000 	cmp	lr, #0	; 0x0
    20c0:	05902014 	ldreq	r2, [r0, #20]
    20c4:	05923004 	ldreq	r3, [r2, #4]
    20c8:	008c3003 	addeq	r3, ip, r3
    20cc:	05823004 	streq	r3, [r2, #4]
    20d0:	0a000009 	beq	20fc <dl_main+0x84c>
    20d4:	e1a02184 	mov	r2, r4, lsl #3
    20d8:	e082100e 	add	r1, r2, lr
    20dc:	e5933000 	ldr	r3, [r3]
    20e0:	e782300e 	str	r3, [r2, lr]
    20e4:	e5903014 	ldr	r3, [r0, #20]
    20e8:	e5933004 	ldr	r3, [r3, #4]
    20ec:	e08c3003 	add	r3, ip, r3
    20f0:	e5813004 	str	r3, [r1, #4]
    20f4:	e2844001 	add	r4, r4, #1	; 0x1
    20f8:	e5801014 	str	r1, [r0, #20]
    20fc:	e5903018 	ldr	r3, [r0, #24]
    2100:	e3530000 	cmp	r3, #0	; 0x0
    2104:	0a00000f 	beq	2148 <dl_main+0x898>
    2108:	e35e0000 	cmp	lr, #0	; 0x0
    210c:	05902018 	ldreq	r2, [r0, #24]
    2110:	05923004 	ldreq	r3, [r2, #4]
    2114:	008c3003 	addeq	r3, ip, r3
    2118:	05823004 	streq	r3, [r2, #4]
    211c:	0a000009 	beq	2148 <dl_main+0x898>
    2120:	e1a02184 	mov	r2, r4, lsl #3
    2124:	e082100e 	add	r1, r2, lr
    2128:	e5933000 	ldr	r3, [r3]
    212c:	e782300e 	str	r3, [r2, lr]
    2130:	e5903018 	ldr	r3, [r0, #24]
    2134:	e5933004 	ldr	r3, [r3, #4]
    2138:	e08c3003 	add	r3, ip, r3
    213c:	e5813004 	str	r3, [r1, #4]
    2140:	e2844001 	add	r4, r4, #1	; 0x1
    2144:	e5801018 	str	r1, [r0, #24]
    2148:	e590301c 	ldr	r3, [r0, #28]
    214c:	e3530000 	cmp	r3, #0	; 0x0
    2150:	0a00000f 	beq	2194 <dl_main+0x8e4>
    2154:	e35e0000 	cmp	lr, #0	; 0x0
    2158:	0590201c 	ldreq	r2, [r0, #28]
    215c:	05923004 	ldreq	r3, [r2, #4]
    2160:	008c3003 	addeq	r3, ip, r3
    2164:	05823004 	streq	r3, [r2, #4]
    2168:	0a000009 	beq	2194 <dl_main+0x8e4>
    216c:	e1a02184 	mov	r2, r4, lsl #3
    2170:	e082100e 	add	r1, r2, lr
    2174:	e5933000 	ldr	r3, [r3]
    2178:	e782300e 	str	r3, [r2, lr]
    217c:	e590301c 	ldr	r3, [r0, #28]
    2180:	e5933004 	ldr	r3, [r3, #4]
    2184:	e08c3003 	add	r3, ip, r3
    2188:	e5813004 	str	r3, [r1, #4]
    218c:	e2844001 	add	r4, r4, #1	; 0x1
    2190:	e580101c 	str	r1, [r0, #28]
    2194:	e5903044 	ldr	r3, [r0, #68]
    2198:	e3530000 	cmp	r3, #0	; 0x0
    219c:	0a00000f 	beq	21e0 <dl_main+0x930>
    21a0:	e35e0000 	cmp	lr, #0	; 0x0
    21a4:	05902044 	ldreq	r2, [r0, #68]
    21a8:	05923004 	ldreq	r3, [r2, #4]
    21ac:	008c3003 	addeq	r3, ip, r3
    21b0:	05823004 	streq	r3, [r2, #4]
    21b4:	0a000009 	beq	21e0 <dl_main+0x930>
    21b8:	e1a02184 	mov	r2, r4, lsl #3
    21bc:	e082100e 	add	r1, r2, lr
    21c0:	e5933000 	ldr	r3, [r3]
    21c4:	e782300e 	str	r3, [r2, lr]
    21c8:	e5903044 	ldr	r3, [r0, #68]
    21cc:	e5933004 	ldr	r3, [r3, #4]
    21d0:	e08c3003 	add	r3, ip, r3
    21d4:	e5813004 	str	r3, [r1, #4]
    21d8:	e2844001 	add	r4, r4, #1	; 0x1
    21dc:	e5801044 	str	r1, [r0, #68]
    21e0:	e590305c 	ldr	r3, [r0, #92]
    21e4:	e3530000 	cmp	r3, #0	; 0x0
    21e8:	0a00000f 	beq	222c <dl_main+0x97c>
    21ec:	e35e0000 	cmp	lr, #0	; 0x0
    21f0:	0590205c 	ldreq	r2, [r0, #92]
    21f4:	05923004 	ldreq	r3, [r2, #4]
    21f8:	008c3003 	addeq	r3, ip, r3
    21fc:	05823004 	streq	r3, [r2, #4]
    2200:	0a000009 	beq	222c <dl_main+0x97c>
    2204:	e1a02184 	mov	r2, r4, lsl #3
    2208:	e082100e 	add	r1, r2, lr
    220c:	e5933000 	ldr	r3, [r3]
    2210:	e782300e 	str	r3, [r2, lr]
    2214:	e590305c 	ldr	r3, [r0, #92]
    2218:	e5933004 	ldr	r3, [r3, #4]
    221c:	e08c3003 	add	r3, ip, r3
    2220:	e5813004 	str	r3, [r1, #4]
    2224:	e2844001 	add	r4, r4, #1	; 0x1
    2228:	e580105c 	str	r1, [r0, #92]
    222c:	e59030c4 	ldr	r3, [r0, #196]
    2230:	e3530000 	cmp	r3, #0	; 0x0
    2234:	0a00000f 	beq	2278 <dl_main+0x9c8>
    2238:	e35e0000 	cmp	lr, #0	; 0x0
    223c:	059020c4 	ldreq	r2, [r0, #196]
    2240:	05923004 	ldreq	r3, [r2, #4]
    2244:	008c3003 	addeq	r3, ip, r3
    2248:	05823004 	streq	r3, [r2, #4]
    224c:	0a000009 	beq	2278 <dl_main+0x9c8>
    2250:	e1a02184 	mov	r2, r4, lsl #3
    2254:	e082100e 	add	r1, r2, lr
    2258:	e5933000 	ldr	r3, [r3]
    225c:	e782300e 	str	r3, [r2, lr]
    2260:	e59030c4 	ldr	r3, [r0, #196]
    2264:	e5933004 	ldr	r3, [r3, #4]
    2268:	e08c3003 	add	r3, ip, r3
    226c:	e5813004 	str	r3, [r1, #4]
    2270:	e2844001 	add	r4, r4, #1	; 0x1
    2274:	e58010c4 	str	r1, [r0, #196]
    2278:	e3540008 	cmp	r4, #8	; 0x8
    227c:	da000007 	ble	22a0 <dl_main+0x9f0>
    2280:	e59f0624 	ldr	r0, [pc, #1572]	; 28ac <.text+0x1cdc>
    2284:	e08a0000 	add	r0, sl, r0
    2288:	e59f1620 	ldr	r1, [pc, #1568]	; 28b0 <.text+0x1ce0>
    228c:	e08a1001 	add	r1, sl, r1
    2290:	e3a0206a 	mov	r2, #106	; 0x6a
    2294:	e59f3618 	ldr	r3, [pc, #1560]	; 28b4 <.text+0x1ce4>
    2298:	e79a3003 	ldr	r3, [sl, r3]
    229c:	eb003547 	bl	f7c0 <__GI___assert_fail>
    22a0:	e5903050 	ldr	r3, [r0, #80]
    22a4:	e3530000 	cmp	r3, #0	; 0x0
    22a8:	0a00000b 	beq	22dc <dl_main+0xa2c>
    22ac:	e5933004 	ldr	r3, [r3, #4]
    22b0:	e3530011 	cmp	r3, #17	; 0x11
    22b4:	13530007 	cmpne	r3, #7	; 0x7
    22b8:	0a000007 	beq	22dc <dl_main+0xa2c>
    22bc:	e59f05f4 	ldr	r0, [pc, #1524]	; 28b8 <.text+0x1ce8>
    22c0:	e08a0000 	add	r0, sl, r0
    22c4:	e59f15e4 	ldr	r1, [pc, #1508]	; 28b0 <.text+0x1ce0>
    22c8:	e08a1001 	add	r1, sl, r1
    22cc:	e3a02075 	mov	r2, #117	; 0x75
    22d0:	e59f35dc 	ldr	r3, [pc, #1500]	; 28b4 <.text+0x1ce4>
    22d4:	e79a3003 	ldr	r3, [sl, r3]
    22d8:	eb003538 	bl	f7c0 <__GI___assert_fail>
    22dc:	e590301c 	ldr	r3, [r0, #28]
    22e0:	e3530000 	cmp	r3, #0	; 0x0
    22e4:	0a00000b 	beq	2318 <dl_main+0xa68>
    22e8:	e5903024 	ldr	r3, [r0, #36]
    22ec:	e5933004 	ldr	r3, [r3, #4]
    22f0:	e353000c 	cmp	r3, #12	; 0xc
    22f4:	0a000007 	beq	2318 <dl_main+0xa68>
    22f8:	e59f05bc 	ldr	r0, [pc, #1468]	; 28bc <.text+0x1cec>
    22fc:	e08a0000 	add	r0, sl, r0
    2300:	e59f15a8 	ldr	r1, [pc, #1448]	; 28b0 <.text+0x1ce0>
    2304:	e08a1001 	add	r1, sl, r1
    2308:	e3a0207a 	mov	r2, #122	; 0x7a
    230c:	e59f35a0 	ldr	r3, [pc, #1440]	; 28b4 <.text+0x1ce4>
    2310:	e79a3003 	ldr	r3, [sl, r3]
    2314:	eb003529 	bl	f7c0 <__GI___assert_fail>
    2318:	e5903044 	ldr	r3, [r0, #68]
    231c:	e3530000 	cmp	r3, #0	; 0x0
    2320:	0a00000b 	beq	2354 <dl_main+0xaa4>
    2324:	e590304c 	ldr	r3, [r0, #76]
    2328:	e5933004 	ldr	r3, [r3, #4]
    232c:	e3530008 	cmp	r3, #8	; 0x8
    2330:	0a000007 	beq	2354 <dl_main+0xaa4>
    2334:	e59f0584 	ldr	r0, [pc, #1412]	; 28c0 <.text+0x1cf0>
    2338:	e08a0000 	add	r0, sl, r0
    233c:	e59f156c 	ldr	r1, [pc, #1388]	; 28b0 <.text+0x1ce0>
    2340:	e08a1001 	add	r1, sl, r1
    2344:	e3a0207e 	mov	r2, #126	; 0x7e
    2348:	e59f3564 	ldr	r3, [pc, #1380]	; 28b4 <.text+0x1ce4>
    234c:	e79a3003 	ldr	r3, [sl, r3]
    2350:	eb00351a 	bl	f7c0 <__GI___assert_fail>
    2354:	e5903078 	ldr	r3, [r0, #120]
    2358:	e3530000 	cmp	r3, #0	; 0x0
    235c:	0a00000c 	beq	2394 <dl_main+0xae4>
    2360:	e5933004 	ldr	r3, [r3, #4]
    2364:	e58531fc 	str	r3, [r5, #508]
    2368:	e3130002 	tst	r3, #2	; 0x2
    236c:	15903078 	ldrne	r3, [r0, #120]
    2370:	15803040 	strne	r3, [r0, #64]
    2374:	e59531fc 	ldr	r3, [r5, #508]
    2378:	e3130004 	tst	r3, #4	; 0x4
    237c:	15903078 	ldrne	r3, [r0, #120]
    2380:	15803058 	strne	r3, [r0, #88]
    2384:	e59531fc 	ldr	r3, [r5, #508]
    2388:	e3130008 	tst	r3, #8	; 0x8
    238c:	15903078 	ldrne	r3, [r0, #120]
    2390:	15803060 	strne	r3, [r0, #96]
    2394:	e5903098 	ldr	r3, [r0, #152]
    2398:	e3530000 	cmp	r3, #0	; 0x0
    239c:	0a000004 	beq	23b4 <dl_main+0xb04>
    23a0:	e5933004 	ldr	r3, [r3, #4]
    23a4:	e58531f8 	str	r3, [r5, #504]
    23a8:	e3130001 	tst	r3, #1	; 0x1
    23ac:	15903098 	ldrne	r3, [r0, #152]
    23b0:	15803060 	strne	r3, [r0, #96]
    23b4:	e5903074 	ldr	r3, [r0, #116]
    23b8:	e3530000 	cmp	r3, #0	; 0x0
    23bc:	13a03000 	movne	r3, #0	; 0x0
    23c0:	1580303c 	strne	r3, [r0, #60]
    23c4:	e1a00007 	mov	r0, r7
    23c8:	eb00188a 	bl	85f8 <_dl_setup_hash>
    23cc:	e51b3040 	ldr	r3, [fp, #-64]
    23d0:	e3530002 	cmp	r3, #2	; 0x2
    23d4:	1a000008 	bne	23fc <dl_main+0xb4c>
    23d8:	e5973008 	ldr	r3, [r7, #8]
    23dc:	e3530000 	cmp	r3, #0	; 0x0
    23e0:	03a00001 	moveq	r0, #1	; 0x1
    23e4:	0b003a4d 	bleq	10d20 <_Exit>
    23e8:	e51b1074 	ldr	r1, [fp, #-116]
    23ec:	e3510000 	cmp	r1, #0	; 0x0
    23f0:	03a00002 	moveq	r0, #2	; 0x2
    23f4:	13a00000 	movne	r0, #0	; 0x0
    23f8:	eb003a48 	bl	10d20 <_Exit>
    23fc:	e51b307c 	ldr	r3, [fp, #-124]
    2400:	e3530000 	cmp	r3, #0	; 0x0
    2404:	059f3478 	ldreq	r3, [pc, #1144]	; 2884 <.text+0x1cb4>
    2408:	079a3003 	ldreq	r3, [sl, r3]
    240c:	05930000 	ldreq	r0, [r3]
    2410:	0b000998 	bleq	4a78 <_dl_init_paths>
    2414:	e59f3440 	ldr	r3, [pc, #1088]	; 285c <.text+0x1c8c>
    2418:	e79a2003 	ldr	r2, [sl, r3]
    241c:	e59231bc 	ldr	r3, [r2, #444]
    2420:	e3530000 	cmp	r3, #0	; 0x0
    2424:	059231d4 	ldreq	r3, [r2, #468]
    2428:	05933000 	ldreq	r3, [r3]
    242c:	058231bc 	streq	r3, [r2, #444]
    2430:	e59f3424 	ldr	r3, [pc, #1060]	; 285c <.text+0x1c8c>
    2434:	e79a2003 	ldr	r2, [sl, r3]
    2438:	e5d23338 	ldrb	r3, [r2, #824]
    243c:	e3c33002 	bic	r3, r3, #2	; 0x2
    2440:	e3833001 	orr	r3, r3, #1	; 0x1
    2444:	e5c23338 	strb	r3, [r2, #824]
    2448:	e2823f6e 	add	r3, r2, #440	; 0x1b8
    244c:	e587300c 	str	r3, [r7, #12]
    2450:	e58271c8 	str	r7, [r2, #456]
    2454:	e5923004 	ldr	r3, [r2, #4]
    2458:	e2833001 	add	r3, r3, #1	; 0x1
    245c:	e5823004 	str	r3, [r2, #4]
    2460:	e2822f66 	add	r2, r2, #408	; 0x198
    2464:	e8920003 	ldmia	r2, {r0, r1}
    2468:	e3a04000 	mov	r4, #0	; 0x0
    246c:	e3a03001 	mov	r3, #1	; 0x1
    2470:	e0933000 	adds	r3, r3, r0
    2474:	e0a44001 	adc	r4, r4, r1
    2478:	e8820018 	stmia	r2, {r3, r4}
    247c:	e59f34ac 	ldr	r3, [pc, #1196]	; 2930 <.text+0x1d60>
    2480:	e79a2003 	ldr	r2, [sl, r3]
    2484:	e592309c 	ldr	r3, [r2, #156]
    2488:	e3730002 	cmn	r3, #2	; 0x2
    248c:	1a00000e 	bne	24cc <dl_main+0xc1c>
    2490:	e5973000 	ldr	r3, [r7]
    2494:	e3530000 	cmp	r3, #0	; 0x0
    2498:	02433001 	subeq	r3, r3, #1	; 0x1
    249c:	0a000009 	beq	24c8 <dl_main+0xc18>
    24a0:	ea000007 	b	24c4 <dl_main+0xc14>
    24a4:	e59f33b0 	ldr	r3, [pc, #944]	; 285c <.text+0x1c8c>
    24a8:	e79a1003 	ldr	r1, [sl, r3]
    24ac:	e0802282 	add	r2, r0, r2, lsl #5
    24b0:	e5923008 	ldr	r3, [r2, #8]
    24b4:	e58133d0 	str	r3, [r1, #976]
    24b8:	e5923014 	ldr	r3, [r2, #20]
    24bc:	e58133d4 	str	r3, [r1, #980]
    24c0:	ea000018 	b	2528 <dl_main+0xc78>
    24c4:	e3a03000 	mov	r3, #0	; 0x0
    24c8:	e582309c 	str	r3, [r2, #156]
    24cc:	e59f3388 	ldr	r3, [pc, #904]	; 285c <.text+0x1c8c>
    24d0:	e79a2003 	ldr	r2, [sl, r3]
    24d4:	e5921358 	ldr	r1, [r2, #856]
    24d8:	e591301c 	ldr	r3, [r1, #28]
    24dc:	e0810003 	add	r0, r1, r3
    24e0:	e5820304 	str	r0, [r2, #772]
    24e4:	e591302c 	ldr	r3, [r1, #44]
    24e8:	e5c2330c 	strb	r3, [r2, #780]
    24ec:	e1a03443 	mov	r3, r3, asr #8
    24f0:	e5c2330d 	strb	r3, [r2, #781]
    24f4:	e5d1202c 	ldrb	r2, [r1, #44]
    24f8:	e5d1302d 	ldrb	r3, [r1, #45]
    24fc:	e1822403 	orr	r2, r2, r3, lsl #8
    2500:	e2422001 	sub	r2, r2, #1	; 0x1
    2504:	e3720001 	cmn	r2, #1	; 0x1
    2508:	0a000006 	beq	2528 <dl_main+0xc78>
    250c:	e59f1390 	ldr	r1, [pc, #912]	; 28a4 <.text+0x1cd4>
    2510:	e7903282 	ldr	r3, [r0, r2, lsl #5]
    2514:	e1530001 	cmp	r3, r1
    2518:	0affffe1 	beq	24a4 <dl_main+0xbf4>
    251c:	e2422001 	sub	r2, r2, #1	; 0x1
    2520:	e3720001 	cmn	r2, #1	; 0x1
    2524:	1afffff9 	bne	2510 <dl_main+0xc60>
    2528:	e59f332c 	ldr	r3, [pc, #812]	; 285c <.text+0x1c8c>
    252c:	e79a3003 	ldr	r3, [sl, r3]
    2530:	e59331c4 	ldr	r3, [r3, #452]
    2534:	e3530000 	cmp	r3, #0	; 0x0
    2538:	0a000008 	beq	2560 <dl_main+0xcb0>
    253c:	e59f0380 	ldr	r0, [pc, #896]	; 28c4 <.text+0x1cf4>
    2540:	e08a0000 	add	r0, sl, r0
    2544:	e59f141c 	ldr	r1, [pc, #1052]	; 2968 <.text+0x1d98>
    2548:	e08a1001 	add	r1, sl, r1
    254c:	e3a02e47 	mov	r2, #1136	; 0x470
    2550:	e282200a 	add	r2, r2, #10	; 0xa
    2554:	e59f3410 	ldr	r3, [pc, #1040]	; 296c <.text+0x1d9c>
    2558:	e79a3003 	ldr	r3, [sl, r3]
    255c:	eb003497 	bl	f7c0 <__GI___assert_fail>
    2560:	e3a09000 	mov	r9, #0	; 0x0
    2564:	e1a08009 	mov	r8, r9
    2568:	e59f3358 	ldr	r3, [pc, #856]	; 28c8 <.text+0x1cf8>
    256c:	e79a3003 	ldr	r3, [sl, r3]
    2570:	e5934000 	ldr	r4, [r3]
    2574:	e1540009 	cmp	r4, r9
    2578:	0a000024 	beq	2610 <dl_main+0xd60>
    257c:	e1a00004 	mov	r0, r4
    2580:	eb003aa6 	bl	11020 <strlen>
    2584:	e1a02000 	mov	r2, r0
    2588:	e2803007 	add	r3, r0, #7	; 0x7
    258c:	e3c33003 	bic	r3, r3, #3	; 0x3
    2590:	e063d00d 	rsb	sp, r3, sp
    2594:	e28d0010 	add	r0, sp, #16	; 0x10
    2598:	e1a01004 	mov	r1, r4
    259c:	e2822001 	add	r2, r2, #1	; 0x1
    25a0:	eb003ccb 	bl	118d4 <memcpy>
    25a4:	e50b004c 	str	r0, [fp, #-76]
    25a8:	e59f331c 	ldr	r3, [pc, #796]	; 28cc <.text+0x1cfc>
    25ac:	e79a5003 	ldr	r5, [sl, r3]
    25b0:	ea000010 	b	25f8 <dl_main+0xd48>
    25b4:	e5d43000 	ldrb	r3, [r4]
    25b8:	e3530000 	cmp	r3, #0	; 0x0
    25bc:	0a00000d 	beq	25f8 <dl_main+0xd48>
    25c0:	e5953000 	ldr	r3, [r5]
    25c4:	e3530000 	cmp	r3, #0	; 0x0
    25c8:	0a000004 	beq	25e0 <dl_main+0xd30>
    25cc:	e1a00004 	mov	r0, r4
    25d0:	e3a0102f 	mov	r1, #47	; 0x2f
    25d4:	eb003a45 	bl	10ef0 <index>
    25d8:	e3500000 	cmp	r0, #0	; 0x0
    25dc:	1a000005 	bne	25f8 <dl_main+0xd48>
    25e0:	e1a00004 	mov	r0, r4
    25e4:	e1a01007 	mov	r1, r7
    25e8:	e59f22e0 	ldr	r2, [pc, #736]	; 28d0 <.text+0x1d00>
    25ec:	e08a2002 	add	r2, sl, r2
    25f0:	ebfffc79 	bl	17dc <do_preload>
    25f4:	e0899000 	add	r9, r9, r0
    25f8:	e24b004c 	sub	r0, fp, #76	; 0x4c
    25fc:	e59f12d0 	ldr	r1, [pc, #720]	; 28d4 <.text+0x1d04>
    2600:	e08a1001 	add	r1, sl, r1
    2604:	eb003538 	bl	faec <__strsep>
    2608:	e2504000 	subs	r4, r0, #0	; 0x0
    260c:	1affffe8 	bne	25b4 <dl_main+0xd04>
    2610:	e59f32c0 	ldr	r3, [pc, #704]	; 28d8 <.text+0x1d08>
    2614:	e79a4003 	ldr	r4, [sl, r3]
    2618:	e1a00004 	mov	r0, r4
    261c:	e3a01004 	mov	r1, #4	; 0x4
    2620:	eb003886 	bl	10840 <__access>
    2624:	e3500000 	cmp	r0, #0	; 0x0
    2628:	1a00006f 	bne	27ec <dl_main+0xf3c>
    262c:	e1a00004 	mov	r0, r4
    2630:	e24b1050 	sub	r1, fp, #80	; 0x50
    2634:	e3a02003 	mov	r2, #3	; 0x3
    2638:	eb002777 	bl	c41c <_dl_sysdep_read_whole_file>
    263c:	e1a05000 	mov	r5, r0
    2640:	e3700001 	cmn	r0, #1	; 0x1
    2644:	0a000068 	beq	27ec <dl_main+0xf3c>
    2648:	e50b0054 	str	r0, [fp, #-84]
    264c:	e51b4050 	ldr	r4, [fp, #-80]
    2650:	e3540000 	cmp	r4, #0	; 0x0
    2654:	0a000011 	beq	26a0 <dl_main+0xdf0>
    2658:	e51b6054 	ldr	r6, [fp, #-84]
    265c:	e1a00006 	mov	r0, r6
    2660:	e3a01023 	mov	r1, #35	; 0x23
    2664:	e1a02004 	mov	r2, r4
    2668:	eb003abe 	bl	11168 <__memchr>
    266c:	e3500000 	cmp	r0, #0	; 0x0
    2670:	0a00000a 	beq	26a0 <dl_main+0xdf0>
    2674:	e0663000 	rsb	r3, r6, r0
    2678:	e0634004 	rsb	r4, r3, r4
    267c:	e3a02020 	mov	r2, #32	; 0x20
    2680:	e5c02000 	strb	r2, [r0]
    2684:	e2544001 	subs	r4, r4, #1	; 0x1
    2688:	0a000004 	beq	26a0 <dl_main+0xdf0>
    268c:	e5f03001 	ldrb	r3, [r0, #1]!
    2690:	e353000a 	cmp	r3, #10	; 0xa
    2694:	1afffff9 	bne	2680 <dl_main+0xdd0>
    2698:	e3540000 	cmp	r4, #0	; 0x0
    269c:	1affffed 	bne	2658 <dl_main+0xda8>
    26a0:	e51b3050 	ldr	r3, [fp, #-80]
    26a4:	e0850003 	add	r0, r5, r3
    26a8:	e5502001 	ldrb	r2, [r0, #-1]
    26ac:	e3520020 	cmp	r2, #32	; 0x20
    26b0:	13520009 	cmpne	r2, #9	; 0x9
    26b4:	0a00001e 	beq	2734 <dl_main+0xe84>
    26b8:	e352000a 	cmp	r2, #10	; 0xa
    26bc:	0a00001c 	beq	2734 <dl_main+0xe84>
    26c0:	e352003a 	cmp	r2, #58	; 0x3a
    26c4:	0a00001a 	beq	2734 <dl_main+0xe84>
    26c8:	e1a04000 	mov	r4, r0
    26cc:	e1500005 	cmp	r0, r5
    26d0:	9a00001b 	bls	2744 <dl_main+0xe94>
    26d4:	e3520020 	cmp	r2, #32	; 0x20
    26d8:	0a000011 	beq	2724 <dl_main+0xe74>
    26dc:	e3520009 	cmp	r2, #9	; 0x9
    26e0:	0a00000f 	beq	2724 <dl_main+0xe74>
    26e4:	e352000a 	cmp	r2, #10	; 0xa
    26e8:	0a00000d 	beq	2724 <dl_main+0xe74>
    26ec:	e352003a 	cmp	r2, #58	; 0x3a
    26f0:	0a00000b 	beq	2724 <dl_main+0xe74>
    26f4:	e2444001 	sub	r4, r4, #1	; 0x1
    26f8:	e1540005 	cmp	r4, r5
    26fc:	9a000010 	bls	2744 <dl_main+0xe94>
    2700:	e5543001 	ldrb	r3, [r4, #-1]
    2704:	e3530020 	cmp	r3, #32	; 0x20
    2708:	0a000005 	beq	2724 <dl_main+0xe74>
    270c:	e3530009 	cmp	r3, #9	; 0x9
    2710:	0a000003 	beq	2724 <dl_main+0xe74>
    2714:	e353000a 	cmp	r3, #10	; 0xa
    2718:	0a000001 	beq	2724 <dl_main+0xe74>
    271c:	e353003a 	cmp	r3, #58	; 0x3a
    2720:	1afffff3 	bne	26f4 <dl_main+0xe44>
    2724:	e1540005 	cmp	r4, r5
    2728:	83a03000 	movhi	r3, #0	; 0x0
    272c:	85443001 	strhib	r3, [r4, #-1]
    2730:	ea000003 	b	2744 <dl_main+0xe94>
    2734:	e3a04000 	mov	r4, #0	; 0x0
    2738:	e51b3050 	ldr	r3, [fp, #-80]
    273c:	e0853003 	add	r3, r5, r3
    2740:	e5434001 	strb	r4, [r3, #-1]
    2744:	e1550004 	cmp	r5, r4
    2748:	150b5054 	strne	r5, [fp, #-84]
    274c:	0a00000e 	beq	278c <dl_main+0xedc>
    2750:	e24b0054 	sub	r0, fp, #84	; 0x54
    2754:	e59f1180 	ldr	r1, [pc, #384]	; 28dc <.text+0x1d0c>
    2758:	e08a1001 	add	r1, sl, r1
    275c:	eb0034e2 	bl	faec <__strsep>
    2760:	e3500000 	cmp	r0, #0	; 0x0
    2764:	0a000008 	beq	278c <dl_main+0xedc>
    2768:	e5d03000 	ldrb	r3, [r0]
    276c:	e3530000 	cmp	r3, #0	; 0x0
    2770:	0afffff6 	beq	2750 <dl_main+0xea0>
    2774:	e1a01007 	mov	r1, r7
    2778:	e59f3158 	ldr	r3, [pc, #344]	; 28d8 <.text+0x1d08>
    277c:	e79a2003 	ldr	r2, [sl, r3]
    2780:	ebfffc15 	bl	17dc <do_preload>
    2784:	e0899000 	add	r9, r9, r0
    2788:	eafffff0 	b	2750 <dl_main+0xea0>
    278c:	e3540000 	cmp	r4, #0	; 0x0
    2790:	0a000012 	beq	27e0 <dl_main+0xf30>
    2794:	e0653004 	rsb	r3, r5, r4
    2798:	e1a00004 	mov	r0, r4
    279c:	e51b1050 	ldr	r1, [fp, #-80]
    27a0:	e0631001 	rsb	r1, r3, r1
    27a4:	eb003a35 	bl	11080 <__strnlen>
    27a8:	e1a02000 	mov	r2, r0
    27ac:	e2803007 	add	r3, r0, #7	; 0x7
    27b0:	e3c33003 	bic	r3, r3, #3	; 0x3
    27b4:	e063d00d 	rsb	sp, r3, sp
    27b8:	e28d0010 	add	r0, sp, #16	; 0x10
    27bc:	e3a03000 	mov	r3, #0	; 0x0
    27c0:	e7c03002 	strb	r3, [r0, r2]
    27c4:	e1a01004 	mov	r1, r4
    27c8:	eb003c41 	bl	118d4 <memcpy>
    27cc:	e1a01007 	mov	r1, r7
    27d0:	e59f3100 	ldr	r3, [pc, #256]	; 28d8 <.text+0x1d08>
    27d4:	e79a2003 	ldr	r2, [sl, r3]
    27d8:	ebfffbff 	bl	17dc <do_preload>
    27dc:	e0899000 	add	r9, r9, r0
    27e0:	e1a00005 	mov	r0, r5
    27e4:	e51b1050 	ldr	r1, [fp, #-80]
    27e8:	eb003928 	bl	10c90 <__munmap>
    27ec:	e59f3068 	ldr	r3, [pc, #104]	; 285c <.text+0x1c8c>
    27f0:	e79a3003 	ldr	r3, [sl, r3]
    27f4:	e59321c4 	ldr	r2, [r3, #452]
    27f8:	e3520000 	cmp	r2, #0	; 0x0
    27fc:	0a00005d 	beq	2978 <.text+0x1da8>
    2800:	e1a03109 	mov	r3, r9, lsl #2
    2804:	e2833004 	add	r3, r3, #4	; 0x4
    2808:	e063d00d 	rsb	sp, r3, sp
    280c:	e28d8010 	add	r8, sp, #16	; 0x10
    2810:	e1a03002 	mov	r3, r2
    2814:	e3a05000 	mov	r5, #0	; 0x0
    2818:	e7883105 	str	r3, [r8, r5, lsl #2]
    281c:	e2855001 	add	r5, r5, #1	; 0x1
    2820:	e593300c 	ldr	r3, [r3, #12]
    2824:	e3530000 	cmp	r3, #0	; 0x0
    2828:	1afffffa 	bne	2818 <dl_main+0xf68>
    282c:	e1550009 	cmp	r5, r9
    2830:	0a000050 	beq	2978 <.text+0x1da8>
    2834:	e59f00a4 	ldr	r0, [pc, #164]	; 28e0 <.text+0x1d10>
    2838:	e08a0000 	add	r0, sl, r0
    283c:	e59f1124 	ldr	r1, [pc, #292]	; 2968 <.text+0x1d98>
    2840:	e08a1001 	add	r1, sl, r1
    2844:	e3a02e4f 	mov	r2, #1264	; 0x4f0
    2848:	e2822006 	add	r2, r2, #6	; 0x6
    284c:	e59f3118 	ldr	r3, [pc, #280]	; 296c <.text+0x1d9c>
    2850:	e79a3003 	ldr	r3, [sl, r3]
    2854:	eb0033d9 	bl	f7c0 <__GI___assert_fail>
    2858:	0001bcc8 	andeq	fp, r1, r8, asr #25
    285c:	0000023c 	andeq	r0, r0, ip, lsr r2
    2860:	000001ec 	andeq	r0, r0, ip, ror #3
    2864:	00000050 	andeq	r0, r0, r0, asr r0
    2868:	00000054 	andeq	r0, r0, r4, asr r0
    286c:	00000244 	andeq	r0, r0, r4, asr #4
    2870:	000001cc 	andeq	r0, r0, ip, asr #3
    2874:	000001d4 	ldreqd	r0, [r0], -r4
    2878:	ffff59bc 	swinv	0x00ff59bc
    287c:	ffff59c4 	swinv	0x00ff59c4
    2880:	ffff59d0 	swinv	0x00ff59d0
    2884:	00000064 	andeq	r0, r0, r4, rrx
    2888:	ffff59e0 	swinv	0x00ff59e0
    288c:	ffff59f0 	swinv	0x00ff59f0
    2890:	6474e551 	ldrvsbt	lr, [r4], #-1361
    2894:	00000044 	andeq	r0, r0, r4, asr #32
    2898:	ffff5f1c 	swinv	0x00ff5f1c
    289c:	00000068 	andeq	r0, r0, r8, rrx
    28a0:	0000006c 	andeq	r0, r0, ip, rrx
    28a4:	6474e552 	ldrvsbt	lr, [r4], #-1362
    28a8:	ffff5f44 	swinv	0x00ff5f44
    28ac:	ffff56d0 	swinv	0x00ff56d0
    28b0:	ffff56dc 	swinv	0x00ff56dc
    28b4:	0000005c 	andeq	r0, r0, ip, asr r0
    28b8:	ffff5f68 	swinv	0x00ff5f68
    28bc:	ffff5fa0 	swinv	0x00ff5fa0
    28c0:	ffff5708 	swinv	0x00ff5708
    28c4:	ffff5fcc 	swinv	0x00ff5fcc
    28c8:	00000070 	andeq	r0, r0, r0, ror r0
    28cc:	00000200 	andeq	r0, r0, r0, lsl #4
    28d0:	ffff5ffc 	swinv	0x00ff5ffc
    28d4:	ffff6008 	swinv	0x00ff6008
    28d8:	00000060 	andeq	r0, r0, r0, rrx
    28dc:	ffff600c 	swinv	0x00ff600c
    28e0:	ffff6014 	swinv	0x00ff6014
    28e4:	ffff6024 	swinv	0x00ff6024
    28e8:	ffff6070 	swinv	0x00ff6070
    28ec:	00000074 	andeq	r0, r0, r4, ror r0
    28f0:	00000048 	andeq	r0, r0, r8, asr #32
    28f4:	000001d8 	ldreqd	r0, [r0], -r8
    28f8:	ffff60bc 	swinv	0x00ff60bc
    28fc:	ffff60cc 	swinv	0x00ff60cc
    2900:	ffff6c8c 	swinv	0x00ff6c8c
    2904:	ffff60ec 	swinv	0x00ff60ec
    2908:	ffff610c 	swinv	0x00ff610c
    290c:	ffff6114 	swinv	0x00ff6114
    2910:	ffff6128 	swinv	0x00ff6128
    2914:	ffff613c 	swinv	0x00ff613c
    2918:	ffff614c 	swinv	0x00ff614c
    291c:	0000020c 	andeq	r0, r0, ip, lsl #4
    2920:	ffff6164 	swinv	0x00ff6164
    2924:	0000020c 	andeq	r0, r0, ip, lsl #4
    2928:	00000078 	andeq	r0, r0, r8, ror r0
    292c:	00000040 	andeq	r0, r0, r0, asr #32
    2930:	00000210 	andeq	r0, r0, r0, lsl r2
    2934:	0000007c 	andeq	r0, r0, ip, ror r0
    2938:	ffff6190 	swinv	0x00ff6190
    293c:	000001d8 	ldreqd	r0, [r0], -r8
    2940:	ffff61a8 	swinv	0x00ff61a8
    2944:	ffff61b0 	swinv	0x00ff61b0
    2948:	ffff61c4 	swinv	0x00ff61c4
    294c:	ffff6010 	swinv	0x00ff6010
    2950:	ffff55f8 	swinv	0x00ff55f8
    2954:	ffff5604 	swinv	0x00ff5604
    2958:	ffff5658 	swinv	0x00ff5658
    295c:	ffff565c 	swinv	0x00ff565c
    2960:	ffff5664 	swinv	0x00ff5664
    2964:	ffff567c 	swinv	0x00ff567c
    2968:	ffff5858 	swinv	0x00ff5858
    296c:	00000058 	andeq	r0, r0, r8, asr r0
    2970:	00000210 	andeq	r0, r0, r0, lsl r2
    2974:	0000023c 	andeq	r0, r0, ip, lsr r2
    2978:	e3a03000 	mov	r3, #0	; 0x0
    297c:	e58d3000 	str	r3, [sp]
    2980:	e1a00007 	mov	r0, r7
    2984:	e1a01008 	mov	r1, r8
    2988:	e1a02009 	mov	r2, r9
    298c:	e51b3040 	ldr	r3, [fp, #-64]
    2990:	e3530003 	cmp	r3, #3	; 0x3
    2994:	13a03000 	movne	r3, #0	; 0x0
    2998:	03a03001 	moveq	r3, #1	; 0x1
    299c:	eb001f32 	bl	a66c <_dl_map_object_deps>
    29a0:	e597515c 	ldr	r5, [r7, #348]
    29a4:	e3550000 	cmp	r5, #0	; 0x0
    29a8:	0a000007 	beq	29cc <.text+0x1dfc>
    29ac:	e2455001 	sub	r5, r5, #1	; 0x1
    29b0:	e5973158 	ldr	r3, [r7, #344]
    29b4:	e7932105 	ldr	r2, [r3, r5, lsl #2]
    29b8:	e5d23180 	ldrb	r3, [r2, #384]
    29bc:	e3833010 	orr	r3, r3, #16	; 0x10
    29c0:	e5c23180 	strb	r3, [r2, #384]
    29c4:	e3550000 	cmp	r5, #0	; 0x0
    29c8:	1afffff7 	bne	29ac <.text+0x1ddc>
    29cc:	e51f3060 	ldr	r3, [pc, #-96]	; 2974 <.text+0x1da4>
    29d0:	e79a3003 	ldr	r3, [sl, r3]
    29d4:	e59311c8 	ldr	r1, [r3, #456]
    29d8:	e59321c4 	ldr	r2, [r3, #452]
    29dc:	e581200c 	str	r2, [r1, #12]
    29e0:	e59331c4 	ldr	r3, [r3, #452]
    29e4:	e3530000 	cmp	r3, #0	; 0x0
    29e8:	15831010 	strne	r1, [r3, #16]
    29ec:	e3a05001 	mov	r5, #1	; 0x1
    29f0:	e597315c 	ldr	r3, [r7, #348]
    29f4:	e1a01003 	mov	r1, r3
    29f8:	e1530005 	cmp	r3, r5
    29fc:	9a000009 	bls	2a28 <.text+0x1e58>
    2a00:	e5972158 	ldr	r2, [r7, #344]
    2a04:	e51f3098 	ldr	r3, [pc, #-152]	; 2974 <.text+0x1da4>
    2a08:	e79a3003 	ldr	r3, [sl, r3]
    2a0c:	e2830f6e 	add	r0, r3, #440	; 0x1b8
    2a10:	e7923105 	ldr	r3, [r2, r5, lsl #2]
    2a14:	e1530000 	cmp	r3, r0
    2a18:	0a000002 	beq	2a28 <.text+0x1e58>
    2a1c:	e2855001 	add	r5, r5, #1	; 0x1
    2a20:	e1510005 	cmp	r1, r5
    2a24:	8afffff9 	bhi	2a10 <.text+0x1e40>
    2a28:	e3a00000 	mov	r0, #0	; 0x0
    2a2c:	e50b0080 	str	r0, [fp, #-128]
    2a30:	e597115c 	ldr	r1, [r7, #348]
    2a34:	e1510005 	cmp	r1, r5
    2a38:	9a00003d 	bls	2b34 <.text+0x1f64>
    2a3c:	e3a03001 	mov	r3, #1	; 0x1
    2a40:	e50b3080 	str	r3, [fp, #-128]
    2a44:	e51f30d8 	ldr	r3, [pc, #-216]	; 2974 <.text+0x1da4>
    2a48:	e79a0003 	ldr	r0, [sl, r3]
    2a4c:	e5973158 	ldr	r3, [r7, #344]
    2a50:	e0832105 	add	r2, r3, r5, lsl #2
    2a54:	e5123004 	ldr	r3, [r2, #-4]
    2a58:	e58031c8 	str	r3, [r0, #456]
    2a5c:	e51b3040 	ldr	r3, [fp, #-64]
    2a60:	e3530000 	cmp	r3, #0	; 0x0
    2a64:	1a000005 	bne	2a80 <.text+0x1eb0>
    2a68:	e2853001 	add	r3, r5, #1	; 0x1
    2a6c:	e1530001 	cmp	r3, r1
    2a70:	35923004 	ldrcc	r3, [r2, #4]
    2a74:	23a03000 	movcs	r3, #0	; 0x0
    2a78:	e58031c4 	str	r3, [r0, #452]
    2a7c:	ea000004 	b	2a94 <.text+0x1ec4>
    2a80:	e51f3114 	ldr	r3, [pc, #-276]	; 2974 <.text+0x1da4>
    2a84:	e79a2003 	ldr	r2, [sl, r3]
    2a88:	e59231c8 	ldr	r3, [r2, #456]
    2a8c:	e593300c 	ldr	r3, [r3, #12]
    2a90:	e58231c4 	str	r3, [r2, #452]
    2a94:	e51f3128 	ldr	r3, [pc, #-296]	; 2974 <.text+0x1da4>
    2a98:	e79a2003 	ldr	r2, [sl, r3]
    2a9c:	e59231c8 	ldr	r3, [r2, #456]
    2aa0:	e593100c 	ldr	r1, [r3, #12]
    2aa4:	e59231c4 	ldr	r3, [r2, #452]
    2aa8:	e1510003 	cmp	r1, r3
    2aac:	0a000008 	beq	2ad4 <.text+0x1f04>
    2ab0:	e51f01d4 	ldr	r0, [pc, #-468]	; 28e4 <.text+0x1d14>
    2ab4:	e08a0000 	add	r0, sl, r0
    2ab8:	e51f1158 	ldr	r1, [pc, #-344]	; 2968 <.text+0x1d98>
    2abc:	e08a1001 	add	r1, sl, r1
    2ac0:	e3a02e57 	mov	r2, #1392	; 0x570
    2ac4:	e282200c 	add	r2, r2, #12	; 0xc
    2ac8:	e51f3164 	ldr	r3, [pc, #-356]	; 296c <.text+0x1d9c>
    2acc:	e79a3003 	ldr	r3, [sl, r3]
    2ad0:	eb00333a 	bl	f7c0 <__GI___assert_fail>
    2ad4:	e51f3168 	ldr	r3, [pc, #-360]	; 2974 <.text+0x1da4>
    2ad8:	e79a3003 	ldr	r3, [sl, r3]
    2adc:	e59311c8 	ldr	r1, [r3, #456]
    2ae0:	e2832f6e 	add	r2, r3, #440	; 0x1b8
    2ae4:	e581200c 	str	r2, [r1, #12]
    2ae8:	e59331c4 	ldr	r3, [r3, #452]
    2aec:	e3530000 	cmp	r3, #0	; 0x0
    2af0:	0a00000f 	beq	2b34 <.text+0x1f64>
    2af4:	e5933010 	ldr	r3, [r3, #16]
    2af8:	e1530001 	cmp	r3, r1
    2afc:	0a000007 	beq	2b20 <.text+0x1f50>
    2b00:	e51f0220 	ldr	r0, [pc, #-544]	; 28e8 <.text+0x1d18>
    2b04:	e08a0000 	add	r0, sl, r0
    2b08:	e51f11a8 	ldr	r1, [pc, #-424]	; 2968 <.text+0x1d98>
    2b0c:	e08a1001 	add	r1, sl, r1
    2b10:	e3a02d16 	mov	r2, #1408	; 0x580
    2b14:	e51f31b0 	ldr	r3, [pc, #-432]	; 296c <.text+0x1d9c>
    2b18:	e79a3003 	ldr	r3, [sl, r3]
    2b1c:	eb003327 	bl	f7c0 <__GI___assert_fail>
    2b20:	e51f31b4 	ldr	r3, [pc, #-436]	; 2974 <.text+0x1da4>
    2b24:	e79a3003 	ldr	r3, [sl, r3]
    2b28:	e59321c4 	ldr	r2, [r3, #452]
    2b2c:	e2833f6e 	add	r3, r3, #440	; 0x1b8
    2b30:	e5823010 	str	r3, [r2, #16]
    2b34:	e51b3040 	ldr	r3, [fp, #-64]
    2b38:	e2732001 	rsbs	r2, r3, #1	; 0x1
    2b3c:	33a02000 	movcc	r2, #0	; 0x0
    2b40:	e50b205c 	str	r2, [fp, #-92]
    2b44:	e24b205c 	sub	r2, fp, #92	; 0x5c
    2b48:	e3530003 	cmp	r3, #3	; 0x3
    2b4c:	13a03000 	movne	r3, #0	; 0x0
    2b50:	03a03001 	moveq	r3, #1	; 0x1
    2b54:	e5823004 	str	r3, [r2, #4]
    2b58:	e51f3274 	ldr	r3, [pc, #-628]	; 28ec <.text+0x1d1c>
    2b5c:	e79a0003 	ldr	r0, [sl, r3]
    2b60:	e51f3278 	ldr	r3, [pc, #-632]	; 28f0 <.text+0x1d20>
    2b64:	e79a1003 	ldr	r1, [sl, r3]
    2b68:	eb0023ff 	bl	bb6c <_dl_receive_error>
    2b6c:	e51b3040 	ldr	r3, [fp, #-64]
    2b70:	e3530000 	cmp	r3, #0	; 0x0
    2b74:	0a00017a 	beq	3164 <.text+0x2594>
    2b78:	e51f3250 	ldr	r3, [pc, #-592]	; 2930 <.text+0x1d60>
    2b7c:	e79a3003 	ldr	r3, [sl, r3]
    2b80:	e5933000 	ldr	r3, [r3]
    2b84:	e3130b01 	tst	r3, #1024	; 0x400
    2b88:	0a000048 	beq	2cb0 <.text+0x20e0>
    2b8c:	e2878f56 	add	r8, r7, #344	; 0x158
    2b90:	e3a05000 	mov	r5, #0	; 0x0
    2b94:	e5983004 	ldr	r3, [r8, #4]
    2b98:	e1530005 	cmp	r3, r5
    2b9c:	9a0000a2 	bls	2e2c <.text+0x225c>
    2ba0:	e51f3278 	ldr	r3, [pc, #-632]	; 2930 <.text+0x1d60>
    2ba4:	e79a3003 	ldr	r3, [sl, r3]
    2ba8:	e50b3094 	str	r3, [fp, #-148]
    2bac:	e51f32c0 	ldr	r3, [pc, #-704]	; 28f4 <.text+0x1d24>
    2bb0:	e79a9003 	ldr	r9, [sl, r3]
    2bb4:	e5983000 	ldr	r3, [r8]
    2bb8:	e7934105 	ldr	r4, [r3, r5, lsl #2]
    2bbc:	e5d43181 	ldrb	r3, [r4, #385]
    2bc0:	e3130002 	tst	r3, #2	; 0x2
    2bc4:	0a000006 	beq	2be4 <.text+0x2014>
    2bc8:	e594301c 	ldr	r3, [r4, #28]
    2bcc:	e3a00001 	mov	r0, #1	; 0x1
    2bd0:	e51f12c8 	ldr	r1, [pc, #-712]	; 2910 <.text+0x1d40>
    2bd4:	e08a1001 	add	r1, sl, r1
    2bd8:	e5932000 	ldr	r2, [r3]
    2bdc:	eb002742 	bl	c8ec <_dl_dprintf>
    2be0:	ea00002d 	b	2c9c <.text+0x20cc>
    2be4:	e51b6094 	ldr	r6, [fp, #-148]
    2be8:	e59600a8 	ldr	r0, [r6, #168]
    2bec:	e1a01004 	mov	r1, r4
    2bf0:	eb002746 	bl	c910 <_dl_name_match_p>
    2bf4:	e3500000 	cmp	r0, #0	; 0x0
    2bf8:	158640ac 	strne	r4, [r6, #172]
    2bfc:	e594301c 	ldr	r3, [r4, #28]
    2c00:	e5932000 	ldr	r2, [r3]
    2c04:	e5d23000 	ldrb	r3, [r2]
    2c08:	e3530000 	cmp	r3, #0	; 0x0
    2c0c:	11a0e002 	movne	lr, r2
    2c10:	1a000005 	bne	2c2c <.text+0x205c>
    2c14:	e5993000 	ldr	r3, [r9]
    2c18:	e5932000 	ldr	r2, [r3]
    2c1c:	e3520000 	cmp	r2, #0	; 0x0
    2c20:	11a0e002 	movne	lr, r2
    2c24:	051f3334 	ldreq	r3, [pc, #-820]	; 28f8 <.text+0x1d28>
    2c28:	008ae003 	addeq	lr, sl, r3
    2c2c:	e5942004 	ldr	r2, [r4, #4]
    2c30:	e5d23000 	ldrb	r3, [r2]
    2c34:	e3530000 	cmp	r3, #0	; 0x0
    2c38:	11a0c002 	movne	ip, r2
    2c3c:	1a000005 	bne	2c58 <.text+0x2088>
    2c40:	e5993000 	ldr	r3, [r9]
    2c44:	e5933000 	ldr	r3, [r3]
    2c48:	e3530000 	cmp	r3, #0	; 0x0
    2c4c:	11a0c003 	movne	ip, r3
    2c50:	051f3360 	ldreq	r3, [pc, #-864]	; 28f8 <.text+0x1d28>
    2c54:	008ac003 	addeq	ip, sl, r3
    2c58:	e3a02008 	mov	r2, #8	; 0x8
    2c5c:	e58d2000 	str	r2, [sp]
    2c60:	e59431a0 	ldr	r3, [r4, #416]
    2c64:	e58d3004 	str	r3, [sp, #4]
    2c68:	e58d2008 	str	r2, [sp, #8]
    2c6c:	e5943000 	ldr	r3, [r4]
    2c70:	e58d300c 	str	r3, [sp, #12]
    2c74:	e3a00001 	mov	r0, #1	; 0x1
    2c78:	e51f1384 	ldr	r1, [pc, #-900]	; 28fc <.text+0x1d2c>
    2c7c:	e08a1001 	add	r1, sl, r1
    2c80:	e1a0200e 	mov	r2, lr
    2c84:	e1a0300c 	mov	r3, ip
    2c88:	eb002717 	bl	c8ec <_dl_dprintf>
    2c8c:	e3a00001 	mov	r0, #1	; 0x1
    2c90:	e51f1398 	ldr	r1, [pc, #-920]	; 2900 <.text+0x1d30>
    2c94:	e08a1001 	add	r1, sl, r1
    2c98:	eb002713 	bl	c8ec <_dl_dprintf>
    2c9c:	e2855001 	add	r5, r5, #1	; 0x1
    2ca0:	e5983004 	ldr	r3, [r8, #4]
    2ca4:	e1530005 	cmp	r3, r5
    2ca8:	8affffc1 	bhi	2bb4 <.text+0x1fe4>
    2cac:	ea00005e 	b	2e2c <.text+0x225c>
    2cb0:	e51f3388 	ldr	r3, [pc, #-904]	; 2930 <.text+0x1d60>
    2cb4:	e79a1003 	ldr	r1, [sl, r3]
    2cb8:	e5913000 	ldr	r3, [r1]
    2cbc:	e3130c01 	tst	r3, #256	; 0x100
    2cc0:	0a000027 	beq	2d64 <.text+0x2194>
    2cc4:	e1a05007 	mov	r5, r7
    2cc8:	e50b7064 	str	r7, [fp, #-100]
    2ccc:	e24b2064 	sub	r2, fp, #100	; 0x64
    2cd0:	e5913028 	ldr	r3, [r1, #40]
    2cd4:	e5823004 	str	r3, [r2, #4]
    2cd8:	e51f33b8 	ldr	r3, [pc, #-952]	; 2928 <.text+0x1d58>
    2cdc:	e79a0003 	ldr	r0, [sl, r3]
    2ce0:	e51f33bc 	ldr	r3, [pc, #-956]	; 292c <.text+0x1d5c>
    2ce4:	e79a1003 	ldr	r1, [sl, r3]
    2ce8:	eb00239f 	bl	bb6c <_dl_receive_error>
    2cec:	e5974008 	ldr	r4, [r7, #8]
    2cf0:	e3a08001 	mov	r8, #1	; 0x1
    2cf4:	e5943000 	ldr	r3, [r4]
    2cf8:	e3530000 	cmp	r3, #0	; 0x0
    2cfc:	0a000015 	beq	2d58 <.text+0x2188>
    2d00:	e5940000 	ldr	r0, [r4]
    2d04:	e3500001 	cmp	r0, #1	; 0x1
    2d08:	1a00000f 	bne	2d4c <.text+0x217c>
    2d0c:	e595500c 	ldr	r5, [r5, #12]
    2d10:	e5d53181 	ldrb	r3, [r5, #385]
    2d14:	e1a031a3 	mov	r3, r3, lsr #3
    2d18:	e2136001 	ands	r6, r3, #1	; 0x1
    2d1c:	1a00000a 	bne	2d4c <.text+0x217c>
    2d20:	e3580000 	cmp	r8, #0	; 0x0
    2d24:	0a000003 	beq	2d38 <.text+0x2168>
    2d28:	e51f142c 	ldr	r1, [pc, #-1068]	; 2904 <.text+0x1d34>
    2d2c:	e08a1001 	add	r1, sl, r1
    2d30:	eb0026ed 	bl	c8ec <_dl_dprintf>
    2d34:	e1a08006 	mov	r8, r6
    2d38:	e3a00001 	mov	r0, #1	; 0x1
    2d3c:	e51f143c 	ldr	r1, [pc, #-1084]	; 2908 <.text+0x1d38>
    2d40:	e08a1001 	add	r1, sl, r1
    2d44:	e5952004 	ldr	r2, [r5, #4]
    2d48:	eb0026e7 	bl	c8ec <_dl_dprintf>
    2d4c:	e5b43008 	ldr	r3, [r4, #8]!
    2d50:	e3530000 	cmp	r3, #0	; 0x0
    2d54:	1affffe9 	bne	2d00 <.text+0x2130>
    2d58:	e2280001 	eor	r0, r8, #1	; 0x1
    2d5c:	eb0037ef 	bl	10d20 <_Exit>
    2d60:	ea000031 	b	2e2c <.text+0x225c>
    2d64:	e5973024 	ldr	r3, [r7, #36]
    2d68:	e3530000 	cmp	r3, #0	; 0x0
    2d6c:	1a000004 	bne	2d84 <.text+0x21b4>
    2d70:	e3a00001 	mov	r0, #1	; 0x1
    2d74:	e51f1470 	ldr	r1, [pc, #-1136]	; 290c <.text+0x1d3c>
    2d78:	e08a1001 	add	r1, sl, r1
    2d7c:	eb0026da 	bl	c8ec <_dl_dprintf>
    2d80:	ea000029 	b	2e2c <.text+0x225c>
    2d84:	e597400c 	ldr	r4, [r7, #12]
    2d88:	e3540000 	cmp	r4, #0	; 0x0
    2d8c:	0a000026 	beq	2e2c <.text+0x225c>
    2d90:	e5d43181 	ldrb	r3, [r4, #385]
    2d94:	e3130002 	tst	r3, #2	; 0x2
    2d98:	0a000006 	beq	2db8 <.text+0x21e8>
    2d9c:	e594301c 	ldr	r3, [r4, #28]
    2da0:	e3a00001 	mov	r0, #1	; 0x1
    2da4:	e51f149c 	ldr	r1, [pc, #-1180]	; 2910 <.text+0x1d40>
    2da8:	e08a1001 	add	r1, sl, r1
    2dac:	e5932000 	ldr	r2, [r3]
    2db0:	eb0026cd 	bl	c8ec <_dl_dprintf>
    2db4:	ea000019 	b	2e20 <.text+0x2250>
    2db8:	e594501c 	ldr	r5, [r4, #28]
    2dbc:	e5950000 	ldr	r0, [r5]
    2dc0:	e5941004 	ldr	r1, [r4, #4]
    2dc4:	eb003889 	bl	10ff0 <strcmp>
    2dc8:	e3500000 	cmp	r0, #0	; 0x0
    2dcc:	1a000008 	bne	2df4 <.text+0x2224>
    2dd0:	e59431a0 	ldr	r3, [r4, #416]
    2dd4:	e58d3000 	str	r3, [sp]
    2dd8:	e2800001 	add	r0, r0, #1	; 0x1
    2ddc:	e51f14d0 	ldr	r1, [pc, #-1232]	; 2914 <.text+0x1d44>
    2de0:	e08a1001 	add	r1, sl, r1
    2de4:	e5952000 	ldr	r2, [r5]
    2de8:	e3a03008 	mov	r3, #8	; 0x8
    2dec:	eb0026be 	bl	c8ec <_dl_dprintf>
    2df0:	ea00000a 	b	2e20 <.text+0x2250>
    2df4:	e594201c 	ldr	r2, [r4, #28]
    2df8:	e3a03008 	mov	r3, #8	; 0x8
    2dfc:	e58d3000 	str	r3, [sp]
    2e00:	e59431a0 	ldr	r3, [r4, #416]
    2e04:	e58d3004 	str	r3, [sp, #4]
    2e08:	e3a00001 	mov	r0, #1	; 0x1
    2e0c:	e51f14fc 	ldr	r1, [pc, #-1276]	; 2918 <.text+0x1d48>
    2e10:	e08a1001 	add	r1, sl, r1
    2e14:	e5922000 	ldr	r2, [r2]
    2e18:	e5943004 	ldr	r3, [r4, #4]
    2e1c:	eb0026b2 	bl	c8ec <_dl_dprintf>
    2e20:	e594400c 	ldr	r4, [r4, #12]
    2e24:	e3540000 	cmp	r4, #0	; 0x0
    2e28:	1affffd8 	bne	2d90 <.text+0x21c0>
    2e2c:	e51b3040 	ldr	r3, [fp, #-64]
    2e30:	e3530003 	cmp	r3, #3	; 0x3
    2e34:	0a000026 	beq	2ed4 <.text+0x2304>
    2e38:	e3a05001 	mov	r5, #1	; 0x1
    2e3c:	e51f3528 	ldr	r3, [pc, #-1320]	; 291c <.text+0x1d4c>
    2e40:	e79a3003 	ldr	r3, [sl, r3]
    2e44:	e5933000 	ldr	r3, [r3]
    2e48:	e1530005 	cmp	r3, r5
    2e4c:	9a0000c2 	bls	315c <.text+0x258c>
    2e50:	e3a04000 	mov	r4, #0	; 0x0
    2e54:	e51f3520 	ldr	r3, [pc, #-1312]	; 293c <.text+0x1d6c>
    2e58:	e79a8003 	ldr	r8, [sl, r3]
    2e5c:	e1a06005 	mov	r6, r5
    2e60:	e50b4068 	str	r4, [fp, #-104]
    2e64:	e5983000 	ldr	r3, [r8]
    2e68:	e7930105 	ldr	r0, [r3, r5, lsl #2]
    2e6c:	e59731c0 	ldr	r3, [r7, #448]
    2e70:	e88d0050 	stmia	sp, {r4, r6}
    2e74:	e58d6008 	str	r6, [sp, #8]
    2e78:	e58d400c 	str	r4, [sp, #12]
    2e7c:	e1a01007 	mov	r1, r7
    2e80:	e24b2068 	sub	r2, fp, #104	; 0x68
    2e84:	eb00144c 	bl	7fbc <_dl_lookup_symbol_x>
    2e88:	e5982000 	ldr	r2, [r8]
    2e8c:	e51b3068 	ldr	r3, [fp, #-104]
    2e90:	e5933004 	ldr	r3, [r3, #4]
    2e94:	e58d3000 	str	r3, [sp]
    2e98:	e3a03008 	mov	r3, #8	; 0x8
    2e9c:	e58d3004 	str	r3, [sp, #4]
    2ea0:	e58d0008 	str	r0, [sp, #8]
    2ea4:	e1a00006 	mov	r0, r6
    2ea8:	e51f1590 	ldr	r1, [pc, #-1424]	; 2920 <.text+0x1d50>
    2eac:	e08a1001 	add	r1, sl, r1
    2eb0:	e7922105 	ldr	r2, [r2, r5, lsl #2]
    2eb4:	eb00268c 	bl	c8ec <_dl_dprintf>
    2eb8:	e2855001 	add	r5, r5, #1	; 0x1
    2ebc:	e51f35a0 	ldr	r3, [pc, #-1440]	; 2924 <.text+0x1d54>
    2ec0:	e79a3003 	ldr	r3, [sl, r3]
    2ec4:	e5933000 	ldr	r3, [r3]
    2ec8:	e1530005 	cmp	r3, r5
    2ecc:	8affffe3 	bhi	2e60 <.text+0x2290>
    2ed0:	ea0000a1 	b	315c <.text+0x258c>
    2ed4:	e51f35ac 	ldr	r3, [pc, #-1452]	; 2930 <.text+0x1d60>
    2ed8:	e79a3003 	ldr	r3, [sl, r3]
    2edc:	e5932028 	ldr	r2, [r3, #40]
    2ee0:	e3520000 	cmp	r2, #0	; 0x0
    2ee4:	ba00002c 	blt	2f9c <.text+0x23cc>
    2ee8:	e5933020 	ldr	r3, [r3, #32]
    2eec:	e3530000 	cmp	r3, #0	; 0x0
    2ef0:	0a000029 	beq	2f9c <.text+0x23cc>
    2ef4:	e50b206c 	str	r2, [fp, #-108]
    2ef8:	e1a04007 	mov	r4, r7
    2efc:	e597300c 	ldr	r3, [r7, #12]
    2f00:	e3530000 	cmp	r3, #0	; 0x0
    2f04:	0a000003 	beq	2f18 <.text+0x2348>
    2f08:	e594400c 	ldr	r4, [r4, #12]
    2f0c:	e594300c 	ldr	r3, [r4, #12]
    2f10:	e3530000 	cmp	r3, #0	; 0x0
    2f14:	1afffffb 	bne	2f08 <.text+0x2338>
    2f18:	e51f35ac 	ldr	r3, [pc, #-1452]	; 2974 <.text+0x1da4>
    2f1c:	e79a3003 	ldr	r3, [sl, r3]
    2f20:	e2833f6e 	add	r3, r3, #440	; 0x1b8
    2f24:	e1530004 	cmp	r3, r4
    2f28:	0a000009 	beq	2f54 <.text+0x2384>
    2f2c:	e5d43181 	ldrb	r3, [r4, #385]
    2f30:	e3130002 	tst	r3, #2	; 0x2
    2f34:	1a000006 	bne	2f54 <.text+0x2384>
    2f38:	e50b4070 	str	r4, [fp, #-112]
    2f3c:	e51f361c 	ldr	r3, [pc, #-1564]	; 2928 <.text+0x1d58>
    2f40:	e79a0003 	ldr	r0, [sl, r3]
    2f44:	e51f3620 	ldr	r3, [pc, #-1568]	; 292c <.text+0x1d5c>
    2f48:	e79a1003 	ldr	r1, [sl, r3]
    2f4c:	e24b2070 	sub	r2, fp, #112	; 0x70
    2f50:	eb002305 	bl	bb6c <_dl_receive_error>
    2f54:	e5944010 	ldr	r4, [r4, #16]
    2f58:	e3540000 	cmp	r4, #0	; 0x0
    2f5c:	1affffed 	bne	2f18 <.text+0x2348>
    2f60:	e51f3638 	ldr	r3, [pc, #-1592]	; 2930 <.text+0x1d60>
    2f64:	e79a3003 	ldr	r3, [sl, r3]
    2f68:	e5933000 	ldr	r3, [r3]
    2f6c:	e3130b01 	tst	r3, #1024	; 0x400
    2f70:	0a000009 	beq	2f9c <.text+0x23cc>
    2f74:	e51b0080 	ldr	r0, [fp, #-128]
    2f78:	e3500000 	cmp	r0, #0	; 0x0
    2f7c:	0a000006 	beq	2f9c <.text+0x23cc>
    2f80:	e51f3614 	ldr	r3, [pc, #-1556]	; 2974 <.text+0x1da4>
    2f84:	e79a0003 	ldr	r0, [sl, r3]
    2f88:	e2800f6e 	add	r0, r0, #440	; 0x1b8
    2f8c:	e59711c0 	ldr	r1, [r7, #448]
    2f90:	e3a02000 	mov	r2, #0	; 0x0
    2f94:	e1a03002 	mov	r3, r2
    2f98:	eb001710 	bl	8be0 <_dl_relocate_object>
    2f9c:	e51f3670 	ldr	r3, [pc, #-1648]	; 2934 <.text+0x1d64>
    2fa0:	e79a3003 	ldr	r3, [sl, r3]
    2fa4:	e5933000 	ldr	r3, [r3]
    2fa8:	e3530000 	cmp	r3, #0	; 0x0
    2fac:	0a00006a 	beq	315c <.text+0x258c>
    2fb0:	e3a01001 	mov	r1, #1	; 0x1
    2fb4:	e50b1084 	str	r1, [fp, #-132]
    2fb8:	e1a06007 	mov	r6, r7
    2fbc:	e3570000 	cmp	r7, #0	; 0x0
    2fc0:	0a000065 	beq	315c <.text+0x258c>
    2fc4:	e59610ac 	ldr	r1, [r6, #172]
    2fc8:	e3510000 	cmp	r1, #0	; 0x0
    2fcc:	0a00005f 	beq	3150 <.text+0x2580>
    2fd0:	e5963034 	ldr	r3, [r6, #52]
    2fd4:	e5939004 	ldr	r9, [r3, #4]
    2fd8:	e5962000 	ldr	r2, [r6]
    2fdc:	e5913004 	ldr	r3, [r1, #4]
    2fe0:	e0828003 	add	r8, r2, r3
    2fe4:	e51b3084 	ldr	r3, [fp, #-132]
    2fe8:	e3530000 	cmp	r3, #0	; 0x0
    2fec:	0a000005 	beq	3008 <.text+0x2438>
    2ff0:	e3a00001 	mov	r0, #1	; 0x1
    2ff4:	e51f16c4 	ldr	r1, [pc, #-1732]	; 2938 <.text+0x1d68>
    2ff8:	e08a1001 	add	r1, sl, r1
    2ffc:	eb00263a 	bl	c8ec <_dl_dprintf>
    3000:	e3a00000 	mov	r0, #0	; 0x0
    3004:	e50b0084 	str	r0, [fp, #-132]
    3008:	e5962004 	ldr	r2, [r6, #4]
    300c:	e5d23000 	ldrb	r3, [r2]
    3010:	e3530000 	cmp	r3, #0	; 0x0
    3014:	051f36e0 	ldreq	r3, [pc, #-1760]	; 293c <.text+0x1d6c>
    3018:	079a3003 	ldreq	r3, [sl, r3]
    301c:	05933000 	ldreq	r3, [r3]
    3020:	05932000 	ldreq	r2, [r3]
    3024:	e3a00001 	mov	r0, #1	; 0x1
    3028:	e51f16f0 	ldr	r1, [pc, #-1776]	; 2940 <.text+0x1d70>
    302c:	e08a1001 	add	r1, sl, r1
    3030:	eb00262d 	bl	c8ec <_dl_dprintf>
    3034:	e5983004 	ldr	r3, [r8, #4]
    3038:	e0893003 	add	r3, r9, r3
    303c:	e50b3088 	str	r3, [fp, #-136]
    3040:	e51f36d4 	ldr	r3, [pc, #-1748]	; 2974 <.text+0x1da4>
    3044:	e79a3003 	ldr	r3, [sl, r3]
    3048:	e5933000 	ldr	r3, [r3]
    304c:	e2835f56 	add	r5, r3, #344	; 0x158
    3050:	e5954004 	ldr	r4, [r5, #4]
    3054:	e2444001 	sub	r4, r4, #1	; 0x1
    3058:	e3740001 	cmn	r4, #1	; 0x1
    305c:	0a000008 	beq	3084 <.text+0x24b4>
    3060:	e5953000 	ldr	r3, [r5]
    3064:	e51b0088 	ldr	r0, [fp, #-136]
    3068:	e7931104 	ldr	r1, [r3, r4, lsl #2]
    306c:	eb002627 	bl	c910 <_dl_name_match_p>
    3070:	e3500000 	cmp	r0, #0	; 0x0
    3074:	1a000032 	bne	3144 <.text+0x2574>
    3078:	e2444001 	sub	r4, r4, #1	; 0x1
    307c:	e3740001 	cmn	r4, #1	; 0x1
    3080:	1afffff6 	bne	3060 <.text+0x2490>
    3084:	e3a01000 	mov	r1, #0	; 0x0
    3088:	e1a05001 	mov	r5, r1
    308c:	e5983008 	ldr	r3, [r8, #8]
    3090:	e0884003 	add	r4, r8, r3
    3094:	e51f3758 	ldr	r3, [pc, #-1880]	; 2944 <.text+0x1d74>
    3098:	e08a3003 	add	r3, sl, r3
    309c:	e50b3090 	str	r3, [fp, #-144]
    30a0:	e3a01000 	mov	r1, #0	; 0x0
    30a4:	e50b108c 	str	r1, [fp, #-140]
    30a8:	e1550001 	cmp	r5, r1
    30ac:	0a000006 	beq	30cc <.text+0x24fc>
    30b0:	e5940008 	ldr	r0, [r4, #8]
    30b4:	e0890000 	add	r0, r9, r0
    30b8:	e1a01005 	mov	r1, r5
    30bc:	ebfff9a2 	bl	174c <match_version>
    30c0:	e3500000 	cmp	r0, #0	; 0x0
    30c4:	15953004 	ldrne	r3, [r5, #4]
    30c8:	150b308c 	strne	r3, [fp, #-140]
    30cc:	e51b1090 	ldr	r1, [fp, #-144]
    30d0:	e5983004 	ldr	r3, [r8, #4]
    30d4:	e0892003 	add	r2, r9, r3
    30d8:	e5943008 	ldr	r3, [r4, #8]
    30dc:	e089c003 	add	ip, r9, r3
    30e0:	e5d43004 	ldrb	r3, [r4, #4]
    30e4:	e3130002 	tst	r3, #2	; 0x2
    30e8:	151f37a8 	ldrne	r3, [pc, #-1960]	; 2948 <.text+0x1d78>
    30ec:	108a3003 	addne	r3, sl, r3
    30f0:	051f37ac 	ldreq	r3, [pc, #-1964]	; 294c <.text+0x1d7c>
    30f4:	008a3003 	addeq	r3, sl, r3
    30f8:	e58d3000 	str	r3, [sp]
    30fc:	e51b008c 	ldr	r0, [fp, #-140]
    3100:	e3500000 	cmp	r0, #0	; 0x0
    3104:	11a03000 	movne	r3, r0
    3108:	051f37c0 	ldreq	r3, [pc, #-1984]	; 2950 <.text+0x1d80>
    310c:	008a3003 	addeq	r3, sl, r3
    3110:	e58d3004 	str	r3, [sp, #4]
    3114:	e3a00001 	mov	r0, #1	; 0x1
    3118:	e1a0300c 	mov	r3, ip
    311c:	eb0025f2 	bl	c8ec <_dl_dprintf>
    3120:	e594300c 	ldr	r3, [r4, #12]
    3124:	e3530000 	cmp	r3, #0	; 0x0
    3128:	10844003 	addne	r4, r4, r3
    312c:	1affffdb 	bne	30a0 <.text+0x24d0>
    3130:	e598300c 	ldr	r3, [r8, #12]
    3134:	e3530000 	cmp	r3, #0	; 0x0
    3138:	0a000004 	beq	3150 <.text+0x2580>
    313c:	e0888003 	add	r8, r8, r3
    3140:	eaffffbb 	b	3034 <.text+0x2464>
    3144:	e5953000 	ldr	r3, [r5]
    3148:	e7931104 	ldr	r1, [r3, r4, lsl #2]
    314c:	eaffffcd 	b	3088 <.text+0x24b8>
    3150:	e596600c 	ldr	r6, [r6, #12]
    3154:	e3560000 	cmp	r6, #0	; 0x0
    3158:	1affff99 	bne	2fc4 <.text+0x23f4>
    315c:	e3a00000 	mov	r0, #0	; 0x0
    3160:	eb0036ee 	bl	10d20 <_Exit>
    3164:	e597313c 	ldr	r3, [r7, #316]
    3168:	e3530000 	cmp	r3, #0	; 0x0
    316c:	0a00004d 	beq	32a8 <.text+0x26d8>
    3170:	e51f3808 	ldr	r3, [pc, #-2056]	; 2970 <.text+0x1da0>
    3174:	e79a3003 	ldr	r3, [sl, r3]
    3178:	e59330a0 	ldr	r3, [r3, #160]
    317c:	e3530000 	cmp	r3, #0	; 0x0
    3180:	1a000048 	bne	32a8 <.text+0x26d8>
    3184:	e5973034 	ldr	r3, [r7, #52]
    3188:	e5939004 	ldr	r9, [r3, #4]
    318c:	e5973114 	ldr	r3, [r7, #276]
    3190:	e3530000 	cmp	r3, #0	; 0x0
    3194:	1a000008 	bne	31bc <.text+0x25ec>
    3198:	e51f084c 	ldr	r0, [pc, #-2124]	; 2954 <.text+0x1d84>
    319c:	e08a0000 	add	r0, sl, r0
    31a0:	e51f1840 	ldr	r1, [pc, #-2112]	; 2968 <.text+0x1d98>
    31a4:	e08a1001 	add	r1, sl, r1
    31a8:	e3a02d1b 	mov	r2, #1728	; 0x6c0
    31ac:	e2822001 	add	r2, r2, #1	; 0x1
    31b0:	e51f384c 	ldr	r3, [pc, #-2124]	; 296c <.text+0x1d9c>
    31b4:	e79a3003 	ldr	r3, [sl, r3]
    31b8:	eb003180 	bl	f7c0 <__GI___assert_fail>
    31bc:	e597313c 	ldr	r3, [r7, #316]
    31c0:	e5934004 	ldr	r4, [r3, #4]
    31c4:	e5973114 	ldr	r3, [r7, #276]
    31c8:	e5933004 	ldr	r3, [r3, #4]
    31cc:	e0846003 	add	r6, r4, r3
    31d0:	e5975158 	ldr	r5, [r7, #344]
    31d4:	e597315c 	ldr	r3, [r7, #348]
    31d8:	e0858103 	add	r8, r5, r3, lsl #2
    31dc:	e1550008 	cmp	r5, r8
    31e0:	31540006 	cmpcc	r4, r6
    31e4:	2a00001d 	bcs	3260 <.text+0x2690>
    31e8:	e5951000 	ldr	r1, [r5]
    31ec:	e1510007 	cmp	r1, r7
    31f0:	0a000016 	beq	3250 <.text+0x2680>
    31f4:	e5913000 	ldr	r3, [r1]
    31f8:	e3530000 	cmp	r3, #0	; 0x0
    31fc:	1a000017 	bne	3260 <.text+0x2690>
    3200:	e5913110 	ldr	r3, [r1, #272]
    3204:	e3530000 	cmp	r3, #0	; 0x0
    3208:	0a000014 	beq	3260 <.text+0x2690>
    320c:	e5932004 	ldr	r2, [r3, #4]
    3210:	e5943008 	ldr	r3, [r4, #8]
    3214:	e1520003 	cmp	r2, r3
    3218:	1a000010 	bne	3260 <.text+0x2690>
    321c:	e591311c 	ldr	r3, [r1, #284]
    3220:	e3530000 	cmp	r3, #0	; 0x0
    3224:	0a00000d 	beq	3260 <.text+0x2690>
    3228:	e5932004 	ldr	r2, [r3, #4]
    322c:	e5943004 	ldr	r3, [r4, #4]
    3230:	e1520003 	cmp	r2, r3
    3234:	1a000009 	bne	3260 <.text+0x2690>
    3238:	e5940000 	ldr	r0, [r4]
    323c:	e0890000 	add	r0, r9, r0
    3240:	eb0025b2 	bl	c910 <_dl_name_match_p>
    3244:	e3500000 	cmp	r0, #0	; 0x0
    3248:	0a000004 	beq	3260 <.text+0x2690>
    324c:	e2844014 	add	r4, r4, #20	; 0x14
    3250:	e2855004 	add	r5, r5, #4	; 0x4
    3254:	e1550008 	cmp	r5, r8
    3258:	31540006 	cmpcc	r4, r6
    325c:	3affffe1 	bcc	31e8 <.text+0x2618>
    3260:	e1550008 	cmp	r5, r8
    3264:	01540006 	cmpeq	r4, r6
    3268:	e51b1078 	ldr	r1, [fp, #-120]
    326c:	03a01001 	moveq	r1, #1	; 0x1
    3270:	e50b1078 	str	r1, [fp, #-120]
    3274:	e51f390c 	ldr	r3, [pc, #-2316]	; 2970 <.text+0x1da0>
    3278:	e79a3003 	ldr	r3, [sl, r3]
    327c:	e5933000 	ldr	r3, [r3]
    3280:	e3130001 	tst	r3, #1	; 0x1
    3284:	0a000007 	beq	32a8 <.text+0x26d8>
    3288:	e3510000 	cmp	r1, #0	; 0x0
    328c:	151f393c 	ldrne	r3, [pc, #-2364]	; 2958 <.text+0x1d88>
    3290:	108a1003 	addne	r1, sl, r3
    3294:	051f3940 	ldreq	r3, [pc, #-2368]	; 295c <.text+0x1d8c>
    3298:	008a1003 	addeq	r1, sl, r3
    329c:	e51f0944 	ldr	r0, [pc, #-2372]	; 2960 <.text+0x1d90>
    32a0:	e08a0000 	add	r0, sl, r0
    32a4:	eb002570 	bl	c86c <_dl_debug_printf>
    32a8:	e51f393c 	ldr	r3, [pc, #-2364]	; 2974 <.text+0x1da4>
    32ac:	e79a3003 	ldr	r3, [sl, r3]
    32b0:	e59301b8 	ldr	r0, [r3, #440]
    32b4:	eb00243d 	bl	c3b0 <_dl_debug_initialize>
    32b8:	e1a05000 	mov	r5, r0
    32bc:	e5973074 	ldr	r3, [r7, #116]
    32c0:	e3530000 	cmp	r3, #0	; 0x0
    32c4:	15830004 	strne	r0, [r3, #4]
    32c8:	e51f395c 	ldr	r3, [pc, #-2396]	; 2974 <.text+0x1da4>
    32cc:	e79a3003 	ldr	r3, [sl, r3]
    32d0:	e593322c 	ldr	r3, [r3, #556]
    32d4:	e3530000 	cmp	r3, #0	; 0x0
    32d8:	15830004 	strne	r0, [r3, #4]
    32dc:	e51f3970 	ldr	r3, [pc, #-2416]	; 2974 <.text+0x1da4>
    32e0:	e79a3003 	ldr	r3, [sl, r3]
    32e4:	e2872f56 	add	r2, r7, #344	; 0x158
    32e8:	e5832010 	str	r2, [r3, #16]
    32ec:	e5832008 	str	r2, [r3, #8]
    32f0:	e51f3988 	ldr	r3, [pc, #-2440]	; 2970 <.text+0x1da0>
    32f4:	e79a3003 	ldr	r3, [sl, r3]
    32f8:	e2833014 	add	r3, r3, #20	; 0x14
    32fc:	e8920003 	ldmia	r2, {r0, r1}
    3300:	e8830003 	stmia	r3, {r0, r1}
    3304:	e51b1078 	ldr	r1, [fp, #-120]
    3308:	e3510000 	cmp	r1, #0	; 0x0
    330c:	0a000025 	beq	33a8 <.text+0x27d8>
    3310:	e5973140 	ldr	r3, [r7, #320]
    3314:	e3530000 	cmp	r3, #0	; 0x0
    3318:	0a000013 	beq	336c <.text+0x279c>
    331c:	e5973118 	ldr	r3, [r7, #280]
    3320:	e3530000 	cmp	r3, #0	; 0x0
    3324:	1a000008 	bne	334c <.text+0x277c>
    3328:	e51f09cc 	ldr	r0, [pc, #-2508]	; 2964 <.text+0x1d94>
    332c:	e08a0000 	add	r0, sl, r0
    3330:	e51f19d0 	ldr	r1, [pc, #-2512]	; 2968 <.text+0x1d98>
    3334:	e08a1001 	add	r1, sl, r1
    3338:	e3a02e71 	mov	r2, #1808	; 0x710
    333c:	e282200f 	add	r2, r2, #15	; 0xf
    3340:	e51f39dc 	ldr	r3, [pc, #-2524]	; 296c <.text+0x1d9c>
    3344:	e79a3003 	ldr	r3, [sl, r3]
    3348:	eb00311c 	bl	f7c0 <__GI___assert_fail>
    334c:	e5973140 	ldr	r3, [r7, #320]
    3350:	e593c004 	ldr	ip, [r3, #4]
    3354:	e5973118 	ldr	r3, [r7, #280]
    3358:	e5932004 	ldr	r2, [r3, #4]
    335c:	e1a00007 	mov	r0, r7
    3360:	e1a0100c 	mov	r1, ip
    3364:	e08c2002 	add	r2, ip, r2
    3368:	eb002b0c 	bl	dfa0 <_dl_resolve_conflicts>
    336c:	e1a04007 	mov	r4, r7
    3370:	e3570000 	cmp	r7, #0	; 0x0
    3374:	0a000009 	beq	33a0 <.text+0x27d0>
    3378:	e5d43180 	ldrb	r3, [r4, #384]
    337c:	e3833004 	orr	r3, r3, #4	; 0x4
    3380:	e5c43180 	strb	r3, [r4, #384]
    3384:	e594321c 	ldr	r3, [r4, #540]
    3388:	e3530000 	cmp	r3, #0	; 0x0
    338c:	11a00004 	movne	r0, r4
    3390:	1b001c45 	blne	a4ac <_dl_protect_relro>
    3394:	e594400c 	ldr	r4, [r4, #12]
    3398:	e3540000 	cmp	r4, #0	; 0x0
    339c:	1afffff5 	bne	3378 <.text+0x27a8>
    33a0:	eb002e25 	bl	ec3c <_dl_sysdep_start_cleanup>
    33a4:	ea000037 	b	3488 <.text+0x28b8>
    33a8:	e51f3a40 	ldr	r3, [pc, #-2624]	; 2970 <.text+0x1da0>
    33ac:	e79a2003 	ldr	r2, [sl, r3]
    33b0:	e59230a0 	ldr	r3, [r2, #160]
    33b4:	e2536000 	subs	r6, r3, #0	; 0x0
    33b8:	13a06001 	movne	r6, #1	; 0x1
    33bc:	e5923028 	ldr	r3, [r2, #40]
    33c0:	e1863003 	orr	r3, r6, r3
    33c4:	e5823028 	str	r3, [r2, #40]
    33c8:	e1a04007 	mov	r4, r7
    33cc:	e597300c 	ldr	r3, [r7, #12]
    33d0:	e3530000 	cmp	r3, #0	; 0x0
    33d4:	0a000003 	beq	33e8 <.text+0x2818>
    33d8:	e594400c 	ldr	r4, [r4, #12]
    33dc:	e594300c 	ldr	r3, [r4, #12]
    33e0:	e3530000 	cmp	r3, #0	; 0x0
    33e4:	1afffffb 	bne	33d8 <.text+0x2808>
    33e8:	e594301c 	ldr	r3, [r4, #28]
    33ec:	e5933004 	ldr	r3, [r3, #4]
    33f0:	e3530000 	cmp	r3, #0	; 0x0
    33f4:	0a000004 	beq	340c <.text+0x283c>
    33f8:	e3a02001 	mov	r2, #1	; 0x1
    33fc:	e5832008 	str	r2, [r3, #8]
    3400:	e5933004 	ldr	r3, [r3, #4]
    3404:	e3530000 	cmp	r3, #0	; 0x0
    3408:	1afffffb 	bne	33fc <.text+0x282c>
    340c:	e51f3aa0 	ldr	r3, [pc, #-2720]	; 2974 <.text+0x1da4>
    3410:	e79a3003 	ldr	r3, [sl, r3]
    3414:	e2833f6e 	add	r3, r3, #440	; 0x1b8
    3418:	e1530004 	cmp	r3, r4
    341c:	0a000006 	beq	343c <.text+0x286c>
    3420:	e1a00004 	mov	r0, r4
    3424:	e59411c0 	ldr	r1, [r4, #448]
    3428:	e51f3ac0 	ldr	r3, [pc, #-2752]	; 2970 <.text+0x1da0>
    342c:	e79a3003 	ldr	r3, [sl, r3]
    3430:	e5932028 	ldr	r2, [r3, #40]
    3434:	e1a03006 	mov	r3, r6
    3438:	eb0015e8 	bl	8be0 <_dl_relocate_object>
    343c:	e5944010 	ldr	r4, [r4, #16]
    3440:	e3540000 	cmp	r4, #0	; 0x0
    3444:	1affffe7 	bne	33e8 <.text+0x2818>
    3448:	eb002dfb 	bl	ec3c <_dl_sysdep_start_cleanup>
    344c:	e51f3ae0 	ldr	r3, [pc, #-2784]	; 2974 <.text+0x1da4>
    3450:	e79a3003 	ldr	r3, [sl, r3]
    3454:	e59331a4 	ldr	r3, [r3, #420]
    3458:	e3530000 	cmp	r3, #0	; 0x0
    345c:	1b002798 	blne	d2c4 <_dl_start_profile>
    3460:	e51b3080 	ldr	r3, [fp, #-128]
    3464:	e3530000 	cmp	r3, #0	; 0x0
    3468:	0a000006 	beq	3488 <.text+0x28b8>
    346c:	e51f3b00 	ldr	r3, [pc, #-2816]	; 2974 <.text+0x1da4>
    3470:	e79a0003 	ldr	r0, [sl, r3]
    3474:	e2800f6e 	add	r0, r0, #440	; 0x1b8
    3478:	e59711c0 	ldr	r1, [r7, #448]
    347c:	e3a02000 	mov	r2, #0	; 0x0
    3480:	e1a03002 	mov	r3, r2
    3484:	eb0015d5 	bl	8be0 <_dl_relocate_object>
    3488:	e3a03001 	mov	r3, #1	; 0x1
    348c:	e585300c 	str	r3, [r5, #12]
    3490:	eb0023e0 	bl	c418 <_dl_debug_state>
    3494:	eb001119 	bl	7900 <_dl_unload_cache>
    3498:	e24bd028 	sub	sp, fp, #40	; 0x28
    349c:	e89daff0 	ldmia	sp, {r4, r5, r6, r7, r8, r9, sl, fp, sp, pc}

000034a0 <print_unresolved>:
    34a0:	e92d4400 	stmdb	sp!, {sl, lr}
    34a4:	e59fa048 	ldr	sl, [pc, #72]	; 34f4 <.text+0x2924>
    34a8:	e08fa00a 	add	sl, pc, sl
    34ac:	e1a0c001 	mov	ip, r1
    34b0:	e5d13000 	ldrb	r3, [r1]
    34b4:	e3530000 	cmp	r3, #0	; 0x0
    34b8:	1a000007 	bne	34dc <print_unresolved+0x3c>
    34bc:	e59f3034 	ldr	r3, [pc, #52]	; 34f8 <.text+0x2928>
    34c0:	e79a3003 	ldr	r3, [sl, r3]
    34c4:	e5933000 	ldr	r3, [r3]
    34c8:	e5931000 	ldr	r1, [r3]
    34cc:	e3510000 	cmp	r1, #0	; 0x0
    34d0:	11a0c001 	movne	ip, r1
    34d4:	059f3020 	ldreq	r3, [pc, #32]	; 34fc <.text+0x292c>
    34d8:	008ac003 	addeq	ip, sl, r3
    34dc:	e3a00002 	mov	r0, #2	; 0x2
    34e0:	e59f1018 	ldr	r1, [pc, #24]	; 3500 <.text+0x2930>
    34e4:	e08a1001 	add	r1, sl, r1
    34e8:	e1a0300c 	mov	r3, ip
    34ec:	eb0024fe 	bl	c8ec <_dl_dprintf>
    34f0:	e8bd8400 	ldmia	sp!, {sl, pc}
    34f4:	0001a0e4 	andeq	sl, r1, r4, ror #1
    34f8:	000001d8 	ldreqd	r0, [r0], -r8
    34fc:	ffff60bc 	swinv	0x00ff60bc
    3500:	ffff61cc 	swinv	0x00ff61cc

00003504 <print_missing_version>:
    3504:	e92d4400 	stmdb	sp!, {sl, lr}
    3508:	e24dd004 	sub	sp, sp, #4	; 0x4
    350c:	e59fa044 	ldr	sl, [pc, #68]	; 3558 <.text+0x2988>
    3510:	e08fa00a 	add	sl, pc, sl
    3514:	e1a0c001 	mov	ip, r1
    3518:	e1a01002 	mov	r1, r2
    351c:	e59f3038 	ldr	r3, [pc, #56]	; 355c <.text+0x298c>
    3520:	e79a3003 	ldr	r3, [sl, r3]
    3524:	e5933000 	ldr	r3, [r3]
    3528:	e5932000 	ldr	r2, [r3]
    352c:	e3520000 	cmp	r2, #0	; 0x0
    3530:	059f3028 	ldreq	r3, [pc, #40]	; 3560 <.text+0x2990>
    3534:	008a2003 	addeq	r2, sl, r3
    3538:	e58d1000 	str	r1, [sp]
    353c:	e3a00002 	mov	r0, #2	; 0x2
    3540:	e59f101c 	ldr	r1, [pc, #28]	; 3564 <.text+0x2994>
    3544:	e08a1001 	add	r1, sl, r1
    3548:	e1a0300c 	mov	r3, ip
    354c:	eb0024e6 	bl	c8ec <_dl_dprintf>
    3550:	e28dd004 	add	sp, sp, #4	; 0x4
    3554:	e8bd8400 	ldmia	sp!, {sl, pc}
    3558:	0001a07c 	andeq	sl, r1, ip, ror r0
    355c:	000001d8 	ldreqd	r0, [r0], -r8
    3560:	ffff58b0 	swinv	0x00ff58b0
    3564:	ffff61d8 	swinv	0x00ff61d8

00003568 <process_dl_debug>:
    3568:	e1a0c00d 	mov	ip, sp
    356c:	e92ddff0 	stmdb	sp!, {r4, r5, r6, r7, r8, r9, sl, fp, ip, lr, pc}
    3570:	e24cb004 	sub	fp, ip, #4	; 0x4
    3574:	e24dd010 	sub	sp, sp, #16	; 0x10
    3578:	e59fa20c 	ldr	sl, [pc, #524]	; 378c <.text+0x2bbc>
    357c:	e08fa00a 	add	sl, pc, sl
    3580:	e1a06000 	mov	r6, r0
    3584:	e5d03000 	ldrb	r3, [r0]
    3588:	e3530000 	cmp	r3, #0	; 0x0
    358c:	0a000056 	beq	36ec <process_dl_debug+0x184>
    3590:	e59f31f8 	ldr	r3, [pc, #504]	; 3790 <.text+0x2bc0>
    3594:	e79a3003 	ldr	r3, [sl, r3]
    3598:	e2833001 	add	r3, r3, #1	; 0x1
    359c:	e50b3030 	str	r3, [fp, #-48]
    35a0:	e59f31ec 	ldr	r3, [pc, #492]	; 3794 <.text+0x2bc4>
    35a4:	e79a3003 	ldr	r3, [sl, r3]
    35a8:	e50b302c 	str	r3, [fp, #-44]
    35ac:	e5d63000 	ldrb	r3, [r6]
    35b0:	e3530020 	cmp	r3, #32	; 0x20
    35b4:	1353002c 	cmpne	r3, #44	; 0x2c
    35b8:	0a000047 	beq	36dc <process_dl_debug+0x174>
    35bc:	e353003a 	cmp	r3, #58	; 0x3a
    35c0:	0a000045 	beq	36dc <process_dl_debug+0x174>
    35c4:	e3a08001 	mov	r8, #1	; 0x1
    35c8:	e5d63001 	ldrb	r3, [r6, #1]
    35cc:	e3530000 	cmp	r3, #0	; 0x0
    35d0:	13530020 	cmpne	r3, #32	; 0x20
    35d4:	0a00000c 	beq	360c <process_dl_debug+0xa4>
    35d8:	e353002c 	cmp	r3, #44	; 0x2c
    35dc:	0a00000a 	beq	360c <process_dl_debug+0xa4>
    35e0:	e353003a 	cmp	r3, #58	; 0x3a
    35e4:	0a000008 	beq	360c <process_dl_debug+0xa4>
    35e8:	e2888001 	add	r8, r8, #1	; 0x1
    35ec:	e7d63008 	ldrb	r3, [r6, r8]
    35f0:	e3530000 	cmp	r3, #0	; 0x0
    35f4:	13530020 	cmpne	r3, #32	; 0x20
    35f8:	0a000003 	beq	360c <process_dl_debug+0xa4>
    35fc:	e353002c 	cmp	r3, #44	; 0x2c
    3600:	0a000001 	beq	360c <process_dl_debug+0xa4>
    3604:	e353003a 	cmp	r3, #58	; 0x3a
    3608:	1afffff6 	bne	35e8 <process_dl_debug+0x80>
    360c:	e3a04000 	mov	r4, #0	; 0x0
    3610:	e59f3178 	ldr	r3, [pc, #376]	; 3790 <.text+0x2bc0>
    3614:	e79a7003 	ldr	r7, [sl, r3]
    3618:	e51b9030 	ldr	r9, [fp, #-48]
    361c:	e0643184 	rsb	r3, r4, r4, lsl #3
    3620:	e1a01183 	mov	r1, r3, lsl #3
    3624:	e0815007 	add	r5, r1, r7
    3628:	e7d13007 	ldrb	r3, [r1, r7]
    362c:	e1530008 	cmp	r3, r8
    3630:	1a000005 	bne	364c <process_dl_debug+0xe4>
    3634:	e1a00006 	mov	r0, r6
    3638:	e0811009 	add	r1, r1, r9
    363c:	e1a02008 	mov	r2, r8
    3640:	eb0037da 	bl	115b0 <bcmp>
    3644:	e3500000 	cmp	r0, #0	; 0x0
    3648:	0a000017 	beq	36ac <process_dl_debug+0x144>
    364c:	e2844001 	add	r4, r4, #1	; 0x1
    3650:	e3540009 	cmp	r4, #9	; 0x9
    3654:	9afffff0 	bls	361c <process_dl_debug+0xb4>
    3658:	e354000a 	cmp	r4, #10	; 0xa
    365c:	1a000010 	bne	36a4 <process_dl_debug+0x13c>
    3660:	e1a00006 	mov	r0, r6
    3664:	e1a01008 	mov	r1, r8
    3668:	eb003684 	bl	11080 <__strnlen>
    366c:	e1a02000 	mov	r2, r0
    3670:	e2803007 	add	r3, r0, #7	; 0x7
    3674:	e3c33003 	bic	r3, r3, #3	; 0x3
    3678:	e063d00d 	rsb	sp, r3, sp
    367c:	e28d0008 	add	r0, sp, #8	; 0x8
    3680:	e3a03000 	mov	r3, #0	; 0x0
    3684:	e7c03002 	strb	r3, [r0, r2]
    3688:	e1a01006 	mov	r1, r6
    368c:	eb003890 	bl	118d4 <memcpy>
    3690:	e1a02000 	mov	r2, r0
    3694:	e3a00002 	mov	r0, #2	; 0x2
    3698:	e59f10f8 	ldr	r1, [pc, #248]	; 3798 <.text+0x2bc8>
    369c:	e08a1001 	add	r1, sl, r1
    36a0:	eb002491 	bl	c8ec <_dl_dprintf>
    36a4:	e0866008 	add	r6, r6, r8
    36a8:	ea00000c 	b	36e0 <process_dl_debug+0x178>
    36ac:	e5d53034 	ldrb	r3, [r5, #52]
    36b0:	e5d52035 	ldrb	r2, [r5, #53]
    36b4:	e1833402 	orr	r3, r3, r2, lsl #8
    36b8:	e51b102c 	ldr	r1, [fp, #-44]
    36bc:	e5912000 	ldr	r2, [r1]
    36c0:	e1833002 	orr	r3, r3, r2
    36c4:	e5813000 	str	r3, [r1]
    36c8:	e3a02001 	mov	r2, #1	; 0x1
    36cc:	e59f30c8 	ldr	r3, [pc, #200]	; 379c <.text+0x2bcc>
    36d0:	e79a3003 	ldr	r3, [sl, r3]
    36d4:	e5832000 	str	r2, [r3]
    36d8:	eaffffde 	b	3658 <process_dl_debug+0xf0>
    36dc:	e2866001 	add	r6, r6, #1	; 0x1
    36e0:	e5d63000 	ldrb	r3, [r6]
    36e4:	e3530000 	cmp	r3, #0	; 0x0
    36e8:	1affffaf 	bne	35ac <process_dl_debug+0x44>
    36ec:	e59f30a0 	ldr	r3, [pc, #160]	; 3794 <.text+0x2bc4>
    36f0:	e79a3003 	ldr	r3, [sl, r3]
    36f4:	e5933000 	ldr	r3, [r3]
    36f8:	e3130c02 	tst	r3, #512	; 0x200
    36fc:	0a000020 	beq	3784 <process_dl_debug+0x21c>
    3700:	e3a00001 	mov	r0, #1	; 0x1
    3704:	e59f1094 	ldr	r1, [pc, #148]	; 37a0 <.text+0x2bd0>
    3708:	e08a1001 	add	r1, sl, r1
    370c:	eb002476 	bl	c8ec <_dl_dprintf>
    3710:	e3a04000 	mov	r4, #0	; 0x0
    3714:	e59f3074 	ldr	r3, [pc, #116]	; 3790 <.text+0x2bc0>
    3718:	e79a5003 	ldr	r5, [sl, r3]
    371c:	e59f3080 	ldr	r3, [pc, #128]	; 37a4 <.text+0x2bd4>
    3720:	e08a3003 	add	r3, sl, r3
    3724:	e2437003 	sub	r7, r3, #3	; 0x3
    3728:	e285600b 	add	r6, r5, #11	; 0xb
    372c:	e0643184 	rsb	r3, r4, r4, lsl #3
    3730:	e1a03183 	mov	r3, r3, lsl #3
    3734:	e7d32005 	ldrb	r2, [r3, r5]
    3738:	e285c001 	add	ip, r5, #1	; 0x1
    373c:	e0821007 	add	r1, r2, r7
    3740:	e58d1000 	str	r1, [sp]
    3744:	e0831006 	add	r1, r3, r6
    3748:	e58d1004 	str	r1, [sp, #4]
    374c:	e3a00001 	mov	r0, #1	; 0x1
    3750:	e59f1050 	ldr	r1, [pc, #80]	; 37a8 <.text+0x2bd8>
    3754:	e08a1001 	add	r1, sl, r1
    3758:	e083300c 	add	r3, r3, ip
    375c:	eb002462 	bl	c8ec <_dl_dprintf>
    3760:	e2844001 	add	r4, r4, #1	; 0x1
    3764:	e3540009 	cmp	r4, #9	; 0x9
    3768:	9affffef 	bls	372c <process_dl_debug+0x1c4>
    376c:	e3a00001 	mov	r0, #1	; 0x1
    3770:	e59f1034 	ldr	r1, [pc, #52]	; 37ac <.text+0x2bdc>
    3774:	e08a1001 	add	r1, sl, r1
    3778:	eb00245b 	bl	c8ec <_dl_dprintf>
    377c:	e3a00000 	mov	r0, #0	; 0x0
    3780:	eb003566 	bl	10d20 <_Exit>
    3784:	e24bd028 	sub	sp, fp, #40	; 0x28
    3788:	e89daff0 	ldmia	sp, {r4, r5, r6, r7, r8, r9, sl, fp, sp, pc}
    378c:	0001a010 	andeq	sl, r1, r0, lsl r0
    3790:	00000080 	andeq	r0, r0, r0, lsl #1
    3794:	00000210 	andeq	r0, r0, r0, lsl r2
    3798:	ffff61e4 	swinv	0x00ff61e4
    379c:	00000084 	andeq	r0, r0, r4, lsl #1
    37a0:	ffff621c 	swinv	0x00ff621c
    37a4:	ffff6258 	swinv	0x00ff6258
    37a8:	ffff6264 	swinv	0x00ff6264
    37ac:	ffff6270 	swinv	0x00ff6270

000037b0 <process_envvars>:
    37b0:	e1a0c00d 	mov	ip, sp
    37b4:	e92ddff0 	stmdb	sp!, {r4, r5, r6, r7, r8, r9, sl, fp, ip, lr, pc}
    37b8:	e24cb004 	sub	fp, ip, #4	; 0x4
    37bc:	e24dd018 	sub	sp, sp, #24	; 0x18
    37c0:	e59fa644 	ldr	sl, [pc, #1604]	; 3e0c <.text+0x323c>
    37c4:	e08fa00a 	add	sl, pc, sl
    37c8:	e1a06000 	mov	r6, r0
    37cc:	e59f363c 	ldr	r3, [pc, #1596]	; 3e10 <.text+0x3240>
    37d0:	e79a3003 	ldr	r3, [sl, r3]
    37d4:	e5933000 	ldr	r3, [r3]
    37d8:	e50b3030 	str	r3, [fp, #-48]
    37dc:	e3a07000 	mov	r7, #0	; 0x0
    37e0:	e1a08007 	mov	r8, r7
    37e4:	e59f3628 	ldr	r3, [pc, #1576]	; 3e14 <.text+0x3244>
    37e8:	e08a2003 	add	r2, sl, r3
    37ec:	e59f3624 	ldr	r3, [pc, #1572]	; 3e18 <.text+0x3248>
    37f0:	e79a3003 	ldr	r3, [sl, r3]
    37f4:	e5933000 	ldr	r3, [r3]
    37f8:	e1530007 	cmp	r3, r7
    37fc:	12822009 	addne	r2, r2, #9	; 0x9
    3800:	e59f3614 	ldr	r3, [pc, #1556]	; 3e1c <.text+0x324c>
    3804:	e79a3003 	ldr	r3, [sl, r3]
    3808:	e58320a4 	str	r2, [r3, #164]
    380c:	e59f3608 	ldr	r3, [pc, #1544]	; 3e1c <.text+0x324c>
    3810:	e79a9003 	ldr	r9, [sl, r3]
    3814:	e59f35fc 	ldr	r3, [pc, #1532]	; 3e18 <.text+0x3248>
    3818:	e79a3003 	ldr	r3, [sl, r3]
    381c:	e50b3034 	str	r3, [fp, #-52]
    3820:	e50b903c 	str	r9, [fp, #-60]
    3824:	ea000125 	b	3cc0 <process_envvars+0x510>
    3828:	e3a02000 	mov	r2, #0	; 0x0
    382c:	e7d43002 	ldrb	r3, [r4, r2]
    3830:	e1530002 	cmp	r3, r2
    3834:	1353003d 	cmpne	r3, #61	; 0x3d
    3838:	0a000004 	beq	3850 <process_envvars+0xa0>
    383c:	e2822001 	add	r2, r2, #1	; 0x1
    3840:	e7d43002 	ldrb	r3, [r4, r2]
    3844:	e3530000 	cmp	r3, #0	; 0x0
    3848:	1353003d 	cmpne	r3, #61	; 0x3d
    384c:	1afffffa 	bne	383c <process_envvars+0x8c>
    3850:	e7d43002 	ldrb	r3, [r4, r2]
    3854:	e353003d 	cmp	r3, #61	; 0x3d
    3858:	1a000118 	bne	3cc0 <process_envvars+0x510>
    385c:	e2423004 	sub	r3, r2, #4	; 0x4
    3860:	e3530010 	cmp	r3, #16	; 0x10
    3864:	908ff103 	addls	pc, pc, r3, lsl #2
    3868:	ea000114 	b	3cc0 <process_envvars+0x510>
    386c:	ea00000f 	b	38b0 <process_envvars+0x100>
    3870:	ea00001a 	b	38e0 <process_envvars+0x130>
    3874:	ea000111 	b	3cc0 <process_envvars+0x510>
    3878:	ea000022 	b	3908 <process_envvars+0x158>
    387c:	ea000047 	b	39a0 <process_envvars+0x1f0>
    3880:	ea00005e 	b	3a00 <process_envvars+0x250>
    3884:	ea00006a 	b	3a34 <process_envvars+0x284>
    3888:	ea000076 	b	3a68 <process_envvars+0x2b8>
    388c:	ea000082 	b	3a9c <process_envvars+0x2ec>
    3890:	ea0000a2 	b	3b20 <process_envvars+0x370>
    3894:	ea0000e2 	b	3c24 <process_envvars+0x474>
    3898:	ea000108 	b	3cc0 <process_envvars+0x510>
    389c:	ea0000f0 	b	3c64 <process_envvars+0x4b4>
    38a0:	ea000106 	b	3cc0 <process_envvars+0x510>
    38a4:	ea000105 	b	3cc0 <process_envvars+0x510>
    38a8:	ea000104 	b	3cc0 <process_envvars+0x510>
    38ac:	ea0000fc 	b	3ca4 <process_envvars+0x4f4>
    38b0:	e1a00004 	mov	r0, r4
    38b4:	e59f1564 	ldr	r1, [pc, #1380]	; 3e20 <.text+0x3250>
    38b8:	e08a1001 	add	r1, sl, r1
    38bc:	e3a02004 	mov	r2, #4	; 0x4
    38c0:	eb00373a 	bl	115b0 <bcmp>
    38c4:	e3500000 	cmp	r0, #0	; 0x0
    38c8:	1a0000fc 	bne	3cc0 <process_envvars+0x510>
    38cc:	e5d43005 	ldrb	r3, [r4, #5]
    38d0:	e2533000 	subs	r3, r3, #0	; 0x0
    38d4:	13a03001 	movne	r3, #1	; 0x1
    38d8:	e5893020 	str	r3, [r9, #32]
    38dc:	ea0000f7 	b	3cc0 <process_envvars+0x510>
    38e0:	e1a00004 	mov	r0, r4
    38e4:	e59f1538 	ldr	r1, [pc, #1336]	; 3e24 <.text+0x3254>
    38e8:	e08a1001 	add	r1, sl, r1
    38ec:	e3a02005 	mov	r2, #5	; 0x5
    38f0:	eb00372e 	bl	115b0 <bcmp>
    38f4:	e3500000 	cmp	r0, #0	; 0x0
    38f8:	1a0000f0 	bne	3cc0 <process_envvars+0x510>
    38fc:	e2840006 	add	r0, r4, #6	; 0x6
    3900:	ebffff18 	bl	3568 <process_dl_debug>
    3904:	ea0000ed 	b	3cc0 <process_envvars+0x510>
    3908:	e1a00004 	mov	r0, r4
    390c:	e59f1514 	ldr	r1, [pc, #1300]	; 3e28 <.text+0x3258>
    3910:	e08a1001 	add	r1, sl, r1
    3914:	e3a02007 	mov	r2, #7	; 0x7
    3918:	eb003724 	bl	115b0 <bcmp>
    391c:	e3500000 	cmp	r0, #0	; 0x0
    3920:	1a000006 	bne	3940 <process_envvars+0x190>
    3924:	e5d43008 	ldrb	r3, [r4, #8]
    3928:	e2533000 	subs	r3, r3, #0	; 0x0
    392c:	13a03001 	movne	r3, #1	; 0x1
    3930:	e59f24f4 	ldr	r2, [pc, #1268]	; 3e2c <.text+0x325c>
    3934:	e79a2002 	ldr	r2, [sl, r2]
    3938:	e5823000 	str	r3, [r2]
    393c:	ea0000df 	b	3cc0 <process_envvars+0x510>
    3940:	e1a00004 	mov	r0, r4
    3944:	e59f14e4 	ldr	r1, [pc, #1252]	; 3e30 <.text+0x3260>
    3948:	e08a1001 	add	r1, sl, r1
    394c:	e3a02007 	mov	r2, #7	; 0x7
    3950:	eb003716 	bl	115b0 <bcmp>
    3954:	e3500000 	cmp	r0, #0	; 0x0
    3958:	1a000004 	bne	3970 <process_envvars+0x1c0>
    395c:	e2843008 	add	r3, r4, #8	; 0x8
    3960:	e59f24cc 	ldr	r2, [pc, #1228]	; 3e34 <.text+0x3264>
    3964:	e79a2002 	ldr	r2, [sl, r2]
    3968:	e5823000 	str	r3, [r2]
    396c:	ea0000d3 	b	3cc0 <process_envvars+0x510>
    3970:	e1a00004 	mov	r0, r4
    3974:	e59f14bc 	ldr	r1, [pc, #1212]	; 3e38 <.text+0x3268>
    3978:	e08a1001 	add	r1, sl, r1
    397c:	e3a02007 	mov	r2, #7	; 0x7
    3980:	eb00370a 	bl	115b0 <bcmp>
    3984:	e3500000 	cmp	r0, #0	; 0x0
    3988:	1a0000cc 	bne	3cc0 <process_envvars+0x510>
    398c:	e5d43008 	ldrb	r3, [r4, #8]
    3990:	e3530000 	cmp	r3, #0	; 0x0
    3994:	12843008 	addne	r3, r4, #8	; 0x8
    3998:	158930a0 	strne	r3, [r9, #160]
    399c:	ea0000c7 	b	3cc0 <process_envvars+0x510>
    39a0:	e1a00004 	mov	r0, r4
    39a4:	e59f1490 	ldr	r1, [pc, #1168]	; 3e3c <.text+0x326c>
    39a8:	e08a1001 	add	r1, sl, r1
    39ac:	e3a02008 	mov	r2, #8	; 0x8
    39b0:	eb0036fe 	bl	115b0 <bcmp>
    39b4:	e3500000 	cmp	r0, #0	; 0x0
    39b8:	1a000004 	bne	39d0 <process_envvars+0x220>
    39bc:	e5d43009 	ldrb	r3, [r4, #9]
    39c0:	e2733001 	rsbs	r3, r3, #1	; 0x1
    39c4:	33a03000 	movcc	r3, #0	; 0x0
    39c8:	e5893028 	str	r3, [r9, #40]
    39cc:	ea0000bb 	b	3cc0 <process_envvars+0x510>
    39d0:	e1a00004 	mov	r0, r4
    39d4:	e59f1464 	ldr	r1, [pc, #1124]	; 3e40 <.text+0x3270>
    39d8:	e08a1001 	add	r1, sl, r1
    39dc:	e3a02008 	mov	r2, #8	; 0x8
    39e0:	eb0036f2 	bl	115b0 <bcmp>
    39e4:	e3500000 	cmp	r0, #0	; 0x0
    39e8:	1a0000b4 	bne	3cc0 <process_envvars+0x510>
    39ec:	e5d43009 	ldrb	r3, [r4, #9]
    39f0:	e2533000 	subs	r3, r3, #0	; 0x0
    39f4:	13a03001 	movne	r3, #1	; 0x1
    39f8:	e589302c 	str	r3, [r9, #44]
    39fc:	ea0000af 	b	3cc0 <process_envvars+0x510>
    3a00:	e51b2034 	ldr	r2, [fp, #-52]
    3a04:	e5923000 	ldr	r3, [r2]
    3a08:	e3530000 	cmp	r3, #0	; 0x0
    3a0c:	1a0000ab 	bne	3cc0 <process_envvars+0x510>
    3a10:	e1a00004 	mov	r0, r4
    3a14:	e59f1428 	ldr	r1, [pc, #1064]	; 3e44 <.text+0x3274>
    3a18:	e08a1001 	add	r1, sl, r1
    3a1c:	e3a02009 	mov	r2, #9	; 0x9
    3a20:	eb0036e2 	bl	115b0 <bcmp>
    3a24:	e3500000 	cmp	r0, #0	; 0x0
    3a28:	1a0000a4 	bne	3cc0 <process_envvars+0x510>
    3a2c:	eb002c83 	bl	ec40 <_dl_show_auxv>
    3a30:	ea0000a2 	b	3cc0 <process_envvars+0x510>
    3a34:	e1a00004 	mov	r0, r4
    3a38:	e59f1408 	ldr	r1, [pc, #1032]	; 3e48 <.text+0x3278>
    3a3c:	e08a1001 	add	r1, sl, r1
    3a40:	e3a0200a 	mov	r2, #10	; 0xa
    3a44:	eb0036d9 	bl	115b0 <bcmp>
    3a48:	e2503000 	subs	r3, r0, #0	; 0x0
    3a4c:	1a00009b 	bne	3cc0 <process_envvars+0x510>
    3a50:	e284000b 	add	r0, r4, #11	; 0xb
    3a54:	e1a01003 	mov	r1, r3
    3a58:	e1a02003 	mov	r2, r3
    3a5c:	eb002f98 	bl	f8c4 <__strtoul_internal>
    3a60:	e5890040 	str	r0, [r9, #64]
    3a64:	ea000095 	b	3cc0 <process_envvars+0x510>
    3a68:	e51b2034 	ldr	r2, [fp, #-52]
    3a6c:	e5923000 	ldr	r3, [r2]
    3a70:	e3530000 	cmp	r3, #0	; 0x0
    3a74:	1a000091 	bne	3cc0 <process_envvars+0x510>
    3a78:	e1a00004 	mov	r0, r4
    3a7c:	e59f13c8 	ldr	r1, [pc, #968]	; 3e4c <.text+0x327c>
    3a80:	e08a1001 	add	r1, sl, r1
    3a84:	e3a0200b 	mov	r2, #11	; 0xb
    3a88:	eb0036c8 	bl	115b0 <bcmp>
    3a8c:	e3500000 	cmp	r0, #0	; 0x0
    3a90:	0284300c 	addeq	r3, r4, #12	; 0xc
    3a94:	05893098 	streq	r3, [r9, #152]
    3a98:	ea000088 	b	3cc0 <process_envvars+0x510>
    3a9c:	e1a00004 	mov	r0, r4
    3aa0:	e59f13a8 	ldr	r1, [pc, #936]	; 3e50 <.text+0x3280>
    3aa4:	e08a1001 	add	r1, sl, r1
    3aa8:	e3a0200c 	mov	r2, #12	; 0xc
    3aac:	eb0036bf 	bl	115b0 <bcmp>
    3ab0:	e3500000 	cmp	r0, #0	; 0x0
    3ab4:	1a000004 	bne	3acc <process_envvars+0x31c>
    3ab8:	e284300d 	add	r3, r4, #13	; 0xd
    3abc:	e59f2390 	ldr	r2, [pc, #912]	; 3e54 <.text+0x3284>
    3ac0:	e79a2002 	ldr	r2, [sl, r2]
    3ac4:	e5823000 	str	r3, [r2]
    3ac8:	ea00007c 	b	3cc0 <process_envvars+0x510>
    3acc:	e1a00004 	mov	r0, r4
    3ad0:	e59f1380 	ldr	r1, [pc, #896]	; 3e58 <.text+0x3288>
    3ad4:	e08a1001 	add	r1, sl, r1
    3ad8:	e3a0200c 	mov	r2, #12	; 0xc
    3adc:	eb0036b3 	bl	115b0 <bcmp>
    3ae0:	e3500000 	cmp	r0, #0	; 0x0
    3ae4:	0284700d 	addeq	r7, r4, #13	; 0xd
    3ae8:	0a000074 	beq	3cc0 <process_envvars+0x510>
    3aec:	e51b2034 	ldr	r2, [fp, #-52]
    3af0:	e5923000 	ldr	r3, [r2]
    3af4:	e3530000 	cmp	r3, #0	; 0x0
    3af8:	1a000070 	bne	3cc0 <process_envvars+0x510>
    3afc:	e1a00004 	mov	r0, r4
    3b00:	e59f1354 	ldr	r1, [pc, #852]	; 3e5c <.text+0x328c>
    3b04:	e08a1001 	add	r1, sl, r1
    3b08:	e3a0200c 	mov	r2, #12	; 0xc
    3b0c:	eb0036a7 	bl	115b0 <bcmp>
    3b10:	e3500000 	cmp	r0, #0	; 0x0
    3b14:	03a03001 	moveq	r3, #1	; 0x1
    3b18:	05893030 	streq	r3, [r9, #48]
    3b1c:	ea000067 	b	3cc0 <process_envvars+0x510>
    3b20:	e1a00004 	mov	r0, r4
    3b24:	e59f1334 	ldr	r1, [pc, #820]	; 3e60 <.text+0x3290>
    3b28:	e08a1001 	add	r1, sl, r1
    3b2c:	e3a0200d 	mov	r2, #13	; 0xd
    3b30:	eb00369e 	bl	115b0 <bcmp>
    3b34:	e3500000 	cmp	r0, #0	; 0x0
    3b38:	1a000027 	bne	3bdc <process_envvars+0x42c>
    3b3c:	e50b0038 	str	r0, [fp, #-56]
    3b40:	e284400e 	add	r4, r4, #14	; 0xe
    3b44:	e1a05000 	mov	r5, r0
    3b48:	e1a00004 	mov	r0, r4
    3b4c:	e24b102c 	sub	r1, fp, #44	; 0x2c
    3b50:	e3a02000 	mov	r2, #0	; 0x0
    3b54:	e1a03002 	mov	r3, r2
    3b58:	eb002f59 	bl	f8c4 <__strtoul_internal>
    3b5c:	e35000fe 	cmp	r0, #254	; 0xfe
    3b60:	8a000009 	bhi	3b8c <process_envvars+0x3dc>
    3b64:	e51b302c 	ldr	r3, [fp, #-44]
    3b68:	e1540003 	cmp	r4, r3
    3b6c:	0a000006 	beq	3b8c <process_envvars+0x3dc>
    3b70:	e3550001 	cmp	r5, #1	; 0x1
    3b74:	8a000007 	bhi	3b98 <process_envvars+0x3e8>
    3b78:	e5d33000 	ldrb	r3, [r3]
    3b7c:	e3530000 	cmp	r3, #0	; 0x0
    3b80:	0a000004 	beq	3b98 <process_envvars+0x3e8>
    3b84:	e353002e 	cmp	r3, #46	; 0x2e
    3b88:	0a000002 	beq	3b98 <process_envvars+0x3e8>
    3b8c:	e3a03000 	mov	r3, #0	; 0x0
    3b90:	e50b3038 	str	r3, [fp, #-56]
    3b94:	ea00000c 	b	3bcc <process_envvars+0x41c>
    3b98:	e1a03185 	mov	r3, r5, lsl #3
    3b9c:	e2633010 	rsb	r3, r3, #16	; 0x10
    3ba0:	e51b2038 	ldr	r2, [fp, #-56]
    3ba4:	e1822310 	orr	r2, r2, r0, lsl r3
    3ba8:	e50b2038 	str	r2, [fp, #-56]
    3bac:	e51b002c 	ldr	r0, [fp, #-44]
    3bb0:	e5d03000 	ldrb	r3, [r0]
    3bb4:	e3530000 	cmp	r3, #0	; 0x0
    3bb8:	0a000003 	beq	3bcc <process_envvars+0x41c>
    3bbc:	e2855001 	add	r5, r5, #1	; 0x1
    3bc0:	e2804001 	add	r4, r0, #1	; 0x1
    3bc4:	e3550002 	cmp	r5, #2	; 0x2
    3bc8:	9affffde 	bls	3b48 <process_envvars+0x398>
    3bcc:	e51b3038 	ldr	r3, [fp, #-56]
    3bd0:	e3530000 	cmp	r3, #0	; 0x0
    3bd4:	15893008 	strne	r3, [r9, #8]
    3bd8:	ea000038 	b	3cc0 <process_envvars+0x510>
    3bdc:	e51b2034 	ldr	r2, [fp, #-52]
    3be0:	e5923000 	ldr	r3, [r2]
    3be4:	e3530000 	cmp	r3, #0	; 0x0
    3be8:	1a000034 	bne	3cc0 <process_envvars+0x510>
    3bec:	e1a00004 	mov	r0, r4
    3bf0:	e59f126c 	ldr	r1, [pc, #620]	; 3e64 <.text+0x3294>
    3bf4:	e08a1001 	add	r1, sl, r1
    3bf8:	e3a0200d 	mov	r2, #13	; 0xd
    3bfc:	eb00366b 	bl	115b0 <bcmp>
    3c00:	e3500000 	cmp	r0, #0	; 0x0
    3c04:	1a00002d 	bne	3cc0 <process_envvars+0x510>
    3c08:	e5d4300e 	ldrb	r3, [r4, #14]
    3c0c:	e3530031 	cmp	r3, #49	; 0x31
    3c10:	13a03000 	movne	r3, #0	; 0x0
    3c14:	03e03000 	mvneq	r3, #0	; 0x0
    3c18:	e51b203c 	ldr	r2, [fp, #-60]
    3c1c:	e582309c 	str	r3, [r2, #156]
    3c20:	ea000026 	b	3cc0 <process_envvars+0x510>
    3c24:	e51b2034 	ldr	r2, [fp, #-52]
    3c28:	e5923000 	ldr	r3, [r2]
    3c2c:	e3530000 	cmp	r3, #0	; 0x0
    3c30:	1a000022 	bne	3cc0 <process_envvars+0x510>
    3c34:	e1a00004 	mov	r0, r4
    3c38:	e59f1228 	ldr	r1, [pc, #552]	; 3e68 <.text+0x3298>
    3c3c:	e08a1001 	add	r1, sl, r1
    3c40:	e3a0200e 	mov	r2, #14	; 0xe
    3c44:	eb003659 	bl	115b0 <bcmp>
    3c48:	e3500000 	cmp	r0, #0	; 0x0
    3c4c:	1a00001b 	bne	3cc0 <process_envvars+0x510>
    3c50:	e5d4300f 	ldrb	r3, [r4, #15]
    3c54:	e3530000 	cmp	r3, #0	; 0x0
    3c58:	1284300f 	addne	r3, r4, #15	; 0xf
    3c5c:	158930a4 	strne	r3, [r9, #164]
    3c60:	ea000016 	b	3cc0 <process_envvars+0x510>
    3c64:	e1a00004 	mov	r0, r4
    3c68:	e59f11fc 	ldr	r1, [pc, #508]	; 3e6c <.text+0x329c>
    3c6c:	e08a1001 	add	r1, sl, r1
    3c70:	e3a02010 	mov	r2, #16	; 0x10
    3c74:	eb00364d 	bl	115b0 <bcmp>
    3c78:	e3500000 	cmp	r0, #0	; 0x0
    3c7c:	1a00000f 	bne	3cc0 <process_envvars+0x510>
    3c80:	e3a08003 	mov	r8, #3	; 0x3
    3c84:	e3a03001 	mov	r3, #1	; 0x1
    3c88:	e5893020 	str	r3, [r9, #32]
    3c8c:	e5993000 	ldr	r3, [r9]
    3c90:	e3833b01 	orr	r3, r3, #1024	; 0x400
    3c94:	e5893000 	str	r3, [r9]
    3c98:	e2843011 	add	r3, r4, #17	; 0x11
    3c9c:	e58930a8 	str	r3, [r9, #168]
    3ca0:	ea000006 	b	3cc0 <process_envvars+0x510>
    3ca4:	e1a00004 	mov	r0, r4
    3ca8:	e59f11c0 	ldr	r1, [pc, #448]	; 3e70 <.text+0x32a0>
    3cac:	e08a1001 	add	r1, sl, r1
    3cb0:	e3a02014 	mov	r2, #20	; 0x14
    3cb4:	eb00363d 	bl	115b0 <bcmp>
    3cb8:	e3500000 	cmp	r0, #0	; 0x0
    3cbc:	03a08003 	moveq	r8, #3	; 0x3
    3cc0:	e24b0030 	sub	r0, fp, #48	; 0x30
    3cc4:	eb002d7f 	bl	f2c8 <_dl_next_ld_env_entry>
    3cc8:	e2504000 	subs	r4, r0, #0	; 0x0
    3ccc:	1afffed5 	bne	3828 <process_envvars+0x78>
    3cd0:	e5868000 	str	r8, [r6]
    3cd4:	e59f313c 	ldr	r3, [pc, #316]	; 3e18 <.text+0x3248>
    3cd8:	e79a3003 	ldr	r3, [sl, r3]
    3cdc:	e5933000 	ldr	r3, [r3]
    3ce0:	e3530000 	cmp	r3, #0	; 0x0
    3ce4:	0a00001c 	beq	3d5c <process_envvars+0x5ac>
    3ce8:	e59f3184 	ldr	r3, [pc, #388]	; 3e74 <.text+0x32a4>
    3cec:	e79a4003 	ldr	r4, [sl, r3]
    3cf0:	e1a00004 	mov	r0, r4
    3cf4:	eb002d8a 	bl	f324 <unsetenv>
    3cf8:	e1a00004 	mov	r0, r4
    3cfc:	e3a01000 	mov	r1, #0	; 0x0
    3d00:	eb00347a 	bl	10ef0 <index>
    3d04:	e2804001 	add	r4, r0, #1	; 0x1
    3d08:	e5d03001 	ldrb	r3, [r0, #1]
    3d0c:	e3530000 	cmp	r3, #0	; 0x0
    3d10:	1afffff6 	bne	3cf0 <process_envvars+0x540>
    3d14:	e59f015c 	ldr	r0, [pc, #348]	; 3e78 <.text+0x32a8>
    3d18:	e08a0000 	add	r0, sl, r0
    3d1c:	e3a01000 	mov	r1, #0	; 0x0
    3d20:	eb0032c6 	bl	10840 <__access>
    3d24:	e3500000 	cmp	r0, #0	; 0x0
    3d28:	0a000006 	beq	3d48 <process_envvars+0x598>
    3d2c:	e59f0148 	ldr	r0, [pc, #328]	; 3e7c <.text+0x32ac>
    3d30:	e08a0000 	add	r0, sl, r0
    3d34:	eb002d7a 	bl	f324 <unsetenv>
    3d38:	e3a02000 	mov	r2, #0	; 0x0
    3d3c:	e59f30d8 	ldr	r3, [pc, #216]	; 3e1c <.text+0x324c>
    3d40:	e79a3003 	ldr	r3, [sl, r3]
    3d44:	e5832000 	str	r2, [r3]
    3d48:	e3580000 	cmp	r8, #0	; 0x0
    3d4c:	0a00002c 	beq	3e04 <process_envvars+0x654>
    3d50:	e3a00005 	mov	r0, #5	; 0x5
    3d54:	eb0033f1 	bl	10d20 <_Exit>
    3d58:	ea000029 	b	3e04 <process_envvars+0x654>
    3d5c:	e59f311c 	ldr	r3, [pc, #284]	; 3e80 <.text+0x32b0>
    3d60:	e79a3003 	ldr	r3, [sl, r3]
    3d64:	e5933000 	ldr	r3, [r3]
    3d68:	e3530000 	cmp	r3, #0	; 0x0
    3d6c:	13570000 	cmpne	r7, #0	; 0x0
    3d70:	0a000023 	beq	3e04 <process_envvars+0x654>
    3d74:	e1a0800d 	mov	r8, sp
    3d78:	e1a00007 	mov	r0, r7
    3d7c:	eb0034a7 	bl	11020 <strlen>
    3d80:	e1a05000 	mov	r5, r0
    3d84:	e2803012 	add	r3, r0, #18	; 0x12
    3d88:	e3c33003 	bic	r3, r3, #3	; 0x3
    3d8c:	e063d00d 	rsb	sp, r3, sp
    3d90:	e28d3004 	add	r3, sp, #4	; 0x4
    3d94:	e0803003 	add	r3, r0, r3
    3d98:	e283600b 	add	r6, r3, #11	; 0xb
    3d9c:	e3a04000 	mov	r4, #0	; 0x0
    3da0:	e5c3400b 	strb	r4, [r3, #11]
    3da4:	eb0033f1 	bl	10d70 <__getpid>
    3da8:	e58d4000 	str	r4, [sp]
    3dac:	e1a01fc0 	mov	r1, r0, asr #31
    3db0:	e1a02006 	mov	r2, r6
    3db4:	e3a0300a 	mov	r3, #10	; 0xa
    3db8:	eb002f1e 	bl	fa38 <_itoa>
    3dbc:	e3a0302e 	mov	r3, #46	; 0x2e
    3dc0:	e5603001 	strb	r3, [r0, #-1]!
    3dc4:	e0650000 	rsb	r0, r5, r0
    3dc8:	e1a01007 	mov	r1, r7
    3dcc:	e1a02005 	mov	r2, r5
    3dd0:	eb0036bf 	bl	118d4 <memcpy>
    3dd4:	e59f3040 	ldr	r3, [pc, #64]	; 3e1c <.text+0x324c>
    3dd8:	e79a4003 	ldr	r4, [sl, r3]
    3ddc:	e3a01b21 	mov	r1, #33792	; 0x8400
    3de0:	e2811041 	add	r1, r1, #65	; 0x41
    3de4:	e3a02f6d 	mov	r2, #436	; 0x1b4
    3de8:	e2822002 	add	r2, r2, #2	; 0x2
    3dec:	eb003257 	bl	10750 <__libc_open>
    3df0:	e5840024 	str	r0, [r4, #36]
    3df4:	e3700001 	cmn	r0, #1	; 0x1
    3df8:	03a03001 	moveq	r3, #1	; 0x1
    3dfc:	05843024 	streq	r3, [r4, #36]
    3e00:	e1a0d008 	mov	sp, r8
    3e04:	e24bd028 	sub	sp, fp, #40	; 0x28
    3e08:	e89daff0 	ldmia	sp, {r4, r5, r6, r7, r8, r9, sl, fp, sp, pc}
    3e0c:	00019dc8 	andeq	r9, r1, r8, asr #27
    3e10:	000001e4 	andeq	r0, r0, r4, ror #3
    3e14:	ffff4e5c 	swinv	0x00ff4e5c
    3e18:	00000200 	andeq	r0, r0, r0, lsl #4
    3e1c:	00000210 	andeq	r0, r0, r0, lsl r2
    3e20:	ffff6304 	swinv	0x00ff6304
    3e24:	ffff630c 	swinv	0x00ff630c
    3e28:	ffff6314 	swinv	0x00ff6314
    3e2c:	0000007c 	andeq	r0, r0, ip, ror r0
    3e30:	ffff631c 	swinv	0x00ff631c
    3e34:	00000070 	andeq	r0, r0, r0, ror r0
    3e38:	ffff6324 	swinv	0x00ff6324
    3e3c:	ffff632c 	swinv	0x00ff632c
    3e40:	ffff6338 	swinv	0x00ff6338
    3e44:	ffff6344 	swinv	0x00ff6344
    3e48:	ffff6350 	swinv	0x00ff6350
    3e4c:	ffff635c 	swinv	0x00ff635c
    3e50:	ffff6368 	swinv	0x00ff6368
    3e54:	00000064 	andeq	r0, r0, r4, rrx
    3e58:	ffff6378 	swinv	0x00ff6378
    3e5c:	ffff6388 	swinv	0x00ff6388
    3e60:	ffff6398 	swinv	0x00ff6398
    3e64:	ffff63a8 	swinv	0x00ff63a8
    3e68:	ffff63b8 	swinv	0x00ff63b8
    3e6c:	ffff63c8 	swinv	0x00ff63c8
    3e70:	ffff63dc 	swinv	0x00ff63dc
    3e74:	00000088 	andeq	r0, r0, r8, lsl #1
    3e78:	ffff63f4 	swinv	0x00ff63f4
    3e7c:	ffff6404 	swinv	0x00ff6404
    3e80:	00000084 	andeq	r0, r0, r4, lsl #1

00003e84 <print_statistics>:
    3e84:	e92d4430 	stmdb	sp!, {r4, r5, sl, lr}
    3e88:	e59fa0c0 	ldr	sl, [pc, #192]	; 3f50 <.text+0x3380>
    3e8c:	e08fa00a 	add	sl, pc, sl
    3e90:	e3a04000 	mov	r4, #0	; 0x0
    3e94:	e1a00004 	mov	r0, r4
    3e98:	e59f30b4 	ldr	r3, [pc, #180]	; 3f54 <.text+0x3384>
    3e9c:	e79a5003 	ldr	r5, [sl, r3]
    3ea0:	e0803080 	add	r3, r0, r0, lsl #1
    3ea4:	e7953183 	ldr	r3, [r5, r3, lsl #3]
    3ea8:	e3530000 	cmp	r3, #0	; 0x0
    3eac:	0a00001b 	beq	3f20 <print_statistics+0x9c>
    3eb0:	e2832f56 	add	r2, r3, #344	; 0x158
    3eb4:	e3a01000 	mov	r1, #0	; 0x0
    3eb8:	e5923004 	ldr	r3, [r2, #4]
    3ebc:	e1530001 	cmp	r3, r1
    3ec0:	9a000016 	bls	3f20 <print_statistics+0x9c>
    3ec4:	e592e000 	ldr	lr, [r2]
    3ec8:	e1a0c003 	mov	ip, r3
    3ecc:	e79e2101 	ldr	r2, [lr, r1, lsl #2]
    3ed0:	e5923000 	ldr	r3, [r2]
    3ed4:	e3530000 	cmp	r3, #0	; 0x0
    3ed8:	0a000006 	beq	3ef8 <print_statistics+0x74>
    3edc:	e59230bc 	ldr	r3, [r2, #188]
    3ee0:	e3530000 	cmp	r3, #0	; 0x0
    3ee4:	15933004 	ldrne	r3, [r3, #4]
    3ee8:	10844003 	addne	r4, r4, r3
    3eec:	e5923000 	ldr	r3, [r2]
    3ef0:	e3530000 	cmp	r3, #0	; 0x0
    3ef4:	1a000002 	bne	3f04 <print_statistics+0x80>
    3ef8:	e592311c 	ldr	r3, [r2, #284]
    3efc:	e3530000 	cmp	r3, #0	; 0x0
    3f00:	1a000003 	bne	3f14 <print_statistics+0x90>
    3f04:	e59230c0 	ldr	r3, [r2, #192]
    3f08:	e3530000 	cmp	r3, #0	; 0x0
    3f0c:	15933004 	ldrne	r3, [r3, #4]
    3f10:	10844003 	addne	r4, r4, r3
    3f14:	e2811001 	add	r1, r1, #1	; 0x1
    3f18:	e15c0001 	cmp	ip, r1
    3f1c:	8affffea 	bhi	3ecc <print_statistics+0x48>
    3f20:	e2800001 	add	r0, r0, #1	; 0x1
    3f24:	e350000f 	cmp	r0, #15	; 0xf
    3f28:	daffffdc 	ble	3ea0 <print_statistics+0x1c>
    3f2c:	e59f3020 	ldr	r3, [pc, #32]	; 3f54 <.text+0x3384>
    3f30:	e79a3003 	ldr	r3, [sl, r3]
    3f34:	e59f001c 	ldr	r0, [pc, #28]	; 3f58 <.text+0x3388>
    3f38:	e08a0000 	add	r0, sl, r0
    3f3c:	e2831f6a 	add	r1, r3, #424	; 0x1a8
    3f40:	e8910006 	ldmia	r1, {r1, r2}
    3f44:	e1a03004 	mov	r3, r4
    3f48:	eb002247 	bl	c86c <_dl_debug_printf>
    3f4c:	e8bd8430 	ldmia	sp!, {r4, r5, sl, pc}
    3f50:	00019700 	andeq	r9, r1, r0, lsl #14
    3f54:	0000023c 	andeq	r0, r0, ip, lsr r2
    3f58:	ffff6414 	swinv	0x00ff6414

00003f5c <is_dst>:
    3f5c:	e92d4030 	stmdb	sp!, {r4, r5, lr}
    3f60:	e1a05000 	mov	r5, r0
    3f64:	e1a04003 	mov	r4, r3
    3f68:	e3a0e000 	mov	lr, #0	; 0x0
    3f6c:	e5d13000 	ldrb	r3, [r1]
    3f70:	e353007b 	cmp	r3, #123	; 0x7b
    3f74:	028ee001 	addeq	lr, lr, #1	; 0x1
    3f78:	0081100e 	addeq	r1, r1, lr
    3f7c:	e3a00000 	mov	r0, #0	; 0x0
    3f80:	e7d1c000 	ldrb	ip, [r1, r0]
    3f84:	e7d23000 	ldrb	r3, [r2, r0]
    3f88:	e15c0003 	cmp	ip, r3
    3f8c:	1a000008 	bne	3fb4 <is_dst+0x58>
    3f90:	e15c0000 	cmp	ip, r0
    3f94:	0a000006 	beq	3fb4 <is_dst+0x58>
    3f98:	e2800001 	add	r0, r0, #1	; 0x1
    3f9c:	e7d1c000 	ldrb	ip, [r1, r0]
    3fa0:	e7d23000 	ldrb	r3, [r2, r0]
    3fa4:	e15c0003 	cmp	ip, r3
    3fa8:	1a000001 	bne	3fb4 <is_dst+0x58>
    3fac:	e35c0000 	cmp	ip, #0	; 0x0
    3fb0:	1afffff8 	bne	3f98 <is_dst+0x3c>
    3fb4:	e35e0000 	cmp	lr, #0	; 0x0
    3fb8:	0a000006 	beq	3fd8 <is_dst+0x7c>
    3fbc:	e7d13000 	ldrb	r3, [r1, r0]
    3fc0:	e353007d 	cmp	r3, #125	; 0x7d
    3fc4:	13a00000 	movne	r0, #0	; 0x0
    3fc8:	18bd8030 	ldmneia	sp!, {r4, r5, pc}
    3fcc:	e2411001 	sub	r1, r1, #1	; 0x1
    3fd0:	e2800002 	add	r0, r0, #2	; 0x2
    3fd4:	ea000009 	b	4000 <is_dst+0xa4>
    3fd8:	e7d13000 	ldrb	r3, [r1, r0]
    3fdc:	e3530000 	cmp	r3, #0	; 0x0
    3fe0:	1353002f 	cmpne	r3, #47	; 0x2f
    3fe4:	0a000005 	beq	4000 <is_dst+0xa4>
    3fe8:	e3540000 	cmp	r4, #0	; 0x0
    3fec:	0a000001 	beq	3ff8 <is_dst+0x9c>
    3ff0:	e353003a 	cmp	r3, #58	; 0x3a
    3ff4:	0a000001 	beq	4000 <is_dst+0xa4>
    3ff8:	e3a00000 	mov	r0, #0	; 0x0
    3ffc:	e8bd8030 	ldmia	sp!, {r4, r5, pc}
    4000:	e59d300c 	ldr	r3, [sp, #12]
    4004:	e3530000 	cmp	r3, #0	; 0x0
    4008:	08bd8030 	ldmeqia	sp!, {r4, r5, pc}
    400c:	e7d13000 	ldrb	r3, [r1, r0]
    4010:	e3530000 	cmp	r3, #0	; 0x0
    4014:	0a000003 	beq	4028 <is_dst+0xcc>
    4018:	e3540000 	cmp	r4, #0	; 0x0
    401c:	0a000009 	beq	4048 <is_dst+0xec>
    4020:	e353003a 	cmp	r3, #58	; 0x3a
    4024:	1a000007 	bne	4048 <is_dst+0xec>
    4028:	e2853001 	add	r3, r5, #1	; 0x1
    402c:	e1530001 	cmp	r3, r1
    4030:	08bd8030 	ldmeqia	sp!, {r4, r5, pc}
    4034:	e3540000 	cmp	r4, #0	; 0x0
    4038:	0a000002 	beq	4048 <is_dst+0xec>
    403c:	e5513002 	ldrb	r3, [r1, #-2]
    4040:	e353003a 	cmp	r3, #58	; 0x3a
    4044:	08bd8030 	ldmeqia	sp!, {r4, r5, pc}
    4048:	e3a00000 	mov	r0, #0	; 0x0
    404c:	e8bd8030 	ldmia	sp!, {r4, r5, pc}

00004050 <_dl_dst_count>:
    4050:	e92d45f0 	stmdb	sp!, {r4, r5, r6, r7, r8, sl, lr}
    4054:	e24dd004 	sub	sp, sp, #4	; 0x4
    4058:	e59fa0b0 	ldr	sl, [pc, #176]	; 4110 <.text+0x3540>
    405c:	e08fa00a 	add	sl, pc, sl
    4060:	e1a04000 	mov	r4, r0
    4064:	e1a06001 	mov	r6, r1
    4068:	e1a05000 	mov	r5, r0
    406c:	e3a07000 	mov	r7, #0	; 0x0
    4070:	e59f309c 	ldr	r3, [pc, #156]	; 4114 <.text+0x3544>
    4074:	e79a8003 	ldr	r8, [sl, r3]
    4078:	e2844001 	add	r4, r4, #1	; 0x1
    407c:	e5983000 	ldr	r3, [r8]
    4080:	e58d3000 	str	r3, [sp]
    4084:	e1a00005 	mov	r0, r5
    4088:	e1a01004 	mov	r1, r4
    408c:	e59f2084 	ldr	r2, [pc, #132]	; 4118 <.text+0x3548>
    4090:	e08a2002 	add	r2, sl, r2
    4094:	e1a03006 	mov	r3, r6
    4098:	ebffffaf 	bl	3f5c <is_dst>
    409c:	e3500000 	cmp	r0, #0	; 0x0
    40a0:	1a000011 	bne	40ec <_dl_dst_count+0x9c>
    40a4:	e58d0000 	str	r0, [sp]
    40a8:	e1a00005 	mov	r0, r5
    40ac:	e1a01004 	mov	r1, r4
    40b0:	e59f2064 	ldr	r2, [pc, #100]	; 411c <.text+0x354c>
    40b4:	e08a2002 	add	r2, sl, r2
    40b8:	e1a03006 	mov	r3, r6
    40bc:	ebffffa6 	bl	3f5c <is_dst>
    40c0:	e3500000 	cmp	r0, #0	; 0x0
    40c4:	1a000008 	bne	40ec <_dl_dst_count+0x9c>
    40c8:	e58d0000 	str	r0, [sp]
    40cc:	e1a00005 	mov	r0, r5
    40d0:	e1a01004 	mov	r1, r4
    40d4:	e59f2044 	ldr	r2, [pc, #68]	; 4120 <.text+0x3550>
    40d8:	e08a2002 	add	r2, sl, r2
    40dc:	e1a03006 	mov	r3, r6
    40e0:	ebffff9d 	bl	3f5c <is_dst>
    40e4:	e3500000 	cmp	r0, #0	; 0x0
    40e8:	0a000000 	beq	40f0 <_dl_dst_count+0xa0>
    40ec:	e2877001 	add	r7, r7, #1	; 0x1
    40f0:	e0840000 	add	r0, r4, r0
    40f4:	e3a01024 	mov	r1, #36	; 0x24
    40f8:	eb00337c 	bl	10ef0 <index>
    40fc:	e2504000 	subs	r4, r0, #0	; 0x0
    4100:	1affffdc 	bne	4078 <_dl_dst_count+0x28>
    4104:	e1a00007 	mov	r0, r7
    4108:	e28dd004 	add	sp, sp, #4	; 0x4
    410c:	e8bd85f0 	ldmia	sp!, {r4, r5, r6, r7, r8, sl, pc}
    4110:	00019530 	andeq	r9, r1, r0, lsr r5
    4114:	00000200 	andeq	r0, r0, r0, lsl #4
    4118:	ffff649c 	swinv	0x00ff649c
    411c:	ffff64a4 	swinv	0x00ff64a4
    4120:	ffff64b0 	swinv	0x00ff64b0

00004124 <_dl_dst_substitute>:
    4124:	e92d4ff0 	stmdb	sp!, {r4, r5, r6, r7, r8, r9, sl, fp, lr}
    4128:	e24dd00c 	sub	sp, sp, #12	; 0xc
    412c:	e59fa190 	ldr	sl, [pc, #400]	; 42c4 <.text+0x36f4>
    4130:	e08fa00a 	add	sl, pc, sl
    4134:	e58d0008 	str	r0, [sp, #8]
    4138:	e1a04001 	mov	r4, r1
    413c:	e1a08002 	mov	r8, r2
    4140:	e1a06003 	mov	r6, r3
    4144:	e1a09001 	mov	r9, r1
    4148:	e1a05002 	mov	r5, r2
    414c:	e1a07002 	mov	r7, r2
    4150:	e5d43000 	ldrb	r3, [r4]
    4154:	e3530024 	cmp	r3, #36	; 0x24
    4158:	1a00004a 	bne	4288 <_dl_dst_substitute+0x164>
    415c:	e3a02000 	mov	r2, #0	; 0x0
    4160:	e58d2004 	str	r2, [sp, #4]
    4164:	e2844001 	add	r4, r4, #1	; 0x1
    4168:	e59f3158 	ldr	r3, [pc, #344]	; 42c8 <.text+0x36f8>
    416c:	e79a3003 	ldr	r3, [sl, r3]
    4170:	e5933000 	ldr	r3, [r3]
    4174:	e58d3000 	str	r3, [sp]
    4178:	e1a00009 	mov	r0, r9
    417c:	e1a01004 	mov	r1, r4
    4180:	e59f2144 	ldr	r2, [pc, #324]	; 42cc <.text+0x36fc>
    4184:	e08a2002 	add	r2, sl, r2
    4188:	e1a03006 	mov	r3, r6
    418c:	ebffff72 	bl	3f5c <is_dst>
    4190:	e250b000 	subs	fp, r0, #0	; 0x0
    4194:	159d3008 	ldrne	r3, [sp, #8]
    4198:	1593319c 	ldrne	r3, [r3, #412]
    419c:	158d3004 	strne	r3, [sp, #4]
    41a0:	1a00001a 	bne	4210 <_dl_dst_substitute+0xec>
    41a4:	e3a03000 	mov	r3, #0	; 0x0
    41a8:	e58d3000 	str	r3, [sp]
    41ac:	e1a00009 	mov	r0, r9
    41b0:	e1a01004 	mov	r1, r4
    41b4:	e59f2114 	ldr	r2, [pc, #276]	; 42d0 <.text+0x3700>
    41b8:	e08a2002 	add	r2, sl, r2
    41bc:	e1a03006 	mov	r3, r6
    41c0:	ebffff65 	bl	3f5c <is_dst>
    41c4:	e250b000 	subs	fp, r0, #0	; 0x0
    41c8:	0a000004 	beq	41e0 <_dl_dst_substitute+0xbc>
    41cc:	e59f3100 	ldr	r3, [pc, #256]	; 42d4 <.text+0x3704>
    41d0:	e79a3003 	ldr	r3, [sl, r3]
    41d4:	e593300c 	ldr	r3, [r3, #12]
    41d8:	e58d3004 	str	r3, [sp, #4]
    41dc:	ea00000b 	b	4210 <_dl_dst_substitute+0xec>
    41e0:	e3a03000 	mov	r3, #0	; 0x0
    41e4:	e58d3000 	str	r3, [sp]
    41e8:	e1a00009 	mov	r0, r9
    41ec:	e1a01004 	mov	r1, r4
    41f0:	e59f20e0 	ldr	r2, [pc, #224]	; 42d8 <.text+0x3708>
    41f4:	e08a2002 	add	r2, sl, r2
    41f8:	e1a03006 	mov	r3, r6
    41fc:	ebffff56 	bl	3f5c <is_dst>
    4200:	e250b000 	subs	fp, r0, #0	; 0x0
    4204:	159f30d0 	ldrne	r3, [pc, #208]	; 42dc <.text+0x370c>
    4208:	108a3003 	addne	r3, sl, r3
    420c:	158d3004 	strne	r3, [sp, #4]
    4210:	e59d2004 	ldr	r2, [sp, #4]
    4214:	e3520000 	cmp	r2, #0	; 0x0
    4218:	13720001 	cmnne	r2, #1	; 0x1
    421c:	0a000005 	beq	4238 <_dl_dst_substitute+0x114>
    4220:	e1a00005 	mov	r0, r5
    4224:	e1a01002 	mov	r1, r2
    4228:	eb0035a2 	bl	118b8 <__stpcpy>
    422c:	e1a05000 	mov	r5, r0
    4230:	e084400b 	add	r4, r4, fp
    4234:	ea00001a 	b	42a4 <_dl_dst_substitute+0x180>
    4238:	e35b0001 	cmp	fp, #1	; 0x1
    423c:	93a03024 	movls	r3, #36	; 0x24
    4240:	94c53001 	strlsb	r3, [r5], #1
    4244:	9a000016 	bls	42a4 <_dl_dst_substitute+0x180>
    4248:	e1a05007 	mov	r5, r7
    424c:	e7f4300b 	ldrb	r3, [r4, fp]!
    4250:	e3530000 	cmp	r3, #0	; 0x0
    4254:	0a000015 	beq	42b0 <_dl_dst_substitute+0x18c>
    4258:	e3560000 	cmp	r6, #0	; 0x0
    425c:	0a000001 	beq	4268 <_dl_dst_substitute+0x144>
    4260:	e353003a 	cmp	r3, #58	; 0x3a
    4264:	0a00000e 	beq	42a4 <_dl_dst_substitute+0x180>
    4268:	e5f43001 	ldrb	r3, [r4, #1]!
    426c:	e3530000 	cmp	r3, #0	; 0x0
    4270:	0a00000b 	beq	42a4 <_dl_dst_substitute+0x180>
    4274:	e3560000 	cmp	r6, #0	; 0x0
    4278:	0afffffa 	beq	4268 <_dl_dst_substitute+0x144>
    427c:	e353003a 	cmp	r3, #58	; 0x3a
    4280:	1afffff8 	bne	4268 <_dl_dst_substitute+0x144>
    4284:	ea000006 	b	42a4 <_dl_dst_substitute+0x180>
    4288:	e4d43001 	ldrb	r3, [r4], #1
    428c:	e4c53001 	strb	r3, [r5], #1
    4290:	e3560000 	cmp	r6, #0	; 0x0
    4294:	0a000002 	beq	42a4 <_dl_dst_substitute+0x180>
    4298:	e5d43000 	ldrb	r3, [r4]
    429c:	e353003a 	cmp	r3, #58	; 0x3a
    42a0:	01a07005 	moveq	r7, r5
    42a4:	e5d43000 	ldrb	r3, [r4]
    42a8:	e3530000 	cmp	r3, #0	; 0x0
    42ac:	1affffa7 	bne	4150 <_dl_dst_substitute+0x2c>
    42b0:	e3a03000 	mov	r3, #0	; 0x0
    42b4:	e5c53000 	strb	r3, [r5]
    42b8:	e1a00008 	mov	r0, r8
    42bc:	e28dd00c 	add	sp, sp, #12	; 0xc
    42c0:	e8bd8ff0 	ldmia	sp!, {r4, r5, r6, r7, r8, r9, sl, fp, pc}
    42c4:	0001945c 	andeq	r9, r1, ip, asr r4
    42c8:	00000200 	andeq	r0, r0, r0, lsl #4
    42cc:	ffff649c 	swinv	0x00ff649c
    42d0:	ffff64a4 	swinv	0x00ff64a4
    42d4:	00000210 	andeq	r0, r0, r0, lsl r2
    42d8:	ffff64b0 	swinv	0x00ff64b0
    42dc:	ffff64b4 	swinv	0x00ff64b4

000042e0 <expand_dynamic_string_token>:
    42e0:	e92d44f0 	stmdb	sp!, {r4, r5, r6, r7, sl, lr}
    42e4:	e59fa130 	ldr	sl, [pc, #304]	; 441c <.text+0x384c>
    42e8:	e08fa00a 	add	sl, pc, sl
    42ec:	e1a06000 	mov	r6, r0
    42f0:	e1a07001 	mov	r7, r1
    42f4:	e3a04000 	mov	r4, #0	; 0x0
    42f8:	e1a00001 	mov	r0, r1
    42fc:	e3a01024 	mov	r1, #36	; 0x24
    4300:	eb0032fa 	bl	10ef0 <index>
    4304:	e3500000 	cmp	r0, #0	; 0x0
    4308:	0a000002 	beq	4318 <expand_dynamic_string_token+0x38>
    430c:	e3a01001 	mov	r1, #1	; 0x1
    4310:	ebffff4e 	bl	4050 <_dl_dst_count>
    4314:	e1a04000 	mov	r4, r0
    4318:	e2545000 	subs	r5, r4, #0	; 0x0
    431c:	1a00000c 	bne	4354 <expand_dynamic_string_token+0x74>
    4320:	e1a06007 	mov	r6, r7
    4324:	e1a00007 	mov	r0, r7
    4328:	eb00333c 	bl	11020 <strlen>
    432c:	e2804001 	add	r4, r0, #1	; 0x1
    4330:	e1a00004 	mov	r0, r4
    4334:	ebfff21c 	bl	bac <GLIBC_2.0+0xbac>
    4338:	e3500000 	cmp	r0, #0	; 0x0
    433c:	01a00005 	moveq	r0, r5
    4340:	08bd84f0 	ldmeqia	sp!, {r4, r5, r6, r7, sl, pc}
    4344:	e1a01007 	mov	r1, r7
    4348:	e1a02004 	mov	r2, r4
    434c:	eb003560 	bl	118d4 <memcpy>
    4350:	e8bd84f0 	ldmia	sp!, {r4, r5, r6, r7, sl, pc}
    4354:	e1a00007 	mov	r0, r7
    4358:	eb003330 	bl	11020 <strlen>
    435c:	e1a04000 	mov	r4, r0
    4360:	e3550000 	cmp	r5, #0	; 0x0
    4364:	0a000022 	beq	43f4 <expand_dynamic_string_token+0x114>
    4368:	e596319c 	ldr	r3, [r6, #412]
    436c:	e3530000 	cmp	r3, #0	; 0x0
    4370:	1a000014 	bne	43c8 <expand_dynamic_string_token+0xe8>
    4374:	e5963004 	ldr	r3, [r6, #4]
    4378:	e5d33000 	ldrb	r3, [r3]
    437c:	e3530000 	cmp	r3, #0	; 0x0
    4380:	0a000008 	beq	43a8 <expand_dynamic_string_token+0xc8>
    4384:	e59f0094 	ldr	r0, [pc, #148]	; 4420 <.text+0x3850>
    4388:	e08a0000 	add	r0, sl, r0
    438c:	e59f1090 	ldr	r1, [pc, #144]	; 4424 <.text+0x3854>
    4390:	e08a1001 	add	r1, sl, r1
    4394:	e3a02f52 	mov	r2, #328	; 0x148
    4398:	e2822003 	add	r2, r2, #3	; 0x3
    439c:	e59f3084 	ldr	r3, [pc, #132]	; 4428 <.text+0x3858>
    43a0:	e79a3003 	ldr	r3, [sl, r3]
    43a4:	eb002d05 	bl	f7c0 <__GI___assert_fail>
    43a8:	eb0027ca 	bl	e2d8 <_dl_get_origin>
    43ac:	e586019c 	str	r0, [r6, #412]
    43b0:	e3500000 	cmp	r0, #0	; 0x0
    43b4:	13700001 	cmnne	r0, #1	; 0x1
    43b8:	03a00000 	moveq	r0, #0	; 0x0
    43bc:	0a000005 	beq	43d8 <expand_dynamic_string_token+0xf8>
    43c0:	eb003316 	bl	11020 <strlen>
    43c4:	ea000003 	b	43d8 <expand_dynamic_string_token+0xf8>
    43c8:	e596019c 	ldr	r0, [r6, #412]
    43cc:	e3700001 	cmn	r0, #1	; 0x1
    43d0:	03a00000 	moveq	r0, #0	; 0x0
    43d4:	1b003311 	blne	11020 <strlen>
    43d8:	e59f304c 	ldr	r3, [pc, #76]	; 442c <.text+0x385c>
    43dc:	e79a3003 	ldr	r3, [sl, r3]
    43e0:	e5933010 	ldr	r3, [r3, #16]
    43e4:	e1500003 	cmp	r0, r3
    43e8:	21a03000 	movcs	r3, r0
    43ec:	e2433007 	sub	r3, r3, #7	; 0x7
    43f0:	e0244395 	mla	r4, r5, r3, r4
    43f4:	e2840001 	add	r0, r4, #1	; 0x1
    43f8:	ebfff1eb 	bl	bac <GLIBC_2.0+0xbac>
    43fc:	e2502000 	subs	r2, r0, #0	; 0x0
    4400:	01a00002 	moveq	r0, r2
    4404:	08bd84f0 	ldmeqia	sp!, {r4, r5, r6, r7, sl, pc}
    4408:	e1a00006 	mov	r0, r6
    440c:	e1a01007 	mov	r1, r7
    4410:	e3a03001 	mov	r3, #1	; 0x1
    4414:	ebffff42 	bl	4124 <_dl_dst_substitute>
    4418:	e8bd84f0 	ldmia	sp!, {r4, r5, r6, r7, sl, pc}
    441c:	000192a4 	andeq	r9, r1, r4, lsr #5
    4420:	ffff64b8 	swinv	0x00ff64b8
    4424:	ffff64d0 	swinv	0x00ff64d0
    4428:	00000094 	muleq	r0, r4, r0
    442c:	00000210 	andeq	r0, r0, r0, lsl r2

00004430 <add_name_to_object>:
    4430:	e92d44f0 	stmdb	sp!, {r4, r5, r6, r7, sl, lr}
    4434:	e59fa0bc 	ldr	sl, [pc, #188]	; 44f8 <.text+0x3928>
    4438:	e08fa00a 	add	sl, pc, sl
    443c:	e1a05001 	mov	r5, r1
    4440:	e3a06000 	mov	r6, #0	; 0x0
    4444:	e590401c 	ldr	r4, [r0, #28]
    4448:	e1540006 	cmp	r4, r6
    444c:	0a000008 	beq	4474 <add_name_to_object+0x44>
    4450:	e1a00005 	mov	r0, r5
    4454:	e5941000 	ldr	r1, [r4]
    4458:	eb0032e4 	bl	10ff0 <strcmp>
    445c:	e3500000 	cmp	r0, #0	; 0x0
    4460:	08bd84f0 	ldmeqia	sp!, {r4, r5, r6, r7, sl, pc}
    4464:	e1a06004 	mov	r6, r4
    4468:	e5944004 	ldr	r4, [r4, #4]
    446c:	e3540000 	cmp	r4, #0	; 0x0
    4470:	1afffff6 	bne	4450 <add_name_to_object+0x20>
    4474:	e1a00005 	mov	r0, r5
    4478:	eb0032e8 	bl	11020 <strlen>
    447c:	e2807001 	add	r7, r0, #1	; 0x1
    4480:	e280000d 	add	r0, r0, #13	; 0xd
    4484:	ebfff1c8 	bl	bac <GLIBC_2.0+0xbac>
    4488:	e2504000 	subs	r4, r0, #0	; 0x0
    448c:	1a000005 	bne	44a8 <add_name_to_object+0x78>
    4490:	e280000c 	add	r0, r0, #12	; 0xc
    4494:	e1a01005 	mov	r1, r5
    4498:	e1a02004 	mov	r2, r4
    449c:	e59f3058 	ldr	r3, [pc, #88]	; 44fc <.text+0x392c>
    44a0:	e08a3003 	add	r3, sl, r3
    44a4:	eb001ce0 	bl	b82c <_dl_signal_error>
    44a8:	e3560000 	cmp	r6, #0	; 0x0
    44ac:	1a000007 	bne	44d0 <add_name_to_object+0xa0>
    44b0:	e59f0048 	ldr	r0, [pc, #72]	; 4500 <.text+0x3930>
    44b4:	e08a0000 	add	r0, sl, r0
    44b8:	e59f1044 	ldr	r1, [pc, #68]	; 4504 <.text+0x3934>
    44bc:	e08a1001 	add	r1, sl, r1
    44c0:	e3a02e17 	mov	r2, #368	; 0x170
    44c4:	e59f303c 	ldr	r3, [pc, #60]	; 4508 <.text+0x3938>
    44c8:	e79a3003 	ldr	r3, [sl, r3]
    44cc:	eb002cbb 	bl	f7c0 <__GI___assert_fail>
    44d0:	e284000c 	add	r0, r4, #12	; 0xc
    44d4:	e1a01005 	mov	r1, r5
    44d8:	e1a02007 	mov	r2, r7
    44dc:	eb0034fc 	bl	118d4 <memcpy>
    44e0:	e5840000 	str	r0, [r4]
    44e4:	e3a03000 	mov	r3, #0	; 0x0
    44e8:	e5843004 	str	r3, [r4, #4]
    44ec:	e5843008 	str	r3, [r4, #8]
    44f0:	e5864004 	str	r4, [r6, #4]
    44f4:	e8bd84f0 	ldmia	sp!, {r4, r5, r6, r7, sl, pc}
    44f8:	00019154 	andeq	r9, r1, r4, asr r1
    44fc:	ffff64dc 	swinv	0x00ff64dc
    4500:	ffff64f8 	swinv	0x00ff64f8
    4504:	ffff64d0 	swinv	0x00ff64d0
    4508:	00000098 	muleq	r0, r8, r0

0000450c <fillin_rpath>:
    450c:	e92d4ff0 	stmdb	sp!, {r4, r5, r6, r7, r8, r9, sl, fp, lr}
    4510:	e24dd01c 	sub	sp, sp, #28	; 0x1c
    4514:	e59fa310 	ldr	sl, [pc, #784]	; 482c <.text+0x3c5c>
    4518:	e08fa00a 	add	sl, pc, sl
    451c:	e58d0018 	str	r0, [sp, #24]
    4520:	e58d1014 	str	r1, [sp, #20]
    4524:	e58d2010 	str	r2, [sp, #16]
    4528:	e58d300c 	str	r3, [sp, #12]
    452c:	e59d9044 	ldr	r9, [sp, #68]
    4530:	e3a08000 	mov	r8, #0	; 0x0
    4534:	e59f32f4 	ldr	r3, [pc, #756]	; 4830 <.text+0x3c60>
    4538:	e79ab003 	ldr	fp, [sl, r3]
    453c:	e59f32f0 	ldr	r3, [pc, #752]	; 4834 <.text+0x3c64>
    4540:	e79a3003 	ldr	r3, [sl, r3]
    4544:	e58d3000 	str	r3, [sp]
    4548:	ea0000ab 	b	47fc <fillin_rpath+0x2f0>
    454c:	e58d0008 	str	r0, [sp, #8]
    4550:	ea000038 	b	4638 <fillin_rpath+0x12c>
    4554:	e1a00006 	mov	r0, r6
    4558:	eb0032b0 	bl	11020 <strlen>
    455c:	e2505000 	subs	r5, r0, #0	; 0x0
    4560:	059f32d0 	ldreq	r3, [pc, #720]	; 4838 <.text+0x3c68>
    4564:	079a6003 	ldreq	r6, [sl, r3]
    4568:	e3550001 	cmp	r5, #1	; 0x1
    456c:	9a00000a 	bls	459c <fillin_rpath+0x90>
    4570:	e0863005 	add	r3, r6, r5
    4574:	e5533001 	ldrb	r3, [r3, #-1]
    4578:	e353002f 	cmp	r3, #47	; 0x2f
    457c:	1a000006 	bne	459c <fillin_rpath+0x90>
    4580:	e2455001 	sub	r5, r5, #1	; 0x1
    4584:	e3550001 	cmp	r5, #1	; 0x1
    4588:	9a000003 	bls	459c <fillin_rpath+0x90>
    458c:	e0863005 	add	r3, r6, r5
    4590:	e5533001 	ldrb	r3, [r3, #-1]
    4594:	e353002f 	cmp	r3, #47	; 0x2f
    4598:	0afffff8 	beq	4580 <fillin_rpath+0x74>
    459c:	e3550000 	cmp	r5, #0	; 0x0
    45a0:	0a000005 	beq	45bc <fillin_rpath+0xb0>
    45a4:	e0863005 	add	r3, r6, r5
    45a8:	e5533001 	ldrb	r3, [r3, #-1]
    45ac:	e353002f 	cmp	r3, #47	; 0x2f
    45b0:	13a0302f 	movne	r3, #47	; 0x2f
    45b4:	17c63005 	strneb	r3, [r6, r5]
    45b8:	12855001 	addne	r5, r5, #1	; 0x1
    45bc:	e59d100c 	ldr	r1, [sp, #12]
    45c0:	e3510000 	cmp	r1, #0	; 0x0
    45c4:	0a00001e 	beq	4644 <fillin_rpath+0x138>
    45c8:	e59f326c 	ldr	r3, [pc, #620]	; 483c <.text+0x3c6c>
    45cc:	e79a7003 	ldr	r7, [sl, r3]
    45d0:	e3a02001 	mov	r2, #1	; 0x1
    45d4:	e58d2008 	str	r2, [sp, #8]
    45d8:	e5d63000 	ldrb	r3, [r6]
    45dc:	e353002f 	cmp	r3, #47	; 0x2f
    45e0:	1a000014 	bne	4638 <fillin_rpath+0x12c>
    45e4:	e3a04000 	mov	r4, #0	; 0x0
    45e8:	e59f3250 	ldr	r3, [pc, #592]	; 4840 <.text+0x3c70>
    45ec:	e79a3003 	ldr	r3, [sl, r3]
    45f0:	e58d3004 	str	r3, [sp, #4]
    45f4:	e59d1004 	ldr	r1, [sp, #4]
    45f8:	e7913104 	ldr	r3, [r1, r4, lsl #2]
    45fc:	e1530005 	cmp	r3, r5
    4600:	1a000005 	bne	461c <fillin_rpath+0x110>
    4604:	e1a00007 	mov	r0, r7
    4608:	e1a01006 	mov	r1, r6
    460c:	e1a02005 	mov	r2, r5
    4610:	eb0033e6 	bl	115b0 <bcmp>
    4614:	e3500000 	cmp	r0, #0	; 0x0
    4618:	0affffcb 	beq	454c <fillin_rpath+0x40>
    461c:	e59d2004 	ldr	r2, [sp, #4]
    4620:	e7923104 	ldr	r3, [r2, r4, lsl #2]
    4624:	e0873003 	add	r3, r7, r3
    4628:	e2837001 	add	r7, r3, #1	; 0x1
    462c:	e2844001 	add	r4, r4, #1	; 0x1
    4630:	e3540001 	cmp	r4, #1	; 0x1
    4634:	9affffee 	bls	45f4 <fillin_rpath+0xe8>
    4638:	e59d3008 	ldr	r3, [sp, #8]
    463c:	e3530000 	cmp	r3, #0	; 0x0
    4640:	1a00006d 	bne	47fc <fillin_rpath+0x2f0>
    4644:	e59b41b0 	ldr	r4, [fp, #432]
    4648:	e3540000 	cmp	r4, #0	; 0x0
    464c:	0a00001d 	beq	46c8 <fillin_rpath+0x1bc>
    4650:	e5943010 	ldr	r3, [r4, #16]
    4654:	e1530005 	cmp	r3, r5
    4658:	1a000005 	bne	4674 <fillin_rpath+0x168>
    465c:	e1a00006 	mov	r0, r6
    4660:	e594100c 	ldr	r1, [r4, #12]
    4664:	e1a02005 	mov	r2, r5
    4668:	eb0033d0 	bl	115b0 <bcmp>
    466c:	e3500000 	cmp	r0, #0	; 0x0
    4670:	0a000003 	beq	4684 <fillin_rpath+0x178>
    4674:	e5944000 	ldr	r4, [r4]
    4678:	e3540000 	cmp	r4, #0	; 0x0
    467c:	1afffff3 	bne	4650 <fillin_rpath+0x144>
    4680:	ea000010 	b	46c8 <fillin_rpath+0x1bc>
    4684:	e3540000 	cmp	r4, #0	; 0x0
    4688:	0a00000e 	beq	46c8 <fillin_rpath+0x1bc>
    468c:	e3a02000 	mov	r2, #0	; 0x0
    4690:	e1520008 	cmp	r2, r8
    4694:	2a000006 	bcs	46b4 <fillin_rpath+0x1a8>
    4698:	e59d1014 	ldr	r1, [sp, #20]
    469c:	e7913102 	ldr	r3, [r1, r2, lsl #2]
    46a0:	e1530004 	cmp	r3, r4
    46a4:	0a000002 	beq	46b4 <fillin_rpath+0x1a8>
    46a8:	e2822001 	add	r2, r2, #1	; 0x1
    46ac:	e1520008 	cmp	r2, r8
    46b0:	3afffff8 	bcc	4698 <fillin_rpath+0x18c>
    46b4:	e1520008 	cmp	r2, r8
    46b8:	059d2014 	ldreq	r2, [sp, #20]
    46bc:	07824108 	streq	r4, [r2, r8, lsl #2]
    46c0:	02888001 	addeq	r8, r8, #1	; 0x1
    46c4:	ea00004c 	b	47fc <fillin_rpath+0x2f0>
    46c8:	e3590000 	cmp	r9, #0	; 0x0
    46cc:	03a07000 	moveq	r7, #0	; 0x0
    46d0:	0a000002 	beq	46e0 <fillin_rpath+0x1d4>
    46d4:	e1a00009 	mov	r0, r9
    46d8:	eb003250 	bl	11020 <strlen>
    46dc:	e2807001 	add	r7, r0, #1	; 0x1
    46e0:	e59f314c 	ldr	r3, [pc, #332]	; 4834 <.text+0x3c64>
    46e4:	e79a3003 	ldr	r3, [sl, r3]
    46e8:	e5930000 	ldr	r0, [r3]
    46ec:	e0870100 	add	r0, r7, r0, lsl #2
    46f0:	e0800005 	add	r0, r0, r5
    46f4:	e2800015 	add	r0, r0, #21	; 0x15
    46f8:	ebfff12b 	bl	bac <GLIBC_2.0+0xbac>
    46fc:	e2504000 	subs	r4, r0, #0	; 0x0
    4700:	1a000005 	bne	471c <fillin_rpath+0x210>
    4704:	e280000c 	add	r0, r0, #12	; 0xc
    4708:	e1a01004 	mov	r1, r4
    470c:	e1a02004 	mov	r2, r4
    4710:	e59f312c 	ldr	r3, [pc, #300]	; 4844 <.text+0x3c74>
    4714:	e08a3003 	add	r3, sl, r3
    4718:	eb001c43 	bl	b82c <_dl_signal_error>
    471c:	e59f3110 	ldr	r3, [pc, #272]	; 4834 <.text+0x3c64>
    4720:	e79a3003 	ldr	r3, [sl, r3]
    4724:	e5930000 	ldr	r0, [r3]
    4728:	e0840100 	add	r0, r4, r0, lsl #2
    472c:	e2800014 	add	r0, r0, #20	; 0x14
    4730:	e584000c 	str	r0, [r4, #12]
    4734:	e1a01006 	mov	r1, r6
    4738:	e1a02005 	mov	r2, r5
    473c:	eb003437 	bl	11820 <__mempcpy>
    4740:	e3a03000 	mov	r3, #0	; 0x0
    4744:	e5c03000 	strb	r3, [r0]
    4748:	e5845010 	str	r5, [r4, #16]
    474c:	e59f30f4 	ldr	r3, [pc, #244]	; 4848 <.text+0x3c78>
    4750:	e79a2003 	ldr	r2, [sl, r3]
    4754:	e5923000 	ldr	r3, [r2]
    4758:	e1550003 	cmp	r5, r3
    475c:	85825000 	strhi	r5, [r2]
    4760:	e5d63000 	ldrb	r3, [r6]
    4764:	e353002f 	cmp	r3, #47	; 0x2f
    4768:	13a00002 	movne	r0, #2	; 0x2
    476c:	03a00000 	moveq	r0, #0	; 0x0
    4770:	e3a02000 	mov	r2, #0	; 0x0
    4774:	e59d1000 	ldr	r1, [sp]
    4778:	e5913000 	ldr	r3, [r1]
    477c:	e1520003 	cmp	r2, r3
    4780:	2a000007 	bcs	47a4 <fillin_rpath+0x298>
    4784:	e59f30a8 	ldr	r3, [pc, #168]	; 4834 <.text+0x3c64>
    4788:	e79a1003 	ldr	r1, [sl, r3]
    478c:	e0843102 	add	r3, r4, r2, lsl #2
    4790:	e5830014 	str	r0, [r3, #20]
    4794:	e2822001 	add	r2, r2, #1	; 0x1
    4798:	e5913000 	ldr	r3, [r1]
    479c:	e1520003 	cmp	r2, r3
    47a0:	3afffff9 	bcc	478c <fillin_rpath+0x280>
    47a4:	e59d2040 	ldr	r2, [sp, #64]
    47a8:	e5842004 	str	r2, [r4, #4]
    47ac:	e3590000 	cmp	r9, #0	; 0x0
    47b0:	03a03000 	moveq	r3, #0	; 0x0
    47b4:	05843008 	streq	r3, [r4, #8]
    47b8:	0a000009 	beq	47e4 <fillin_rpath+0x2d8>
    47bc:	e59f3070 	ldr	r3, [pc, #112]	; 4834 <.text+0x3c64>
    47c0:	e79a3003 	ldr	r3, [sl, r3]
    47c4:	e5930000 	ldr	r0, [r3]
    47c8:	e0850100 	add	r0, r5, r0, lsl #2
    47cc:	e0800004 	add	r0, r0, r4
    47d0:	e2800015 	add	r0, r0, #21	; 0x15
    47d4:	e1a01009 	mov	r1, r9
    47d8:	e1a02007 	mov	r2, r7
    47dc:	eb00343c 	bl	118d4 <memcpy>
    47e0:	e5840008 	str	r0, [r4, #8]
    47e4:	e59b31b0 	ldr	r3, [fp, #432]
    47e8:	e5843000 	str	r3, [r4]
    47ec:	e58b41b0 	str	r4, [fp, #432]
    47f0:	e59d3014 	ldr	r3, [sp, #20]
    47f4:	e7834108 	str	r4, [r3, r8, lsl #2]
    47f8:	e2888001 	add	r8, r8, #1	; 0x1
    47fc:	e28d0018 	add	r0, sp, #24	; 0x18
    4800:	e59d1010 	ldr	r1, [sp, #16]
    4804:	eb002cb8 	bl	faec <__strsep>
    4808:	e1a06000 	mov	r6, r0
    480c:	e3500000 	cmp	r0, #0	; 0x0
    4810:	1affff4f 	bne	4554 <fillin_rpath+0x48>
    4814:	e3a03000 	mov	r3, #0	; 0x0
    4818:	e59d1014 	ldr	r1, [sp, #20]
    481c:	e7813108 	str	r3, [r1, r8, lsl #2]
    4820:	e59d0014 	ldr	r0, [sp, #20]
    4824:	e28dd01c 	add	sp, sp, #28	; 0x1c
    4828:	e8bd8ff0 	ldmia	sp!, {r4, r5, r6, r7, r8, r9, sl, fp, pc}
    482c:	00019074 	andeq	r9, r1, r4, ror r0
    4830:	0000023c 	andeq	r0, r0, ip, lsr r2
    4834:	000000a0 	andeq	r0, r0, r0, lsr #1
    4838:	0000009c 	muleq	r0, ip, r0
    483c:	0000008c 	andeq	r0, r0, ip, lsl #1
    4840:	00000090 	muleq	r0, r0, r0
    4844:	ffff6510 	swinv	0x00ff6510
    4848:	000000a4 	andeq	r0, r0, r4, lsr #1

0000484c <decompose_rpath>:
    484c:	e92d45f0 	stmdb	sp!, {r4, r5, r6, r7, r8, sl, lr}
    4850:	e24dd008 	sub	sp, sp, #8	; 0x8
    4854:	e59fa188 	ldr	sl, [pc, #392]	; 49e4 <.text+0x3e14>
    4858:	e08fa00a 	add	sl, pc, sl
    485c:	e1a06000 	mov	r6, r0
    4860:	e1a00002 	mov	r0, r2
    4864:	e1a08003 	mov	r8, r3
    4868:	e5927004 	ldr	r7, [r2, #4]
    486c:	e59f3174 	ldr	r3, [pc, #372]	; 49e8 <.text+0x3e18>
    4870:	e79a3003 	ldr	r3, [sl, r3]
    4874:	e593c094 	ldr	ip, [r3, #148]
    4878:	e35c0000 	cmp	ip, #0	; 0x0
    487c:	0a000034 	beq	4954 <decompose_rpath+0x108>
    4880:	e59f3164 	ldr	r3, [pc, #356]	; 49ec <.text+0x3e1c>
    4884:	e79a3003 	ldr	r3, [sl, r3]
    4888:	e5933000 	ldr	r3, [r3]
    488c:	e3530000 	cmp	r3, #0	; 0x0
    4890:	1a00002f 	bne	4954 <decompose_rpath+0x108>
    4894:	e1a0200c 	mov	r2, ip
    4898:	e1a0e007 	mov	lr, r7
    489c:	e5d2c000 	ldrb	ip, [r2]
    48a0:	e5d73000 	ldrb	r3, [r7]
    48a4:	e15c0003 	cmp	ip, r3
    48a8:	1a000007 	bne	48cc <decompose_rpath+0x80>
    48ac:	e35c0000 	cmp	ip, #0	; 0x0
    48b0:	0a000005 	beq	48cc <decompose_rpath+0x80>
    48b4:	e5f2c001 	ldrb	ip, [r2, #1]!
    48b8:	e5fe3001 	ldrb	r3, [lr, #1]!
    48bc:	e15c0003 	cmp	ip, r3
    48c0:	1a000001 	bne	48cc <decompose_rpath+0x80>
    48c4:	e35c0000 	cmp	ip, #0	; 0x0
    48c8:	1afffff9 	bne	48b4 <decompose_rpath+0x68>
    48cc:	e5de3000 	ldrb	r3, [lr]
    48d0:	e3530000 	cmp	r3, #0	; 0x0
    48d4:	1a000011 	bne	4920 <decompose_rpath+0xd4>
    48d8:	e5d23000 	ldrb	r3, [r2]
    48dc:	e353003a 	cmp	r3, #58	; 0x3a
    48e0:	13530000 	cmpne	r3, #0	; 0x0
    48e4:	1a00000d 	bne	4920 <decompose_rpath+0xd4>
    48e8:	e3a00001 	mov	r0, #1	; 0x1
    48ec:	e3a01004 	mov	r1, #4	; 0x4
    48f0:	ebfff0a7 	bl	b94 <GLIBC_2.0+0xb94>
    48f4:	e2505000 	subs	r5, r0, #0	; 0x0
    48f8:	15865000 	strne	r5, [r6]
    48fc:	13a03001 	movne	r3, #1	; 0x1
    4900:	15863004 	strne	r3, [r6, #4]
    4904:	1a000034 	bne	49dc <decompose_rpath+0x190>
    4908:	e59f30e0 	ldr	r3, [pc, #224]	; 49f0 <.text+0x3e20>
    490c:	e08a3003 	add	r3, sl, r3
    4910:	e3a0000c 	mov	r0, #12	; 0xc
    4914:	e3a01000 	mov	r1, #0	; 0x0
    4918:	e1a02001 	mov	r2, r1
    491c:	eb001bc2 	bl	b82c <_dl_signal_error>
    4920:	e5d23000 	ldrb	r3, [r2]
    4924:	e3530000 	cmp	r3, #0	; 0x0
    4928:	0a000009 	beq	4954 <decompose_rpath+0x108>
    492c:	e4d23001 	ldrb	r3, [r2], #1
    4930:	e353003a 	cmp	r3, #58	; 0x3a
    4934:	0a000003 	beq	4948 <decompose_rpath+0xfc>
    4938:	e5d23000 	ldrb	r3, [r2]
    493c:	e3530000 	cmp	r3, #0	; 0x0
    4940:	1afffff9 	bne	492c <decompose_rpath+0xe0>
    4944:	ea000002 	b	4954 <decompose_rpath+0x108>
    4948:	e5d23000 	ldrb	r3, [r2]
    494c:	e3530000 	cmp	r3, #0	; 0x0
    4950:	1affffd0 	bne	4898 <decompose_rpath+0x4c>
    4954:	ebfffe61 	bl	42e0 <expand_dynamic_string_token>
    4958:	e2504000 	subs	r4, r0, #0	; 0x0
    495c:	059f3090 	ldreq	r3, [pc, #144]	; 49f4 <.text+0x3e24>
    4960:	008a3003 	addeq	r3, sl, r3
    4964:	0affffe9 	beq	4910 <decompose_rpath+0xc4>
    4968:	e3a00000 	mov	r0, #0	; 0x0
    496c:	e1a02004 	mov	r2, r4
    4970:	e5d43000 	ldrb	r3, [r4]
    4974:	e1530000 	cmp	r3, r0
    4978:	0a000005 	beq	4994 <decompose_rpath+0x148>
    497c:	e5d23000 	ldrb	r3, [r2]
    4980:	e353003a 	cmp	r3, #58	; 0x3a
    4984:	02800001 	addeq	r0, r0, #1	; 0x1
    4988:	e5f23001 	ldrb	r3, [r2, #1]!
    498c:	e3530000 	cmp	r3, #0	; 0x0
    4990:	1afffff9 	bne	497c <decompose_rpath+0x130>
    4994:	e1a00100 	mov	r0, r0, lsl #2
    4998:	e2800008 	add	r0, r0, #8	; 0x8
    499c:	ebfff082 	bl	bac <GLIBC_2.0+0xbac>
    49a0:	e2505000 	subs	r5, r0, #0	; 0x0
    49a4:	0affffd7 	beq	4908 <decompose_rpath+0xbc>
    49a8:	e58d8000 	str	r8, [sp]
    49ac:	e58d7004 	str	r7, [sp, #4]
    49b0:	e1a00004 	mov	r0, r4
    49b4:	e1a01005 	mov	r1, r5
    49b8:	e59f2038 	ldr	r2, [pc, #56]	; 49f8 <.text+0x3e28>
    49bc:	e08a2002 	add	r2, sl, r2
    49c0:	e3a03000 	mov	r3, #0	; 0x0
    49c4:	ebfffed0 	bl	450c <fillin_rpath>
    49c8:	e1a00004 	mov	r0, r4
    49cc:	ebfff079 	bl	bb8 <GLIBC_2.0+0xbb8>
    49d0:	e5865000 	str	r5, [r6]
    49d4:	e3a03001 	mov	r3, #1	; 0x1
    49d8:	e5863004 	str	r3, [r6, #4]
    49dc:	e28dd008 	add	sp, sp, #8	; 0x8
    49e0:	e8bd85f0 	ldmia	sp!, {r4, r5, r6, r7, r8, sl, pc}
    49e4:	00018d34 	andeq	r8, r1, r4, lsr sp
    49e8:	00000210 	andeq	r0, r0, r0, lsl r2
    49ec:	00000200 	andeq	r0, r0, r0, lsl #4
    49f0:	ffff6510 	swinv	0x00ff6510
    49f4:	ffff6534 	swinv	0x00ff6534
    49f8:	ffff6558 	swinv	0x00ff6558

000049fc <cache_rpath>:
    49fc:	e52de004 	str	lr, [sp, #-4]!
    4a00:	e1a0c000 	mov	ip, r0
    4a04:	e1a00001 	mov	r0, r1
    4a08:	e1a01002 	mov	r1, r2
    4a0c:	e1a0e003 	mov	lr, r3
    4a10:	e5903000 	ldr	r3, [r0]
    4a14:	e3730001 	cmn	r3, #1	; 0x1
    4a18:	03a00000 	moveq	r0, #0	; 0x0
    4a1c:	049df004 	ldreq	pc, [sp], #4
    4a20:	e5903000 	ldr	r3, [r0]
    4a24:	e3530000 	cmp	r3, #0	; 0x0
    4a28:	13a00001 	movne	r0, #1	; 0x1
    4a2c:	149df004 	ldrne	pc, [sp], #4
    4a30:	e08c3102 	add	r3, ip, r2, lsl #2
    4a34:	e5932020 	ldr	r2, [r3, #32]
    4a38:	e3520000 	cmp	r2, #0	; 0x0
    4a3c:	03e03000 	mvneq	r3, #0	; 0x0
    4a40:	05803000 	streq	r3, [r0]
    4a44:	01a00002 	moveq	r0, r2
    4a48:	049df004 	ldreq	pc, [sp], #4
    4a4c:	e59c2034 	ldr	r2, [ip, #52]
    4a50:	e08c3101 	add	r3, ip, r1, lsl #2
    4a54:	e5933020 	ldr	r3, [r3, #32]
    4a58:	e5922004 	ldr	r2, [r2, #4]
    4a5c:	e5931004 	ldr	r1, [r3, #4]
    4a60:	e0821001 	add	r1, r2, r1
    4a64:	e1a0200c 	mov	r2, ip
    4a68:	e1a0300e 	mov	r3, lr
    4a6c:	ebffff76 	bl	484c <decompose_rpath>
    4a70:	e3a00001 	mov	r0, #1	; 0x1
    4a74:	e49df004 	ldr	pc, [sp], #4

00004a78 <_dl_init_paths>:
    4a78:	e1a0c00d 	mov	ip, sp
    4a7c:	e92ddff0 	stmdb	sp!, {r4, r5, r6, r7, r8, r9, sl, fp, ip, lr, pc}
    4a80:	e24cb004 	sub	fp, ip, #4	; 0x4
    4a84:	e24dd008 	sub	sp, sp, #8	; 0x8
    4a88:	e59fa3c8 	ldr	sl, [pc, #968]	; 4e58 <.text+0x4288>
    4a8c:	e08fa00a 	add	sl, pc, sl
    4a90:	e1a08000 	mov	r8, r0
    4a94:	e59f33c0 	ldr	r3, [pc, #960]	; 4e5c <.text+0x428c>
    4a98:	e79a3003 	ldr	r3, [sl, r3]
    4a9c:	e283000c 	add	r0, r3, #12	; 0xc
    4aa0:	e8900003 	ldmia	r0, {r0, r1}
    4aa4:	e59f33b4 	ldr	r3, [pc, #948]	; 4e60 <.text+0x4290>
    4aa8:	e79a2003 	ldr	r2, [sl, r3]
    4aac:	e59f33b0 	ldr	r3, [pc, #944]	; 4e64 <.text+0x4294>
    4ab0:	e79a3003 	ldr	r3, [sl, r3]
    4ab4:	eb0028dd 	bl	ee30 <_dl_important_hwcaps>
    4ab8:	e59f33a8 	ldr	r3, [pc, #936]	; 4e68 <.text+0x4298>
    4abc:	e79a3003 	ldr	r3, [sl, r3]
    4ac0:	e5830000 	str	r0, [r3]
    4ac4:	e3a0000c 	mov	r0, #12	; 0xc
    4ac8:	ebfff037 	bl	bac <GLIBC_2.0+0xbac>
    4acc:	e59f3398 	ldr	r3, [pc, #920]	; 4e6c <.text+0x429c>
    4ad0:	e79a3003 	ldr	r3, [sl, r3]
    4ad4:	e5830000 	str	r0, [r3]
    4ad8:	e2507000 	subs	r7, r0, #0	; 0x0
    4adc:	1a000005 	bne	4af8 <_dl_init_paths+0x80>
    4ae0:	e59f3388 	ldr	r3, [pc, #904]	; 4e70 <.text+0x42a0>
    4ae4:	e08a3003 	add	r3, sl, r3
    4ae8:	e3a0000c 	mov	r0, #12	; 0xc
    4aec:	e3a01000 	mov	r1, #0	; 0x0
    4af0:	e1a02001 	mov	r2, r1
    4af4:	eb001b4c 	bl	b82c <_dl_signal_error>
    4af8:	e59f3360 	ldr	r3, [pc, #864]	; 4e60 <.text+0x4290>
    4afc:	e79a3003 	ldr	r3, [sl, r3]
    4b00:	e5930000 	ldr	r0, [r3]
    4b04:	e1a00100 	mov	r0, r0, lsl #2
    4b08:	e2800027 	add	r0, r0, #39	; 0x27
    4b0c:	e3a01014 	mov	r1, #20	; 0x14
    4b10:	eb0034ae 	bl	11dd0 <__udivsi3>
    4b14:	e1a06000 	mov	r6, r0
    4b18:	e59f334c 	ldr	r3, [pc, #844]	; 4e6c <.text+0x429c>
    4b1c:	e79a4003 	ldr	r4, [sl, r3]
    4b20:	e5945000 	ldr	r5, [r4]
    4b24:	e0800100 	add	r0, r0, r0, lsl #2
    4b28:	e1a00300 	mov	r0, r0, lsl #6
    4b2c:	ebfff01e 	bl	bac <GLIBC_2.0+0xbac>
    4b30:	e5850000 	str	r0, [r5]
    4b34:	e5943000 	ldr	r3, [r4]
    4b38:	e5933000 	ldr	r3, [r3]
    4b3c:	e3530000 	cmp	r3, #0	; 0x0
    4b40:	059f332c 	ldreq	r3, [pc, #812]	; 4e74 <.text+0x42a4>
    4b44:	008a3003 	addeq	r3, sl, r3
    4b48:	0affffe6 	beq	4ae8 <_dl_init_paths+0x70>
    4b4c:	e59f3318 	ldr	r3, [pc, #792]	; 4e6c <.text+0x429c>
    4b50:	e79a3003 	ldr	r3, [sl, r3]
    4b54:	e3a01000 	mov	r1, #0	; 0x0
    4b58:	e5831004 	str	r1, [r3, #4]
    4b5c:	e5933000 	ldr	r3, [r3]
    4b60:	e5932000 	ldr	r2, [r3]
    4b64:	e59f330c 	ldr	r3, [pc, #780]	; 4e78 <.text+0x42a8>
    4b68:	e79a3003 	ldr	r3, [sl, r3]
    4b6c:	e58321b0 	str	r2, [r3, #432]
    4b70:	e59f3304 	ldr	r3, [pc, #772]	; 4e7c <.text+0x42ac>
    4b74:	e79a4003 	ldr	r4, [sl, r3]
    4b78:	e59f3300 	ldr	r3, [pc, #768]	; 4e80 <.text+0x42b0>
    4b7c:	e79a9003 	ldr	r9, [sl, r3]
    4b80:	e0865106 	add	r5, r6, r6, lsl #2
    4b84:	e4872004 	str	r2, [r7], #4
    4b88:	e59f32f4 	ldr	r3, [pc, #756]	; 4e84 <.text+0x42b4>
    4b8c:	e08a3003 	add	r3, sl, r3
    4b90:	e5823004 	str	r3, [r2, #4]
    4b94:	e3a03000 	mov	r3, #0	; 0x0
    4b98:	e5823008 	str	r3, [r2, #8]
    4b9c:	e582400c 	str	r4, [r2, #12]
    4ba0:	e7993101 	ldr	r3, [r9, r1, lsl #2]
    4ba4:	e5823010 	str	r3, [r2, #16]
    4ba8:	e0843003 	add	r3, r4, r3
    4bac:	e2834001 	add	r4, r3, #1	; 0x1
    4bb0:	e592300c 	ldr	r3, [r2, #12]
    4bb4:	e5d33000 	ldrb	r3, [r3]
    4bb8:	e353002f 	cmp	r3, #47	; 0x2f
    4bbc:	0a000007 	beq	4be0 <_dl_init_paths+0x168>
    4bc0:	e59f02c0 	ldr	r0, [pc, #704]	; 4e88 <.text+0x42b8>
    4bc4:	e08a0000 	add	r0, sl, r0
    4bc8:	e59f12bc 	ldr	r1, [pc, #700]	; 4e8c <.text+0x42bc>
    4bcc:	e08a1001 	add	r1, sl, r1
    4bd0:	e3a02e2b 	mov	r2, #688	; 0x2b0
    4bd4:	e59f32b4 	ldr	r3, [pc, #692]	; 4e90 <.text+0x42c0>
    4bd8:	e79a3003 	ldr	r3, [sl, r3]
    4bdc:	eb002af7 	bl	f7c0 <__GI___assert_fail>
    4be0:	e3a00000 	mov	r0, #0	; 0x0
    4be4:	e59f3274 	ldr	r3, [pc, #628]	; 4e60 <.text+0x4290>
    4be8:	e79a3003 	ldr	r3, [sl, r3]
    4bec:	e5933000 	ldr	r3, [r3]
    4bf0:	e1500003 	cmp	r0, r3
    4bf4:	2a000008 	bcs	4c1c <_dl_init_paths+0x1a4>
    4bf8:	e1a0e000 	mov	lr, r0
    4bfc:	e59f325c 	ldr	r3, [pc, #604]	; 4e60 <.text+0x4290>
    4c00:	e79ac003 	ldr	ip, [sl, r3]
    4c04:	e0823100 	add	r3, r2, r0, lsl #2
    4c08:	e583e014 	str	lr, [r3, #20]
    4c0c:	e2800001 	add	r0, r0, #1	; 0x1
    4c10:	e59c3000 	ldr	r3, [ip]
    4c14:	e1500003 	cmp	r0, r3
    4c18:	3afffff9 	bcc	4c04 <_dl_init_paths+0x18c>
    4c1c:	e2811001 	add	r1, r1, #1	; 0x1
    4c20:	e3510002 	cmp	r1, #2	; 0x2
    4c24:	10823105 	addne	r3, r2, r5, lsl #2
    4c28:	03a03000 	moveq	r3, #0	; 0x0
    4c2c:	e5823000 	str	r3, [r2]
    4c30:	e0863106 	add	r3, r6, r6, lsl #2
    4c34:	e0822103 	add	r2, r2, r3, lsl #2
    4c38:	e3510001 	cmp	r1, #1	; 0x1
    4c3c:	9affffd0 	bls	4b84 <_dl_init_paths+0x10c>
    4c40:	e3a02009 	mov	r2, #9	; 0x9
    4c44:	e59f3248 	ldr	r3, [pc, #584]	; 4e94 <.text+0x42c4>
    4c48:	e79a3003 	ldr	r3, [sl, r3]
    4c4c:	e5832000 	str	r2, [r3]
    4c50:	e3a03000 	mov	r3, #0	; 0x0
    4c54:	e5873000 	str	r3, [r7]
    4c58:	e59f3218 	ldr	r3, [pc, #536]	; 4e78 <.text+0x42a8>
    4c5c:	e79a3003 	ldr	r3, [sl, r3]
    4c60:	e5934000 	ldr	r4, [r3]
    4c64:	e3540000 	cmp	r4, #0	; 0x0
    4c68:	0a00002d 	beq	4d24 <_dl_init_paths+0x2ac>
    4c6c:	e5d43180 	ldrb	r3, [r4, #384]
    4c70:	e2033003 	and	r3, r3, #3	; 0x3
    4c74:	e3530002 	cmp	r3, #2	; 0x2
    4c78:	1a000008 	bne	4ca0 <_dl_init_paths+0x228>
    4c7c:	e59f0214 	ldr	r0, [pc, #532]	; 4e98 <.text+0x42c8>
    4c80:	e08a0000 	add	r0, sl, r0
    4c84:	e59f1200 	ldr	r1, [pc, #512]	; 4e8c <.text+0x42bc>
    4c88:	e08a1001 	add	r1, sl, r1
    4c8c:	e3a02d0b 	mov	r2, #704	; 0x2c0
    4c90:	e2822002 	add	r2, r2, #2	; 0x2
    4c94:	e59f31f4 	ldr	r3, [pc, #500]	; 4e90 <.text+0x42c0>
    4c98:	e79a3003 	ldr	r3, [sl, r3]
    4c9c:	eb002ac7 	bl	f7c0 <__GI___assert_fail>
    4ca0:	e5942094 	ldr	r2, [r4, #148]
    4ca4:	e3520000 	cmp	r2, #0	; 0x0
    4ca8:	0a00000b 	beq	4cdc <_dl_init_paths+0x264>
    4cac:	e5943034 	ldr	r3, [r4, #52]
    4cb0:	e5933004 	ldr	r3, [r3, #4]
    4cb4:	e5921004 	ldr	r1, [r2, #4]
    4cb8:	e2840f77 	add	r0, r4, #476	; 0x1dc
    4cbc:	e0831001 	add	r1, r3, r1
    4cc0:	e1a02004 	mov	r2, r4
    4cc4:	e59f31d0 	ldr	r3, [pc, #464]	; 4e9c <.text+0x42cc>
    4cc8:	e08a3003 	add	r3, sl, r3
    4ccc:	ebfffede 	bl	484c <decompose_rpath>
    4cd0:	e3e03000 	mvn	r3, #0	; 0x0
    4cd4:	e584318c 	str	r3, [r4, #396]
    4cd8:	ea000011 	b	4d24 <_dl_init_paths+0x2ac>
    4cdc:	e3e03000 	mvn	r3, #0	; 0x0
    4ce0:	e58431dc 	str	r3, [r4, #476]
    4ce4:	e594205c 	ldr	r2, [r4, #92]
    4ce8:	e3520000 	cmp	r2, #0	; 0x0
    4cec:	03e03000 	mvneq	r3, #0	; 0x0
    4cf0:	0584318c 	streq	r3, [r4, #396]
    4cf4:	0a00000a 	beq	4d24 <_dl_init_paths+0x2ac>
    4cf8:	e5943034 	ldr	r3, [r4, #52]
    4cfc:	e5933004 	ldr	r3, [r3, #4]
    4d00:	e5921004 	ldr	r1, [r2, #4]
    4d04:	e2840f63 	add	r0, r4, #396	; 0x18c
    4d08:	e0831001 	add	r1, r3, r1
    4d0c:	e1a02004 	mov	r2, r4
    4d10:	e59f3188 	ldr	r3, [pc, #392]	; 4ea0 <.text+0x42d0>
    4d14:	e08a3003 	add	r3, sl, r3
    4d18:	ebfffecb 	bl	484c <decompose_rpath>
    4d1c:	e3a03000 	mov	r3, #0	; 0x0
    4d20:	e5843190 	str	r3, [r4, #400]
    4d24:	e3580000 	cmp	r8, #0	; 0x0
    4d28:	0a00003e 	beq	4e28 <_dl_init_paths+0x3b0>
    4d2c:	e5d83000 	ldrb	r3, [r8]
    4d30:	e3530000 	cmp	r3, #0	; 0x0
    4d34:	0a00003b 	beq	4e28 <_dl_init_paths+0x3b0>
    4d38:	e1a04008 	mov	r4, r8
    4d3c:	e1a00008 	mov	r0, r8
    4d40:	eb0030b6 	bl	11020 <strlen>
    4d44:	e1a02000 	mov	r2, r0
    4d48:	e2803007 	add	r3, r0, #7	; 0x7
    4d4c:	e3c33003 	bic	r3, r3, #3	; 0x3
    4d50:	e063d00d 	rsb	sp, r3, sp
    4d54:	e28d0008 	add	r0, sp, #8	; 0x8
    4d58:	e1a01008 	mov	r1, r8
    4d5c:	e2822001 	add	r2, r2, #1	; 0x1
    4d60:	eb0032db 	bl	118d4 <memcpy>
    4d64:	e1a05000 	mov	r5, r0
    4d68:	e3a00001 	mov	r0, #1	; 0x1
    4d6c:	e5d83000 	ldrb	r3, [r8]
    4d70:	e3530000 	cmp	r3, #0	; 0x0
    4d74:	0a000006 	beq	4d94 <_dl_init_paths+0x31c>
    4d78:	e5d43000 	ldrb	r3, [r4]
    4d7c:	e243303a 	sub	r3, r3, #58	; 0x3a
    4d80:	e3530001 	cmp	r3, #1	; 0x1
    4d84:	92800001 	addls	r0, r0, #1	; 0x1
    4d88:	e5f43001 	ldrb	r3, [r4, #1]!
    4d8c:	e3530000 	cmp	r3, #0	; 0x0
    4d90:	1afffff8 	bne	4d78 <_dl_init_paths+0x300>
    4d94:	e1a00100 	mov	r0, r0, lsl #2
    4d98:	e2800004 	add	r0, r0, #4	; 0x4
    4d9c:	ebffef82 	bl	bac <GLIBC_2.0+0xbac>
    4da0:	e59f30fc 	ldr	r3, [pc, #252]	; 4ea4 <.text+0x42d4>
    4da4:	e79a3003 	ldr	r3, [sl, r3]
    4da8:	e5830000 	str	r0, [r3]
    4dac:	e3500000 	cmp	r0, #0	; 0x0
    4db0:	059f30bc 	ldreq	r3, [pc, #188]	; 4e74 <.text+0x42a4>
    4db4:	008a3003 	addeq	r3, sl, r3
    4db8:	0affff4a 	beq	4ae8 <_dl_init_paths+0x70>
    4dbc:	e59f30e0 	ldr	r3, [pc, #224]	; 4ea4 <.text+0x42d4>
    4dc0:	e79a4003 	ldr	r4, [sl, r3]
    4dc4:	e59f30dc 	ldr	r3, [pc, #220]	; 4ea8 <.text+0x42d8>
    4dc8:	e08a3003 	add	r3, sl, r3
    4dcc:	e58d3000 	str	r3, [sp]
    4dd0:	e3a03000 	mov	r3, #0	; 0x0
    4dd4:	e58d3004 	str	r3, [sp, #4]
    4dd8:	e1a00005 	mov	r0, r5
    4ddc:	e5941000 	ldr	r1, [r4]
    4de0:	e59f20c4 	ldr	r2, [pc, #196]	; 4eac <.text+0x42dc>
    4de4:	e08a2002 	add	r2, sl, r2
    4de8:	e59f30c0 	ldr	r3, [pc, #192]	; 4eb0 <.text+0x42e0>
    4dec:	e79a3003 	ldr	r3, [sl, r3]
    4df0:	e5933000 	ldr	r3, [r3]
    4df4:	ebfffdc4 	bl	450c <fillin_rpath>
    4df8:	e5940000 	ldr	r0, [r4]
    4dfc:	e5903000 	ldr	r3, [r0]
    4e00:	e3530000 	cmp	r3, #0	; 0x0
    4e04:	1a000002 	bne	4e14 <_dl_init_paths+0x39c>
    4e08:	ebffef6a 	bl	bb8 <GLIBC_2.0+0xbb8>
    4e0c:	e3e03000 	mvn	r3, #0	; 0x0
    4e10:	e5843000 	str	r3, [r4]
    4e14:	e3a03000 	mov	r3, #0	; 0x0
    4e18:	e59f2084 	ldr	r2, [pc, #132]	; 4ea4 <.text+0x42d4>
    4e1c:	e79a2002 	ldr	r2, [sl, r2]
    4e20:	e5823004 	str	r3, [r2, #4]
    4e24:	ea000003 	b	4e38 <_dl_init_paths+0x3c0>
    4e28:	e3e03000 	mvn	r3, #0	; 0x0
    4e2c:	e59f2070 	ldr	r2, [pc, #112]	; 4ea4 <.text+0x42d4>
    4e30:	e79a2002 	ldr	r2, [sl, r2]
    4e34:	e5823000 	str	r3, [r2]
    4e38:	e59f3038 	ldr	r3, [pc, #56]	; 4e78 <.text+0x42a8>
    4e3c:	e79a3003 	ldr	r3, [sl, r3]
    4e40:	e59321b0 	ldr	r2, [r3, #432]
    4e44:	e59f3010 	ldr	r3, [pc, #16]	; 4e5c <.text+0x428c>
    4e48:	e79a3003 	ldr	r3, [sl, r3]
    4e4c:	e58320b0 	str	r2, [r3, #176]
    4e50:	e24bd028 	sub	sp, fp, #40	; 0x28
    4e54:	e89daff0 	ldmia	sp, {r4, r5, r6, r7, r8, r9, sl, fp, sp, pc}
    4e58:	00018b00 	andeq	r8, r1, r0, lsl #22
    4e5c:	00000210 	andeq	r0, r0, r0, lsl r2
    4e60:	000000a0 	andeq	r0, r0, r0, lsr #1
    4e64:	000000ac 	andeq	r0, r0, ip, lsr #1
    4e68:	000000b0 	streqh	r0, [r0], -r0
    4e6c:	000000b4 	streqh	r0, [r0], -r4
    4e70:	ffff655c 	swinv	0x00ff655c
    4e74:	ffff6510 	swinv	0x00ff6510
    4e78:	0000023c 	andeq	r0, r0, ip, lsr r2
    4e7c:	0000008c 	andeq	r0, r0, ip, lsl #1
    4e80:	00000090 	muleq	r0, r0, r0
    4e84:	ffff657c 	swinv	0x00ff657c
    4e88:	ffff6590 	swinv	0x00ff6590
    4e8c:	ffff64d0 	swinv	0x00ff64d0
    4e90:	000000a8 	andeq	r0, r0, r8, lsr #1
    4e94:	000000a4 	andeq	r0, r0, r4, lsr #1
    4e98:	ffff65ac 	swinv	0x00ff65ac
    4e9c:	ffff65c4 	swinv	0x00ff65c4
    4ea0:	ffff65cc 	swinv	0x00ff65cc
    4ea4:	000000b8 	streqh	r0, [r0], -r8
    4ea8:	ffff65d4 	swinv	0x00ff65d4
    4eac:	ffff65e4 	swinv	0x00ff65e4
    4eb0:	00000200 	andeq	r0, r0, r0, lsl #4

00004eb4 <lose>:
    4eb4:	e59fa0c4 	ldr	sl, [pc, #196]	; 4f80 <.text+0x43b0>
    4eb8:	e08fa00a 	add	sl, pc, sl
    4ebc:	e1a07000 	mov	r7, r0
    4ec0:	e1a00001 	mov	r0, r1
    4ec4:	e1a06002 	mov	r6, r2
    4ec8:	e1a05003 	mov	r5, r3
    4ecc:	e59d4000 	ldr	r4, [sp]
    4ed0:	e3710001 	cmn	r1, #1	; 0x1
    4ed4:	1b002e29 	blne	10780 <__close>
    4ed8:	e3540000 	cmp	r4, #0	; 0x0
    4edc:	0a000020 	beq	4f64 <lose+0xb0>
    4ee0:	e594300c 	ldr	r3, [r4, #12]
    4ee4:	e3530000 	cmp	r3, #0	; 0x0
    4ee8:	0a000008 	beq	4f10 <lose+0x5c>
    4eec:	e59f0090 	ldr	r0, [pc, #144]	; 4f84 <.text+0x43b4>
    4ef0:	e08a0000 	add	r0, sl, r0
    4ef4:	e59f108c 	ldr	r1, [pc, #140]	; 4f88 <.text+0x43b8>
    4ef8:	e08a1001 	add	r1, sl, r1
    4efc:	e3a02fc6 	mov	r2, #792	; 0x318
    4f00:	e2822003 	add	r2, r2, #3	; 0x3
    4f04:	e59f3080 	ldr	r3, [pc, #128]	; 4f8c <.text+0x43bc>
    4f08:	e79a3003 	ldr	r3, [sl, r3]
    4f0c:	eb002a2b 	bl	f7c0 <__GI___assert_fail>
    4f10:	e5941010 	ldr	r1, [r4, #16]
    4f14:	e3510000 	cmp	r1, #0	; 0x0
    4f18:	15942010 	ldrne	r2, [r4, #16]
    4f1c:	13a03000 	movne	r3, #0	; 0x0
    4f20:	1582300c 	strne	r3, [r2, #12]
    4f24:	1a000004 	bne	4f3c <lose+0x88>
    4f28:	e5943018 	ldr	r3, [r4, #24]
    4f2c:	e0833083 	add	r3, r3, r3, lsl #1
    4f30:	e59f2058 	ldr	r2, [pc, #88]	; 4f90 <.text+0x43c0>
    4f34:	e79a2002 	ldr	r2, [sl, r2]
    4f38:	e7821183 	str	r1, [r2, r3, lsl #3]
    4f3c:	e5943018 	ldr	r3, [r4, #24]
    4f40:	e0833083 	add	r3, r3, r3, lsl #1
    4f44:	e59f2044 	ldr	r2, [pc, #68]	; 4f90 <.text+0x43c0>
    4f48:	e79a2002 	ldr	r2, [sl, r2]
    4f4c:	e0822183 	add	r2, r2, r3, lsl #3
    4f50:	e5923004 	ldr	r3, [r2, #4]
    4f54:	e2433001 	sub	r3, r3, #1	; 0x1
    4f58:	e5823004 	str	r3, [r2, #4]
    4f5c:	e1a00004 	mov	r0, r4
    4f60:	ebffef14 	bl	bb8 <GLIBC_2.0+0xbb8>
    4f64:	e1a00005 	mov	r0, r5
    4f68:	ebffef12 	bl	bb8 <GLIBC_2.0+0xbb8>
    4f6c:	e1a00007 	mov	r0, r7
    4f70:	e1a01006 	mov	r1, r6
    4f74:	e3a02000 	mov	r2, #0	; 0x0
    4f78:	e59d3004 	ldr	r3, [sp, #4]
    4f7c:	eb001a2a 	bl	b82c <_dl_signal_error>
    4f80:	000186d4 	ldreqd	r8, [r1], -r4
    4f84:	ffff65e8 	swinv	0x00ff65e8
    4f88:	ffff64d0 	swinv	0x00ff64d0
    4f8c:	000000bc 	streqh	r0, [r0], -ip
    4f90:	0000023c 	andeq	r0, r0, ip, lsr r2

00004f94 <_dl_map_object_from_fd>:
    4f94:	e1a0c00d 	mov	ip, sp
    4f98:	e92ddff0 	stmdb	sp!, {r4, r5, r6, r7, r8, r9, sl, fp, ip, lr, pc}
    4f9c:	e24cb004 	sub	fp, ip, #4	; 0x4
    4fa0:	e24dd0b0 	sub	sp, sp, #176	; 0xb0
    4fa4:	e59faf8c 	ldr	sl, [pc, #3980]	; 5f38 <.text+0x5368>
    4fa8:	e08fa00a 	add	sl, pc, sl
    4fac:	e50b008c 	str	r0, [fp, #-140]
    4fb0:	e50b1090 	str	r1, [fp, #-144]
    4fb4:	e1a04002 	mov	r4, r2
    4fb8:	e50b3094 	str	r3, [fp, #-148]
    4fbc:	e99b0180 	ldmib	fp, {r7, r8}
    4fc0:	e59b6014 	ldr	r6, [fp, #20]
    4fc4:	e3a05000 	mov	r5, #0	; 0x0
    4fc8:	e50b50a4 	str	r5, [fp, #-164]
    4fcc:	e3a00003 	mov	r0, #3	; 0x3
    4fd0:	e24b2088 	sub	r2, fp, #136	; 0x88
    4fd4:	eb002dcc 	bl	1070c <__GI___fxstat64>
    4fd8:	e1500005 	cmp	r0, r5
    4fdc:	aa00001c 	bge	5054 <_dl_map_object_from_fd+0xc0>
    4fe0:	e59f3f54 	ldr	r3, [pc, #3924]	; 5f3c <.text+0x536c>
    4fe4:	e08a2003 	add	r2, sl, r3
    4fe8:	e59f3f50 	ldr	r3, [pc, #3920]	; 5f40 <.text+0x5370>
    4fec:	e79a3003 	ldr	r3, [sl, r3]
    4ff0:	e5933000 	ldr	r3, [r3]
    4ff4:	e50b30a4 	str	r3, [fp, #-164]
    4ff8:	e58d5000 	str	r5, [sp]
    4ffc:	e58d2004 	str	r2, [sp, #4]
    5000:	e51b00a4 	ldr	r0, [fp, #-164]
    5004:	e24b1090 	sub	r1, fp, #144	; 0x90
    5008:	e8910006 	ldmia	r1, {r1, r2}
    500c:	e51b3094 	ldr	r3, [fp, #-148]
    5010:	ebffffa7 	bl	4eb4 <lose>
    5014:	e59f3f28 	ldr	r3, [pc, #3880]	; 5f44 <.text+0x5374>
    5018:	e08a2003 	add	r2, sl, r3
    501c:	e51bd0ac 	ldr	sp, [fp, #-172]
    5020:	eafffff0 	b	4fe8 <_dl_map_object_from_fd+0x54>
    5024:	e59f3f1c 	ldr	r3, [pc, #3868]	; 5f48 <.text+0x5378>
    5028:	e08a2003 	add	r2, sl, r3
    502c:	e51bd0ac 	ldr	sp, [fp, #-172]
    5030:	eaffffec 	b	4fe8 <_dl_map_object_from_fd+0x54>
    5034:	e59f3f10 	ldr	r3, [pc, #3856]	; 5f4c <.text+0x537c>
    5038:	e08a2003 	add	r2, sl, r3
    503c:	e51bd0ac 	ldr	sp, [fp, #-172]
    5040:	eaffffec 	b	4ff8 <_dl_map_object_from_fd+0x64>
    5044:	e59f3f04 	ldr	r3, [pc, #3844]	; 5f50 <.text+0x5380>
    5048:	e08a2003 	add	r2, sl, r3
    504c:	e51bd0ac 	ldr	sp, [fp, #-172]
    5050:	eaffffe8 	b	4ff8 <_dl_map_object_from_fd+0x64>
    5054:	e0863086 	add	r3, r6, r6, lsl #1
    5058:	e59f2ef4 	ldr	r2, [pc, #3828]	; 5f54 <.text+0x5384>
    505c:	e79a2002 	ldr	r2, [sl, r2]
    5060:	e7925183 	ldr	r5, [r2, r3, lsl #3]
    5064:	e3550000 	cmp	r5, #0	; 0x0
    5068:	0a000017 	beq	50cc <_dl_map_object_from_fd+0x138>
    506c:	e51b1030 	ldr	r1, [fp, #-48]
    5070:	e5d53181 	ldrb	r3, [r5, #385]
    5074:	e3130010 	tst	r3, #16	; 0x10
    5078:	1a000010 	bne	50c0 <_dl_map_object_from_fd+0x12c>
    507c:	e2852f75 	add	r2, r5, #468	; 0x1d4
    5080:	e59531d4 	ldr	r3, [r5, #468]
    5084:	e1530001 	cmp	r3, r1
    5088:	1a00000c 	bne	50c0 <_dl_map_object_from_fd+0x12c>
    508c:	e5922004 	ldr	r2, [r2, #4]
    5090:	e51b302c 	ldr	r3, [fp, #-44]
    5094:	e1520003 	cmp	r2, r3
    5098:	1a000008 	bne	50c0 <_dl_map_object_from_fd+0x12c>
    509c:	e2850f73 	add	r0, r5, #460	; 0x1cc
    50a0:	e59521cc 	ldr	r2, [r5, #460]
    50a4:	e51b3088 	ldr	r3, [fp, #-136]
    50a8:	e1520003 	cmp	r2, r3
    50ac:	1a000003 	bne	50c0 <_dl_map_object_from_fd+0x12c>
    50b0:	e5902004 	ldr	r2, [r0, #4]
    50b4:	e51b3084 	ldr	r3, [fp, #-132]
    50b8:	e1520003 	cmp	r2, r3
    50bc:	0a000369 	beq	5e68 <_dl_map_object_from_fd+0xed4>
    50c0:	e595500c 	ldr	r5, [r5, #12]
    50c4:	e3550000 	cmp	r5, #0	; 0x0
    50c8:	1affffe8 	bne	5070 <_dl_map_object_from_fd+0xdc>
    50cc:	e3560000 	cmp	r6, #0	; 0x0
    50d0:	0a00002b 	beq	5184 <_dl_map_object_from_fd+0x1f0>
    50d4:	e59f3e78 	ldr	r3, [pc, #3704]	; 5f54 <.text+0x5384>
    50d8:	e79a1003 	ldr	r1, [sl, r3]
    50dc:	e2810fe3 	add	r0, r1, #908	; 0x38c
    50e0:	e591238c 	ldr	r2, [r1, #908]
    50e4:	e51b3030 	ldr	r3, [fp, #-48]
    50e8:	e1530002 	cmp	r3, r2
    50ec:	1a00000c 	bne	5124 <_dl_map_object_from_fd+0x190>
    50f0:	e5902004 	ldr	r2, [r0, #4]
    50f4:	e51b302c 	ldr	r3, [fp, #-44]
    50f8:	e1530002 	cmp	r3, r2
    50fc:	1a000008 	bne	5124 <_dl_map_object_from_fd+0x190>
    5100:	e2810fe1 	add	r0, r1, #900	; 0x384
    5104:	e5912384 	ldr	r2, [r1, #900]
    5108:	e51b3088 	ldr	r3, [fp, #-136]
    510c:	e1530002 	cmp	r3, r2
    5110:	1a000003 	bne	5124 <_dl_map_object_from_fd+0x190>
    5114:	e5902004 	ldr	r2, [r0, #4]
    5118:	e51b3084 	ldr	r3, [fp, #-132]
    511c:	e1530002 	cmp	r3, r2
    5120:	0a000006 	beq	5140 <_dl_map_object_from_fd+0x1ac>
    5124:	e51b008c 	ldr	r0, [fp, #-140]
    5128:	e59f1e24 	ldr	r1, [pc, #3620]	; 5f54 <.text+0x5384>
    512c:	e79a1001 	ldr	r1, [sl, r1]
    5130:	e2811f6e 	add	r1, r1, #440	; 0x1b8
    5134:	eb001df5 	bl	c910 <_dl_name_match_p>
    5138:	e3500000 	cmp	r0, #0	; 0x0
    513c:	0a000010 	beq	5184 <_dl_map_object_from_fd+0x1f0>
    5140:	e59b000c 	ldr	r0, [fp, #12]
    5144:	e88d0041 	stmia	sp, {r0, r6}
    5148:	e51b0094 	ldr	r0, [fp, #-148]
    514c:	e51b108c 	ldr	r1, [fp, #-140]
    5150:	e1a02008 	mov	r2, r8
    5154:	e1a03007 	mov	r3, r7
    5158:	eb000dec 	bl	8910 <_dl_new_object>
    515c:	e2505000 	subs	r5, r0, #0	; 0x0
    5160:	0a00001f 	beq	51e4 <_dl_map_object_from_fd+0x250>
    5164:	e59f3de8 	ldr	r3, [pc, #3560]	; 5f54 <.text+0x5384>
    5168:	e79a3003 	ldr	r3, [sl, r3]
    516c:	e2833f6e 	add	r3, r3, #440	; 0x1b8
    5170:	e5853014 	str	r3, [r5, #20]
    5174:	e51b0090 	ldr	r0, [fp, #-144]
    5178:	eb002d80 	bl	10780 <__close>
    517c:	e1a00005 	mov	r0, r5
    5180:	ea00036a 	b	5f30 <_dl_map_object_from_fd+0xf9c>
    5184:	e59b100c 	ldr	r1, [fp, #12]
    5188:	e3110004 	tst	r1, #4	; 0x4
    518c:	13a00000 	movne	r0, #0	; 0x0
    5190:	1a000366 	bne	5f30 <_dl_map_object_from_fd+0xf9c>
    5194:	e59f3dbc 	ldr	r3, [pc, #3516]	; 5f58 <.text+0x5388>
    5198:	e79a3003 	ldr	r3, [sl, r3]
    519c:	e5933000 	ldr	r3, [r3]
    51a0:	e3130040 	tst	r3, #64	; 0x40
    51a4:	0a000004 	beq	51bc <_dl_map_object_from_fd+0x228>
    51a8:	e59f0dac 	ldr	r0, [pc, #3500]	; 5f5c <.text+0x538c>
    51ac:	e08a0000 	add	r0, sl, r0
    51b0:	e51b108c 	ldr	r1, [fp, #-140]
    51b4:	e1a02006 	mov	r2, r6
    51b8:	eb001dab 	bl	c86c <_dl_debug_printf>
    51bc:	e2849004 	add	r9, r4, #4	; 0x4
    51c0:	e59b200c 	ldr	r2, [fp, #12]
    51c4:	e88d0044 	stmia	sp, {r2, r6}
    51c8:	e51b0094 	ldr	r0, [fp, #-148]
    51cc:	e51b108c 	ldr	r1, [fp, #-140]
    51d0:	e1a02008 	mov	r2, r8
    51d4:	e1a03007 	mov	r3, r7
    51d8:	eb000dcc 	bl	8910 <_dl_new_object>
    51dc:	e2505000 	subs	r5, r0, #0	; 0x0
    51e0:	1a000002 	bne	51f0 <_dl_map_object_from_fd+0x25c>
    51e4:	e59f3d74 	ldr	r3, [pc, #3444]	; 5f60 <.text+0x5390>
    51e8:	e08a2003 	add	r2, sl, r3
    51ec:	eaffff7d 	b	4fe8 <_dl_map_object_from_fd+0x54>
    51f0:	e5993018 	ldr	r3, [r9, #24]
    51f4:	e5853150 	str	r3, [r5, #336]
    51f8:	e5d92010 	ldrb	r2, [r9, #16]
    51fc:	e5d93011 	ldrb	r3, [r9, #17]
    5200:	e1823403 	orr	r3, r2, r3, lsl #8
    5204:	e50b30a0 	str	r3, [fp, #-160]
    5208:	e599302c 	ldr	r3, [r9, #44]
    520c:	e5c53154 	strb	r3, [r5, #340]
    5210:	e1a03443 	mov	r3, r3, asr #8
    5214:	e5c53155 	strb	r3, [r5, #341]
    5218:	e5d9202c 	ldrb	r2, [r9, #44]
    521c:	e5d9302d 	ldrb	r3, [r9, #45]
    5220:	e1823403 	orr	r3, r2, r3, lsl #8
    5224:	e1a03283 	mov	r3, r3, lsl #5
    5228:	e50b309c 	str	r3, [fp, #-156]
    522c:	e599101c 	ldr	r1, [r9, #28]
    5230:	e0832001 	add	r2, r3, r1
    5234:	e5943000 	ldr	r3, [r4]
    5238:	e1520003 	cmp	r2, r3
    523c:	90844001 	addls	r4, r4, r1
    5240:	91a03004 	movls	r3, r4
    5244:	92833004 	addls	r3, r3, #4	; 0x4
    5248:	950b3098 	strls	r3, [fp, #-152]
    524c:	9a000012 	bls	529c <_dl_map_object_from_fd+0x308>
    5250:	e51b009c 	ldr	r0, [fp, #-156]
    5254:	e2803006 	add	r3, r0, #6	; 0x6
    5258:	e3c33003 	bic	r3, r3, #3	; 0x3
    525c:	e063d00d 	rsb	sp, r3, sp
    5260:	e28d1024 	add	r1, sp, #36	; 0x24
    5264:	e50b1098 	str	r1, [fp, #-152]
    5268:	e51b0090 	ldr	r0, [fp, #-144]
    526c:	e599101c 	ldr	r1, [r9, #28]
    5270:	e3a02000 	mov	r2, #0	; 0x0
    5274:	eb002d65 	bl	10810 <__libc_lseek>
    5278:	e51b0090 	ldr	r0, [fp, #-144]
    527c:	e51b1098 	ldr	r1, [fp, #-152]
    5280:	e51b209c 	ldr	r2, [fp, #-156]
    5284:	eb002d49 	bl	107b0 <__libc_read>
    5288:	e51b209c 	ldr	r2, [fp, #-156]
    528c:	e1500002 	cmp	r0, r2
    5290:	159f3ccc 	ldrne	r3, [pc, #3276]	; 5f64 <.text+0x5394>
    5294:	108a2003 	addne	r2, sl, r3
    5298:	1affff52 	bne	4fe8 <_dl_map_object_from_fd+0x54>
    529c:	e3a03007 	mov	r3, #7	; 0x7
    52a0:	e50b30a8 	str	r3, [fp, #-168]
    52a4:	e50bd0ac 	str	sp, [fp, #-172]
    52a8:	e5d52154 	ldrb	r2, [r5, #340]
    52ac:	e5d53155 	ldrb	r3, [r5, #341]
    52b0:	e1822403 	orr	r2, r2, r3, lsl #8
    52b4:	e0823082 	add	r3, r2, r2, lsl #1
    52b8:	e1a03183 	mov	r3, r3, lsl #3
    52bc:	e2833006 	add	r3, r3, #6	; 0x6
    52c0:	e3c333ff 	bic	r3, r3, #-67108861	; 0xfc000003
    52c4:	e3c3350e 	bic	r3, r3, #58720256	; 0x3800000
    52c8:	e063d00d 	rsb	sp, r3, sp
    52cc:	e28d0024 	add	r0, sp, #36	; 0x24
    52d0:	e50b00b0 	str	r0, [fp, #-176]
    52d4:	e3a08000 	mov	r8, #0	; 0x0
    52d8:	e1a06008 	mov	r6, r8
    52dc:	e51b0098 	ldr	r0, [fp, #-152]
    52e0:	e0802282 	add	r2, r0, r2, lsl #5
    52e4:	e1520000 	cmp	r2, r0
    52e8:	9a00006c 	bls	54a0 <_dl_map_object_from_fd+0x50c>
    52ec:	e59f3c64 	ldr	r3, [pc, #3172]	; 5f58 <.text+0x5388>
    52f0:	e79ae003 	ldr	lr, [sl, r3]
    52f4:	e5902000 	ldr	r2, [r0]
    52f8:	e3520006 	cmp	r2, #6	; 0x6
    52fc:	05903008 	ldreq	r3, [r0, #8]
    5300:	0585314c 	streq	r3, [r5, #332]
    5304:	0a00005d 	beq	5480 <_dl_map_object_from_fd+0x4ec>
    5308:	8a000004 	bhi	5320 <_dl_map_object_from_fd+0x38c>
    530c:	e3520001 	cmp	r2, #1	; 0x1
    5310:	0a00001a 	beq	5380 <_dl_map_object_from_fd+0x3ec>
    5314:	e3520002 	cmp	r2, #2	; 0x2
    5318:	0a000010 	beq	5360 <_dl_map_object_from_fd+0x3cc>
    531c:	ea000057 	b	5480 <_dl_map_object_from_fd+0x4ec>
    5320:	e59f3c40 	ldr	r3, [pc, #3136]	; 5f68 <.text+0x5398>
    5324:	e1520003 	cmp	r2, r3
    5328:	05901018 	ldreq	r1, [r0, #24]
    532c:	050b10a8 	streq	r1, [fp, #-168]
    5330:	0a000052 	beq	5480 <_dl_map_object_from_fd+0x4ec>
    5334:	8a000002 	bhi	5344 <_dl_map_object_from_fd+0x3b0>
    5338:	e3520007 	cmp	r2, #7	; 0x7
    533c:	0a000049 	beq	5468 <_dl_map_object_from_fd+0x4d4>
    5340:	ea00004e 	b	5480 <_dl_map_object_from_fd+0x4ec>
    5344:	e59f3c20 	ldr	r3, [pc, #3104]	; 5f6c <.text+0x539c>
    5348:	e1520003 	cmp	r2, r3
    534c:	05903008 	ldreq	r3, [r0, #8]
    5350:	05853218 	streq	r3, [r5, #536]
    5354:	05903014 	ldreq	r3, [r0, #20]
    5358:	0585321c 	streq	r3, [r5, #540]
    535c:	ea000047 	b	5480 <_dl_map_object_from_fd+0x4ec>
    5360:	e5903008 	ldr	r3, [r0, #8]
    5364:	e5853008 	str	r3, [r5, #8]
    5368:	e5903014 	ldr	r3, [r0, #20]
    536c:	e1a031a3 	mov	r3, r3, lsr #3
    5370:	e5c53156 	strb	r3, [r5, #342]
    5374:	e1a03443 	mov	r3, r3, asr #8
    5378:	e5c53157 	strb	r3, [r5, #343]
    537c:	ea00003f 	b	5480 <_dl_map_object_from_fd+0x4ec>
    5380:	e59e3004 	ldr	r3, [lr, #4]
    5384:	e2433001 	sub	r3, r3, #1	; 0x1
    5388:	e590201c 	ldr	r2, [r0, #28]
    538c:	e1130002 	tst	r3, r2
    5390:	1affff2b 	bne	5044 <_dl_map_object_from_fd+0xb0>
    5394:	e2801008 	add	r1, r0, #8	; 0x8
    5398:	e8110006 	ldmda	r1, {r1, r2}
    539c:	e0422001 	sub	r2, r2, r1
    53a0:	e590301c 	ldr	r3, [r0, #28]
    53a4:	e2433001 	sub	r3, r3, #1	; 0x1
    53a8:	e1120003 	tst	r2, r3
    53ac:	1affff20 	bne	5034 <_dl_map_object_from_fd+0xa0>
    53b0:	e0881088 	add	r1, r8, r8, lsl #1
    53b4:	e1a01181 	mov	r1, r1, lsl #3
    53b8:	e51b20b0 	ldr	r2, [fp, #-176]
    53bc:	e0824001 	add	r4, r2, r1
    53c0:	e2888001 	add	r8, r8, #1	; 0x1
    53c4:	e59e3004 	ldr	r3, [lr, #4]
    53c8:	e2633000 	rsb	r3, r3, #0	; 0x0
    53cc:	e5902008 	ldr	r2, [r0, #8]
    53d0:	e003c002 	and	ip, r3, r2
    53d4:	e51b30b0 	ldr	r3, [fp, #-176]
    53d8:	e783c001 	str	ip, [r3, r1]
    53dc:	e5903008 	ldr	r3, [r0, #8]
    53e0:	e5902010 	ldr	r2, [r0, #16]
    53e4:	e0833002 	add	r3, r3, r2
    53e8:	e59e2004 	ldr	r2, [lr, #4]
    53ec:	e0833002 	add	r3, r3, r2
    53f0:	e2433001 	sub	r3, r3, #1	; 0x1
    53f4:	e2622000 	rsb	r2, r2, #0	; 0x0
    53f8:	e0033002 	and	r3, r3, r2
    53fc:	e5843004 	str	r3, [r4, #4]
    5400:	e5903008 	ldr	r3, [r0, #8]
    5404:	e5902010 	ldr	r2, [r0, #16]
    5408:	e0833002 	add	r3, r3, r2
    540c:	e5843008 	str	r3, [r4, #8]
    5410:	e5903008 	ldr	r3, [r0, #8]
    5414:	e5902014 	ldr	r2, [r0, #20]
    5418:	e0833002 	add	r3, r3, r2
    541c:	e584300c 	str	r3, [r4, #12]
    5420:	e59e3004 	ldr	r3, [lr, #4]
    5424:	e2633000 	rsb	r3, r3, #0	; 0x0
    5428:	e5902004 	ldr	r2, [r0, #4]
    542c:	e0033002 	and	r3, r3, r2
    5430:	e5843010 	str	r3, [r4, #16]
    5434:	e3580001 	cmp	r8, #1	; 0x1
    5438:	9a000002 	bls	5448 <_dl_map_object_from_fd+0x4b4>
    543c:	e5143014 	ldr	r3, [r4, #-20]
    5440:	e153000c 	cmp	r3, ip
    5444:	13a06001 	movne	r6, #1	; 0x1
    5448:	e5902018 	ldr	r2, [r0, #24]
    544c:	e2022007 	and	r2, r2, #7	; 0x7
    5450:	e1a02102 	mov	r2, r2, lsl #2
    5454:	e59f3b14 	ldr	r3, [pc, #2836]	; 5f70 <.text+0x53a0>
    5458:	e1a03253 	mov	r3, r3, asr r2
    545c:	e203300f 	and	r3, r3, #15	; 0xf
    5460:	e5843014 	str	r3, [r4, #20]
    5464:	ea000005 	b	5480 <_dl_map_object_from_fd+0x4ec>
    5468:	e3a00000 	mov	r0, #0	; 0x0
    546c:	e50b00a4 	str	r0, [fp, #-164]
    5470:	e59f3afc 	ldr	r3, [pc, #2812]	; 5f74 <.text+0x53a4>
    5474:	e08a2003 	add	r2, sl, r3
    5478:	e51bd0ac 	ldr	sp, [fp, #-172]
    547c:	eafffedd 	b	4ff8 <_dl_map_object_from_fd+0x64>
    5480:	e2800020 	add	r0, r0, #32	; 0x20
    5484:	e5d53154 	ldrb	r3, [r5, #340]
    5488:	e5d52155 	ldrb	r2, [r5, #341]
    548c:	e1833402 	orr	r3, r3, r2, lsl #8
    5490:	e51b2098 	ldr	r2, [fp, #-152]
    5494:	e0823283 	add	r3, r2, r3, lsl #5
    5498:	e1530000 	cmp	r3, r0
    549c:	8affff94 	bhi	52f4 <_dl_map_object_from_fd+0x360>
    54a0:	e3580000 	cmp	r8, #0	; 0x0
    54a4:	1a000003 	bne	54b8 <_dl_map_object_from_fd+0x524>
    54a8:	e59f3ac8 	ldr	r3, [pc, #2760]	; 5f78 <.text+0x53a8>
    54ac:	e08a2003 	add	r2, sl, r3
    54b0:	e51bd0ac 	ldr	sp, [fp, #-172]
    54b4:	eafffecf 	b	4ff8 <_dl_map_object_from_fd+0x64>
    54b8:	e51b40b0 	ldr	r4, [fp, #-176]
    54bc:	e0883088 	add	r3, r8, r8, lsl #1
    54c0:	e0843183 	add	r3, r4, r3, lsl #3
    54c4:	e513300c 	ldr	r3, [r3, #-12]
    54c8:	e5942000 	ldr	r2, [r4]
    54cc:	e0623003 	rsb	r3, r2, r3
    54d0:	e50b309c 	str	r3, [fp, #-156]
    54d4:	e51b30a0 	ldr	r3, [fp, #-160]
    54d8:	e3530003 	cmp	r3, #3	; 0x3
    54dc:	1a000026 	bne	557c <_dl_map_object_from_fd+0x5e8>
    54e0:	e59f3a70 	ldr	r3, [pc, #2672]	; 5f58 <.text+0x5388>
    54e4:	e79a3003 	ldr	r3, [sl, r3]
    54e8:	e593009c 	ldr	r0, [r3, #156]
    54ec:	e51b1090 	ldr	r1, [fp, #-144]
    54f0:	e58d1000 	str	r1, [sp]
    54f4:	e5943010 	ldr	r3, [r4, #16]
    54f8:	e58d3004 	str	r3, [sp, #4]
    54fc:	e0020000 	and	r0, r2, r0
    5500:	e51b109c 	ldr	r1, [fp, #-156]
    5504:	e5942014 	ldr	r2, [r4, #20]
    5508:	e3a03b02 	mov	r3, #2048	; 0x800
    550c:	e2833002 	add	r3, r3, #2	; 0x2
    5510:	eb002dc6 	bl	10c30 <__mmap>
    5514:	e58501a0 	str	r0, [r5, #416]
    5518:	e3700001 	cmn	r0, #1	; 0x1
    551c:	1a000003 	bne	5530 <_dl_map_object_from_fd+0x59c>
    5520:	e59f3a54 	ldr	r3, [pc, #2644]	; 5f7c <.text+0x53ac>
    5524:	e08a2003 	add	r2, sl, r3
    5528:	e51bd0ac 	ldr	sp, [fp, #-172]
    552c:	eafffead 	b	4fe8 <_dl_map_object_from_fd+0x54>
    5530:	e59531a0 	ldr	r3, [r5, #416]
    5534:	e51b009c 	ldr	r0, [fp, #-156]
    5538:	e0802003 	add	r2, r0, r3
    553c:	e58521a4 	str	r2, [r5, #420]
    5540:	e5942000 	ldr	r2, [r4]
    5544:	e0620003 	rsb	r0, r2, r3
    5548:	e5850000 	str	r0, [r5]
    554c:	e3560000 	cmp	r6, #0	; 0x0
    5550:	0a00002d 	beq	560c <_dl_map_object_from_fd+0x678>
    5554:	e5941004 	ldr	r1, [r4, #4]
    5558:	e0883088 	add	r3, r8, r8, lsl #1
    555c:	e51b20b0 	ldr	r2, [fp, #-176]
    5560:	e0823183 	add	r3, r2, r3, lsl #3
    5564:	e513300c 	ldr	r3, [r3, #-12]
    5568:	e0800001 	add	r0, r0, r1
    556c:	e0611003 	rsb	r1, r1, r3
    5570:	e3a02000 	mov	r2, #0	; 0x0
    5574:	eb002dd1 	bl	10cc0 <__mprotect>
    5578:	ea000023 	b	560c <_dl_map_object_from_fd+0x678>
    557c:	e59b300c 	ldr	r3, [fp, #12]
    5580:	e3130202 	tst	r3, #536870912	; 0x20000000
    5584:	1a000003 	bne	5598 <_dl_map_object_from_fd+0x604>
    5588:	e59f39f0 	ldr	r3, [pc, #2544]	; 5f80 <.text+0x53b0>
    558c:	e08a2003 	add	r2, sl, r3
    5590:	e51bd0ac 	ldr	sp, [fp, #-172]
    5594:	eafffe97 	b	4ff8 <_dl_map_object_from_fd+0x64>
    5598:	e5943000 	ldr	r3, [r4]
    559c:	e5952000 	ldr	r2, [r5]
    55a0:	e0833002 	add	r3, r3, r2
    55a4:	e58531a0 	str	r3, [r5, #416]
    55a8:	e51b009c 	ldr	r0, [fp, #-156]
    55ac:	e0803003 	add	r3, r0, r3
    55b0:	e58531a4 	str	r3, [r5, #420]
    55b4:	e0883088 	add	r3, r8, r8, lsl #1
    55b8:	e51b10b0 	ldr	r1, [fp, #-176]
    55bc:	e0813183 	add	r3, r1, r3, lsl #3
    55c0:	e1530004 	cmp	r3, r4
    55c4:	9a00006b 	bls	5778 <_dl_map_object_from_fd+0x7e4>
    55c8:	e5941004 	ldr	r1, [r4, #4]
    55cc:	e594c000 	ldr	ip, [r4]
    55d0:	e151000c 	cmp	r1, ip
    55d4:	9a00000c 	bls	560c <_dl_map_object_from_fd+0x678>
    55d8:	e5950000 	ldr	r0, [r5]
    55dc:	e5942014 	ldr	r2, [r4, #20]
    55e0:	e51b3090 	ldr	r3, [fp, #-144]
    55e4:	e58d3000 	str	r3, [sp]
    55e8:	e5943010 	ldr	r3, [r4, #16]
    55ec:	e58d3004 	str	r3, [sp, #4]
    55f0:	e080000c 	add	r0, r0, ip
    55f4:	e06c1001 	rsb	r1, ip, r1
    55f8:	e3a03e81 	mov	r3, #2064	; 0x810
    55fc:	e2833002 	add	r3, r3, #2	; 0x2
    5600:	eb002d8a 	bl	10c30 <__mmap>
    5604:	e3700001 	cmn	r0, #1	; 0x1
    5608:	0affffc4 	beq	5520 <_dl_map_object_from_fd+0x58c>
    560c:	e5943014 	ldr	r3, [r4, #20]
    5610:	e3130004 	tst	r3, #4	; 0x4
    5614:	15953000 	ldrne	r3, [r5]
    5618:	15942004 	ldrne	r2, [r4, #4]
    561c:	10833002 	addne	r3, r3, r2
    5620:	158531a8 	strne	r3, [r5, #424]
    5624:	e595314c 	ldr	r3, [r5, #332]
    5628:	e3530000 	cmp	r3, #0	; 0x0
    562c:	1a00000f 	bne	5670 <_dl_map_object_from_fd+0x6dc>
    5630:	e594c010 	ldr	ip, [r4, #16]
    5634:	e599001c 	ldr	r0, [r9, #28]
    5638:	e15c0000 	cmp	ip, r0
    563c:	8a00000b 	bhi	5670 <_dl_map_object_from_fd+0x6dc>
    5640:	e594e000 	ldr	lr, [r4]
    5644:	e894000a 	ldmia	r4, {r1, r3}
    5648:	e0433001 	sub	r3, r3, r1
    564c:	e083300c 	add	r3, r3, ip
    5650:	e5d9202c 	ldrb	r2, [r9, #44]
    5654:	e5d9102d 	ldrb	r1, [r9, #45]
    5658:	e1822401 	orr	r2, r2, r1, lsl #8
    565c:	e0802282 	add	r2, r0, r2, lsl #5
    5660:	e1530002 	cmp	r3, r2
    5664:	208e3000 	addcs	r3, lr, r0
    5668:	206c3003 	rsbcs	r3, ip, r3
    566c:	2585314c 	strcs	r3, [r5, #332]
    5670:	e2840008 	add	r0, r4, #8	; 0x8
    5674:	e8900003 	ldmia	r0, {r0, r1}
    5678:	e1510000 	cmp	r1, r0
    567c:	9a000037 	bls	5760 <_dl_map_object_from_fd+0x7cc>
    5680:	e5953000 	ldr	r3, [r5]
    5684:	e0837000 	add	r7, r3, r0
    5688:	e0833001 	add	r3, r3, r1
    568c:	e50b30b4 	str	r3, [fp, #-180]
    5690:	e59f38c0 	ldr	r3, [pc, #2240]	; 5f58 <.text+0x5388>
    5694:	e79a3003 	ldr	r3, [sl, r3]
    5698:	e5933004 	ldr	r3, [r3, #4]
    569c:	e0876003 	add	r6, r7, r3
    56a0:	e2466001 	sub	r6, r6, #1	; 0x1
    56a4:	e2633000 	rsb	r3, r3, #0	; 0x0
    56a8:	e0066003 	and	r6, r6, r3
    56ac:	e51b20b4 	ldr	r2, [fp, #-180]
    56b0:	e1560002 	cmp	r6, r2
    56b4:	21a06002 	movcs	r6, r2
    56b8:	e1560007 	cmp	r6, r7
    56bc:	9a000018 	bls	5724 <_dl_map_object_from_fd+0x790>
    56c0:	e5942014 	ldr	r2, [r4, #20]
    56c4:	e3120002 	tst	r2, #2	; 0x2
    56c8:	1a000008 	bne	56f0 <_dl_map_object_from_fd+0x75c>
    56cc:	e59f3884 	ldr	r3, [pc, #2180]	; 5f58 <.text+0x5388>
    56d0:	e79a3003 	ldr	r3, [sl, r3]
    56d4:	e5931004 	ldr	r1, [r3, #4]
    56d8:	e2610000 	rsb	r0, r1, #0	; 0x0
    56dc:	e0000007 	and	r0, r0, r7
    56e0:	e3822002 	orr	r2, r2, #2	; 0x2
    56e4:	eb002d75 	bl	10cc0 <__mprotect>
    56e8:	e3500000 	cmp	r0, #0	; 0x0
    56ec:	bafffe4c 	blt	5024 <_dl_map_object_from_fd+0x90>
    56f0:	e1a00007 	mov	r0, r7
    56f4:	e3a01000 	mov	r1, #0	; 0x0
    56f8:	e0672006 	rsb	r2, r7, r6
    56fc:	eb003023 	bl	11790 <memset>
    5700:	e5942014 	ldr	r2, [r4, #20]
    5704:	e3120002 	tst	r2, #2	; 0x2
    5708:	1a000005 	bne	5724 <_dl_map_object_from_fd+0x790>
    570c:	e59f3844 	ldr	r3, [pc, #2116]	; 5f58 <.text+0x5388>
    5710:	e79a3003 	ldr	r3, [sl, r3]
    5714:	e5931004 	ldr	r1, [r3, #4]
    5718:	e2610000 	rsb	r0, r1, #0	; 0x0
    571c:	e0000007 	and	r0, r0, r7
    5720:	eb002d66 	bl	10cc0 <__mprotect>
    5724:	e51b30b4 	ldr	r3, [fp, #-180]
    5728:	e1530006 	cmp	r3, r6
    572c:	9a00000b 	bls	5760 <_dl_map_object_from_fd+0x7cc>
    5730:	e3e03000 	mvn	r3, #0	; 0x0
    5734:	e58d3000 	str	r3, [sp]
    5738:	e2833001 	add	r3, r3, #1	; 0x1
    573c:	e58d3004 	str	r3, [sp, #4]
    5740:	e1a00006 	mov	r0, r6
    5744:	e51b20b4 	ldr	r2, [fp, #-180]
    5748:	e0661002 	rsb	r1, r6, r2
    574c:	e5942014 	ldr	r2, [r4, #20]
    5750:	e2833032 	add	r3, r3, #50	; 0x32
    5754:	eb002d35 	bl	10c30 <__mmap>
    5758:	e3700001 	cmn	r0, #1	; 0x1
    575c:	0afffe2c 	beq	5014 <_dl_map_object_from_fd+0x80>
    5760:	e2844018 	add	r4, r4, #24	; 0x18
    5764:	e0883088 	add	r3, r8, r8, lsl #1
    5768:	e51b00b0 	ldr	r0, [fp, #-176]
    576c:	e0803183 	add	r3, r0, r3, lsl #3
    5770:	e1530004 	cmp	r3, r4
    5774:	8affff93 	bhi	55c8 <_dl_map_object_from_fd+0x634>
    5778:	e51bd0ac 	ldr	sp, [fp, #-172]
    577c:	e5953008 	ldr	r3, [r5, #8]
    5780:	e3530000 	cmp	r3, #0	; 0x0
    5784:	15953008 	ldrne	r3, [r5, #8]
    5788:	15952000 	ldrne	r2, [r5]
    578c:	10833002 	addne	r3, r3, r2
    5790:	15853008 	strne	r3, [r5, #8]
    5794:	1a000004 	bne	57ac <_dl_map_object_from_fd+0x818>
    5798:	e51b10a0 	ldr	r1, [fp, #-160]
    579c:	e3510003 	cmp	r1, #3	; 0x3
    57a0:	059f37dc 	ldreq	r3, [pc, #2012]	; 5f84 <.text+0x53b4>
    57a4:	008a2003 	addeq	r2, sl, r3
    57a8:	0afffe12 	beq	4ff8 <_dl_map_object_from_fd+0x64>
    57ac:	e1a06005 	mov	r6, r5
    57b0:	e3a0e000 	mov	lr, #0	; 0x0
    57b4:	e5952008 	ldr	r2, [r5, #8]
    57b8:	e152000e 	cmp	r2, lr
    57bc:	0a000122 	beq	5c4c <_dl_map_object_from_fd+0xcb8>
    57c0:	e2850020 	add	r0, r5, #32	; 0x20
    57c4:	e5923000 	ldr	r3, [r2]
    57c8:	e153000e 	cmp	r3, lr
    57cc:	0a000030 	beq	5894 <_dl_map_object_from_fd+0x900>
    57d0:	e5923000 	ldr	r3, [r2]
    57d4:	e3530021 	cmp	r3, #33	; 0x21
    57d8:	d7802103 	strle	r2, [r0, r3, lsl #2]
    57dc:	da000029 	ble	5888 <_dl_map_object_from_fd+0x8f4>
    57e0:	e5921000 	ldr	r1, [r2]
    57e4:	e261346f 	rsb	r3, r1, #1862270976	; 0x6f000000
    57e8:	e28338ff 	add	r3, r3, #16711680	; 0xff0000
    57ec:	e2833cff 	add	r3, r3, #65280	; 0xff00
    57f0:	e28330ff 	add	r3, r3, #255	; 0xff
    57f4:	e353000f 	cmp	r3, #15	; 0xf
    57f8:	92613207 	rsbls	r3, r1, #1879048192	; 0x70000000
    57fc:	92833021 	addls	r3, r3, #33	; 0x21
    5800:	97802103 	strls	r2, [r0, r3, lsl #2]
    5804:	9a00001f 	bls	5888 <_dl_map_object_from_fd+0x8f4>
    5808:	e5923000 	ldr	r3, [r2]
    580c:	e1a03083 	mov	r3, r3, lsl #1
    5810:	e1a010c3 	mov	r1, r3, asr #1
    5814:	e1e03001 	mvn	r3, r1
    5818:	e3530002 	cmp	r3, #2	; 0x2
    581c:	92613031 	rsbls	r3, r1, #49	; 0x31
    5820:	97802103 	strls	r2, [r0, r3, lsl #2]
    5824:	9a000017 	bls	5888 <_dl_map_object_from_fd+0x8f4>
    5828:	e5921000 	ldr	r1, [r2]
    582c:	e261346f 	rsb	r3, r1, #1862270976	; 0x6f000000
    5830:	e28338ff 	add	r3, r3, #16711680	; 0xff0000
    5834:	e2833cfd 	add	r3, r3, #64768	; 0xfd00
    5838:	e28330ff 	add	r3, r3, #255	; 0xff
    583c:	e353000b 	cmp	r3, #11	; 0xb
    5840:	8a000005 	bhi	585c <_dl_map_object_from_fd+0x8c8>
    5844:	e261346f 	rsb	r3, r1, #1862270976	; 0x6f000000
    5848:	e28338ff 	add	r3, r3, #16711680	; 0xff0000
    584c:	e2833cfe 	add	r3, r3, #65024	; 0xfe00
    5850:	e2833034 	add	r3, r3, #52	; 0x34
    5854:	e7802103 	str	r2, [r0, r3, lsl #2]
    5858:	ea00000a 	b	5888 <_dl_map_object_from_fd+0x8f4>
    585c:	e5921000 	ldr	r1, [r2]
    5860:	e261346f 	rsb	r3, r1, #1862270976	; 0x6f000000
    5864:	e28338ff 	add	r3, r3, #16711680	; 0xff0000
    5868:	e2833cfe 	add	r3, r3, #65024	; 0xfe00
    586c:	e28330ff 	add	r3, r3, #255	; 0xff
    5870:	e3530009 	cmp	r3, #9	; 0x9
    5874:	9261346f 	rsbls	r3, r1, #1862270976	; 0x6f000000
    5878:	928338ff 	addls	r3, r3, #16711680	; 0xff0000
    587c:	92833cff 	addls	r3, r3, #65280	; 0xff00
    5880:	92833040 	addls	r3, r3, #64	; 0x40
    5884:	97802103 	strls	r2, [r0, r3, lsl #2]
    5888:	e5b23008 	ldr	r3, [r2, #8]!
    588c:	e3530000 	cmp	r3, #0	; 0x0
    5890:	1affffce 	bne	57d0 <_dl_map_object_from_fd+0x83c>
    5894:	e5963000 	ldr	r3, [r6]
    5898:	e3530000 	cmp	r3, #0	; 0x0
    589c:	0a0000a1 	beq	5b28 <_dl_map_object_from_fd+0xb94>
    58a0:	e1a04003 	mov	r4, r3
    58a4:	e3a0c000 	mov	ip, #0	; 0x0
    58a8:	e5903010 	ldr	r3, [r0, #16]
    58ac:	e153000c 	cmp	r3, ip
    58b0:	0a00000d 	beq	58ec <_dl_map_object_from_fd+0x958>
    58b4:	e15e000c 	cmp	lr, ip
    58b8:	05902010 	ldreq	r2, [r0, #16]
    58bc:	05923004 	ldreq	r3, [r2, #4]
    58c0:	00843003 	addeq	r3, r4, r3
    58c4:	05823004 	streq	r3, [r2, #4]
    58c8:	0a000007 	beq	58ec <_dl_map_object_from_fd+0x958>
    58cc:	e5933000 	ldr	r3, [r3]
    58d0:	e58e3000 	str	r3, [lr]
    58d4:	e5903010 	ldr	r3, [r0, #16]
    58d8:	e5933004 	ldr	r3, [r3, #4]
    58dc:	e0843003 	add	r3, r4, r3
    58e0:	e58e3004 	str	r3, [lr, #4]
    58e4:	e28cc001 	add	ip, ip, #1	; 0x1
    58e8:	e580e010 	str	lr, [r0, #16]
    58ec:	e590300c 	ldr	r3, [r0, #12]
    58f0:	e3530000 	cmp	r3, #0	; 0x0
    58f4:	0a00000f 	beq	5938 <_dl_map_object_from_fd+0x9a4>
    58f8:	e35e0000 	cmp	lr, #0	; 0x0
    58fc:	0590200c 	ldreq	r2, [r0, #12]
    5900:	05923004 	ldreq	r3, [r2, #4]
    5904:	00843003 	addeq	r3, r4, r3
    5908:	05823004 	streq	r3, [r2, #4]
    590c:	0a000009 	beq	5938 <_dl_map_object_from_fd+0x9a4>
    5910:	e1a0218c 	mov	r2, ip, lsl #3
    5914:	e082100e 	add	r1, r2, lr
    5918:	e5933000 	ldr	r3, [r3]
    591c:	e782300e 	str	r3, [r2, lr]
    5920:	e590300c 	ldr	r3, [r0, #12]
    5924:	e5933004 	ldr	r3, [r3, #4]
    5928:	e0843003 	add	r3, r4, r3
    592c:	e5813004 	str	r3, [r1, #4]
    5930:	e28cc001 	add	ip, ip, #1	; 0x1
    5934:	e580100c 	str	r1, [r0, #12]
    5938:	e5903014 	ldr	r3, [r0, #20]
    593c:	e3530000 	cmp	r3, #0	; 0x0
    5940:	0a00000f 	beq	5984 <_dl_map_object_from_fd+0x9f0>
    5944:	e35e0000 	cmp	lr, #0	; 0x0
    5948:	05902014 	ldreq	r2, [r0, #20]
    594c:	05923004 	ldreq	r3, [r2, #4]
    5950:	00843003 	addeq	r3, r4, r3
    5954:	05823004 	streq	r3, [r2, #4]
    5958:	0a000009 	beq	5984 <_dl_map_object_from_fd+0x9f0>
    595c:	e1a0218c 	mov	r2, ip, lsl #3
    5960:	e082100e 	add	r1, r2, lr
    5964:	e5933000 	ldr	r3, [r3]
    5968:	e782300e 	str	r3, [r2, lr]
    596c:	e5903014 	ldr	r3, [r0, #20]
    5970:	e5933004 	ldr	r3, [r3, #4]
    5974:	e0843003 	add	r3, r4, r3
    5978:	e5813004 	str	r3, [r1, #4]
    597c:	e28cc001 	add	ip, ip, #1	; 0x1
    5980:	e5801014 	str	r1, [r0, #20]
    5984:	e5903018 	ldr	r3, [r0, #24]
    5988:	e3530000 	cmp	r3, #0	; 0x0
    598c:	0a00000f 	beq	59d0 <_dl_map_object_from_fd+0xa3c>
    5990:	e35e0000 	cmp	lr, #0	; 0x0
    5994:	05902018 	ldreq	r2, [r0, #24]
    5998:	05923004 	ldreq	r3, [r2, #4]
    599c:	00843003 	addeq	r3, r4, r3
    59a0:	05823004 	streq	r3, [r2, #4]
    59a4:	0a000009 	beq	59d0 <_dl_map_object_from_fd+0xa3c>
    59a8:	e1a0218c 	mov	r2, ip, lsl #3
    59ac:	e082100e 	add	r1, r2, lr
    59b0:	e5933000 	ldr	r3, [r3]
    59b4:	e782300e 	str	r3, [r2, lr]
    59b8:	e5903018 	ldr	r3, [r0, #24]
    59bc:	e5933004 	ldr	r3, [r3, #4]
    59c0:	e0843003 	add	r3, r4, r3
    59c4:	e5813004 	str	r3, [r1, #4]
    59c8:	e28cc001 	add	ip, ip, #1	; 0x1
    59cc:	e5801018 	str	r1, [r0, #24]
    59d0:	e590301c 	ldr	r3, [r0, #28]
    59d4:	e3530000 	cmp	r3, #0	; 0x0
    59d8:	0a00000f 	beq	5a1c <_dl_map_object_from_fd+0xa88>
    59dc:	e35e0000 	cmp	lr, #0	; 0x0
    59e0:	0590201c 	ldreq	r2, [r0, #28]
    59e4:	05923004 	ldreq	r3, [r2, #4]
    59e8:	00843003 	addeq	r3, r4, r3
    59ec:	05823004 	streq	r3, [r2, #4]
    59f0:	0a000009 	beq	5a1c <_dl_map_object_from_fd+0xa88>
    59f4:	e1a0218c 	mov	r2, ip, lsl #3
    59f8:	e082100e 	add	r1, r2, lr
    59fc:	e5933000 	ldr	r3, [r3]
    5a00:	e782300e 	str	r3, [r2, lr]
    5a04:	e590301c 	ldr	r3, [r0, #28]
    5a08:	e5933004 	ldr	r3, [r3, #4]
    5a0c:	e0843003 	add	r3, r4, r3
    5a10:	e5813004 	str	r3, [r1, #4]
    5a14:	e28cc001 	add	ip, ip, #1	; 0x1
    5a18:	e580101c 	str	r1, [r0, #28]
    5a1c:	e5903044 	ldr	r3, [r0, #68]
    5a20:	e3530000 	cmp	r3, #0	; 0x0
    5a24:	0a00000f 	beq	5a68 <_dl_map_object_from_fd+0xad4>
    5a28:	e35e0000 	cmp	lr, #0	; 0x0
    5a2c:	05902044 	ldreq	r2, [r0, #68]
    5a30:	05923004 	ldreq	r3, [r2, #4]
    5a34:	00843003 	addeq	r3, r4, r3
    5a38:	05823004 	streq	r3, [r2, #4]
    5a3c:	0a000009 	beq	5a68 <_dl_map_object_from_fd+0xad4>
    5a40:	e1a0218c 	mov	r2, ip, lsl #3
    5a44:	e082100e 	add	r1, r2, lr
    5a48:	e5933000 	ldr	r3, [r3]
    5a4c:	e782300e 	str	r3, [r2, lr]
    5a50:	e5903044 	ldr	r3, [r0, #68]
    5a54:	e5933004 	ldr	r3, [r3, #4]
    5a58:	e0843003 	add	r3, r4, r3
    5a5c:	e5813004 	str	r3, [r1, #4]
    5a60:	e28cc001 	add	ip, ip, #1	; 0x1
    5a64:	e5801044 	str	r1, [r0, #68]
    5a68:	e590305c 	ldr	r3, [r0, #92]
    5a6c:	e3530000 	cmp	r3, #0	; 0x0
    5a70:	0a00000f 	beq	5ab4 <_dl_map_object_from_fd+0xb20>
    5a74:	e35e0000 	cmp	lr, #0	; 0x0
    5a78:	0590205c 	ldreq	r2, [r0, #92]
    5a7c:	05923004 	ldreq	r3, [r2, #4]
    5a80:	00843003 	addeq	r3, r4, r3
    5a84:	05823004 	streq	r3, [r2, #4]
    5a88:	0a000009 	beq	5ab4 <_dl_map_object_from_fd+0xb20>
    5a8c:	e1a0218c 	mov	r2, ip, lsl #3
    5a90:	e082100e 	add	r1, r2, lr
    5a94:	e5933000 	ldr	r3, [r3]
    5a98:	e782300e 	str	r3, [r2, lr]
    5a9c:	e590305c 	ldr	r3, [r0, #92]
    5aa0:	e5933004 	ldr	r3, [r3, #4]
    5aa4:	e0843003 	add	r3, r4, r3
    5aa8:	e5813004 	str	r3, [r1, #4]
    5aac:	e28cc001 	add	ip, ip, #1	; 0x1
    5ab0:	e580105c 	str	r1, [r0, #92]
    5ab4:	e59030c4 	ldr	r3, [r0, #196]
    5ab8:	e3530000 	cmp	r3, #0	; 0x0
    5abc:	0a00000f 	beq	5b00 <_dl_map_object_from_fd+0xb6c>
    5ac0:	e35e0000 	cmp	lr, #0	; 0x0
    5ac4:	059020c4 	ldreq	r2, [r0, #196]
    5ac8:	05923004 	ldreq	r3, [r2, #4]
    5acc:	00843003 	addeq	r3, r4, r3
    5ad0:	05823004 	streq	r3, [r2, #4]
    5ad4:	0a000009 	beq	5b00 <_dl_map_object_from_fd+0xb6c>
    5ad8:	e1a0218c 	mov	r2, ip, lsl #3
    5adc:	e082100e 	add	r1, r2, lr
    5ae0:	e5933000 	ldr	r3, [r3]
    5ae4:	e782300e 	str	r3, [r2, lr]
    5ae8:	e59030c4 	ldr	r3, [r0, #196]
    5aec:	e5933004 	ldr	r3, [r3, #4]
    5af0:	e0843003 	add	r3, r4, r3
    5af4:	e5813004 	str	r3, [r1, #4]
    5af8:	e28cc001 	add	ip, ip, #1	; 0x1
    5afc:	e58010c4 	str	r1, [r0, #196]
    5b00:	e35c0008 	cmp	ip, #8	; 0x8
    5b04:	da000007 	ble	5b28 <_dl_map_object_from_fd+0xb94>
    5b08:	e59f0478 	ldr	r0, [pc, #1144]	; 5f88 <.text+0x53b8>
    5b0c:	e08a0000 	add	r0, sl, r0
    5b10:	e59f1474 	ldr	r1, [pc, #1140]	; 5f8c <.text+0x53bc>
    5b14:	e08a1001 	add	r1, sl, r1
    5b18:	e3a0206a 	mov	r2, #106	; 0x6a
    5b1c:	e59f346c 	ldr	r3, [pc, #1132]	; 5f90 <.text+0x53c0>
    5b20:	e79a3003 	ldr	r3, [sl, r3]
    5b24:	eb002725 	bl	f7c0 <__GI___assert_fail>
    5b28:	e5903050 	ldr	r3, [r0, #80]
    5b2c:	e3530000 	cmp	r3, #0	; 0x0
    5b30:	0a00000b 	beq	5b64 <_dl_map_object_from_fd+0xbd0>
    5b34:	e5933004 	ldr	r3, [r3, #4]
    5b38:	e3530011 	cmp	r3, #17	; 0x11
    5b3c:	13530007 	cmpne	r3, #7	; 0x7
    5b40:	0a000007 	beq	5b64 <_dl_map_object_from_fd+0xbd0>
    5b44:	e59f0448 	ldr	r0, [pc, #1096]	; 5f94 <.text+0x53c4>
    5b48:	e08a0000 	add	r0, sl, r0
    5b4c:	e59f1438 	ldr	r1, [pc, #1080]	; 5f8c <.text+0x53bc>
    5b50:	e08a1001 	add	r1, sl, r1
    5b54:	e3a02075 	mov	r2, #117	; 0x75
    5b58:	e59f3430 	ldr	r3, [pc, #1072]	; 5f90 <.text+0x53c0>
    5b5c:	e79a3003 	ldr	r3, [sl, r3]
    5b60:	eb002716 	bl	f7c0 <__GI___assert_fail>
    5b64:	e590301c 	ldr	r3, [r0, #28]
    5b68:	e3530000 	cmp	r3, #0	; 0x0
    5b6c:	0a00000b 	beq	5ba0 <_dl_map_object_from_fd+0xc0c>
    5b70:	e5903024 	ldr	r3, [r0, #36]
    5b74:	e5933004 	ldr	r3, [r3, #4]
    5b78:	e353000c 	cmp	r3, #12	; 0xc
    5b7c:	0a000007 	beq	5ba0 <_dl_map_object_from_fd+0xc0c>
    5b80:	e59f0410 	ldr	r0, [pc, #1040]	; 5f98 <.text+0x53c8>
    5b84:	e08a0000 	add	r0, sl, r0
    5b88:	e59f13fc 	ldr	r1, [pc, #1020]	; 5f8c <.text+0x53bc>
    5b8c:	e08a1001 	add	r1, sl, r1
    5b90:	e3a0207a 	mov	r2, #122	; 0x7a
    5b94:	e59f33f4 	ldr	r3, [pc, #1012]	; 5f90 <.text+0x53c0>
    5b98:	e79a3003 	ldr	r3, [sl, r3]
    5b9c:	eb002707 	bl	f7c0 <__GI___assert_fail>
    5ba0:	e5903044 	ldr	r3, [r0, #68]
    5ba4:	e3530000 	cmp	r3, #0	; 0x0
    5ba8:	0a00000b 	beq	5bdc <_dl_map_object_from_fd+0xc48>
    5bac:	e590304c 	ldr	r3, [r0, #76]
    5bb0:	e5933004 	ldr	r3, [r3, #4]
    5bb4:	e3530008 	cmp	r3, #8	; 0x8
    5bb8:	0a000007 	beq	5bdc <_dl_map_object_from_fd+0xc48>
    5bbc:	e59f03d8 	ldr	r0, [pc, #984]	; 5f9c <.text+0x53cc>
    5bc0:	e08a0000 	add	r0, sl, r0
    5bc4:	e59f13c0 	ldr	r1, [pc, #960]	; 5f8c <.text+0x53bc>
    5bc8:	e08a1001 	add	r1, sl, r1
    5bcc:	e3a0207e 	mov	r2, #126	; 0x7e
    5bd0:	e59f33b8 	ldr	r3, [pc, #952]	; 5f90 <.text+0x53c0>
    5bd4:	e79a3003 	ldr	r3, [sl, r3]
    5bd8:	eb0026f8 	bl	f7c0 <__GI___assert_fail>
    5bdc:	e5903078 	ldr	r3, [r0, #120]
    5be0:	e3530000 	cmp	r3, #0	; 0x0
    5be4:	0a00000c 	beq	5c1c <_dl_map_object_from_fd+0xc88>
    5be8:	e5933004 	ldr	r3, [r3, #4]
    5bec:	e58631fc 	str	r3, [r6, #508]
    5bf0:	e3130002 	tst	r3, #2	; 0x2
    5bf4:	15903078 	ldrne	r3, [r0, #120]
    5bf8:	15803040 	strne	r3, [r0, #64]
    5bfc:	e59631fc 	ldr	r3, [r6, #508]
    5c00:	e3130004 	tst	r3, #4	; 0x4
    5c04:	15903078 	ldrne	r3, [r0, #120]
    5c08:	15803058 	strne	r3, [r0, #88]
    5c0c:	e59631fc 	ldr	r3, [r6, #508]
    5c10:	e3130008 	tst	r3, #8	; 0x8
    5c14:	15903078 	ldrne	r3, [r0, #120]
    5c18:	15803060 	strne	r3, [r0, #96]
    5c1c:	e5903098 	ldr	r3, [r0, #152]
    5c20:	e3530000 	cmp	r3, #0	; 0x0
    5c24:	0a000004 	beq	5c3c <_dl_map_object_from_fd+0xca8>
    5c28:	e5933004 	ldr	r3, [r3, #4]
    5c2c:	e58631f8 	str	r3, [r6, #504]
    5c30:	e3130001 	tst	r3, #1	; 0x1
    5c34:	15903098 	ldrne	r3, [r0, #152]
    5c38:	15803060 	strne	r3, [r0, #96]
    5c3c:	e5903074 	ldr	r3, [r0, #116]
    5c40:	e3530000 	cmp	r3, #0	; 0x0
    5c44:	13a03000 	movne	r3, #0	; 0x0
    5c48:	1580303c 	strne	r3, [r0, #60]
    5c4c:	e59531f8 	ldr	r3, [r5, #504]
    5c50:	e3130040 	tst	r3, #64	; 0x40
    5c54:	0a000012 	beq	5ca4 <_dl_map_object_from_fd+0xd10>
    5c58:	e59b200c 	ldr	r2, [fp, #12]
    5c5c:	e3520000 	cmp	r2, #0	; 0x0
    5c60:	aa00000f 	bge	5ca4 <_dl_map_object_from_fd+0xd10>
    5c64:	e59501a0 	ldr	r0, [r5, #416]
    5c68:	e2853f69 	add	r3, r5, #420	; 0x1a4
    5c6c:	e813000a 	ldmda	r3, {r1, r3}
    5c70:	e0431001 	sub	r1, r3, r1
    5c74:	eb002c05 	bl	10c90 <__munmap>
    5c78:	e595001c 	ldr	r0, [r5, #28]
    5c7c:	e5903008 	ldr	r3, [r0, #8]
    5c80:	e3530000 	cmp	r3, #0	; 0x0
    5c84:	0bffebcb 	bleq	bb8 <GLIBC_2.0+0xbb8>
    5c88:	e5d53180 	ldrb	r3, [r5, #384]
    5c8c:	e1b033a3 	movs	r3, r3, lsr #7
    5c90:	1595014c 	ldrne	r0, [r5, #332]
    5c94:	1bffebc7 	blne	bb8 <GLIBC_2.0+0xbb8>
    5c98:	e59f3300 	ldr	r3, [pc, #768]	; 5fa0 <.text+0x53d0>
    5c9c:	e08a2003 	add	r2, sl, r3
    5ca0:	eafffcd4 	b	4ff8 <_dl_map_object_from_fd+0x64>
    5ca4:	e595314c 	ldr	r3, [r5, #332]
    5ca8:	e3530000 	cmp	r3, #0	; 0x0
    5cac:	1595314c 	ldrne	r3, [r5, #332]
    5cb0:	15952000 	ldrne	r2, [r5]
    5cb4:	10833002 	addne	r3, r3, r2
    5cb8:	1585314c 	strne	r3, [r5, #332]
    5cbc:	1a000013 	bne	5d10 <_dl_map_object_from_fd+0xd7c>
    5cc0:	e5d9002c 	ldrb	r0, [r9, #44]
    5cc4:	e5d9302d 	ldrb	r3, [r9, #45]
    5cc8:	e1800403 	orr	r0, r0, r3, lsl #8
    5ccc:	e1a00280 	mov	r0, r0, lsl #5
    5cd0:	ebffebb5 	bl	bac <GLIBC_2.0+0xbac>
    5cd4:	e3500000 	cmp	r0, #0	; 0x0
    5cd8:	059f32c4 	ldreq	r3, [pc, #708]	; 5fa4 <.text+0x53d4>
    5cdc:	008a2003 	addeq	r2, sl, r3
    5ce0:	0afffcc0 	beq	4fe8 <_dl_map_object_from_fd+0x54>
    5ce4:	e5d9202c 	ldrb	r2, [r9, #44]
    5ce8:	e5d9302d 	ldrb	r3, [r9, #45]
    5cec:	e1822403 	orr	r2, r2, r3, lsl #8
    5cf0:	e51b1098 	ldr	r1, [fp, #-152]
    5cf4:	e1a02282 	mov	r2, r2, lsl #5
    5cf8:	eb002ef5 	bl	118d4 <memcpy>
    5cfc:	e585014c 	str	r0, [r5, #332]
    5d00:	e5d53180 	ldrb	r3, [r5, #384]
    5d04:	e1e03c83 	mvn	r3, r3, lsl #25
    5d08:	e1e03ca3 	mvn	r3, r3, lsr #25
    5d0c:	e5c53180 	strb	r3, [r5, #384]
    5d10:	e59f323c 	ldr	r3, [pc, #572]	; 5f54 <.text+0x5384>
    5d14:	e79a1003 	ldr	r1, [sl, r3]
    5d18:	e59133e0 	ldr	r3, [r1, #992]
    5d1c:	e51b00a8 	ldr	r0, [fp, #-168]
    5d20:	e1c03003 	bic	r3, r0, r3
    5d24:	e3130001 	tst	r3, #1	; 0x1
    5d28:	0a00000c 	beq	5d60 <_dl_map_object_from_fd+0xdcc>
    5d2c:	e59f3274 	ldr	r3, [pc, #628]	; 5fa8 <.text+0x53d8>
    5d30:	e79a2003 	ldr	r2, [sl, r3]
    5d34:	e5923000 	ldr	r3, [r2]
    5d38:	e3833007 	orr	r3, r3, #7	; 0x7
    5d3c:	e5823000 	str	r3, [r2]
    5d40:	e59b0010 	ldr	r0, [fp, #16]
    5d44:	e1a0e00f 	mov	lr, pc
    5d48:	e591f3e4 	ldr	pc, [r1, #996]
    5d4c:	e3500000 	cmp	r0, #0	; 0x0
    5d50:	e50b00a4 	str	r0, [fp, #-164]
    5d54:	159f3250 	ldrne	r3, [pc, #592]	; 5fac <.text+0x53dc>
    5d58:	108a2003 	addne	r2, sl, r3
    5d5c:	1afffca5 	bne	4ff8 <_dl_map_object_from_fd+0x64>
    5d60:	e51b0090 	ldr	r0, [fp, #-144]
    5d64:	eb002a85 	bl	10780 <__close>
    5d68:	e3500000 	cmp	r0, #0	; 0x0
    5d6c:	159f323c 	ldrne	r3, [pc, #572]	; 5fb0 <.text+0x53e0>
    5d70:	108a2003 	addne	r2, sl, r3
    5d74:	1afffc9b 	bne	4fe8 <_dl_map_object_from_fd+0x54>
    5d78:	e3e01000 	mvn	r1, #0	; 0x0
    5d7c:	e50b1090 	str	r1, [fp, #-144]
    5d80:	e5d52180 	ldrb	r2, [r5, #384]
    5d84:	e2023003 	and	r3, r2, #3	; 0x3
    5d88:	e51b00a0 	ldr	r0, [fp, #-160]
    5d8c:	e3530001 	cmp	r3, #1	; 0x1
    5d90:	03500002 	cmpeq	r0, #2	; 0x2
    5d94:	03c23003 	biceq	r3, r2, #3	; 0x3
    5d98:	05c53180 	streqb	r3, [r5, #384]
    5d9c:	e5953150 	ldr	r3, [r5, #336]
    5da0:	e5952000 	ldr	r2, [r5]
    5da4:	e0833002 	add	r3, r3, r2
    5da8:	e5853150 	str	r3, [r5, #336]
    5dac:	e59f31a4 	ldr	r3, [pc, #420]	; 5f58 <.text+0x5388>
    5db0:	e79a3003 	ldr	r3, [sl, r3]
    5db4:	e5933000 	ldr	r3, [r3]
    5db8:	e3130040 	tst	r3, #64	; 0x40
    5dbc:	0a000014 	beq	5e14 <_dl_map_object_from_fd+0xe80>
    5dc0:	e58d2000 	str	r2, [sp]
    5dc4:	e3a03008 	mov	r3, #8	; 0x8
    5dc8:	e58d3004 	str	r3, [sp, #4]
    5dcc:	e51b109c 	ldr	r1, [fp, #-156]
    5dd0:	e58d1008 	str	r1, [sp, #8]
    5dd4:	e58d300c 	str	r3, [sp, #12]
    5dd8:	e5952150 	ldr	r2, [r5, #336]
    5ddc:	e58d2010 	str	r2, [sp, #16]
    5de0:	e58d3014 	str	r3, [sp, #20]
    5de4:	e595214c 	ldr	r2, [r5, #332]
    5de8:	e58d2018 	str	r2, [sp, #24]
    5dec:	e58d301c 	str	r3, [sp, #28]
    5df0:	e5d52154 	ldrb	r2, [r5, #340]
    5df4:	e5d51155 	ldrb	r1, [r5, #341]
    5df8:	e1822311 	orr	r2, r2, r1, lsl r3
    5dfc:	e58d2020 	str	r2, [sp, #32]
    5e00:	e59f01ac 	ldr	r0, [pc, #428]	; 5fb4 <.text+0x53e4>
    5e04:	e08a0000 	add	r0, sl, r0
    5e08:	e1a01003 	mov	r1, r3
    5e0c:	e5952008 	ldr	r2, [r5, #8]
    5e10:	eb001a95 	bl	c86c <_dl_debug_printf>
    5e14:	e1a00005 	mov	r0, r5
    5e18:	eb0009f6 	bl	85f8 <_dl_setup_hash>
    5e1c:	e59b200c 	ldr	r2, [fp, #12]
    5e20:	e3120008 	tst	r2, #8	; 0x8
    5e24:	1a000025 	bne	5ec0 <_dl_map_object_from_fd+0xf2c>
    5e28:	e5953060 	ldr	r3, [r5, #96]
    5e2c:	e3530000 	cmp	r3, #0	; 0x0
    5e30:	0a000022 	beq	5ec0 <_dl_map_object_from_fd+0xf2c>
    5e34:	e2853f56 	add	r3, r5, #344	; 0x158
    5e38:	e59521c0 	ldr	r2, [r5, #448]
    5e3c:	e5922000 	ldr	r2, [r2]
    5e40:	e1530002 	cmp	r3, r2
    5e44:	0a00001d 	beq	5ec0 <_dl_map_object_from_fd+0xf2c>
    5e48:	e3a00004 	mov	r0, #4	; 0x4
    5e4c:	ebffeb56 	bl	bac <GLIBC_2.0+0xbac>
    5e50:	e5850160 	str	r0, [r5, #352]
    5e54:	e3500000 	cmp	r0, #0	; 0x0
    5e58:	1a00000b 	bne	5e8c <_dl_map_object_from_fd+0xef8>
    5e5c:	e59f3154 	ldr	r3, [pc, #340]	; 5fb8 <.text+0x53e8>
    5e60:	e08a2003 	add	r2, sl, r3
    5e64:	eafffc5f 	b	4fe8 <_dl_map_object_from_fd+0x54>
    5e68:	e51b0090 	ldr	r0, [fp, #-144]
    5e6c:	eb002a43 	bl	10780 <__close>
    5e70:	e51b0094 	ldr	r0, [fp, #-148]
    5e74:	ebffeb4f 	bl	bb8 <GLIBC_2.0+0xbb8>
    5e78:	e1a00005 	mov	r0, r5
    5e7c:	e51b108c 	ldr	r1, [fp, #-140]
    5e80:	ebfff96a 	bl	4430 <add_name_to_object>
    5e84:	e1a00005 	mov	r0, r5
    5e88:	ea000028 	b	5f30 <_dl_map_object_from_fd+0xf9c>
    5e8c:	e5953160 	ldr	r3, [r5, #352]
    5e90:	e5835000 	str	r5, [r3]
    5e94:	e3a03001 	mov	r3, #1	; 0x1
    5e98:	e5853164 	str	r3, [r5, #356]
    5e9c:	e59511c0 	ldr	r1, [r5, #448]
    5ea0:	e59521bc 	ldr	r2, [r5, #444]
    5ea4:	e1a02102 	mov	r2, r2, lsl #2
    5ea8:	e2810004 	add	r0, r1, #4	; 0x4
    5eac:	e2422004 	sub	r2, r2, #4	; 0x4
    5eb0:	eb002de8 	bl	11658 <memmove>
    5eb4:	e59521c0 	ldr	r2, [r5, #448]
    5eb8:	e2853e16 	add	r3, r5, #352	; 0x160
    5ebc:	e5823000 	str	r3, [r2]
    5ec0:	e59531f8 	ldr	r3, [r5, #504]
    5ec4:	e3130020 	tst	r3, #32	; 0x20
    5ec8:	159f3084 	ldrne	r3, [pc, #132]	; 5f54 <.text+0x5384>
    5ecc:	179a3003 	ldrne	r3, [sl, r3]
    5ed0:	158351a0 	strne	r5, [r3, #416]
    5ed4:	e2852f73 	add	r2, r5, #460	; 0x1cc
    5ed8:	e24b3088 	sub	r3, fp, #136	; 0x88
    5edc:	e8930003 	ldmia	r3, {r0, r1}
    5ee0:	e8820003 	stmia	r2, {r0, r1}
    5ee4:	e2853f75 	add	r3, r5, #468	; 0x1d4
    5ee8:	e24b2030 	sub	r2, fp, #48	; 0x30
    5eec:	e8920006 	ldmia	r2, {r1, r2}
    5ef0:	e8830006 	stmia	r3, {r1, r2}
    5ef4:	e59f305c 	ldr	r3, [pc, #92]	; 5f58 <.text+0x5388>
    5ef8:	e79a3003 	ldr	r3, [sl, r3]
    5efc:	e59330a0 	ldr	r3, [r3, #160]
    5f00:	e3530000 	cmp	r3, #0	; 0x0
    5f04:	0a000008 	beq	5f2c <_dl_map_object_from_fd+0xf98>
    5f08:	e5952058 	ldr	r2, [r5, #88]
    5f0c:	e3520000 	cmp	r2, #0	; 0x0
    5f10:	0a000005 	beq	5f2c <_dl_map_object_from_fd+0xf98>
    5f14:	e5953034 	ldr	r3, [r5, #52]
    5f18:	e5933004 	ldr	r3, [r3, #4]
    5f1c:	e5921004 	ldr	r1, [r2, #4]
    5f20:	e1a00005 	mov	r0, r5
    5f24:	e0831001 	add	r1, r3, r1
    5f28:	ebfff940 	bl	4430 <add_name_to_object>
    5f2c:	e1a00005 	mov	r0, r5
    5f30:	e24bd028 	sub	sp, fp, #40	; 0x28
    5f34:	e89daff0 	ldmia	sp, {r4, r5, r6, r7, r8, r9, sl, fp, sp, pc}
    5f38:	000185e4 	andeq	r8, r1, r4, ror #11
    5f3c:	ffff6604 	swinv	0x00ff6604
    5f40:	00000238 	andeq	r0, r0, r8, lsr r2
    5f44:	ffff6620 	swinv	0x00ff6620
    5f48:	ffff663c 	swinv	0x00ff663c
    5f4c:	ffff6660 	swinv	0x00ff6660
    5f50:	ffff6698 	swinv	0x00ff6698
    5f54:	0000023c 	andeq	r0, r0, ip, lsr r2
    5f58:	00000210 	andeq	r0, r0, r0, lsl r2
    5f5c:	ffff66c4 	swinv	0x00ff66c4
    5f60:	ffff66ec 	swinv	0x00ff66ec
    5f64:	ffff6714 	swinv	0x00ff6714
    5f68:	6474e551 	ldrvsbt	lr, [r4], #-1361
    5f6c:	6474e552 	ldrvsbt	lr, [r4], #-1362
    5f70:	73516240 	cmpvc	r1, #4	; 0x4
    5f74:	ffff672c 	swinv	0x00ff672c
    5f78:	ffff6744 	swinv	0x00ff6744
    5f7c:	ffff676c 	swinv	0x00ff676c
    5f80:	ffff6798 	swinv	0x00ff6798
    5f84:	ffff67bc 	swinv	0x00ff67bc
    5f88:	ffff56d0 	swinv	0x00ff56d0
    5f8c:	ffff56dc 	swinv	0x00ff56dc
    5f90:	000000c0 	andeq	r0, r0, r0, asr #1
    5f94:	ffff5f68 	swinv	0x00ff5f68
    5f98:	ffff5fa0 	swinv	0x00ff5fa0
    5f9c:	ffff5708 	swinv	0x00ff5708
    5fa0:	ffff67e0 	swinv	0x00ff67e0
    5fa4:	ffff6804 	swinv	0x00ff6804
    5fa8:	000001dc 	ldreqd	r0, [r0], -ip
    5fac:	ffff6830 	swinv	0x00ff6830
    5fb0:	ffff686c 	swinv	0x00ff686c
    5fb4:	ffff688c 	swinv	0x00ff688c
    5fb8:	ffff68f0 	swinv	0x00ff68f0

00005fbc <print_search_path>:
    5fbc:	e1a0c00d 	mov	ip, sp
    5fc0:	e92ddff0 	stmdb	sp!, {r4, r5, r6, r7, r8, r9, sl, fp, ip, lr, pc}
    5fc4:	e24cb004 	sub	fp, ip, #4	; 0x4
    5fc8:	e24dd010 	sub	sp, sp, #16	; 0x10
    5fcc:	e59fa1bc 	ldr	sl, [pc, #444]	; 6190 <.text+0x55c0>
    5fd0:	e08fa00a 	add	sl, pc, sl
    5fd4:	e1a06000 	mov	r6, r0
    5fd8:	e1a09001 	mov	r9, r1
    5fdc:	e1a08002 	mov	r8, r2
    5fe0:	e50bd02c 	str	sp, [fp, #-44]
    5fe4:	e59f31a8 	ldr	r3, [pc, #424]	; 6194 <.text+0x55c4>
    5fe8:	e79a3003 	ldr	r3, [sl, r3]
    5fec:	e5933000 	ldr	r3, [r3]
    5ff0:	e59f21a0 	ldr	r2, [pc, #416]	; 6198 <.text+0x55c8>
    5ff4:	e79a2002 	ldr	r2, [sl, r2]
    5ff8:	e5922000 	ldr	r2, [r2]
    5ffc:	e0833002 	add	r3, r3, r2
    6000:	e2833006 	add	r3, r3, #6	; 0x6
    6004:	e3c33003 	bic	r3, r3, #3	; 0x3
    6008:	e063d00d 	rsb	sp, r3, sp
    600c:	e1a0500d 	mov	r5, sp
    6010:	e3a02001 	mov	r2, #1	; 0x1
    6014:	e50b2030 	str	r2, [fp, #-48]
    6018:	e59f017c 	ldr	r0, [pc, #380]	; 619c <.text+0x55cc>
    601c:	e08a0000 	add	r0, sl, r0
    6020:	eb001a11 	bl	c86c <_dl_debug_printf>
    6024:	e5963000 	ldr	r3, [r6]
    6028:	e1a02003 	mov	r2, r3
    602c:	e3530000 	cmp	r3, #0	; 0x0
    6030:	0a000041 	beq	613c <print_search_path+0x180>
    6034:	e5933004 	ldr	r3, [r3, #4]
    6038:	e1530009 	cmp	r3, r9
    603c:	1a00003e 	bne	613c <print_search_path+0x180>
    6040:	e59f3158 	ldr	r3, [pc, #344]	; 61a0 <.text+0x55d0>
    6044:	e79a3003 	ldr	r3, [sl, r3]
    6048:	e50b3038 	str	r3, [fp, #-56]
    604c:	e1a00005 	mov	r0, r5
    6050:	e282100c 	add	r1, r2, #12	; 0xc
    6054:	e8910006 	ldmia	r1, {r1, r2}
    6058:	eb002df0 	bl	11820 <__mempcpy>
    605c:	e1a07000 	mov	r7, r0
    6060:	e3a04000 	mov	r4, #0	; 0x0
    6064:	e51b2038 	ldr	r2, [fp, #-56]
    6068:	e5923000 	ldr	r3, [r2]
    606c:	e1540003 	cmp	r4, r3
    6070:	2a00002b 	bcs	6124 <print_search_path+0x168>
    6074:	e59f3128 	ldr	r3, [pc, #296]	; 61a4 <.text+0x55d4>
    6078:	e79a3003 	ldr	r3, [sl, r3]
    607c:	e50b3034 	str	r3, [fp, #-52]
    6080:	e5963000 	ldr	r3, [r6]
    6084:	e0833104 	add	r3, r3, r4, lsl #2
    6088:	e5933014 	ldr	r3, [r3, #20]
    608c:	e3530001 	cmp	r3, #1	; 0x1
    6090:	0a00001e 	beq	6110 <print_search_path+0x154>
    6094:	e51b2034 	ldr	r2, [fp, #-52]
    6098:	e5923000 	ldr	r3, [r2]
    609c:	e1a02184 	mov	r2, r4, lsl #3
    60a0:	e082c003 	add	ip, r2, r3
    60a4:	e1a00007 	mov	r0, r7
    60a8:	e7921003 	ldr	r1, [r2, r3]
    60ac:	e59c2004 	ldr	r2, [ip, #4]
    60b0:	eb002dda 	bl	11820 <__mempcpy>
    60b4:	e1550000 	cmp	r5, r0
    60b8:	0a000005 	beq	60d4 <print_search_path+0x118>
    60bc:	e2853001 	add	r3, r5, #1	; 0x1
    60c0:	e1530000 	cmp	r3, r0
    60c4:	1a000005 	bne	60e0 <print_search_path+0x124>
    60c8:	e5d53000 	ldrb	r3, [r5]
    60cc:	e353002f 	cmp	r3, #47	; 0x2f
    60d0:	1a000002 	bne	60e0 <print_search_path+0x124>
    60d4:	e3a03000 	mov	r3, #0	; 0x0
    60d8:	e5c03000 	strb	r3, [r0]
    60dc:	ea000001 	b	60e8 <print_search_path+0x12c>
    60e0:	e3a03000 	mov	r3, #0	; 0x0
    60e4:	e5403001 	strb	r3, [r0, #-1]
    60e8:	e51b3030 	ldr	r3, [fp, #-48]
    60ec:	e3530000 	cmp	r3, #0	; 0x0
    60f0:	159f30b0 	ldrne	r3, [pc, #176]	; 61a8 <.text+0x55d8>
    60f4:	108a0003 	addne	r0, sl, r3
    60f8:	059f30ac 	ldreq	r3, [pc, #172]	; 61ac <.text+0x55dc>
    60fc:	008a0003 	addeq	r0, sl, r3
    6100:	e1a01005 	mov	r1, r5
    6104:	eb0019e8 	bl	c8ac <_dl_debug_printf_c>
    6108:	e3a02000 	mov	r2, #0	; 0x0
    610c:	e50b2030 	str	r2, [fp, #-48]
    6110:	e2844001 	add	r4, r4, #1	; 0x1
    6114:	e51b2038 	ldr	r2, [fp, #-56]
    6118:	e5923000 	ldr	r3, [r2]
    611c:	e1540003 	cmp	r4, r3
    6120:	3affffd6 	bcc	6080 <print_search_path+0xc4>
    6124:	e5b62004 	ldr	r2, [r6, #4]!
    6128:	e3520000 	cmp	r2, #0	; 0x0
    612c:	0a000002 	beq	613c <print_search_path+0x180>
    6130:	e5923004 	ldr	r3, [r2, #4]
    6134:	e1530009 	cmp	r3, r9
    6138:	0affffc3 	beq	604c <print_search_path+0x90>
    613c:	e3580000 	cmp	r8, #0	; 0x0
    6140:	0a00000b 	beq	6174 <print_search_path+0x1b8>
    6144:	e5d83000 	ldrb	r3, [r8]
    6148:	e3530000 	cmp	r3, #0	; 0x0
    614c:	11a02008 	movne	r2, r8
    6150:	059f3058 	ldreq	r3, [pc, #88]	; 61b0 <.text+0x55e0>
    6154:	079a3003 	ldreq	r3, [sl, r3]
    6158:	05933000 	ldreq	r3, [r3]
    615c:	05932000 	ldreq	r2, [r3]
    6160:	e59f004c 	ldr	r0, [pc, #76]	; 61b4 <.text+0x55e4>
    6164:	e08a0000 	add	r0, sl, r0
    6168:	e1a01009 	mov	r1, r9
    616c:	eb0019ce 	bl	c8ac <_dl_debug_printf_c>
    6170:	ea000003 	b	6184 <print_search_path+0x1c8>
    6174:	e59f003c 	ldr	r0, [pc, #60]	; 61b8 <.text+0x55e8>
    6178:	e08a0000 	add	r0, sl, r0
    617c:	e1a01009 	mov	r1, r9
    6180:	eb0019c9 	bl	c8ac <_dl_debug_printf_c>
    6184:	e51bd02c 	ldr	sp, [fp, #-44]
    6188:	e24bd028 	sub	sp, fp, #40	; 0x28
    618c:	e89daff0 	ldmia	sp, {r4, r5, r6, r7, r8, r9, sl, fp, sp, pc}
    6190:	000175bc 	streqh	r7, [r1], -ip
    6194:	000000a4 	andeq	r0, r0, r4, lsr #1
    6198:	000000ac 	andeq	r0, r0, ip, lsr #1
    619c:	ffff690c 	swinv	0x00ff690c
    61a0:	000000a0 	andeq	r0, r0, r0, lsr #1
    61a4:	000000b0 	streqh	r0, [r0], -r0
    61a8:	ffff691c 	swinv	0x00ff691c
    61ac:	ffff6920 	swinv	0x00ff6920
    61b0:	000001d8 	ldreqd	r0, [r0], -r8
    61b4:	ffff6924 	swinv	0x00ff6924
    61b8:	ffff693c 	swinv	0x00ff693c

000061bc <open_verify>:
    61bc:	e1a0c00d 	mov	ip, sp
    61c0:	e92ddff0 	stmdb	sp!, {r4, r5, r6, r7, r8, r9, sl, fp, ip, lr, pc}
    61c4:	e24cb004 	sub	fp, ip, #4	; 0x4
    61c8:	e24dd02c 	sub	sp, sp, #44	; 0x2c
    61cc:	e59fa34c 	ldr	sl, [pc, #844]	; 6520 <.text+0x5950>
    61d0:	e08fa00a 	add	sl, pc, sl
    61d4:	e50b004c 	str	r0, [fp, #-76]
    61d8:	e1a08001 	mov	r8, r1
    61dc:	e3a04000 	mov	r4, #0	; 0x0
    61e0:	e1a09004 	mov	r9, r4
    61e4:	e1a01004 	mov	r1, r4
    61e8:	eb002958 	bl	10750 <__libc_open>
    61ec:	e1a07000 	mov	r7, r0
    61f0:	e3700001 	cmn	r0, #1	; 0x1
    61f4:	0a0000c6 	beq	6514 <open_verify+0x358>
    61f8:	e59f3324 	ldr	r3, [pc, #804]	; 6524 <.text+0x5954>
    61fc:	e79a6003 	ldr	r6, [sl, r3]
    6200:	e5864000 	str	r4, [r6]
    6204:	e2884004 	add	r4, r8, #4	; 0x4
    6208:	e1a01004 	mov	r1, r4
    620c:	e3a02c02 	mov	r2, #512	; 0x200
    6210:	eb002966 	bl	107b0 <__libc_read>
    6214:	e5880000 	str	r0, [r8]
    6218:	e1a05004 	mov	r5, r4
    621c:	e3500033 	cmp	r0, #51	; 0x33
    6220:	ca00000b 	bgt	6254 <open_verify+0x98>
    6224:	e5969000 	ldr	r9, [r6]
    6228:	e3590000 	cmp	r9, #0	; 0x0
    622c:	059f32f4 	ldreq	r3, [pc, #756]	; 6528 <.text+0x5958>
    6230:	008a4003 	addeq	r4, sl, r3
    6234:	159f32f0 	ldrne	r3, [pc, #752]	; 652c <.text+0x595c>
    6238:	108a4003 	addne	r4, sl, r3
    623c:	e3a03000 	mov	r3, #0	; 0x0
    6240:	e88d0018 	stmia	sp, {r3, r4}
    6244:	e1a00009 	mov	r0, r9
    6248:	e1a01007 	mov	r1, r7
    624c:	e51b204c 	ldr	r2, [fp, #-76]
    6250:	ebfffb17 	bl	4eb4 <lose>
    6254:	e1a00004 	mov	r0, r4
    6258:	e59f32d0 	ldr	r3, [pc, #720]	; 6530 <.text+0x5960>
    625c:	e79a1003 	ldr	r1, [sl, r3]
    6260:	e3a02007 	mov	r2, #7	; 0x7
    6264:	eb002cd1 	bl	115b0 <bcmp>
    6268:	e3500000 	cmp	r0, #0	; 0x0
    626c:	0a000027 	beq	6310 <open_verify+0x154>
    6270:	e5d43007 	ldrb	r3, [r4, #7]
    6274:	e3530061 	cmp	r3, #97	; 0x61
    6278:	13530000 	cmpne	r3, #0	; 0x0
    627c:	1a000023 	bne	6310 <open_verify+0x154>
    6280:	e5d43008 	ldrb	r3, [r4, #8]
    6284:	e3530000 	cmp	r3, #0	; 0x0
    6288:	1a000020 	bne	6310 <open_verify+0x154>
    628c:	e5942000 	ldr	r2, [r4]
    6290:	e59f329c 	ldr	r3, [pc, #668]	; 6534 <.text+0x5964>
    6294:	e1520003 	cmp	r2, r3
    6298:	159f3298 	ldrne	r3, [pc, #664]	; 6538 <.text+0x5968>
    629c:	108a4003 	addne	r4, sl, r3
    62a0:	1affffe5 	bne	623c <open_verify+0x80>
    62a4:	e5d43004 	ldrb	r3, [r4, #4]
    62a8:	e3530001 	cmp	r3, #1	; 0x1
    62ac:	1a000089 	bne	64d8 <open_verify+0x31c>
    62b0:	e5d43005 	ldrb	r3, [r4, #5]
    62b4:	e3530001 	cmp	r3, #1	; 0x1
    62b8:	159f327c 	ldrne	r3, [pc, #636]	; 653c <.text+0x596c>
    62bc:	108a4003 	addne	r4, sl, r3
    62c0:	1affffdd 	bne	623c <open_verify+0x80>
    62c4:	e5d43006 	ldrb	r3, [r4, #6]
    62c8:	e3530001 	cmp	r3, #1	; 0x1
    62cc:	159f326c 	ldrne	r3, [pc, #620]	; 6540 <.text+0x5970>
    62d0:	108a4003 	addne	r4, sl, r3
    62d4:	1affffd8 	bne	623c <open_verify+0x80>
    62d8:	e5d43007 	ldrb	r3, [r4, #7]
    62dc:	e3530000 	cmp	r3, #0	; 0x0
    62e0:	13530061 	cmpne	r3, #97	; 0x61
    62e4:	159f3258 	ldrne	r3, [pc, #600]	; 6544 <.text+0x5974>
    62e8:	108a4003 	addne	r4, sl, r3
    62ec:	1affffd2 	bne	623c <open_verify+0x80>
    62f0:	e5d43008 	ldrb	r3, [r4, #8]
    62f4:	e3530000 	cmp	r3, #0	; 0x0
    62f8:	159f3248 	ldrne	r3, [pc, #584]	; 6548 <.text+0x5978>
    62fc:	108a4003 	addne	r4, sl, r3
    6300:	1affffcd 	bne	623c <open_verify+0x80>
    6304:	e59f3240 	ldr	r3, [pc, #576]	; 654c <.text+0x597c>
    6308:	e08a4003 	add	r4, sl, r3
    630c:	eaffffca 	b	623c <open_verify+0x80>
    6310:	e5953014 	ldr	r3, [r5, #20]
    6314:	e3530001 	cmp	r3, #1	; 0x1
    6318:	159f3230 	ldrne	r3, [pc, #560]	; 6550 <.text+0x5980>
    631c:	108a4003 	addne	r4, sl, r3
    6320:	1affffc5 	bne	623c <open_verify+0x80>
    6324:	e5d53012 	ldrb	r3, [r5, #18]
    6328:	e5d52013 	ldrb	r2, [r5, #19]
    632c:	e1833402 	orr	r3, r3, r2, lsl #8
    6330:	e3530028 	cmp	r3, #40	; 0x28
    6334:	1a000067 	bne	64d8 <open_verify+0x31c>
    6338:	e5d52010 	ldrb	r2, [r5, #16]
    633c:	e5d53011 	ldrb	r3, [r5, #17]
    6340:	e1823403 	orr	r3, r2, r3, lsl #8
    6344:	e3530003 	cmp	r3, #3	; 0x3
    6348:	0a000003 	beq	635c <open_verify+0x1a0>
    634c:	e3530002 	cmp	r3, #2	; 0x2
    6350:	159f31fc 	ldrne	r3, [pc, #508]	; 6554 <.text+0x5984>
    6354:	108a4003 	addne	r4, sl, r3
    6358:	1affffb7 	bne	623c <open_verify+0x80>
    635c:	e5d5302a 	ldrb	r3, [r5, #42]
    6360:	e5d5202b 	ldrb	r2, [r5, #43]
    6364:	e1833402 	orr	r3, r3, r2, lsl #8
    6368:	e3530020 	cmp	r3, #32	; 0x20
    636c:	159f31e4 	ldrne	r3, [pc, #484]	; 6558 <.text+0x5988>
    6370:	108a4003 	addne	r4, sl, r3
    6374:	1affffb0 	bne	623c <open_verify+0x80>
    6378:	e5d5202c 	ldrb	r2, [r5, #44]
    637c:	e5d5302d 	ldrb	r3, [r5, #45]
    6380:	e1824403 	orr	r4, r2, r3, lsl #8
    6384:	e1a04284 	mov	r4, r4, lsl #5
    6388:	e595101c 	ldr	r1, [r5, #28]
    638c:	e0842001 	add	r2, r4, r1
    6390:	e5983000 	ldr	r3, [r8]
    6394:	e1520003 	cmp	r2, r3
    6398:	90886001 	addls	r6, r8, r1
    639c:	92866004 	addls	r6, r6, #4	; 0x4
    63a0:	9a000014 	bls	63f8 <open_verify+0x23c>
    63a4:	e2843006 	add	r3, r4, #6	; 0x6
    63a8:	e3c333ff 	bic	r3, r3, #-67108861	; 0xfc000003
    63ac:	e3c3350f 	bic	r3, r3, #62914560	; 0x3c00000
    63b0:	e063d00d 	rsb	sp, r3, sp
    63b4:	e28d6008 	add	r6, sp, #8	; 0x8
    63b8:	e1a00007 	mov	r0, r7
    63bc:	e595101c 	ldr	r1, [r5, #28]
    63c0:	e3a02000 	mov	r2, #0	; 0x0
    63c4:	eb002911 	bl	10810 <__libc_lseek>
    63c8:	e1a00007 	mov	r0, r7
    63cc:	e1a01006 	mov	r1, r6
    63d0:	e1a02004 	mov	r2, r4
    63d4:	eb0028f5 	bl	107b0 <__libc_read>
    63d8:	e1500004 	cmp	r0, r4
    63dc:	0a000005 	beq	63f8 <open_verify+0x23c>
    63e0:	e59f313c 	ldr	r3, [pc, #316]	; 6524 <.text+0x5954>
    63e4:	e79a3003 	ldr	r3, [sl, r3]
    63e8:	e5939000 	ldr	r9, [r3]
    63ec:	e59f3138 	ldr	r3, [pc, #312]	; 652c <.text+0x595c>
    63f0:	e08a4003 	add	r4, sl, r3
    63f4:	eaffff90 	b	623c <open_verify+0x80>
    63f8:	e1a04006 	mov	r4, r6
    63fc:	e5d5302c 	ldrb	r3, [r5, #44]
    6400:	e5d5202d 	ldrb	r2, [r5, #45]
    6404:	e1833402 	orr	r3, r3, r2, lsl #8
    6408:	e0863283 	add	r3, r6, r3, lsl #5
    640c:	e1530006 	cmp	r3, r6
    6410:	9a00003f 	bls	6514 <open_verify+0x358>
    6414:	e5943000 	ldr	r3, [r4]
    6418:	e3530004 	cmp	r3, #4	; 0x4
    641c:	1a000035 	bne	64f8 <open_verify+0x33c>
    6420:	e5943010 	ldr	r3, [r4, #16]
    6424:	e3530020 	cmp	r3, #32	; 0x20
    6428:	1a000032 	bne	64f8 <open_verify+0x33c>
    642c:	e594301c 	ldr	r3, [r4, #28]
    6430:	e3530003 	cmp	r3, #3	; 0x3
    6434:	9a00002f 	bls	64f8 <open_verify+0x33c>
    6438:	e5941004 	ldr	r1, [r4, #4]
    643c:	e2812020 	add	r2, r1, #32	; 0x20
    6440:	e5983000 	ldr	r3, [r8]
    6444:	e1520003 	cmp	r2, r3
    6448:	90883001 	addls	r3, r8, r1
    644c:	92839004 	addls	r9, r3, #4	; 0x4
    6450:	9a00000a 	bls	6480 <open_verify+0x2c4>
    6454:	e1a00007 	mov	r0, r7
    6458:	e5941004 	ldr	r1, [r4, #4]
    645c:	e3a02000 	mov	r2, #0	; 0x0
    6460:	eb0028ea 	bl	10810 <__libc_lseek>
    6464:	e24b9048 	sub	r9, fp, #72	; 0x48
    6468:	e1a00007 	mov	r0, r7
    646c:	e1a01009 	mov	r1, r9
    6470:	e3a02020 	mov	r2, #32	; 0x20
    6474:	eb0028cd 	bl	107b0 <__libc_read>
    6478:	e3500020 	cmp	r0, #32	; 0x20
    647c:	1affffd7 	bne	63e0 <open_verify+0x224>
    6480:	e1a00009 	mov	r0, r9
    6484:	e59f30d0 	ldr	r3, [pc, #208]	; 655c <.text+0x598c>
    6488:	e79a1003 	ldr	r1, [sl, r3]
    648c:	e3a02010 	mov	r2, #16	; 0x10
    6490:	eb002c46 	bl	115b0 <bcmp>
    6494:	e3500000 	cmp	r0, #0	; 0x0
    6498:	1a000016 	bne	64f8 <open_verify+0x33c>
    649c:	e5d92014 	ldrb	r2, [r9, #20]
    64a0:	e5d93018 	ldrb	r3, [r9, #24]
    64a4:	e0832402 	add	r2, r3, r2, lsl #8
    64a8:	e5d9301c 	ldrb	r3, [r9, #28]
    64ac:	e0832402 	add	r2, r3, r2, lsl #8
    64b0:	e5993010 	ldr	r3, [r9, #16]
    64b4:	e3530000 	cmp	r3, #0	; 0x0
    64b8:	1a000006 	bne	64d8 <open_verify+0x31c>
    64bc:	e59f309c 	ldr	r3, [pc, #156]	; 6560 <.text+0x5990>
    64c0:	e79a3003 	ldr	r3, [sl, r3]
    64c4:	e5933008 	ldr	r3, [r3, #8]
    64c8:	e3530000 	cmp	r3, #0	; 0x0
    64cc:	0a000010 	beq	6514 <open_verify+0x358>
    64d0:	e1530002 	cmp	r3, r2
    64d4:	2a00000e 	bcs	6514 <open_verify+0x358>
    64d8:	e1a00007 	mov	r0, r7
    64dc:	eb0028a7 	bl	10780 <__close>
    64e0:	e3a03002 	mov	r3, #2	; 0x2
    64e4:	e59f2038 	ldr	r2, [pc, #56]	; 6524 <.text+0x5954>
    64e8:	e79a2002 	ldr	r2, [sl, r2]
    64ec:	e5823000 	str	r3, [r2]
    64f0:	e3e07000 	mvn	r7, #0	; 0x0
    64f4:	ea000006 	b	6514 <open_verify+0x358>
    64f8:	e2844020 	add	r4, r4, #32	; 0x20
    64fc:	e5d5302c 	ldrb	r3, [r5, #44]
    6500:	e5d5202d 	ldrb	r2, [r5, #45]
    6504:	e1833402 	orr	r3, r3, r2, lsl #8
    6508:	e0863283 	add	r3, r6, r3, lsl #5
    650c:	e1530004 	cmp	r3, r4
    6510:	8affffbf 	bhi	6414 <open_verify+0x258>
    6514:	e1a00007 	mov	r0, r7
    6518:	e24bd028 	sub	sp, fp, #40	; 0x28
    651c:	e89daff0 	ldmia	sp, {r4, r5, r6, r7, r8, r9, sl, fp, sp, pc}
    6520:	000173bc 	streqh	r7, [r1], -ip
    6524:	00000238 	andeq	r0, r0, r8, lsr r2
    6528:	ffff6944 	swinv	0x00ff6944
    652c:	ffff6714 	swinv	0x00ff6714
    6530:	000000c4 	andeq	r0, r0, r4, asr #1
    6534:	464c457f 	undefined
    6538:	ffff6954 	swinv	0x00ff6954
    653c:	ffff6968 	swinv	0x00ff6968
    6540:	ffff6994 	swinv	0x00ff6994
    6544:	ffff69c8 	swinv	0x00ff69c8
    6548:	ffff69e0 	swinv	0x00ff69e0
    654c:	ffff6a00 	swinv	0x00ff6a00
    6550:	ffff6a10 	swinv	0x00ff6a10
    6554:	ffff6a3c 	swinv	0x00ff6a3c
    6558:	ffff6a64 	swinv	0x00ff6a64
    655c:	000000c8 	andeq	r0, r0, r8, asr #1
    6560:	00000210 	andeq	r0, r0, r0, lsl r2

00006564 <open_path>:
    6564:	e1a0c00d 	mov	ip, sp
    6568:	e92ddff0 	stmdb	sp!, {r4, r5, r6, r7, r8, r9, sl, fp, ip, lr, pc}
    656c:	e24cb004 	sub	fp, ip, #4	; 0x4
    6570:	e24dd084 	sub	sp, sp, #132	; 0x84
    6574:	e59fa314 	ldr	sl, [pc, #788]	; 6890 <.text+0x5cc0>
    6578:	e08fa00a 	add	sl, pc, sl
    657c:	e50b008c 	str	r0, [fp, #-140]
    6580:	e50b1090 	str	r1, [fp, #-144]
    6584:	e50b2094 	str	r2, [fp, #-148]
    6588:	e50b3098 	str	r3, [fp, #-152]
    658c:	e5939000 	ldr	r9, [r3]
    6590:	e3e06000 	mvn	r6, #0	; 0x0
    6594:	e3a01000 	mov	r1, #0	; 0x0
    6598:	e50b10a0 	str	r1, [fp, #-160]
    659c:	e50b109c 	str	r1, [fp, #-156]
    65a0:	e59f32ec 	ldr	r3, [pc, #748]	; 6894 <.text+0x5cc4>
    65a4:	e79a3003 	ldr	r3, [sl, r3]
    65a8:	e5933000 	ldr	r3, [r3]
    65ac:	e59f22e4 	ldr	r2, [pc, #740]	; 6898 <.text+0x5cc8>
    65b0:	e79a2002 	ldr	r2, [sl, r2]
    65b4:	e5922000 	ldr	r2, [r2]
    65b8:	e0833002 	add	r3, r3, r2
    65bc:	e51b2090 	ldr	r2, [fp, #-144]
    65c0:	e0833002 	add	r3, r3, r2
    65c4:	e2833006 	add	r3, r3, #6	; 0x6
    65c8:	e3c33003 	bic	r3, r3, #3	; 0x3
    65cc:	e063d00d 	rsb	sp, r3, sp
    65d0:	e1a0700d 	mov	r7, sp
    65d4:	e59f32c0 	ldr	r3, [pc, #704]	; 689c <.text+0x5ccc>
    65d8:	e79a3003 	ldr	r3, [sl, r3]
    65dc:	e50b30ac 	str	r3, [fp, #-172]
    65e0:	e5995000 	ldr	r5, [r9]
    65e4:	e3a08000 	mov	r8, #0	; 0x0
    65e8:	e50b80a4 	str	r8, [fp, #-164]
    65ec:	e51b10ac 	ldr	r1, [fp, #-172]
    65f0:	e5913000 	ldr	r3, [r1]
    65f4:	e3130001 	tst	r3, #1	; 0x1
    65f8:	0a000008 	beq	6620 <open_path+0xbc>
    65fc:	e5953004 	ldr	r3, [r5, #4]
    6600:	e51b209c 	ldr	r2, [fp, #-156]
    6604:	e1530002 	cmp	r3, r2
    6608:	0a000004 	beq	6620 <open_path+0xbc>
    660c:	e50b309c 	str	r3, [fp, #-156]
    6610:	e1a00009 	mov	r0, r9
    6614:	e1a01003 	mov	r1, r3
    6618:	e5952008 	ldr	r2, [r5, #8]
    661c:	ebfffe66 	bl	5fbc <print_search_path>
    6620:	e1a00007 	mov	r0, r7
    6624:	e285100c 	add	r1, r5, #12	; 0xc
    6628:	e8910006 	ldmia	r1, {r1, r2}
    662c:	eb002c7b 	bl	11820 <__mempcpy>
    6630:	e50b00a8 	str	r0, [fp, #-168]
    6634:	e3a04000 	mov	r4, #0	; 0x0
    6638:	e3760001 	cmn	r6, #1	; 0x1
    663c:	1a000067 	bne	67e0 <open_path+0x27c>
    6640:	e59f3258 	ldr	r3, [pc, #600]	; 68a0 <.text+0x5cd0>
    6644:	e79a3003 	ldr	r3, [sl, r3]
    6648:	e5933000 	ldr	r3, [r3]
    664c:	e1540003 	cmp	r4, r3
    6650:	2a000060 	bcs	67d8 <open_path+0x274>
    6654:	e0853104 	add	r3, r5, r4, lsl #2
    6658:	e5933014 	ldr	r3, [r3, #20]
    665c:	e3530001 	cmp	r3, #1	; 0x1
    6660:	0a000054 	beq	67b8 <open_path+0x254>
    6664:	e59f3238 	ldr	r3, [pc, #568]	; 68a4 <.text+0x5cd4>
    6668:	e79a3003 	ldr	r3, [sl, r3]
    666c:	e5932000 	ldr	r2, [r3]
    6670:	e1a03184 	mov	r3, r4, lsl #3
    6674:	e083c002 	add	ip, r3, r2
    6678:	e51b00a8 	ldr	r0, [fp, #-168]
    667c:	e7931002 	ldr	r1, [r3, r2]
    6680:	e59c2004 	ldr	r2, [ip, #4]
    6684:	eb002c65 	bl	11820 <__mempcpy>
    6688:	e51b108c 	ldr	r1, [fp, #-140]
    668c:	e51b2090 	ldr	r2, [fp, #-144]
    6690:	eb002c62 	bl	11820 <__mempcpy>
    6694:	e0670000 	rsb	r0, r7, r0
    6698:	e50b00a4 	str	r0, [fp, #-164]
    669c:	e51b10ac 	ldr	r1, [fp, #-172]
    66a0:	e5913000 	ldr	r3, [r1]
    66a4:	e3130001 	tst	r3, #1	; 0x1
    66a8:	159f01f8 	ldrne	r0, [pc, #504]	; 68a8 <.text+0x5cd8>
    66ac:	108a0000 	addne	r0, sl, r0
    66b0:	11a01007 	movne	r1, r7
    66b4:	1b00186c 	blne	c86c <_dl_debug_printf>
    66b8:	e1a00007 	mov	r0, r7
    66bc:	e59b1008 	ldr	r1, [fp, #8]
    66c0:	ebfffebd 	bl	61bc <open_verify>
    66c4:	e1a06000 	mov	r6, r0
    66c8:	e0852104 	add	r2, r5, r4, lsl #2
    66cc:	e5923014 	ldr	r3, [r2, #20]
    66d0:	e3530000 	cmp	r3, #0	; 0x0
    66d4:	1a000019 	bne	6740 <open_path+0x1dc>
    66d8:	e3700001 	cmn	r0, #1	; 0x1
    66dc:	12833002 	addne	r3, r3, #2	; 0x2
    66e0:	15823014 	strne	r3, [r2, #20]
    66e4:	1a000015 	bne	6740 <open_path+0x1dc>
    66e8:	e51b10a4 	ldr	r1, [fp, #-164]
    66ec:	e51b2090 	ldr	r2, [fp, #-144]
    66f0:	e0623001 	rsb	r3, r2, r1
    66f4:	e0873003 	add	r3, r7, r3
    66f8:	e3a02000 	mov	r2, #0	; 0x0
    66fc:	e5432001 	strb	r2, [r3, #-1]
    6700:	e3a00003 	mov	r0, #3	; 0x3
    6704:	e1a01007 	mov	r1, r7
    6708:	e24b2088 	sub	r2, fp, #136	; 0x88
    670c:	eb0027ed 	bl	106c8 <__GI___xstat64>
    6710:	e3500000 	cmp	r0, #0	; 0x0
    6714:	1a000006 	bne	6734 <open_path+0x1d0>
    6718:	e51b3078 	ldr	r3, [fp, #-120]
    671c:	e2033a0f 	and	r3, r3, #61440	; 0xf000
    6720:	e3530901 	cmp	r3, #16384	; 0x4000
    6724:	00853104 	addeq	r3, r5, r4, lsl #2
    6728:	03a01002 	moveq	r1, #2	; 0x2
    672c:	05831014 	streq	r1, [r3, #20]
    6730:	0a000002 	beq	6740 <open_path+0x1dc>
    6734:	e0852104 	add	r2, r5, r4, lsl #2
    6738:	e3a03001 	mov	r3, #1	; 0x1
    673c:	e5823014 	str	r3, [r2, #20]
    6740:	e0853104 	add	r3, r5, r4, lsl #2
    6744:	e5933014 	ldr	r3, [r3, #20]
    6748:	e3530002 	cmp	r3, #2	; 0x2
    674c:	03888001 	orreq	r8, r8, #1	; 0x1
    6750:	e3760001 	cmn	r6, #1	; 0x1
    6754:	0a000017 	beq	67b8 <open_path+0x254>
    6758:	e51b2094 	ldr	r2, [fp, #-148]
    675c:	e3520000 	cmp	r2, #0	; 0x0
    6760:	0a000014 	beq	67b8 <open_path+0x254>
    6764:	e59f3140 	ldr	r3, [pc, #320]	; 68ac <.text+0x5cdc>
    6768:	e79a3003 	ldr	r3, [sl, r3]
    676c:	e5933000 	ldr	r3, [r3]
    6770:	e3530000 	cmp	r3, #0	; 0x0
    6774:	0a00000f 	beq	67b8 <open_path+0x254>
    6778:	e3a00003 	mov	r0, #3	; 0x3
    677c:	e1a01006 	mov	r1, r6
    6780:	e24b2088 	sub	r2, fp, #136	; 0x88
    6784:	eb0027e0 	bl	1070c <__GI___fxstat64>
    6788:	e3500000 	cmp	r0, #0	; 0x0
    678c:	1a000002 	bne	679c <open_path+0x238>
    6790:	e51b3078 	ldr	r3, [fp, #-120]
    6794:	e3130b02 	tst	r3, #2048	; 0x800
    6798:	1a000006 	bne	67b8 <open_path+0x254>
    679c:	e1a00006 	mov	r0, r6
    67a0:	eb0027f6 	bl	10780 <__close>
    67a4:	e3e06000 	mvn	r6, #0	; 0x0
    67a8:	e59f3100 	ldr	r3, [pc, #256]	; 68b0 <.text+0x5ce0>
    67ac:	e79a3003 	ldr	r3, [sl, r3]
    67b0:	e3a01002 	mov	r1, #2	; 0x2
    67b4:	e5831000 	str	r1, [r3]
    67b8:	e2844001 	add	r4, r4, #1	; 0x1
    67bc:	e3760001 	cmn	r6, #1	; 0x1
    67c0:	1a000006 	bne	67e0 <open_path+0x27c>
    67c4:	e59f30d4 	ldr	r3, [pc, #212]	; 68a0 <.text+0x5cd0>
    67c8:	e79a3003 	ldr	r3, [sl, r3]
    67cc:	e5933000 	ldr	r3, [r3]
    67d0:	e1540003 	cmp	r4, r3
    67d4:	3affff9e 	bcc	6654 <open_path+0xf0>
    67d8:	e3760001 	cmn	r6, #1	; 0x1
    67dc:	0a00000e 	beq	681c <open_path+0x2b8>
    67e0:	e51b00a4 	ldr	r0, [fp, #-164]
    67e4:	ebffe8f0 	bl	bac <GLIBC_2.0+0xbac>
    67e8:	e59b3004 	ldr	r3, [fp, #4]
    67ec:	e5830000 	str	r0, [r3]
    67f0:	e3500000 	cmp	r0, #0	; 0x0
    67f4:	0a000004 	beq	680c <open_path+0x2a8>
    67f8:	e1a01007 	mov	r1, r7
    67fc:	e51b20a4 	ldr	r2, [fp, #-164]
    6800:	eb002c33 	bl	118d4 <memcpy>
    6804:	e1a00006 	mov	r0, r6
    6808:	ea00001e 	b	6888 <open_path+0x324>
    680c:	e1a00006 	mov	r0, r6
    6810:	eb0027da 	bl	10780 <__close>
    6814:	e3e00000 	mvn	r0, #0	; 0x0
    6818:	ea00001a 	b	6888 <open_path+0x324>
    681c:	e3580000 	cmp	r8, #0	; 0x0
    6820:	0a000007 	beq	6844 <open_path+0x2e0>
    6824:	e59f3084 	ldr	r3, [pc, #132]	; 68b0 <.text+0x5ce0>
    6828:	e79a3003 	ldr	r3, [sl, r3]
    682c:	e5933000 	ldr	r3, [r3]
    6830:	e3530002 	cmp	r3, #2	; 0x2
    6834:	0a000002 	beq	6844 <open_path+0x2e0>
    6838:	e353000d 	cmp	r3, #13	; 0xd
    683c:	13e00000 	mvnne	r0, #0	; 0x0
    6840:	1a000010 	bne	6888 <open_path+0x324>
    6844:	e51b20a0 	ldr	r2, [fp, #-160]
    6848:	e1822008 	orr	r2, r2, r8
    684c:	e50b20a0 	str	r2, [fp, #-160]
    6850:	e5b93004 	ldr	r3, [r9, #4]!
    6854:	e3530000 	cmp	r3, #0	; 0x0
    6858:	1affff60 	bne	65e0 <open_path+0x7c>
    685c:	e3520000 	cmp	r2, #0	; 0x0
    6860:	1a000007 	bne	6884 <open_path+0x320>
    6864:	e51b1098 	ldr	r1, [fp, #-152]
    6868:	e5913004 	ldr	r3, [r1, #4]
    686c:	e3530000 	cmp	r3, #0	; 0x0
    6870:	15910000 	ldrne	r0, [r1]
    6874:	1bffe8cf 	blne	bb8 <GLIBC_2.0+0xbb8>
    6878:	e3e03000 	mvn	r3, #0	; 0x0
    687c:	e51b2098 	ldr	r2, [fp, #-152]
    6880:	e5823000 	str	r3, [r2]
    6884:	e3e00000 	mvn	r0, #0	; 0x0
    6888:	e24bd028 	sub	sp, fp, #40	; 0x28
    688c:	e89daff0 	ldmia	sp, {r4, r5, r6, r7, r8, r9, sl, fp, sp, pc}
    6890:	00017014 	andeq	r7, r1, r4, lsl r0
    6894:	000000a4 	andeq	r0, r0, r4, lsr #1
    6898:	000000ac 	andeq	r0, r0, ip, lsr #1
    689c:	00000210 	andeq	r0, r0, r0, lsl r2
    68a0:	000000a0 	andeq	r0, r0, r0, lsr #1
    68a4:	000000b0 	streqh	r0, [r0], -r0
    68a8:	ffff6a90 	swinv	0x00ff6a90
    68ac:	00000200 	andeq	r0, r0, r0, lsl #4
    68b0:	00000238 	andeq	r0, r0, r8, lsr r2

000068b4 <_dl_map_object>:
    68b4:	e92d4ff0 	stmdb	sp!, {r4, r5, r6, r7, r8, r9, sl, fp, lr}
    68b8:	e24dde23 	sub	sp, sp, #560	; 0x230
    68bc:	e59fa6d4 	ldr	sl, [pc, #1748]	; 6f98 <.text+0x63c8>
    68c0:	e08fa00a 	add	sl, pc, sl
    68c4:	e1a06000 	mov	r6, r0
    68c8:	e1a05001 	mov	r5, r1
    68cc:	e1a0b002 	mov	fp, r2
    68d0:	e58d3020 	str	r3, [sp, #32]
    68d4:	e59d925c 	ldr	r9, [sp, #604]
    68d8:	e3590000 	cmp	r9, #0	; 0x0
    68dc:	aa000008 	bge	6904 <_dl_map_object+0x50>
    68e0:	e59f06b4 	ldr	r0, [pc, #1716]	; 6f9c <.text+0x63cc>
    68e4:	e08a0000 	add	r0, sl, r0
    68e8:	e59f16b0 	ldr	r1, [pc, #1712]	; 6fa0 <.text+0x63d0>
    68ec:	e08a1001 	add	r1, sl, r1
    68f0:	e3a02e71 	mov	r2, #1808	; 0x710
    68f4:	e282200c 	add	r2, r2, #12	; 0xc
    68f8:	e59f36a4 	ldr	r3, [pc, #1700]	; 6fa4 <.text+0x63d4>
    68fc:	e79a3003 	ldr	r3, [sl, r3]
    6900:	eb0023ae 	bl	f7c0 <__GI___assert_fail>
    6904:	e359000f 	cmp	r9, #15	; 0xf
    6908:	da000008 	ble	6930 <_dl_map_object+0x7c>
    690c:	e59f0694 	ldr	r0, [pc, #1684]	; 6fa8 <.text+0x63d8>
    6910:	e08a0000 	add	r0, sl, r0
    6914:	e59f1684 	ldr	r1, [pc, #1668]	; 6fa0 <.text+0x63d0>
    6918:	e08a1001 	add	r1, sl, r1
    691c:	e3a02e71 	mov	r2, #1808	; 0x710
    6920:	e282200d 	add	r2, r2, #13	; 0xd
    6924:	e59f3678 	ldr	r3, [pc, #1656]	; 6fa4 <.text+0x63d4>
    6928:	e79a3003 	ldr	r3, [sl, r3]
    692c:	eb0023a3 	bl	f7c0 <__GI___assert_fail>
    6930:	e0893089 	add	r3, r9, r9, lsl #1
    6934:	e59f2670 	ldr	r2, [pc, #1648]	; 6fac <.text+0x63dc>
    6938:	e79a2002 	ldr	r2, [sl, r2]
    693c:	e7924183 	ldr	r4, [r2, r3, lsl #3]
    6940:	e3540000 	cmp	r4, #0	; 0x0
    6944:	0a000023 	beq	69d8 <_dl_map_object+0x124>
    6948:	e5d43181 	ldrb	r3, [r4, #385]
    694c:	e3130002 	tst	r3, #2	; 0x2
    6950:	1a00001d 	bne	69cc <_dl_map_object+0x118>
    6954:	e3130010 	tst	r3, #16	; 0x10
    6958:	1a00001b 	bne	69cc <_dl_map_object+0x118>
    695c:	e1a00005 	mov	r0, r5
    6960:	e1a01004 	mov	r1, r4
    6964:	eb0017e9 	bl	c910 <_dl_name_match_p>
    6968:	e3500000 	cmp	r0, #0	; 0x0
    696c:	1a000014 	bne	69c4 <_dl_map_object+0x110>
    6970:	e5d43181 	ldrb	r3, [r4, #385]
    6974:	e3130001 	tst	r3, #1	; 0x1
    6978:	1a000013 	bne	69cc <_dl_map_object+0x118>
    697c:	e5940058 	ldr	r0, [r4, #88]
    6980:	e3500000 	cmp	r0, #0	; 0x0
    6984:	0a000010 	beq	69cc <_dl_map_object+0x118>
    6988:	e5943034 	ldr	r3, [r4, #52]
    698c:	e5932004 	ldr	r2, [r3, #4]
    6990:	e5903004 	ldr	r3, [r0, #4]
    6994:	e0827003 	add	r7, r2, r3
    6998:	e1a00005 	mov	r0, r5
    699c:	e1a01007 	mov	r1, r7
    69a0:	eb002992 	bl	10ff0 <strcmp>
    69a4:	e3500000 	cmp	r0, #0	; 0x0
    69a8:	1a000007 	bne	69cc <_dl_map_object+0x118>
    69ac:	e1a00004 	mov	r0, r4
    69b0:	e1a01007 	mov	r1, r7
    69b4:	ebfff69d 	bl	4430 <add_name_to_object>
    69b8:	e5d43181 	ldrb	r3, [r4, #385]
    69bc:	e3833001 	orr	r3, r3, #1	; 0x1
    69c0:	e5c43181 	strb	r3, [r4, #385]
    69c4:	e1a00004 	mov	r0, r4
    69c8:	ea000170 	b	6f90 <_dl_map_object+0x6dc>
    69cc:	e594400c 	ldr	r4, [r4, #12]
    69d0:	e3540000 	cmp	r4, #0	; 0x0
    69d4:	1affffdb 	bne	6948 <_dl_map_object+0x94>
    69d8:	e59f35d0 	ldr	r3, [pc, #1488]	; 6fb0 <.text+0x63e0>
    69dc:	e79a3003 	ldr	r3, [sl, r3]
    69e0:	e5933000 	ldr	r3, [r3]
    69e4:	e3130040 	tst	r3, #64	; 0x40
    69e8:	0a000011 	beq	6a34 <_dl_map_object+0x180>
    69ec:	e3560000 	cmp	r6, #0	; 0x0
    69f0:	0a00000f 	beq	6a34 <_dl_map_object+0x180>
    69f4:	e5962004 	ldr	r2, [r6, #4]
    69f8:	e5d23000 	ldrb	r3, [r2]
    69fc:	e3530000 	cmp	r3, #0	; 0x0
    6a00:	11a0c002 	movne	ip, r2
    6a04:	059f35a8 	ldreq	r3, [pc, #1448]	; 6fb4 <.text+0x63e4>
    6a08:	079a3003 	ldreq	r3, [sl, r3]
    6a0c:	05933000 	ldreq	r3, [r3]
    6a10:	0593c000 	ldreq	ip, [r3]
    6a14:	e5963018 	ldr	r3, [r6, #24]
    6a18:	e58d3000 	str	r3, [sp]
    6a1c:	e59f0594 	ldr	r0, [pc, #1428]	; 6fb8 <.text+0x63e8>
    6a20:	e08a0000 	add	r0, sl, r0
    6a24:	e1a01005 	mov	r1, r5
    6a28:	e1a02009 	mov	r2, r9
    6a2c:	e1a0300c 	mov	r3, ip
    6a30:	eb00178d 	bl	c86c <_dl_debug_printf>
    6a34:	e1a00005 	mov	r0, r5
    6a38:	e3a0102f 	mov	r1, #47	; 0x2f
    6a3c:	eb00292b 	bl	10ef0 <index>
    6a40:	e3500000 	cmp	r0, #0	; 0x0
    6a44:	1a0000e9 	bne	6df0 <_dl_map_object+0x53c>
    6a48:	e1a00005 	mov	r0, r5
    6a4c:	eb002973 	bl	11020 <strlen>
    6a50:	e2800001 	add	r0, r0, #1	; 0x1
    6a54:	e58d001c 	str	r0, [sp, #28]
    6a58:	e59f3550 	ldr	r3, [pc, #1360]	; 6fb0 <.text+0x63e0>
    6a5c:	e79a3003 	ldr	r3, [sl, r3]
    6a60:	e5933000 	ldr	r3, [r3]
    6a64:	e3130001 	tst	r3, #1	; 0x1
    6a68:	0a000004 	beq	6a80 <_dl_map_object+0x1cc>
    6a6c:	e59f0548 	ldr	r0, [pc, #1352]	; 6fbc <.text+0x63ec>
    6a70:	e08a0000 	add	r0, sl, r0
    6a74:	e1a01005 	mov	r1, r5
    6a78:	e1a02009 	mov	r2, r9
    6a7c:	eb00177a 	bl	c86c <_dl_debug_printf>
    6a80:	e3e08000 	mvn	r8, #0	; 0x0
    6a84:	e3560000 	cmp	r6, #0	; 0x0
    6a88:	0a000002 	beq	6a98 <_dl_map_object+0x1e4>
    6a8c:	e5963094 	ldr	r3, [r6, #148]
    6a90:	e3530000 	cmp	r3, #0	; 0x0
    6a94:	1a00003f 	bne	6b98 <_dl_map_object+0x2e4>
    6a98:	e1a04006 	mov	r4, r6
    6a9c:	e2563000 	subs	r3, r6, #0	; 0x0
    6aa0:	13a03001 	movne	r3, #1	; 0x1
    6aa4:	e3780001 	cmn	r8, #1	; 0x1
    6aa8:	13a03000 	movne	r3, #0	; 0x0
    6aac:	e3530000 	cmp	r3, #0	; 0x0
    6ab0:	0a000019 	beq	6b1c <_dl_map_object+0x268>
    6ab4:	e2847f63 	add	r7, r4, #396	; 0x18c
    6ab8:	e1a00004 	mov	r0, r4
    6abc:	e1a01007 	mov	r1, r7
    6ac0:	e3a0200f 	mov	r2, #15	; 0xf
    6ac4:	e59f34f4 	ldr	r3, [pc, #1268]	; 6fc0 <.text+0x63f0>
    6ac8:	e08a3003 	add	r3, sl, r3
    6acc:	ebfff7ca 	bl	49fc <cache_rpath>
    6ad0:	e31000ff 	tst	r0, #255	; 0xff
    6ad4:	0a000009 	beq	6b00 <_dl_map_object+0x24c>
    6ad8:	e28d3028 	add	r3, sp, #40	; 0x28
    6adc:	e58d3000 	str	r3, [sp]
    6ae0:	e28d302c 	add	r3, sp, #44	; 0x2c
    6ae4:	e58d3004 	str	r3, [sp, #4]
    6ae8:	e1a00005 	mov	r0, r5
    6aec:	e59d101c 	ldr	r1, [sp, #28]
    6af0:	e1a0200b 	mov	r2, fp
    6af4:	e1a03007 	mov	r3, r7
    6af8:	ebfffe99 	bl	6564 <open_path>
    6afc:	e1a08000 	mov	r8, r0
    6b00:	e5944168 	ldr	r4, [r4, #360]
    6b04:	e2543000 	subs	r3, r4, #0	; 0x0
    6b08:	13a03001 	movne	r3, #1	; 0x1
    6b0c:	e3780001 	cmn	r8, #1	; 0x1
    6b10:	13a03000 	movne	r3, #0	; 0x0
    6b14:	e3530000 	cmp	r3, #0	; 0x0
    6b18:	1affffe5 	bne	6ab4 <_dl_map_object+0x200>
    6b1c:	e3780001 	cmn	r8, #1	; 0x1
    6b20:	1a00002d 	bne	6bdc <_dl_map_object+0x328>
    6b24:	e59f3480 	ldr	r3, [pc, #1152]	; 6fac <.text+0x63dc>
    6b28:	e79a3003 	ldr	r3, [sl, r3]
    6b2c:	e5934000 	ldr	r4, [r3]
    6b30:	e3540000 	cmp	r4, #0	; 0x0
    6b34:	0a000017 	beq	6b98 <_dl_map_object+0x2e4>
    6b38:	e5d43180 	ldrb	r3, [r4, #384]
    6b3c:	e2033003 	and	r3, r3, #3	; 0x3
    6b40:	e3530002 	cmp	r3, #2	; 0x2
    6b44:	11540006 	cmpne	r4, r6
    6b48:	0a000012 	beq	6b98 <_dl_map_object+0x2e4>
    6b4c:	e2847f63 	add	r7, r4, #396	; 0x18c
    6b50:	e1a00004 	mov	r0, r4
    6b54:	e1a01007 	mov	r1, r7
    6b58:	e3a0200f 	mov	r2, #15	; 0xf
    6b5c:	e59f345c 	ldr	r3, [pc, #1116]	; 6fc0 <.text+0x63f0>
    6b60:	e08a3003 	add	r3, sl, r3
    6b64:	ebfff7a4 	bl	49fc <cache_rpath>
    6b68:	e31000ff 	tst	r0, #255	; 0xff
    6b6c:	0a000009 	beq	6b98 <_dl_map_object+0x2e4>
    6b70:	e28d3028 	add	r3, sp, #40	; 0x28
    6b74:	e58d3000 	str	r3, [sp]
    6b78:	e28d302c 	add	r3, sp, #44	; 0x2c
    6b7c:	e58d3004 	str	r3, [sp, #4]
    6b80:	e1a00005 	mov	r0, r5
    6b84:	e59d101c 	ldr	r1, [sp, #28]
    6b88:	e1a0200b 	mov	r2, fp
    6b8c:	e1a03007 	mov	r3, r7
    6b90:	ebfffe73 	bl	6564 <open_path>
    6b94:	e1a08000 	mov	r8, r0
    6b98:	e3780001 	cmn	r8, #1	; 0x1
    6b9c:	1a00000e 	bne	6bdc <_dl_map_object+0x328>
    6ba0:	e59f341c 	ldr	r3, [pc, #1052]	; 6fc4 <.text+0x63f4>
    6ba4:	e79ac003 	ldr	ip, [sl, r3]
    6ba8:	e59c3000 	ldr	r3, [ip]
    6bac:	e3730001 	cmn	r3, #1	; 0x1
    6bb0:	0a000009 	beq	6bdc <_dl_map_object+0x328>
    6bb4:	e28d3028 	add	r3, sp, #40	; 0x28
    6bb8:	e58d3000 	str	r3, [sp]
    6bbc:	e28d302c 	add	r3, sp, #44	; 0x2c
    6bc0:	e58d3004 	str	r3, [sp, #4]
    6bc4:	e1a00005 	mov	r0, r5
    6bc8:	e59d101c 	ldr	r1, [sp, #28]
    6bcc:	e1a0200b 	mov	r2, fp
    6bd0:	e1a0300c 	mov	r3, ip
    6bd4:	ebfffe62 	bl	6564 <open_path>
    6bd8:	e1a08000 	mov	r8, r0
    6bdc:	e2563000 	subs	r3, r6, #0	; 0x0
    6be0:	13a03001 	movne	r3, #1	; 0x1
    6be4:	e3780001 	cmn	r8, #1	; 0x1
    6be8:	13a03000 	movne	r3, #0	; 0x0
    6bec:	e3530000 	cmp	r3, #0	; 0x0
    6bf0:	0a000012 	beq	6c40 <_dl_map_object+0x38c>
    6bf4:	e2864f77 	add	r4, r6, #476	; 0x1dc
    6bf8:	e1a00006 	mov	r0, r6
    6bfc:	e1a01004 	mov	r1, r4
    6c00:	e3a0201d 	mov	r2, #29	; 0x1d
    6c04:	e59f33bc 	ldr	r3, [pc, #956]	; 6fc8 <.text+0x63f8>
    6c08:	e08a3003 	add	r3, sl, r3
    6c0c:	ebfff77a 	bl	49fc <cache_rpath>
    6c10:	e31000ff 	tst	r0, #255	; 0xff
    6c14:	0a000009 	beq	6c40 <_dl_map_object+0x38c>
    6c18:	e28d3028 	add	r3, sp, #40	; 0x28
    6c1c:	e58d3000 	str	r3, [sp]
    6c20:	e28d302c 	add	r3, sp, #44	; 0x2c
    6c24:	e58d3004 	str	r3, [sp, #4]
    6c28:	e1a00005 	mov	r0, r5
    6c2c:	e59d101c 	ldr	r1, [sp, #28]
    6c30:	e1a0200b 	mov	r2, fp
    6c34:	e1a03004 	mov	r3, r4
    6c38:	ebfffe49 	bl	6564 <open_path>
    6c3c:	e1a08000 	mov	r8, r0
    6c40:	e3780001 	cmn	r8, #1	; 0x1
    6c44:	1a000060 	bne	6dcc <_dl_map_object+0x518>
    6c48:	e35b0000 	cmp	fp, #0	; 0x0
    6c4c:	0a000004 	beq	6c64 <_dl_map_object+0x3b0>
    6c50:	e59f3374 	ldr	r3, [pc, #884]	; 6fcc <.text+0x63fc>
    6c54:	e79a3003 	ldr	r3, [sl, r3]
    6c58:	e5933000 	ldr	r3, [r3]
    6c5c:	e3530000 	cmp	r3, #0	; 0x0
    6c60:	1a00003d 	bne	6d5c <_dl_map_object+0x4a8>
    6c64:	e1a00005 	mov	r0, r5
    6c68:	eb0001b8 	bl	7350 <_dl_load_cache_lookup>
    6c6c:	e2507000 	subs	r7, r0, #0	; 0x0
    6c70:	0a000039 	beq	6d5c <_dl_map_object+0x4a8>
    6c74:	e3560000 	cmp	r6, #0	; 0x0
    6c78:	11a04006 	movne	r4, r6
    6c7c:	1a000005 	bne	6c98 <_dl_map_object+0x3e4>
    6c80:	ea000001 	b	6c8c <_dl_map_object+0x3d8>
    6c84:	e1a07000 	mov	r7, r0
    6c88:	ea00001c 	b	6d00 <_dl_map_object+0x44c>
    6c8c:	e59f3318 	ldr	r3, [pc, #792]	; 6fac <.text+0x63dc>
    6c90:	e79a3003 	ldr	r3, [sl, r3]
    6c94:	e5934000 	ldr	r4, [r3]
    6c98:	e59431f8 	ldr	r3, [r4, #504]
    6c9c:	e3130b02 	tst	r3, #2048	; 0x800
    6ca0:	0a000016 	beq	6d00 <_dl_map_object+0x44c>
    6ca4:	e59f3324 	ldr	r3, [pc, #804]	; 6fd0 <.text+0x6400>
    6ca8:	e79a3003 	ldr	r3, [sl, r3]
    6cac:	e58d3018 	str	r3, [sp, #24]
    6cb0:	e3a04000 	mov	r4, #0	; 0x0
    6cb4:	e59f3318 	ldr	r3, [pc, #792]	; 6fd4 <.text+0x6404>
    6cb8:	e79a3003 	ldr	r3, [sl, r3]
    6cbc:	e58d3014 	str	r3, [sp, #20]
    6cc0:	e1a00007 	mov	r0, r7
    6cc4:	e59d1018 	ldr	r1, [sp, #24]
    6cc8:	e59d3014 	ldr	r3, [sp, #20]
    6ccc:	e7932104 	ldr	r2, [r3, r4, lsl #2]
    6cd0:	eb002a36 	bl	115b0 <bcmp>
    6cd4:	e3500000 	cmp	r0, #0	; 0x0
    6cd8:	0affffe9 	beq	6c84 <_dl_map_object+0x3d0>
    6cdc:	e59d2014 	ldr	r2, [sp, #20]
    6ce0:	e7923104 	ldr	r3, [r2, r4, lsl #2]
    6ce4:	e59d2018 	ldr	r2, [sp, #24]
    6ce8:	e0823003 	add	r3, r2, r3
    6cec:	e2833001 	add	r3, r3, #1	; 0x1
    6cf0:	e58d3018 	str	r3, [sp, #24]
    6cf4:	e2844001 	add	r4, r4, #1	; 0x1
    6cf8:	e3540001 	cmp	r4, #1	; 0x1
    6cfc:	9affffef 	bls	6cc0 <_dl_map_object+0x40c>
    6d00:	e3570000 	cmp	r7, #0	; 0x0
    6d04:	0a000014 	beq	6d5c <_dl_map_object+0x4a8>
    6d08:	e1a00007 	mov	r0, r7
    6d0c:	e28d102c 	add	r1, sp, #44	; 0x2c
    6d10:	ebfffd29 	bl	61bc <open_verify>
    6d14:	e1a08000 	mov	r8, r0
    6d18:	e3700001 	cmn	r0, #1	; 0x1
    6d1c:	0a000010 	beq	6d64 <_dl_map_object+0x4b0>
    6d20:	e1a00007 	mov	r0, r7
    6d24:	eb0028bd 	bl	11020 <strlen>
    6d28:	e2804001 	add	r4, r0, #1	; 0x1
    6d2c:	e1a00004 	mov	r0, r4
    6d30:	ebffe79d 	bl	bac <GLIBC_2.0+0xbac>
    6d34:	e3500000 	cmp	r0, #0	; 0x0
    6d38:	11a01007 	movne	r1, r7
    6d3c:	11a02004 	movne	r2, r4
    6d40:	1b002ae3 	blne	118d4 <memcpy>
    6d44:	e58d0028 	str	r0, [sp, #40]
    6d48:	e3500000 	cmp	r0, #0	; 0x0
    6d4c:	1a000002 	bne	6d5c <_dl_map_object+0x4a8>
    6d50:	e1a00008 	mov	r0, r8
    6d54:	eb002689 	bl	10780 <__close>
    6d58:	e3e08000 	mvn	r8, #0	; 0x0
    6d5c:	e3780001 	cmn	r8, #1	; 0x1
    6d60:	1a000019 	bne	6dcc <_dl_map_object+0x518>
    6d64:	e3560000 	cmp	r6, #0	; 0x0
    6d68:	11a04006 	movne	r4, r6
    6d6c:	00893089 	addeq	r3, r9, r9, lsl #1
    6d70:	059f2234 	ldreq	r2, [pc, #564]	; 6fac <.text+0x63dc>
    6d74:	079a2002 	ldreq	r2, [sl, r2]
    6d78:	07924183 	ldreq	r4, [r2, r3, lsl #3]
    6d7c:	e3540000 	cmp	r4, #0	; 0x0
    6d80:	0a000002 	beq	6d90 <_dl_map_object+0x4dc>
    6d84:	e59431f8 	ldr	r3, [r4, #504]
    6d88:	e3130b02 	tst	r3, #2048	; 0x800
    6d8c:	1a00000e 	bne	6dcc <_dl_map_object+0x518>
    6d90:	e59f3240 	ldr	r3, [pc, #576]	; 6fd8 <.text+0x6408>
    6d94:	e79ac003 	ldr	ip, [sl, r3]
    6d98:	e59c3000 	ldr	r3, [ip]
    6d9c:	e3730001 	cmn	r3, #1	; 0x1
    6da0:	0a000009 	beq	6dcc <_dl_map_object+0x518>
    6da4:	e28d3028 	add	r3, sp, #40	; 0x28
    6da8:	e58d3000 	str	r3, [sp]
    6dac:	e28d302c 	add	r3, sp, #44	; 0x2c
    6db0:	e58d3004 	str	r3, [sp, #4]
    6db4:	e1a00005 	mov	r0, r5
    6db8:	e59d101c 	ldr	r1, [sp, #28]
    6dbc:	e1a0200b 	mov	r2, fp
    6dc0:	e1a0300c 	mov	r3, ip
    6dc4:	ebfffde6 	bl	6564 <open_path>
    6dc8:	e1a08000 	mov	r8, r0
    6dcc:	e59f31dc 	ldr	r3, [pc, #476]	; 6fb0 <.text+0x63e0>
    6dd0:	e79a3003 	ldr	r3, [sl, r3]
    6dd4:	e5933000 	ldr	r3, [r3]
    6dd8:	e3130001 	tst	r3, #1	; 0x1
    6ddc:	0a00001e 	beq	6e5c <_dl_map_object+0x5a8>
    6de0:	e59f01f4 	ldr	r0, [pc, #500]	; 6fdc <.text+0x640c>
    6de4:	e08a0000 	add	r0, sl, r0
    6de8:	eb00169f 	bl	c86c <_dl_debug_printf>
    6dec:	ea00001a 	b	6e5c <_dl_map_object+0x5a8>
    6df0:	e3560000 	cmp	r6, #0	; 0x0
    6df4:	0a000003 	beq	6e08 <_dl_map_object+0x554>
    6df8:	e1a00006 	mov	r0, r6
    6dfc:	e1a01005 	mov	r1, r5
    6e00:	ebfff536 	bl	42e0 <expand_dynamic_string_token>
    6e04:	ea000009 	b	6e30 <_dl_map_object+0x57c>
    6e08:	e1a07005 	mov	r7, r5
    6e0c:	e1a00005 	mov	r0, r5
    6e10:	eb002882 	bl	11020 <strlen>
    6e14:	e2804001 	add	r4, r0, #1	; 0x1
    6e18:	e1a00004 	mov	r0, r4
    6e1c:	ebffe762 	bl	bac <GLIBC_2.0+0xbac>
    6e20:	e3500000 	cmp	r0, #0	; 0x0
    6e24:	11a01005 	movne	r1, r5
    6e28:	11a02004 	movne	r2, r4
    6e2c:	1b002aa8 	blne	118d4 <memcpy>
    6e30:	e58d0028 	str	r0, [sp, #40]
    6e34:	e3500000 	cmp	r0, #0	; 0x0
    6e38:	03e08000 	mvneq	r8, #0	; 0x0
    6e3c:	0a000006 	beq	6e5c <_dl_map_object+0x5a8>
    6e40:	e59d0028 	ldr	r0, [sp, #40]
    6e44:	e28d102c 	add	r1, sp, #44	; 0x2c
    6e48:	ebfffcdb 	bl	61bc <open_verify>
    6e4c:	e1a08000 	mov	r8, r0
    6e50:	e3700001 	cmn	r0, #1	; 0x1
    6e54:	059d0028 	ldreq	r0, [sp, #40]
    6e58:	0bffe756 	bleq	bb8 <GLIBC_2.0+0xbb8>
    6e5c:	e59d3258 	ldr	r3, [sp, #600]
    6e60:	e3130201 	tst	r3, #268435456	; 0x10000000
    6e64:	13a06000 	movne	r6, #0	; 0x0
    6e68:	e3780001 	cmn	r8, #1	; 0x1
    6e6c:	1a000036 	bne	6f4c <_dl_map_object+0x698>
    6e70:	e59d3254 	ldr	r3, [sp, #596]
    6e74:	e3530000 	cmp	r3, #0	; 0x0
    6e78:	0a00002b 	beq	6f2c <_dl_map_object+0x678>
    6e7c:	e59f312c 	ldr	r3, [pc, #300]	; 6fb0 <.text+0x63e0>
    6e80:	e79a3003 	ldr	r3, [sl, r3]
    6e84:	e5933000 	ldr	r3, [r3]
    6e88:	e3130b01 	tst	r3, #1024	; 0x400
    6e8c:	1a000026 	bne	6f2c <_dl_map_object+0x678>
    6e90:	e1a07005 	mov	r7, r5
    6e94:	e1a00005 	mov	r0, r5
    6e98:	eb002860 	bl	11020 <strlen>
    6e9c:	e2804001 	add	r4, r0, #1	; 0x1
    6ea0:	e1a00004 	mov	r0, r4
    6ea4:	ebffe740 	bl	bac <GLIBC_2.0+0xbac>
    6ea8:	e3500000 	cmp	r0, #0	; 0x0
    6eac:	11a01005 	movne	r1, r5
    6eb0:	11a02004 	movne	r2, r4
    6eb4:	1b002a86 	blne	118d4 <memcpy>
    6eb8:	e3500000 	cmp	r0, #0	; 0x0
    6ebc:	0a000007 	beq	6ee0 <_dl_map_object+0x62c>
    6ec0:	e59d2258 	ldr	r2, [sp, #600]
    6ec4:	e88d0204 	stmia	sp, {r2, r9}
    6ec8:	e1a01005 	mov	r1, r5
    6ecc:	e59d2020 	ldr	r2, [sp, #32]
    6ed0:	e1a03006 	mov	r3, r6
    6ed4:	eb00068d 	bl	8910 <_dl_new_object>
    6ed8:	e2504000 	subs	r4, r0, #0	; 0x0
    6edc:	1a000005 	bne	6ef8 <_dl_map_object+0x644>
    6ee0:	e3a0000c 	mov	r0, #12	; 0xc
    6ee4:	e1a01005 	mov	r1, r5
    6ee8:	e3a02000 	mov	r2, #0	; 0x0
    6eec:	e59f30ec 	ldr	r3, [pc, #236]	; 6fe0 <.text+0x6410>
    6ef0:	e08a3003 	add	r3, sl, r3
    6ef4:	eb00124c 	bl	b82c <_dl_signal_error>
    6ef8:	e5d43181 	ldrb	r3, [r4, #385]
    6efc:	e3833002 	orr	r3, r3, #2	; 0x2
    6f00:	e5c43181 	strb	r3, [r4, #385]
    6f04:	e59f30d8 	ldr	r3, [pc, #216]	; 6fe4 <.text+0x6414>
    6f08:	e79a3003 	ldr	r3, [sl, r3]
    6f0c:	e5843170 	str	r3, [r4, #368]
    6f10:	e3a03001 	mov	r3, #1	; 0x1
    6f14:	e584316c 	str	r3, [r4, #364]
    6f18:	e5d43180 	ldrb	r3, [r4, #384]
    6f1c:	e3833004 	orr	r3, r3, #4	; 0x4
    6f20:	e5c43180 	strb	r3, [r4, #384]
    6f24:	e1a00004 	mov	r0, r4
    6f28:	ea000018 	b	6f90 <_dl_map_object+0x6dc>
    6f2c:	e59f30b4 	ldr	r3, [pc, #180]	; 6fe8 <.text+0x6418>
    6f30:	e79a3003 	ldr	r3, [sl, r3]
    6f34:	e5930000 	ldr	r0, [r3]
    6f38:	e1a01005 	mov	r1, r5
    6f3c:	e3a02000 	mov	r2, #0	; 0x0
    6f40:	e59f30a4 	ldr	r3, [pc, #164]	; 6fec <.text+0x641c>
    6f44:	e08a3003 	add	r3, sl, r3
    6f48:	eb001237 	bl	b82c <_dl_signal_error>
    6f4c:	e59f309c 	ldr	r3, [pc, #156]	; 6ff0 <.text+0x6420>
    6f50:	e79a3003 	ldr	r3, [sl, r3]
    6f54:	e5933000 	ldr	r3, [r3]
    6f58:	e58d3024 	str	r3, [sp, #36]
    6f5c:	e58d6000 	str	r6, [sp]
    6f60:	e59d3020 	ldr	r3, [sp, #32]
    6f64:	e58d3004 	str	r3, [sp, #4]
    6f68:	e59d2258 	ldr	r2, [sp, #600]
    6f6c:	e58d2008 	str	r2, [sp, #8]
    6f70:	e28d3024 	add	r3, sp, #36	; 0x24
    6f74:	e58d300c 	str	r3, [sp, #12]
    6f78:	e58d9010 	str	r9, [sp, #16]
    6f7c:	e1a00005 	mov	r0, r5
    6f80:	e1a01008 	mov	r1, r8
    6f84:	e28d202c 	add	r2, sp, #44	; 0x2c
    6f88:	e59d3028 	ldr	r3, [sp, #40]
    6f8c:	ebfff800 	bl	4f94 <_dl_map_object_from_fd>
    6f90:	e28dde23 	add	sp, sp, #560	; 0x230
    6f94:	e8bd8ff0 	ldmia	sp!, {r4, r5, r6, r7, r8, r9, sl, fp, pc}
    6f98:	00016ccc 	andeq	r6, r1, ip, asr #25
    6f9c:	ffff6aa4 	swinv	0x00ff6aa4
    6fa0:	ffff64d0 	swinv	0x00ff64d0
    6fa4:	000000cc 	andeq	r0, r0, ip, asr #1
    6fa8:	ffff6ab0 	swinv	0x00ff6ab0
    6fac:	0000023c 	andeq	r0, r0, ip, lsr r2
    6fb0:	00000210 	andeq	r0, r0, r0, lsl r2
    6fb4:	000001d8 	ldreqd	r0, [r0], -r8
    6fb8:	ffff6abc 	swinv	0x00ff6abc
    6fbc:	ffff6ae4 	swinv	0x00ff6ae4
    6fc0:	ffff65cc 	swinv	0x00ff65cc
    6fc4:	000000b8 	streqh	r0, [r0], -r8
    6fc8:	ffff65c4 	swinv	0x00ff65c4
    6fcc:	00000200 	andeq	r0, r0, r0, lsl #4
    6fd0:	0000008c 	andeq	r0, r0, ip, lsl #1
    6fd4:	00000090 	muleq	r0, r0, r0
    6fd8:	000000b4 	streqh	r0, [r0], -r4
    6fdc:	ffff6c8c 	swinv	0x00ff6c8c
    6fe0:	ffff66ec 	swinv	0x00ff66ec
    6fe4:	000000d0 	ldreqd	r0, [r0], -r0
    6fe8:	00000238 	andeq	r0, r0, r8, lsr r2
    6fec:	ffff6b08 	swinv	0x00ff6b08
    6ff0:	00000230 	andeq	r0, r0, r0, lsr r2

00006ff4 <add_path.11>:
    6ff4:	e92d40f0 	stmdb	sp!, {r4, r5, r6, r7, lr}
    6ff8:	e24dd004 	sub	sp, sp, #4	; 0x4
    6ffc:	e58dc000 	str	ip, [sp]
    7000:	e1a07001 	mov	r7, r1
    7004:	e1a0500c 	mov	r5, ip
    7008:	e5900000 	ldr	r0, [r0]
    700c:	e3700001 	cmn	r0, #1	; 0x1
    7010:	0a000021 	beq	709c <add_path.11+0xa8>
    7014:	e1a06000 	mov	r6, r0
    7018:	e496c004 	ldr	ip, [r6], #4
    701c:	e5553009 	ldrb	r3, [r5, #-9]
    7020:	e3530000 	cmp	r3, #0	; 0x0
    7024:	0a000009 	beq	7050 <add_path.11+0x5c>
    7028:	e5152010 	ldr	r2, [r5, #-16]
    702c:	e5923004 	ldr	r3, [r2, #4]
    7030:	e2833001 	add	r3, r3, #1	; 0x1
    7034:	e5823004 	str	r3, [r2, #4]
    7038:	e5151010 	ldr	r1, [r5, #-16]
    703c:	e5913000 	ldr	r3, [r1]
    7040:	e59c2010 	ldr	r2, [ip, #16]
    7044:	e0833002 	add	r3, r3, r2
    7048:	e5813000 	str	r3, [r1]
    704c:	ea00000f 	b	7090 <add_path.11+0x9c>
    7050:	e5153004 	ldr	r3, [r5, #-4]
    7054:	e5154010 	ldr	r4, [r5, #-16]
    7058:	e0844183 	add	r4, r4, r3, lsl #3
    705c:	e2833001 	add	r3, r3, #1	; 0x1
    7060:	e5053004 	str	r3, [r5, #-4]
    7064:	e5153008 	ldr	r3, [r5, #-8]
    7068:	e5a43008 	str	r3, [r4, #8]!
    706c:	e59c2010 	ldr	r2, [ip, #16]
    7070:	e5150008 	ldr	r0, [r5, #-8]
    7074:	e59c100c 	ldr	r1, [ip, #12]
    7078:	e2422001 	sub	r2, r2, #1	; 0x1
    707c:	eb0029e7 	bl	11820 <__mempcpy>
    7080:	e3a03000 	mov	r3, #0	; 0x0
    7084:	e4c03001 	strb	r3, [r0], #1
    7088:	e5050008 	str	r0, [r5, #-8]
    708c:	e5847004 	str	r7, [r4, #4]
    7090:	e5963000 	ldr	r3, [r6]
    7094:	e3530000 	cmp	r3, #0	; 0x0
    7098:	1affffde 	bne	7018 <add_path.11+0x24>
    709c:	e28dd004 	add	sp, sp, #4	; 0x4
    70a0:	e8bd80f0 	ldmia	sp!, {r4, r5, r6, r7, pc}

000070a4 <_dl_rtld_di_serinfo>:
    70a4:	e92d44f0 	stmdb	sp!, {r4, r5, r6, r7, sl, lr}
    70a8:	e24dd010 	sub	sp, sp, #16	; 0x10
    70ac:	e59fa178 	ldr	sl, [pc, #376]	; 722c <.text+0x665c>
    70b0:	e08fa00a 	add	sl, pc, sl
    70b4:	e1a06000 	mov	r6, r0
    70b8:	e58d1000 	str	r1, [sp]
    70bc:	e5cd2007 	strb	r2, [sp, #7]
    70c0:	e5dd3007 	ldrb	r3, [sp, #7]
    70c4:	e3530000 	cmp	r3, #0	; 0x0
    70c8:	13a03000 	movne	r3, #0	; 0x0
    70cc:	15813004 	strne	r3, [r1, #4]
    70d0:	159d2000 	ldrne	r2, [sp]
    70d4:	15823000 	strne	r3, [r2]
    70d8:	e3a03000 	mov	r3, #0	; 0x0
    70dc:	e58d300c 	str	r3, [sp, #12]
    70e0:	e59d3000 	ldr	r3, [sp]
    70e4:	e5932004 	ldr	r2, [r3, #4]
    70e8:	e0833182 	add	r3, r3, r2, lsl #3
    70ec:	e2833008 	add	r3, r3, #8	; 0x8
    70f0:	e58d3008 	str	r3, [sp, #8]
    70f4:	e5903094 	ldr	r3, [r0, #148]
    70f8:	e3530000 	cmp	r3, #0	; 0x0
    70fc:	1a000028 	bne	71a4 <_dl_rtld_di_serinfo+0x100>
    7100:	e1a04000 	mov	r4, r0
    7104:	e2845f63 	add	r5, r4, #396	; 0x18c
    7108:	e1a00004 	mov	r0, r4
    710c:	e1a01005 	mov	r1, r5
    7110:	e3a0200f 	mov	r2, #15	; 0xf
    7114:	e59f3114 	ldr	r3, [pc, #276]	; 7230 <.text+0x6660>
    7118:	e08a3003 	add	r3, sl, r3
    711c:	ebfff636 	bl	49fc <cache_rpath>
    7120:	e31000ff 	tst	r0, #255	; 0xff
    7124:	128dc010 	addne	ip, sp, #16	; 0x10
    7128:	11a00005 	movne	r0, r5
    712c:	13a01000 	movne	r1, #0	; 0x0
    7130:	1bffffaf 	blne	6ff4 <add_path.11>
    7134:	e5944168 	ldr	r4, [r4, #360]
    7138:	e3540000 	cmp	r4, #0	; 0x0
    713c:	1afffff0 	bne	7104 <_dl_rtld_di_serinfo+0x60>
    7140:	e5965018 	ldr	r5, [r6, #24]
    7144:	e3550000 	cmp	r5, #0	; 0x0
    7148:	1a000015 	bne	71a4 <_dl_rtld_di_serinfo+0x100>
    714c:	e59f30e0 	ldr	r3, [pc, #224]	; 7234 <.text+0x6664>
    7150:	e79a3003 	ldr	r3, [sl, r3]
    7154:	e5934000 	ldr	r4, [r3]
    7158:	e3540000 	cmp	r4, #0	; 0x0
    715c:	0a000010 	beq	71a4 <_dl_rtld_di_serinfo+0x100>
    7160:	e5d43180 	ldrb	r3, [r4, #384]
    7164:	e2033003 	and	r3, r3, #3	; 0x3
    7168:	e3530002 	cmp	r3, #2	; 0x2
    716c:	11540006 	cmpne	r4, r6
    7170:	0a00000b 	beq	71a4 <_dl_rtld_di_serinfo+0x100>
    7174:	e2847f63 	add	r7, r4, #396	; 0x18c
    7178:	e1a00004 	mov	r0, r4
    717c:	e1a01007 	mov	r1, r7
    7180:	e3a0200f 	mov	r2, #15	; 0xf
    7184:	e59f30a4 	ldr	r3, [pc, #164]	; 7230 <.text+0x6660>
    7188:	e08a3003 	add	r3, sl, r3
    718c:	ebfff61a 	bl	49fc <cache_rpath>
    7190:	e31000ff 	tst	r0, #255	; 0xff
    7194:	128dc010 	addne	ip, sp, #16	; 0x10
    7198:	11a00007 	movne	r0, r7
    719c:	11a01005 	movne	r1, r5
    71a0:	1bffff93 	blne	6ff4 <add_path.11>
    71a4:	e28dc010 	add	ip, sp, #16	; 0x10
    71a8:	e59f3088 	ldr	r3, [pc, #136]	; 7238 <.text+0x6668>
    71ac:	e79a0003 	ldr	r0, [sl, r3]
    71b0:	e3a01000 	mov	r1, #0	; 0x0
    71b4:	ebffff8e 	bl	6ff4 <add_path.11>
    71b8:	e2864f77 	add	r4, r6, #476	; 0x1dc
    71bc:	e1a00006 	mov	r0, r6
    71c0:	e1a01004 	mov	r1, r4
    71c4:	e3a0201d 	mov	r2, #29	; 0x1d
    71c8:	e59f306c 	ldr	r3, [pc, #108]	; 723c <.text+0x666c>
    71cc:	e08a3003 	add	r3, sl, r3
    71d0:	ebfff609 	bl	49fc <cache_rpath>
    71d4:	e31000ff 	tst	r0, #255	; 0xff
    71d8:	128dc010 	addne	ip, sp, #16	; 0x10
    71dc:	11a00004 	movne	r0, r4
    71e0:	13a01000 	movne	r1, #0	; 0x0
    71e4:	1bffff82 	blne	6ff4 <add_path.11>
    71e8:	e59631f8 	ldr	r3, [r6, #504]
    71ec:	e2131b02 	ands	r1, r3, #2048	; 0x800
    71f0:	028dc010 	addeq	ip, sp, #16	; 0x10
    71f4:	059f3044 	ldreq	r3, [pc, #68]	; 7240 <.text+0x6670>
    71f8:	079a0003 	ldreq	r0, [sl, r3]
    71fc:	0bffff7c 	bleq	6ff4 <add_path.11>
    7200:	e5dd3007 	ldrb	r3, [sp, #7]
    7204:	e3530000 	cmp	r3, #0	; 0x0
    7208:	0a000005 	beq	7224 <_dl_rtld_di_serinfo+0x180>
    720c:	e59d3000 	ldr	r3, [sp]
    7210:	e5931004 	ldr	r1, [r3, #4]
    7214:	e5932000 	ldr	r2, [r3]
    7218:	e0822181 	add	r2, r2, r1, lsl #3
    721c:	e2822008 	add	r2, r2, #8	; 0x8
    7220:	e5832000 	str	r2, [r3]
    7224:	e28dd010 	add	sp, sp, #16	; 0x10
    7228:	e8bd84f0 	ldmia	sp!, {r4, r5, r6, r7, sl, pc}
    722c:	000164dc 	ldreqd	r6, [r1], -ip
    7230:	ffff65cc 	swinv	0x00ff65cc
    7234:	0000023c 	andeq	r0, r0, ip, lsr r2
    7238:	000000b8 	streqh	r0, [r0], -r8
    723c:	ffff65c4 	swinv	0x00ff65c4
    7240:	000000b4 	streqh	r0, [r0], -r4

00007244 <_dl_cache_libcmp>:
    7244:	e52de004 	str	lr, [sp, #-4]!
    7248:	e1a0e000 	mov	lr, r0
    724c:	e5d03000 	ldrb	r3, [r0]
    7250:	e3530000 	cmp	r3, #0	; 0x0
    7254:	0a000039 	beq	7340 <_dl_cache_libcmp+0xfc>
    7258:	e5de3000 	ldrb	r3, [lr]
    725c:	e2432030 	sub	r2, r3, #48	; 0x30
    7260:	e20230ff 	and	r3, r2, #255	; 0xff
    7264:	e3530009 	cmp	r3, #9	; 0x9
    7268:	8a000023 	bhi	72fc <_dl_cache_libcmp+0xb8>
    726c:	e5d13000 	ldrb	r3, [r1]
    7270:	e2430030 	sub	r0, r3, #48	; 0x30
    7274:	e20030ff 	and	r3, r0, #255	; 0xff
    7278:	e3530009 	cmp	r3, #9	; 0x9
    727c:	8a00001c 	bhi	72f4 <_dl_cache_libcmp+0xb0>
    7280:	e2811001 	add	r1, r1, #1	; 0x1
    7284:	e5fe3001 	ldrb	r3, [lr, #1]!
    7288:	e1a0c003 	mov	ip, r3
    728c:	e2433030 	sub	r3, r3, #48	; 0x30
    7290:	e3530009 	cmp	r3, #9	; 0x9
    7294:	8a000006 	bhi	72b4 <_dl_cache_libcmp+0x70>
    7298:	e0823102 	add	r3, r2, r2, lsl #2
    729c:	e08c3083 	add	r3, ip, r3, lsl #1
    72a0:	e2432030 	sub	r2, r3, #48	; 0x30
    72a4:	e5fec001 	ldrb	ip, [lr, #1]!
    72a8:	e24c3030 	sub	r3, ip, #48	; 0x30
    72ac:	e3530009 	cmp	r3, #9	; 0x9
    72b0:	9afffff8 	bls	7298 <_dl_cache_libcmp+0x54>
    72b4:	e5d13000 	ldrb	r3, [r1]
    72b8:	e1a0c003 	mov	ip, r3
    72bc:	e2433030 	sub	r3, r3, #48	; 0x30
    72c0:	e3530009 	cmp	r3, #9	; 0x9
    72c4:	8a000006 	bhi	72e4 <_dl_cache_libcmp+0xa0>
    72c8:	e0803100 	add	r3, r0, r0, lsl #2
    72cc:	e08c3083 	add	r3, ip, r3, lsl #1
    72d0:	e2430030 	sub	r0, r3, #48	; 0x30
    72d4:	e5f1c001 	ldrb	ip, [r1, #1]!
    72d8:	e24c3030 	sub	r3, ip, #48	; 0x30
    72dc:	e3530009 	cmp	r3, #9	; 0x9
    72e0:	9afffff8 	bls	72c8 <_dl_cache_libcmp+0x84>
    72e4:	e1520000 	cmp	r2, r0
    72e8:	0a000011 	beq	7334 <_dl_cache_libcmp+0xf0>
    72ec:	e0600002 	rsb	r0, r0, r2
    72f0:	e49df004 	ldr	pc, [sp], #4
    72f4:	e3a00001 	mov	r0, #1	; 0x1
    72f8:	e49df004 	ldr	pc, [sp], #4
    72fc:	e5d13000 	ldrb	r3, [r1]
    7300:	e2433030 	sub	r3, r3, #48	; 0x30
    7304:	e3530009 	cmp	r3, #9	; 0x9
    7308:	8a000001 	bhi	7314 <_dl_cache_libcmp+0xd0>
    730c:	e3e00000 	mvn	r0, #0	; 0x0
    7310:	e49df004 	ldr	pc, [sp], #4
    7314:	e5de2000 	ldrb	r2, [lr]
    7318:	e5d10000 	ldrb	r0, [r1]
    731c:	e1520000 	cmp	r2, r0
    7320:	0a000001 	beq	732c <_dl_cache_libcmp+0xe8>
    7324:	e0600002 	rsb	r0, r0, r2
    7328:	e49df004 	ldr	pc, [sp], #4
    732c:	e28ee001 	add	lr, lr, #1	; 0x1
    7330:	e2811001 	add	r1, r1, #1	; 0x1
    7334:	e5de3000 	ldrb	r3, [lr]
    7338:	e3530000 	cmp	r3, #0	; 0x0
    733c:	1affffc5 	bne	7258 <_dl_cache_libcmp+0x14>
    7340:	e5de2000 	ldrb	r2, [lr]
    7344:	e5d13000 	ldrb	r3, [r1]
    7348:	e0630002 	rsb	r0, r3, r2
    734c:	e49df004 	ldr	pc, [sp], #4

00007350 <_dl_load_cache_lookup>:
    7350:	e92d4ff0 	stmdb	sp!, {r4, r5, r6, r7, r8, r9, sl, fp, lr}
    7354:	e24dd028 	sub	sp, sp, #40	; 0x28
    7358:	e59fa56c 	ldr	sl, [pc, #1388]	; 78cc <.text+0x6cfc>
    735c:	e08fa00a 	add	sl, pc, sl
    7360:	e58d0024 	str	r0, [sp, #36]
    7364:	e59f3564 	ldr	r3, [pc, #1380]	; 78d0 <.text+0x6d00>
    7368:	e79a3003 	ldr	r3, [sl, r3]
    736c:	e5933000 	ldr	r3, [r3]
    7370:	e3130001 	tst	r3, #1	; 0x1
    7374:	0a000004 	beq	738c <_dl_load_cache_lookup+0x3c>
    7378:	e59f0554 	ldr	r0, [pc, #1364]	; 78d4 <.text+0x6d04>
    737c:	e08a0000 	add	r0, sl, r0
    7380:	e59f1550 	ldr	r1, [pc, #1360]	; 78d8 <.text+0x6d08>
    7384:	e08a1001 	add	r1, sl, r1
    7388:	eb001537 	bl	c86c <_dl_debug_printf>
    738c:	e59f3548 	ldr	r3, [pc, #1352]	; 78dc <.text+0x6d0c>
    7390:	e79a7003 	ldr	r7, [sl, r3]
    7394:	e5973000 	ldr	r3, [r7]
    7398:	e3530000 	cmp	r3, #0	; 0x0
    739c:	1a000056 	bne	74fc <_dl_load_cache_lookup+0x1ac>
    73a0:	e59f0530 	ldr	r0, [pc, #1328]	; 78d8 <.text+0x6d08>
    73a4:	e08a0000 	add	r0, sl, r0
    73a8:	e59f3530 	ldr	r3, [pc, #1328]	; 78e0 <.text+0x6d10>
    73ac:	e79a6003 	ldr	r6, [sl, r3]
    73b0:	e1a01006 	mov	r1, r6
    73b4:	e3a02001 	mov	r2, #1	; 0x1
    73b8:	eb001417 	bl	c41c <_dl_sysdep_read_whole_file>
    73bc:	e1a05000 	mov	r5, r0
    73c0:	e3700001 	cmn	r0, #1	; 0x1
    73c4:	0a00003b 	beq	74b8 <_dl_load_cache_lookup+0x168>
    73c8:	e5966000 	ldr	r6, [r6]
    73cc:	e3560010 	cmp	r6, #16	; 0x10
    73d0:	9a00001c 	bls	7448 <_dl_load_cache_lookup+0xf8>
    73d4:	e59f1508 	ldr	r1, [pc, #1288]	; 78e4 <.text+0x6d14>
    73d8:	e08a1001 	add	r1, sl, r1
    73dc:	e3a0200b 	mov	r2, #11	; 0xb
    73e0:	eb002872 	bl	115b0 <bcmp>
    73e4:	e3500000 	cmp	r0, #0	; 0x0
    73e8:	1a000016 	bne	7448 <_dl_load_cache_lookup+0xf8>
    73ec:	e5875000 	str	r5, [r7]
    73f0:	e595300c 	ldr	r3, [r5, #12]
    73f4:	e0833083 	add	r3, r3, r3, lsl #1
    73f8:	e1a03103 	mov	r3, r3, lsl #2
    73fc:	e2833010 	add	r3, r3, #16	; 0x10
    7400:	e0830005 	add	r0, r3, r5
    7404:	e59f24dc 	ldr	r2, [pc, #1244]	; 78e8 <.text+0x6d18>
    7408:	e79a2002 	ldr	r2, [sl, r2]
    740c:	e5820000 	str	r0, [r2]
    7410:	e2833030 	add	r3, r3, #48	; 0x30
    7414:	e1530006 	cmp	r3, r6
    7418:	8a000005 	bhi	7434 <_dl_load_cache_lookup+0xe4>
    741c:	e59f14c8 	ldr	r1, [pc, #1224]	; 78ec <.text+0x6d1c>
    7420:	e08a1001 	add	r1, sl, r1
    7424:	e3a02014 	mov	r2, #20	; 0x14
    7428:	eb002860 	bl	115b0 <bcmp>
    742c:	e3500000 	cmp	r0, #0	; 0x0
    7430:	0a000024 	beq	74c8 <_dl_load_cache_lookup+0x178>
    7434:	e3e03000 	mvn	r3, #0	; 0x0
    7438:	e59f24a8 	ldr	r2, [pc, #1192]	; 78e8 <.text+0x6d18>
    743c:	e79a2002 	ldr	r2, [sl, r2]
    7440:	e5823000 	str	r3, [r2]
    7444:	ea00001f 	b	74c8 <_dl_load_cache_lookup+0x178>
    7448:	e3750001 	cmn	r5, #1	; 0x1
    744c:	0a000019 	beq	74b8 <_dl_load_cache_lookup+0x168>
    7450:	e59f3488 	ldr	r3, [pc, #1160]	; 78e0 <.text+0x6d10>
    7454:	e79a3003 	ldr	r3, [sl, r3]
    7458:	e5933000 	ldr	r3, [r3]
    745c:	e3530030 	cmp	r3, #48	; 0x30
    7460:	9a00000d 	bls	749c <_dl_load_cache_lookup+0x14c>
    7464:	e1a00005 	mov	r0, r5
    7468:	e59f147c 	ldr	r1, [pc, #1148]	; 78ec <.text+0x6d1c>
    746c:	e08a1001 	add	r1, sl, r1
    7470:	e3a02014 	mov	r2, #20	; 0x14
    7474:	eb00284d 	bl	115b0 <bcmp>
    7478:	e3500000 	cmp	r0, #0	; 0x0
    747c:	1a000006 	bne	749c <_dl_load_cache_lookup+0x14c>
    7480:	e59f3460 	ldr	r3, [pc, #1120]	; 78e8 <.text+0x6d18>
    7484:	e79a3003 	ldr	r3, [sl, r3]
    7488:	e5835000 	str	r5, [r3]
    748c:	e59f3448 	ldr	r3, [pc, #1096]	; 78dc <.text+0x6d0c>
    7490:	e79a3003 	ldr	r3, [sl, r3]
    7494:	e5835000 	str	r5, [r3]
    7498:	ea00000a 	b	74c8 <_dl_load_cache_lookup+0x178>
    749c:	e3750001 	cmn	r5, #1	; 0x1
    74a0:	0a000004 	beq	74b8 <_dl_load_cache_lookup+0x168>
    74a4:	e1a00005 	mov	r0, r5
    74a8:	e59f3430 	ldr	r3, [pc, #1072]	; 78e0 <.text+0x6d10>
    74ac:	e79a3003 	ldr	r3, [sl, r3]
    74b0:	e5931000 	ldr	r1, [r3]
    74b4:	eb0025f5 	bl	10c90 <__munmap>
    74b8:	e3e03000 	mvn	r3, #0	; 0x0
    74bc:	e59f2418 	ldr	r2, [pc, #1048]	; 78dc <.text+0x6d0c>
    74c0:	e79a2002 	ldr	r2, [sl, r2]
    74c4:	e5823000 	str	r3, [r2]
    74c8:	e59f340c 	ldr	r3, [pc, #1036]	; 78dc <.text+0x6d0c>
    74cc:	e79a3003 	ldr	r3, [sl, r3]
    74d0:	e5933000 	ldr	r3, [r3]
    74d4:	e3530000 	cmp	r3, #0	; 0x0
    74d8:	1a000007 	bne	74fc <_dl_load_cache_lookup+0x1ac>
    74dc:	e59f040c 	ldr	r0, [pc, #1036]	; 78f0 <.text+0x6d20>
    74e0:	e08a0000 	add	r0, sl, r0
    74e4:	e59f1408 	ldr	r1, [pc, #1032]	; 78f4 <.text+0x6d24>
    74e8:	e08a1001 	add	r1, sl, r1
    74ec:	e3a020eb 	mov	r2, #235	; 0xeb
    74f0:	e59f3400 	ldr	r3, [pc, #1024]	; 78f8 <.text+0x6d28>
    74f4:	e79a3003 	ldr	r3, [sl, r3]
    74f8:	eb0020b0 	bl	f7c0 <__GI___assert_fail>
    74fc:	e59f33d8 	ldr	r3, [pc, #984]	; 78dc <.text+0x6d0c>
    7500:	e79a3003 	ldr	r3, [sl, r3]
    7504:	e5933000 	ldr	r3, [r3]
    7508:	e3730001 	cmn	r3, #1	; 0x1
    750c:	03a00000 	moveq	r0, #0	; 0x0
    7510:	0a0000eb 	beq	78c4 <_dl_load_cache_lookup+0x574>
    7514:	e3a01000 	mov	r1, #0	; 0x0
    7518:	e58d1020 	str	r1, [sp, #32]
    751c:	e59f33c4 	ldr	r3, [pc, #964]	; 78e8 <.text+0x6d18>
    7520:	e79a3003 	ldr	r3, [sl, r3]
    7524:	e5931000 	ldr	r1, [r3]
    7528:	e3710001 	cmn	r1, #1	; 0x1
    752c:	0a000075 	beq	7708 <_dl_load_cache_lookup+0x3b8>
    7530:	e1a08001 	mov	r8, r1
    7534:	e59f33a0 	ldr	r3, [pc, #928]	; 78dc <.text+0x6d0c>
    7538:	e79a3003 	ldr	r3, [sl, r3]
    753c:	e5932000 	ldr	r2, [r3]
    7540:	e59f3398 	ldr	r3, [pc, #920]	; 78e0 <.text+0x6d10>
    7544:	e79a3003 	ldr	r3, [sl, r3]
    7548:	e5933000 	ldr	r3, [r3]
    754c:	e0827003 	add	r7, r2, r3
    7550:	e0617007 	rsb	r7, r1, r7
    7554:	e3a09000 	mov	r9, #0	; 0x0
    7558:	e5913014 	ldr	r3, [r1, #20]
    755c:	e2436001 	sub	r6, r3, #1	; 0x1
    7560:	e1590006 	cmp	r9, r6
    7564:	ca0000ca 	bgt	7894 <_dl_load_cache_lookup+0x544>
    7568:	e59f3378 	ldr	r3, [pc, #888]	; 78e8 <.text+0x6d18>
    756c:	e79a4003 	ldr	r4, [sl, r3]
    7570:	e0893006 	add	r3, r9, r6
    7574:	e0833fa3 	add	r3, r3, r3, lsr #31
    7578:	e1a050c3 	mov	r5, r3, asr #1
    757c:	e5943000 	ldr	r3, [r4]
    7580:	e0852085 	add	r2, r5, r5, lsl #1
    7584:	e0833182 	add	r3, r3, r2, lsl #3
    7588:	e5933034 	ldr	r3, [r3, #52]
    758c:	e1530007 	cmp	r3, r7
    7590:	2a0000bf 	bcs	7894 <_dl_load_cache_lookup+0x544>
    7594:	e59d0024 	ldr	r0, [sp, #36]
    7598:	e0881003 	add	r1, r8, r3
    759c:	ebffff28 	bl	7244 <_dl_cache_libcmp>
    75a0:	e3500000 	cmp	r0, #0	; 0x0
    75a4:	1a000051 	bne	76f0 <_dl_load_cache_lookup+0x3a0>
    75a8:	e2559000 	subs	r9, r5, #0	; 0x0
    75ac:	da00000f 	ble	75f0 <_dl_load_cache_lookup+0x2a0>
    75b0:	e59f3330 	ldr	r3, [pc, #816]	; 78e8 <.text+0x6d18>
    75b4:	e79ab003 	ldr	fp, [sl, r3]
    75b8:	e59b3000 	ldr	r3, [fp]
    75bc:	e0852085 	add	r2, r5, r5, lsl #1
    75c0:	e0833182 	add	r3, r3, r2, lsl #3
    75c4:	e593301c 	ldr	r3, [r3, #28]
    75c8:	e1530007 	cmp	r3, r7
    75cc:	2a000007 	bcs	75f0 <_dl_load_cache_lookup+0x2a0>
    75d0:	e59d0024 	ldr	r0, [sp, #36]
    75d4:	e0881003 	add	r1, r8, r3
    75d8:	ebffff19 	bl	7244 <_dl_cache_libcmp>
    75dc:	e3500000 	cmp	r0, #0	; 0x0
    75e0:	1a000002 	bne	75f0 <_dl_load_cache_lookup+0x2a0>
    75e4:	e2455001 	sub	r5, r5, #1	; 0x1
    75e8:	e3550000 	cmp	r5, #0	; 0x0
    75ec:	cafffff1 	bgt	75b8 <_dl_load_cache_lookup+0x268>
    75f0:	e59f32d8 	ldr	r3, [pc, #728]	; 78d0 <.text+0x6d00>
    75f4:	e79a3003 	ldr	r3, [sl, r3]
    75f8:	e58d301c 	str	r3, [sp, #28]
    75fc:	e59f32cc 	ldr	r3, [pc, #716]	; 78d0 <.text+0x6d00>
    7600:	e79a3003 	ldr	r3, [sl, r3]
    7604:	e58d3004 	str	r3, [sp, #4]
    7608:	e0852085 	add	r2, r5, r5, lsl #1
    760c:	e5943000 	ldr	r3, [r4]
    7610:	e0833182 	add	r3, r3, r2, lsl #3
    7614:	e283b030 	add	fp, r3, #48	; 0x30
    7618:	e1550009 	cmp	r5, r9
    761c:	da000007 	ble	7640 <_dl_load_cache_lookup+0x2f0>
    7620:	e59b3004 	ldr	r3, [fp, #4]
    7624:	e1530007 	cmp	r3, r7
    7628:	2a000099 	bcs	7894 <_dl_load_cache_lookup+0x544>
    762c:	e59d0024 	ldr	r0, [sp, #36]
    7630:	e0881003 	add	r1, r8, r3
    7634:	ebffff02 	bl	7244 <_dl_cache_libcmp>
    7638:	e3500000 	cmp	r0, #0	; 0x0
    763c:	1a000094 	bne	7894 <_dl_load_cache_lookup+0x544>
    7640:	e59b0000 	ldr	r0, [fp]
    7644:	e3500003 	cmp	r0, #3	; 0x3
    7648:	13500001 	cmpne	r0, #1	; 0x1
    764c:	1a000023 	bne	76e0 <_dl_load_cache_lookup+0x390>
    7650:	e59b3008 	ldr	r3, [fp, #8]
    7654:	e1530007 	cmp	r3, r7
    7658:	2a000020 	bcs	76e0 <_dl_load_cache_lookup+0x390>
    765c:	e59d2020 	ldr	r2, [sp, #32]
    7660:	e3520000 	cmp	r2, #0	; 0x0
    7664:	0a000003 	beq	7678 <_dl_load_cache_lookup+0x328>
    7668:	e59dc01c 	ldr	ip, [sp, #28]
    766c:	e59c3038 	ldr	r3, [ip, #56]
    7670:	e1530000 	cmp	r3, r0
    7674:	1a000019 	bne	76e0 <_dl_load_cache_lookup+0x390>
    7678:	e59d101c 	ldr	r1, [sp, #28]
    767c:	e5912008 	ldr	r2, [r1, #8]
    7680:	e3520000 	cmp	r2, #0	; 0x0
    7684:	0a000002 	beq	7694 <_dl_load_cache_lookup+0x344>
    7688:	e59b300c 	ldr	r3, [fp, #12]
    768c:	e1530002 	cmp	r3, r2
    7690:	8a000012 	bhi	76e0 <_dl_load_cache_lookup+0x390>
    7694:	e28be010 	add	lr, fp, #16	; 0x10
    7698:	e59d1004 	ldr	r1, [sp, #4]
    769c:	e591203c 	ldr	r2, [r1, #60]
    76a0:	e1e02002 	mvn	r2, r2
    76a4:	e58d2000 	str	r2, [sp]
    76a8:	e89e000c 	ldmia	lr, {r2, r3}
    76ac:	e28dc010 	add	ip, sp, #16	; 0x10
    76b0:	e80c000c 	stmda	ip, {r2, r3}
    76b4:	e59dc000 	ldr	ip, [sp]
    76b8:	e002200c 	and	r2, r2, ip
    76bc:	e3a03000 	mov	r3, #0	; 0x0
    76c0:	e1922003 	orrs	r2, r2, r3
    76c4:	1a000005 	bne	76e0 <_dl_load_cache_lookup+0x390>
    76c8:	e59b3008 	ldr	r3, [fp, #8]
    76cc:	e0883003 	add	r3, r8, r3
    76d0:	e58d3020 	str	r3, [sp, #32]
    76d4:	e5913038 	ldr	r3, [r1, #56]
    76d8:	e1530000 	cmp	r3, r0
    76dc:	0a00006c 	beq	7894 <_dl_load_cache_lookup+0x544>
    76e0:	e2855001 	add	r5, r5, #1	; 0x1
    76e4:	e1550006 	cmp	r5, r6
    76e8:	daffffc6 	ble	7608 <_dl_load_cache_lookup+0x2b8>
    76ec:	ea000068 	b	7894 <_dl_load_cache_lookup+0x544>
    76f0:	e3500000 	cmp	r0, #0	; 0x0
    76f4:	b2859001 	addlt	r9, r5, #1	; 0x1
    76f8:	a2456001 	subge	r6, r5, #1	; 0x1
    76fc:	e1590006 	cmp	r9, r6
    7700:	daffff9a 	ble	7570 <_dl_load_cache_lookup+0x220>
    7704:	ea000062 	b	7894 <_dl_load_cache_lookup+0x544>
    7708:	e59f31cc 	ldr	r3, [pc, #460]	; 78dc <.text+0x6d0c>
    770c:	e79a3003 	ldr	r3, [sl, r3]
    7710:	e5932000 	ldr	r2, [r3]
    7714:	e592100c 	ldr	r1, [r2, #12]
    7718:	e0813081 	add	r3, r1, r1, lsl #1
    771c:	e0828103 	add	r8, r2, r3, lsl #2
    7720:	e2888010 	add	r8, r8, #16	; 0x10
    7724:	e59f31b4 	ldr	r3, [pc, #436]	; 78e0 <.text+0x6d10>
    7728:	e79a3003 	ldr	r3, [sl, r3]
    772c:	e5933000 	ldr	r3, [r3]
    7730:	e0827003 	add	r7, r2, r3
    7734:	e0687007 	rsb	r7, r8, r7
    7738:	e3a09000 	mov	r9, #0	; 0x0
    773c:	e2416001 	sub	r6, r1, #1	; 0x1
    7740:	e1590006 	cmp	r9, r6
    7744:	ca000052 	bgt	7894 <_dl_load_cache_lookup+0x544>
    7748:	e0893006 	add	r3, r9, r6
    774c:	e0833fa3 	add	r3, r3, r3, lsr #31
    7750:	e1a050c3 	mov	r5, r3, asr #1
    7754:	e59f3180 	ldr	r3, [pc, #384]	; 78dc <.text+0x6d0c>
    7758:	e79a3003 	ldr	r3, [sl, r3]
    775c:	e5933000 	ldr	r3, [r3]
    7760:	e0852085 	add	r2, r5, r5, lsl #1
    7764:	e0833102 	add	r3, r3, r2, lsl #2
    7768:	e5933014 	ldr	r3, [r3, #20]
    776c:	e1530007 	cmp	r3, r7
    7770:	2a000047 	bcs	7894 <_dl_load_cache_lookup+0x544>
    7774:	e59d0024 	ldr	r0, [sp, #36]
    7778:	e0881003 	add	r1, r8, r3
    777c:	ebfffeb0 	bl	7244 <_dl_cache_libcmp>
    7780:	e3500000 	cmp	r0, #0	; 0x0
    7784:	1a00003d 	bne	7880 <_dl_load_cache_lookup+0x530>
    7788:	e2559000 	subs	r9, r5, #0	; 0x0
    778c:	da00000f 	ble	77d0 <_dl_load_cache_lookup+0x480>
    7790:	e59f3144 	ldr	r3, [pc, #324]	; 78dc <.text+0x6d0c>
    7794:	e79a4003 	ldr	r4, [sl, r3]
    7798:	e5943000 	ldr	r3, [r4]
    779c:	e0852085 	add	r2, r5, r5, lsl #1
    77a0:	e0833102 	add	r3, r3, r2, lsl #2
    77a4:	e5933008 	ldr	r3, [r3, #8]
    77a8:	e1530007 	cmp	r3, r7
    77ac:	2a000007 	bcs	77d0 <_dl_load_cache_lookup+0x480>
    77b0:	e59d0024 	ldr	r0, [sp, #36]
    77b4:	e0881003 	add	r1, r8, r3
    77b8:	ebfffea1 	bl	7244 <_dl_cache_libcmp>
    77bc:	e3500000 	cmp	r0, #0	; 0x0
    77c0:	1a000002 	bne	77d0 <_dl_load_cache_lookup+0x480>
    77c4:	e2455001 	sub	r5, r5, #1	; 0x1
    77c8:	e3550000 	cmp	r5, #0	; 0x0
    77cc:	cafffff1 	bgt	7798 <_dl_load_cache_lookup+0x448>
    77d0:	e59f3104 	ldr	r3, [pc, #260]	; 78dc <.text+0x6d0c>
    77d4:	e79a4003 	ldr	r4, [sl, r3]
    77d8:	e59f30f0 	ldr	r3, [pc, #240]	; 78d0 <.text+0x6d00>
    77dc:	e79a3003 	ldr	r3, [sl, r3]
    77e0:	e58d3008 	str	r3, [sp, #8]
    77e4:	e0852085 	add	r2, r5, r5, lsl #1
    77e8:	e5943000 	ldr	r3, [r4]
    77ec:	e0833102 	add	r3, r3, r2, lsl #2
    77f0:	e283b010 	add	fp, r3, #16	; 0x10
    77f4:	e1550009 	cmp	r5, r9
    77f8:	da000007 	ble	781c <_dl_load_cache_lookup+0x4cc>
    77fc:	e59b3004 	ldr	r3, [fp, #4]
    7800:	e1530007 	cmp	r3, r7
    7804:	2a000022 	bcs	7894 <_dl_load_cache_lookup+0x544>
    7808:	e59d0024 	ldr	r0, [sp, #36]
    780c:	e0881003 	add	r1, r8, r3
    7810:	ebfffe8b 	bl	7244 <_dl_cache_libcmp>
    7814:	e3500000 	cmp	r0, #0	; 0x0
    7818:	1a00001d 	bne	7894 <_dl_load_cache_lookup+0x544>
    781c:	e59b2000 	ldr	r2, [fp]
    7820:	e3520003 	cmp	r2, #3	; 0x3
    7824:	13520001 	cmpne	r2, #1	; 0x1
    7828:	1a000010 	bne	7870 <_dl_load_cache_lookup+0x520>
    782c:	e59b3008 	ldr	r3, [fp, #8]
    7830:	e1530007 	cmp	r3, r7
    7834:	2a00000d 	bcs	7870 <_dl_load_cache_lookup+0x520>
    7838:	e59d3020 	ldr	r3, [sp, #32]
    783c:	e3530000 	cmp	r3, #0	; 0x0
    7840:	0a000003 	beq	7854 <_dl_load_cache_lookup+0x504>
    7844:	e59dc008 	ldr	ip, [sp, #8]
    7848:	e59c3038 	ldr	r3, [ip, #56]
    784c:	e1530002 	cmp	r3, r2
    7850:	1a000006 	bne	7870 <_dl_load_cache_lookup+0x520>
    7854:	e59b3008 	ldr	r3, [fp, #8]
    7858:	e0883003 	add	r3, r8, r3
    785c:	e58d3020 	str	r3, [sp, #32]
    7860:	e59d1008 	ldr	r1, [sp, #8]
    7864:	e5913038 	ldr	r3, [r1, #56]
    7868:	e1530002 	cmp	r3, r2
    786c:	0a000008 	beq	7894 <_dl_load_cache_lookup+0x544>
    7870:	e2855001 	add	r5, r5, #1	; 0x1
    7874:	e1550006 	cmp	r5, r6
    7878:	daffffd9 	ble	77e4 <_dl_load_cache_lookup+0x494>
    787c:	ea000004 	b	7894 <_dl_load_cache_lookup+0x544>
    7880:	e3500000 	cmp	r0, #0	; 0x0
    7884:	b2859001 	addlt	r9, r5, #1	; 0x1
    7888:	a2456001 	subge	r6, r5, #1	; 0x1
    788c:	e1590006 	cmp	r9, r6
    7890:	daffffac 	ble	7748 <_dl_load_cache_lookup+0x3f8>
    7894:	e59f3034 	ldr	r3, [pc, #52]	; 78d0 <.text+0x6d00>
    7898:	e79a3003 	ldr	r3, [sl, r3]
    789c:	e5933000 	ldr	r3, [r3]
    78a0:	e3130001 	tst	r3, #1	; 0x1
    78a4:	0a000005 	beq	78c0 <_dl_load_cache_lookup+0x570>
    78a8:	e59d2020 	ldr	r2, [sp, #32]
    78ac:	e3520000 	cmp	r2, #0	; 0x0
    78b0:	159f0044 	ldrne	r0, [pc, #68]	; 78fc <.text+0x6d2c>
    78b4:	108a0000 	addne	r0, sl, r0
    78b8:	11a01002 	movne	r1, r2
    78bc:	1b0013ea 	blne	c86c <_dl_debug_printf>
    78c0:	e59d0020 	ldr	r0, [sp, #32]
    78c4:	e28dd028 	add	sp, sp, #40	; 0x28
    78c8:	e8bd8ff0 	ldmia	sp!, {r4, r5, r6, r7, r8, r9, sl, fp, pc}
    78cc:	00016230 	andeq	r6, r1, r0, lsr r2
    78d0:	00000210 	andeq	r0, r0, r0, lsl r2
    78d4:	ffff6b28 	swinv	0x00ff6b28
    78d8:	ffff6b3c 	swinv	0x00ff6b3c
    78dc:	000000d8 	ldreqd	r0, [r0], -r8
    78e0:	000000dc 	ldreqd	r0, [r0], -ip
    78e4:	ffff6b50 	swinv	0x00ff6b50
    78e8:	000000e0 	andeq	r0, r0, r0, ror #1
    78ec:	ffff6b5c 	swinv	0x00ff6b5c
    78f0:	ffff6b74 	swinv	0x00ff6b74
    78f4:	ffff6b8c 	swinv	0x00ff6b8c
    78f8:	000000d4 	ldreqd	r0, [r0], -r4
    78fc:	ffff6a90 	swinv	0x00ff6a90

00007900 <_dl_unload_cache>:
    7900:	e92d4410 	stmdb	sp!, {r4, sl, lr}
    7904:	e59fa034 	ldr	sl, [pc, #52]	; 7940 <.text+0x6d70>
    7908:	e08fa00a 	add	sl, pc, sl
    790c:	e59f3030 	ldr	r3, [pc, #48]	; 7944 <.text+0x6d74>
    7910:	e79a4003 	ldr	r4, [sl, r3]
    7914:	e5940000 	ldr	r0, [r4]
    7918:	e3500000 	cmp	r0, #0	; 0x0
    791c:	13700001 	cmnne	r0, #1	; 0x1
    7920:	08bd8410 	ldmeqia	sp!, {r4, sl, pc}
    7924:	e59f301c 	ldr	r3, [pc, #28]	; 7948 <.text+0x6d78>
    7928:	e79a3003 	ldr	r3, [sl, r3]
    792c:	e5931000 	ldr	r1, [r3]
    7930:	eb0024d6 	bl	10c90 <__munmap>
    7934:	e3a03000 	mov	r3, #0	; 0x0
    7938:	e5843000 	str	r3, [r4]
    793c:	e8bd8410 	ldmia	sp!, {r4, sl, pc}
    7940:	00015c84 	andeq	r5, r1, r4, lsl #25
    7944:	000000d8 	ldreqd	r0, [r0], -r8
    7948:	000000dc 	ldreqd	r0, [r0], -ip

0000794c <_dl_elf_hash>:
    794c:	e3a02000 	mov	r2, #0	; 0x0
    7950:	e5d03000 	ldrb	r3, [r0]
    7954:	e1530002 	cmp	r3, r2
    7958:	0a00001b 	beq	79cc <_dl_elf_hash+0x80>
    795c:	e1a02003 	mov	r2, r3
    7960:	e5f03001 	ldrb	r3, [r0, #1]!
    7964:	e3530000 	cmp	r3, #0	; 0x0
    7968:	0a000017 	beq	79cc <_dl_elf_hash+0x80>
    796c:	e0832202 	add	r2, r3, r2, lsl #4
    7970:	e5f03001 	ldrb	r3, [r0, #1]!
    7974:	e3530000 	cmp	r3, #0	; 0x0
    7978:	0a000013 	beq	79cc <_dl_elf_hash+0x80>
    797c:	e0832202 	add	r2, r3, r2, lsl #4
    7980:	e5f03001 	ldrb	r3, [r0, #1]!
    7984:	e3530000 	cmp	r3, #0	; 0x0
    7988:	0a00000f 	beq	79cc <_dl_elf_hash+0x80>
    798c:	e0832202 	add	r2, r3, r2, lsl #4
    7990:	e5f03001 	ldrb	r3, [r0, #1]!
    7994:	e3530000 	cmp	r3, #0	; 0x0
    7998:	0a00000b 	beq	79cc <_dl_elf_hash+0x80>
    799c:	e0832202 	add	r2, r3, r2, lsl #4
    79a0:	e5f03001 	ldrb	r3, [r0, #1]!
    79a4:	e3530000 	cmp	r3, #0	; 0x0
    79a8:	0a000007 	beq	79cc <_dl_elf_hash+0x80>
    79ac:	e5d03000 	ldrb	r3, [r0]
    79b0:	e0832202 	add	r2, r3, r2, lsl #4
    79b4:	e202320f 	and	r3, r2, #-268435456	; 0xf0000000
    79b8:	e0222003 	eor	r2, r2, r3
    79bc:	e0222c23 	eor	r2, r2, r3, lsr #24
    79c0:	e5f03001 	ldrb	r3, [r0, #1]!
    79c4:	e3530000 	cmp	r3, #0	; 0x0
    79c8:	1afffff7 	bne	79ac <_dl_elf_hash+0x60>
    79cc:	e1a00002 	mov	r0, r2
    79d0:	e1a0f00e 	mov	pc, lr

000079d4 <do_lookup_x>:
    79d4:	e92d4ff0 	stmdb	sp!, {r4, r5, r6, r7, r8, r9, sl, fp, lr}
    79d8:	e24dd028 	sub	sp, sp, #40	; 0x28
    79dc:	e59fa3a0 	ldr	sl, [pc, #928]	; 7d84 <.text+0x71b4>
    79e0:	e08fa00a 	add	sl, pc, sl
    79e4:	e58d0024 	str	r0, [sp, #36]
    79e8:	e58d1020 	str	r1, [sp, #32]
    79ec:	e58d201c 	str	r2, [sp, #28]
    79f0:	e58d3018 	str	r3, [sp, #24]
    79f4:	e28d304c 	add	r3, sp, #76	; 0x4c
    79f8:	e8930108 	ldmia	r3, {r3, r8}
    79fc:	e59d0054 	ldr	r0, [sp, #84]
    7a00:	e58d0014 	str	r0, [sp, #20]
    7a04:	e5931000 	ldr	r1, [r3]
    7a08:	e58d1010 	str	r1, [sp, #16]
    7a0c:	e5933004 	ldr	r3, [r3, #4]
    7a10:	e58d300c 	str	r3, [sp, #12]
    7a14:	e3a09000 	mov	r9, #0	; 0x0
    7a18:	e58d9000 	str	r9, [sp]
    7a1c:	e59d2010 	ldr	r2, [sp, #16]
    7a20:	e7923108 	ldr	r3, [r2, r8, lsl #2]
    7a24:	e5934014 	ldr	r4, [r3, #20]
    7a28:	e59d005c 	ldr	r0, [sp, #92]
    7a2c:	e0503009 	subs	r3, r0, r9
    7a30:	13a03001 	movne	r3, #1	; 0x1
    7a34:	e1540000 	cmp	r4, r0
    7a38:	13a03000 	movne	r3, #0	; 0x0
    7a3c:	e1530009 	cmp	r3, r9
    7a40:	1a0000c8 	bne	7d68 <do_lookup_x+0x394>
    7a44:	e59d1060 	ldr	r1, [sp, #96]
    7a48:	e3110002 	tst	r1, #2	; 0x2
    7a4c:	0a000002 	beq	7a5c <do_lookup_x+0x88>
    7a50:	e5d43180 	ldrb	r3, [r4, #384]
    7a54:	e3130003 	tst	r3, #3	; 0x3
    7a58:	0a0000c2 	beq	7d68 <do_lookup_x+0x394>
    7a5c:	e5d43181 	ldrb	r3, [r4, #385]
    7a60:	e3130010 	tst	r3, #16	; 0x10
    7a64:	1a0000bf 	bne	7d68 <do_lookup_x+0x394>
    7a68:	e59f3318 	ldr	r3, [pc, #792]	; 7d88 <.text+0x71b8>
    7a6c:	e79a3003 	ldr	r3, [sl, r3]
    7a70:	e5933000 	ldr	r3, [r3]
    7a74:	e3130008 	tst	r3, #8	; 0x8
    7a78:	0a00000a 	beq	7aa8 <do_lookup_x+0xd4>
    7a7c:	e5942004 	ldr	r2, [r4, #4]
    7a80:	e5d23000 	ldrb	r3, [r2]
    7a84:	e3530000 	cmp	r3, #0	; 0x0
    7a88:	059f32fc 	ldreq	r3, [pc, #764]	; 7d8c <.text+0x71bc>
    7a8c:	079a3003 	ldreq	r3, [sl, r3]
    7a90:	05933000 	ldreq	r3, [r3]
    7a94:	05932000 	ldreq	r2, [r3]
    7a98:	e59f02f0 	ldr	r0, [pc, #752]	; 7d90 <.text+0x71c0>
    7a9c:	e08a0000 	add	r0, sl, r0
    7aa0:	e59d1024 	ldr	r1, [sp, #36]
    7aa4:	eb001370 	bl	c86c <_dl_debug_printf>
    7aa8:	e5943038 	ldr	r3, [r4, #56]
    7aac:	e5933004 	ldr	r3, [r3, #4]
    7ab0:	e58d3008 	str	r3, [sp, #8]
    7ab4:	e5943034 	ldr	r3, [r4, #52]
    7ab8:	e5933004 	ldr	r3, [r3, #4]
    7abc:	e58d3004 	str	r3, [sp, #4]
    7ac0:	e594b198 	ldr	fp, [r4, #408]
    7ac4:	e59d0020 	ldr	r0, [sp, #32]
    7ac8:	e594116c 	ldr	r1, [r4, #364]
    7acc:	eb0028fd 	bl	11ec8 <__umodsi3>
    7ad0:	e5943170 	ldr	r3, [r4, #368]
    7ad4:	e7935100 	ldr	r5, [r3, r0, lsl #2]
    7ad8:	e3550000 	cmp	r5, #0	; 0x0
    7adc:	0a000076 	beq	7cbc <do_lookup_x+0x2e8>
    7ae0:	e59d2008 	ldr	r2, [sp, #8]
    7ae4:	e0826205 	add	r6, r2, r5, lsl #4
    7ae8:	e5963004 	ldr	r3, [r6, #4]
    7aec:	e3530000 	cmp	r3, #0	; 0x0
    7af0:	0a00006d 	beq	7cac <do_lookup_x+0x2d8>
    7af4:	e5d6200e 	ldrb	r2, [r6, #14]
    7af8:	e5d6300f 	ldrb	r3, [r6, #15]
    7afc:	e1922403 	orrs	r2, r2, r3, lsl #8
    7b00:	1a000002 	bne	7b10 <do_lookup_x+0x13c>
    7b04:	e59d3060 	ldr	r3, [sp, #96]
    7b08:	e3130001 	tst	r3, #1	; 0x1
    7b0c:	1a000066 	bne	7cac <do_lookup_x+0x2d8>
    7b10:	e5d6300c 	ldrb	r3, [r6, #12]
    7b14:	e203300f 	and	r3, r3, #15	; 0xf
    7b18:	e3530002 	cmp	r3, #2	; 0x2
    7b1c:	ca000062 	bgt	7cac <do_lookup_x+0x2d8>
    7b20:	e59d001c 	ldr	r0, [sp, #28]
    7b24:	e1560000 	cmp	r6, r0
    7b28:	0a000006 	beq	7b48 <do_lookup_x+0x174>
    7b2c:	e5960000 	ldr	r0, [r6]
    7b30:	e59d1004 	ldr	r1, [sp, #4]
    7b34:	e0810000 	add	r0, r1, r0
    7b38:	e59d1024 	ldr	r1, [sp, #36]
    7b3c:	eb00252b 	bl	10ff0 <strcmp>
    7b40:	e3500000 	cmp	r0, #0	; 0x0
    7b44:	1a000058 	bne	7cac <do_lookup_x+0x2d8>
    7b48:	e59d2014 	ldr	r2, [sp, #20]
    7b4c:	e3520000 	cmp	r2, #0	; 0x0
    7b50:	0a000033 	beq	7c24 <do_lookup_x+0x250>
    7b54:	e35b0000 	cmp	fp, #0	; 0x0
    7b58:	1a00000e 	bne	7b98 <do_lookup_x+0x1c4>
    7b5c:	e592000c 	ldr	r0, [r2, #12]
    7b60:	e3500000 	cmp	r0, #0	; 0x0
    7b64:	0a00005a 	beq	7cd4 <do_lookup_x+0x300>
    7b68:	e1a01004 	mov	r1, r4
    7b6c:	eb001367 	bl	c910 <_dl_name_match_p>
    7b70:	e3500000 	cmp	r0, #0	; 0x0
    7b74:	0a000056 	beq	7cd4 <do_lookup_x+0x300>
    7b78:	e59f0214 	ldr	r0, [pc, #532]	; 7d94 <.text+0x71c4>
    7b7c:	e08a0000 	add	r0, sl, r0
    7b80:	e59f1210 	ldr	r1, [pc, #528]	; 7d98 <.text+0x71c8>
    7b84:	e08a1001 	add	r1, sl, r1
    7b88:	e3a02071 	mov	r2, #113	; 0x71
    7b8c:	e59f3208 	ldr	r3, [pc, #520]	; 7d9c <.text+0x71cc>
    7b90:	e79a3003 	ldr	r3, [sl, r3]
    7b94:	eb001f09 	bl	f7c0 <__GI___assert_fail>
    7b98:	e1a03085 	mov	r3, r5, lsl #1
    7b9c:	e083200b 	add	r2, r3, fp
    7ba0:	e7d3100b 	ldrb	r1, [r3, fp]
    7ba4:	e5d23001 	ldrb	r3, [r2, #1]
    7ba8:	e1817403 	orr	r7, r1, r3, lsl #8
    7bac:	e1a07887 	mov	r7, r7, lsl #17
    7bb0:	e1a078a7 	mov	r7, r7, lsr #17
    7bb4:	e5941188 	ldr	r1, [r4, #392]
    7bb8:	e0813207 	add	r3, r1, r7, lsl #4
    7bbc:	e5932004 	ldr	r2, [r3, #4]
    7bc0:	e59d0014 	ldr	r0, [sp, #20]
    7bc4:	e5903004 	ldr	r3, [r0, #4]
    7bc8:	e1520003 	cmp	r2, r3
    7bcc:	1a000005 	bne	7be8 <do_lookup_x+0x214>
    7bd0:	e7910207 	ldr	r0, [r1, r7, lsl #4]
    7bd4:	e59d2014 	ldr	r2, [sp, #20]
    7bd8:	e5921000 	ldr	r1, [r2]
    7bdc:	eb002503 	bl	10ff0 <strcmp>
    7be0:	e3500000 	cmp	r0, #0	; 0x0
    7be4:	0a00003a 	beq	7cd4 <do_lookup_x+0x300>
    7be8:	e59d0014 	ldr	r0, [sp, #20]
    7bec:	e5903008 	ldr	r3, [r0, #8]
    7bf0:	e3530000 	cmp	r3, #0	; 0x0
    7bf4:	1a00002c 	bne	7cac <do_lookup_x+0x2d8>
    7bf8:	e5943188 	ldr	r3, [r4, #392]
    7bfc:	e0833207 	add	r3, r3, r7, lsl #4
    7c00:	e5933004 	ldr	r3, [r3, #4]
    7c04:	e3530000 	cmp	r3, #0	; 0x0
    7c08:	1a000027 	bne	7cac <do_lookup_x+0x2d8>
    7c0c:	e1a03085 	mov	r3, r5, lsl #1
    7c10:	e083300b 	add	r3, r3, fp
    7c14:	e5d33001 	ldrb	r3, [r3, #1]
    7c18:	e3130080 	tst	r3, #128	; 0x80
    7c1c:	0a00002c 	beq	7cd4 <do_lookup_x+0x300>
    7c20:	ea000021 	b	7cac <do_lookup_x+0x2d8>
    7c24:	e35b0000 	cmp	fp, #0	; 0x0
    7c28:	0a000029 	beq	7cd4 <do_lookup_x+0x300>
    7c2c:	e59d1058 	ldr	r1, [sp, #88]
    7c30:	e3110002 	tst	r1, #2	; 0x2
    7c34:	0a000009 	beq	7c60 <do_lookup_x+0x28c>
    7c38:	e1a03085 	mov	r3, r5, lsl #1
    7c3c:	e083200b 	add	r2, r3, fp
    7c40:	e7d3300b 	ldrb	r3, [r3, fp]
    7c44:	e5d22001 	ldrb	r2, [r2, #1]
    7c48:	e1833402 	orr	r3, r3, r2, lsl #8
    7c4c:	e1a03883 	mov	r3, r3, lsl #17
    7c50:	e1a038a3 	mov	r3, r3, lsr #17
    7c54:	e3530001 	cmp	r3, #1	; 0x1
    7c58:	ca000009 	bgt	7c84 <do_lookup_x+0x2b0>
    7c5c:	ea00001c 	b	7cd4 <do_lookup_x+0x300>
    7c60:	e1a03085 	mov	r3, r5, lsl #1
    7c64:	e083200b 	add	r2, r3, fp
    7c68:	e7d3300b 	ldrb	r3, [r3, fp]
    7c6c:	e5d22001 	ldrb	r2, [r2, #1]
    7c70:	e1833402 	orr	r3, r3, r2, lsl #8
    7c74:	e1a03883 	mov	r3, r3, lsl #17
    7c78:	e1a038a3 	mov	r3, r3, lsr #17
    7c7c:	e3530002 	cmp	r3, #2	; 0x2
    7c80:	da000013 	ble	7cd4 <do_lookup_x+0x300>
    7c84:	e1a03085 	mov	r3, r5, lsl #1
    7c88:	e083300b 	add	r3, r3, fp
    7c8c:	e5d33001 	ldrb	r3, [r3, #1]
    7c90:	e3130080 	tst	r3, #128	; 0x80
    7c94:	1a000004 	bne	7cac <do_lookup_x+0x2d8>
    7c98:	e59d2000 	ldr	r2, [sp]
    7c9c:	e2822001 	add	r2, r2, #1	; 0x1
    7ca0:	e58d2000 	str	r2, [sp]
    7ca4:	e3520001 	cmp	r2, #1	; 0x1
    7ca8:	01a09006 	moveq	r9, r6
    7cac:	e5943174 	ldr	r3, [r4, #372]
    7cb0:	e7935105 	ldr	r5, [r3, r5, lsl #2]
    7cb4:	e3550000 	cmp	r5, #0	; 0x0
    7cb8:	1affff88 	bne	7ae0 <do_lookup_x+0x10c>
    7cbc:	e59d3000 	ldr	r3, [sp]
    7cc0:	e3530001 	cmp	r3, #1	; 0x1
    7cc4:	01a06009 	moveq	r6, r9
    7cc8:	13a06000 	movne	r6, #0	; 0x0
    7ccc:	e3560000 	cmp	r6, #0	; 0x0
    7cd0:	0a000015 	beq	7d2c <do_lookup_x+0x358>
    7cd4:	e5d6300c 	ldrb	r3, [r6, #12]
    7cd8:	e1a03223 	mov	r3, r3, lsr #4
    7cdc:	e3530001 	cmp	r3, #1	; 0x1
    7ce0:	0a00000c 	beq	7d18 <do_lookup_x+0x344>
    7ce4:	e3530002 	cmp	r3, #2	; 0x2
    7ce8:	1a00000f 	bne	7d2c <do_lookup_x+0x358>
    7cec:	e59f3094 	ldr	r3, [pc, #148]	; 7d88 <.text+0x71b8>
    7cf0:	e79a3003 	ldr	r3, [sl, r3]
    7cf4:	e5933030 	ldr	r3, [r3, #48]
    7cf8:	e3530000 	cmp	r3, #0	; 0x0
    7cfc:	0a000005 	beq	7d18 <do_lookup_x+0x344>
    7d00:	e59d0018 	ldr	r0, [sp, #24]
    7d04:	e5903000 	ldr	r3, [r0]
    7d08:	e3530000 	cmp	r3, #0	; 0x0
    7d0c:	05806000 	streq	r6, [r0]
    7d10:	05804004 	streq	r4, [r0, #4]
    7d14:	ea000004 	b	7d2c <do_lookup_x+0x358>
    7d18:	e59d1018 	ldr	r1, [sp, #24]
    7d1c:	e5816000 	str	r6, [r1]
    7d20:	e5814004 	str	r4, [r1, #4]
    7d24:	e3a00001 	mov	r0, #1	; 0x1
    7d28:	ea000013 	b	7d7c <do_lookup_x+0x3a8>
    7d2c:	e59d2014 	ldr	r2, [sp, #20]
    7d30:	e2753001 	rsbs	r3, r5, #1	; 0x1
    7d34:	33a03000 	movcc	r3, #0	; 0x0
    7d38:	e3520000 	cmp	r2, #0	; 0x0
    7d3c:	03a03000 	moveq	r3, #0	; 0x0
    7d40:	e3530000 	cmp	r3, #0	; 0x0
    7d44:	0a000007 	beq	7d68 <do_lookup_x+0x394>
    7d48:	e592000c 	ldr	r0, [r2, #12]
    7d4c:	e3500000 	cmp	r0, #0	; 0x0
    7d50:	0a000004 	beq	7d68 <do_lookup_x+0x394>
    7d54:	e1a01004 	mov	r1, r4
    7d58:	eb0012ec 	bl	c910 <_dl_name_match_p>
    7d5c:	e3500000 	cmp	r0, #0	; 0x0
    7d60:	13e00000 	mvnne	r0, #0	; 0x0
    7d64:	1a000004 	bne	7d7c <do_lookup_x+0x3a8>
    7d68:	e2888001 	add	r8, r8, #1	; 0x1
    7d6c:	e59d300c 	ldr	r3, [sp, #12]
    7d70:	e1580003 	cmp	r8, r3
    7d74:	3affff26 	bcc	7a14 <do_lookup_x+0x40>
    7d78:	e3a00000 	mov	r0, #0	; 0x0
    7d7c:	e28dd028 	add	sp, sp, #40	; 0x28
    7d80:	e8bd8ff0 	ldmia	sp!, {r4, r5, r6, r7, r8, r9, sl, fp, pc}
    7d84:	00015bac 	andeq	r5, r1, ip, lsr #23
    7d88:	00000210 	andeq	r0, r0, r0, lsl r2
    7d8c:	000001d8 	ldreqd	r0, [r0], -r8
    7d90:	ffff6bd4 	swinv	0x00ff6bd4
    7d94:	ffff6bf4 	swinv	0x00ff6bf4
    7d98:	ffff6c44 	swinv	0x00ff6c44
    7d9c:	000000e8 	andeq	r0, r0, r8, ror #1

00007da0 <add_dependency>:
    7da0:	e92d44f0 	stmdb	sp!, {r4, r5, r6, r7, sl, lr}
    7da4:	e24dd004 	sub	sp, sp, #4	; 0x4
    7da8:	e59fa1f8 	ldr	sl, [pc, #504]	; 7fa8 <.text+0x73d8>
    7dac:	e08fa00a 	add	sl, pc, sl
    7db0:	e1a05000 	mov	r5, r0
    7db4:	e1a04001 	mov	r4, r1
    7db8:	e3a06000 	mov	r6, #0	; 0x0
    7dbc:	e1500001 	cmp	r0, r1
    7dc0:	01a00006 	moveq	r0, r6
    7dc4:	0a000075 	beq	7fa0 <add_dependency+0x200>
    7dc8:	e59f31dc 	ldr	r3, [pc, #476]	; 7fac <.text+0x73dc>
    7dcc:	e79a3003 	ldr	r3, [sl, r3]
    7dd0:	e2830d06 	add	r0, r3, #384	; 0x180
    7dd4:	e1a0e00f 	mov	lr, pc
    7dd8:	e593f3d8 	ldr	pc, [r3, #984]
    7ddc:	e5d43180 	ldrb	r3, [r4, #384]
    7de0:	e2033003 	and	r3, r3, #3	; 0x3
    7de4:	e3530002 	cmp	r3, #2	; 0x2
    7de8:	1a000066 	bne	7f88 <add_dependency+0x1e8>
    7dec:	e59431f8 	ldr	r3, [r4, #504]
    7df0:	e3130008 	tst	r3, #8	; 0x8
    7df4:	1a000063 	bne	7f88 <add_dependency+0x1e8>
    7df8:	e5d53180 	ldrb	r3, [r5, #384]
    7dfc:	e2033003 	and	r3, r3, #3	; 0x3
    7e00:	e3530002 	cmp	r3, #2	; 0x2
    7e04:	1a000002 	bne	7e14 <add_dependency+0x74>
    7e08:	e59531f8 	ldr	r3, [r5, #504]
    7e0c:	e3130008 	tst	r3, #8	; 0x8
    7e10:	0a000003 	beq	7e24 <add_dependency+0x84>
    7e14:	e59431f8 	ldr	r3, [r4, #504]
    7e18:	e3833008 	orr	r3, r3, #8	; 0x8
    7e1c:	e58431f8 	str	r3, [r4, #504]
    7e20:	ea000058 	b	7f88 <add_dependency+0x1e8>
    7e24:	e59531e4 	ldr	r3, [r5, #484]
    7e28:	e3530000 	cmp	r3, #0	; 0x0
    7e2c:	0a00000b 	beq	7e60 <add_dependency+0xc0>
    7e30:	e1a01003 	mov	r1, r3
    7e34:	e3a02000 	mov	r2, #0	; 0x0
    7e38:	e7933102 	ldr	r3, [r3, r2, lsl #2]
    7e3c:	e1530002 	cmp	r3, r2
    7e40:	0a000006 	beq	7e60 <add_dependency+0xc0>
    7e44:	e7913102 	ldr	r3, [r1, r2, lsl #2]
    7e48:	e1530004 	cmp	r3, r4
    7e4c:	0a00004d 	beq	7f88 <add_dependency+0x1e8>
    7e50:	e2822001 	add	r2, r2, #1	; 0x1
    7e54:	e7913102 	ldr	r3, [r1, r2, lsl #2]
    7e58:	e3530000 	cmp	r3, #0	; 0x0
    7e5c:	1afffff8 	bne	7e44 <add_dependency+0xa4>
    7e60:	e59511f0 	ldr	r1, [r5, #496]
    7e64:	e59571ec 	ldr	r7, [r5, #492]
    7e68:	e3a02000 	mov	r2, #0	; 0x0
    7e6c:	e1520007 	cmp	r2, r7
    7e70:	2a000005 	bcs	7e8c <add_dependency+0xec>
    7e74:	e7913102 	ldr	r3, [r1, r2, lsl #2]
    7e78:	e1530004 	cmp	r3, r4
    7e7c:	0a000041 	beq	7f88 <add_dependency+0x1e8>
    7e80:	e2822001 	add	r2, r2, #1	; 0x1
    7e84:	e1520007 	cmp	r2, r7
    7e88:	3afffff9 	bcc	7e74 <add_dependency+0xd4>
    7e8c:	e5953018 	ldr	r3, [r5, #24]
    7e90:	e0833083 	add	r3, r3, r3, lsl #1
    7e94:	e59f2110 	ldr	r2, [pc, #272]	; 7fac <.text+0x73dc>
    7e98:	e79a2002 	ldr	r2, [sl, r2]
    7e9c:	e7923183 	ldr	r3, [r2, r3, lsl #3]
    7ea0:	e3530000 	cmp	r3, #0	; 0x0
    7ea4:	11530004 	cmpne	r3, r4
    7ea8:	0a000003 	beq	7ebc <add_dependency+0x11c>
    7eac:	e593300c 	ldr	r3, [r3, #12]
    7eb0:	e3530000 	cmp	r3, #0	; 0x0
    7eb4:	11530004 	cmpne	r3, r4
    7eb8:	1afffffb 	bne	7eac <add_dependency+0x10c>
    7ebc:	e3530000 	cmp	r3, #0	; 0x0
    7ec0:	03e06000 	mvneq	r6, #0	; 0x0
    7ec4:	0a00002f 	beq	7f88 <add_dependency+0x1e8>
    7ec8:	e59511e8 	ldr	r1, [r5, #488]
    7ecc:	e1510007 	cmp	r1, r7
    7ed0:	8a00000c 	bhi	7f08 <add_dependency+0x168>
    7ed4:	e2811005 	add	r1, r1, #5	; 0x5
    7ed8:	e58511e8 	str	r1, [r5, #488]
    7edc:	e59501f0 	ldr	r0, [r5, #496]
    7ee0:	e1a01101 	mov	r1, r1, lsl #2
    7ee4:	ebffe32d 	bl	ba0 <GLIBC_2.0+0xba0>
    7ee8:	e3500000 	cmp	r0, #0	; 0x0
    7eec:	158501f0 	strne	r0, [r5, #496]
    7ef0:	059531e8 	ldreq	r3, [r5, #488]
    7ef4:	02433005 	subeq	r3, r3, #5	; 0x5
    7ef8:	058531e8 	streq	r3, [r5, #488]
    7efc:	e59531e8 	ldr	r3, [r5, #488]
    7f00:	e1530007 	cmp	r3, r7
    7f04:	9a000004 	bls	7f1c <add_dependency+0x17c>
    7f08:	e59531ec 	ldr	r3, [r5, #492]
    7f0c:	e59521f0 	ldr	r2, [r5, #496]
    7f10:	e7824103 	str	r4, [r2, r3, lsl #2]
    7f14:	e2833001 	add	r3, r3, #1	; 0x1
    7f18:	e58531ec 	str	r3, [r5, #492]
    7f1c:	e59f308c 	ldr	r3, [pc, #140]	; 7fb0 <.text+0x73e0>
    7f20:	e79a3003 	ldr	r3, [sl, r3]
    7f24:	e5933000 	ldr	r3, [r3]
    7f28:	e3130040 	tst	r3, #64	; 0x40
    7f2c:	0a000015 	beq	7f88 <add_dependency+0x1e8>
    7f30:	e5941004 	ldr	r1, [r4, #4]
    7f34:	e5d13000 	ldrb	r3, [r1]
    7f38:	e3530000 	cmp	r3, #0	; 0x0
    7f3c:	059f3070 	ldreq	r3, [pc, #112]	; 7fb4 <.text+0x73e4>
    7f40:	079a3003 	ldreq	r3, [sl, r3]
    7f44:	05933000 	ldreq	r3, [r3]
    7f48:	05931000 	ldreq	r1, [r3]
    7f4c:	e5952004 	ldr	r2, [r5, #4]
    7f50:	e5d23000 	ldrb	r3, [r2]
    7f54:	e3530000 	cmp	r3, #0	; 0x0
    7f58:	11a0c002 	movne	ip, r2
    7f5c:	059f3050 	ldreq	r3, [pc, #80]	; 7fb4 <.text+0x73e4>
    7f60:	079a3003 	ldreq	r3, [sl, r3]
    7f64:	05933000 	ldreq	r3, [r3]
    7f68:	0593c000 	ldreq	ip, [r3]
    7f6c:	e5953018 	ldr	r3, [r5, #24]
    7f70:	e58d3000 	str	r3, [sp]
    7f74:	e59f003c 	ldr	r0, [pc, #60]	; 7fb8 <.text+0x73e8>
    7f78:	e08a0000 	add	r0, sl, r0
    7f7c:	e5942018 	ldr	r2, [r4, #24]
    7f80:	e1a0300c 	mov	r3, ip
    7f84:	eb001238 	bl	c86c <_dl_debug_printf>
    7f88:	e59f301c 	ldr	r3, [pc, #28]	; 7fac <.text+0x73dc>
    7f8c:	e79a3003 	ldr	r3, [sl, r3]
    7f90:	e2830d06 	add	r0, r3, #384	; 0x180
    7f94:	e1a0e00f 	mov	lr, pc
    7f98:	e593f3dc 	ldr	pc, [r3, #988]
    7f9c:	e1a00006 	mov	r0, r6
    7fa0:	e28dd004 	add	sp, sp, #4	; 0x4
    7fa4:	e8bd84f0 	ldmia	sp!, {r4, r5, r6, r7, sl, pc}
    7fa8:	000157e0 	andeq	r5, r1, r0, ror #15
    7fac:	0000023c 	andeq	r0, r0, ip, lsr r2
    7fb0:	00000210 	andeq	r0, r0, r0, lsl r2
    7fb4:	000001d8 	ldreqd	r0, [r0], -r8
    7fb8:	ffff6c50 	swinv	0x00ff6c50

00007fbc <_dl_lookup_symbol_x>:
    7fbc:	e1a0c00d 	mov	ip, sp
    7fc0:	e92ddff0 	stmdb	sp!, {r4, r5, r6, r7, r8, r9, sl, fp, ip, lr, pc}
    7fc4:	e24cb004 	sub	fp, ip, #4	; 0x4
    7fc8:	e24dd078 	sub	sp, sp, #120	; 0x78
    7fcc:	e59fa5d8 	ldr	sl, [pc, #1496]	; 85ac <.text+0x79dc>
    7fd0:	e08fa00a 	add	sl, pc, sl
    7fd4:	e50b007c 	str	r0, [fp, #-124]
    7fd8:	e50b1080 	str	r1, [fp, #-128]
    7fdc:	e1a05002 	mov	r5, r2
    7fe0:	e50b3084 	str	r3, [fp, #-132]
    7fe4:	e59b900c 	ldr	r9, [fp, #12]
    7fe8:	e59b6010 	ldr	r6, [fp, #16]
    7fec:	ebfffe56 	bl	794c <_dl_elf_hash>
    7ff0:	e1a08000 	mov	r8, r0
    7ff4:	e24b3070 	sub	r3, fp, #112	; 0x70
    7ff8:	e3a02000 	mov	r2, #0	; 0x0
    7ffc:	e3a01000 	mov	r1, #0	; 0x0
    8000:	e8830006 	stmia	r3, {r1, r2}
    8004:	e51b4084 	ldr	r4, [fp, #-132]
    8008:	e59f35a0 	ldr	r3, [pc, #1440]	; 85b0 <.text+0x79e0>
    800c:	e79a2003 	ldr	r2, [sl, r3]
    8010:	e59231a8 	ldr	r3, [r2, #424]
    8014:	e2833001 	add	r3, r3, #1	; 0x1
    8018:	e58231a8 	str	r3, [r2, #424]
    801c:	e59b2004 	ldr	r2, [fp, #4]
    8020:	e3520000 	cmp	r2, #0	; 0x0
    8024:	13590000 	cmpne	r9, #0	; 0x0
    8028:	0a000009 	beq	8054 <_dl_lookup_symbol_x+0x98>
    802c:	e3590001 	cmp	r9, #1	; 0x1
    8030:	0a000007 	beq	8054 <_dl_lookup_symbol_x+0x98>
    8034:	e59f0578 	ldr	r0, [pc, #1400]	; 85b4 <.text+0x79e4>
    8038:	e08a0000 	add	r0, sl, r0
    803c:	e59f1574 	ldr	r1, [pc, #1396]	; 85b8 <.text+0x79e8>
    8040:	e08a1001 	add	r1, sl, r1
    8044:	e3a020d9 	mov	r2, #217	; 0xd9
    8048:	e59f356c 	ldr	r3, [pc, #1388]	; 85bc <.text+0x79ec>
    804c:	e79a3003 	ldr	r3, [sl, r3]
    8050:	eb001dda 	bl	f7c0 <__GI___assert_fail>
    8054:	e3a07000 	mov	r7, #0	; 0x0
    8058:	e1560007 	cmp	r6, r7
    805c:	0a000016 	beq	80bc <_dl_lookup_symbol_x+0x100>
    8060:	e5943000 	ldr	r3, [r4]
    8064:	e5933000 	ldr	r3, [r3]
    8068:	e7933107 	ldr	r3, [r3, r7, lsl #2]
    806c:	e1530006 	cmp	r3, r6
    8070:	0a000005 	beq	808c <_dl_lookup_symbol_x+0xd0>
    8074:	e5943000 	ldr	r3, [r4]
    8078:	e5932000 	ldr	r2, [r3]
    807c:	e2877001 	add	r7, r7, #1	; 0x1
    8080:	e7923107 	ldr	r3, [r2, r7, lsl #2]
    8084:	e1530006 	cmp	r3, r6
    8088:	1afffffb 	bne	807c <_dl_lookup_symbol_x+0xc0>
    808c:	e5943000 	ldr	r3, [r4]
    8090:	e5933004 	ldr	r3, [r3, #4]
    8094:	e1530007 	cmp	r3, r7
    8098:	8a000007 	bhi	80bc <_dl_lookup_symbol_x+0x100>
    809c:	e59f051c 	ldr	r0, [pc, #1308]	; 85c0 <.text+0x79f0>
    80a0:	e08a0000 	add	r0, sl, r0
    80a4:	e59f150c 	ldr	r1, [pc, #1292]	; 85b8 <.text+0x79e8>
    80a8:	e08a1001 	add	r1, sl, r1
    80ac:	e3a020e2 	mov	r2, #226	; 0xe2
    80b0:	e59f3504 	ldr	r3, [pc, #1284]	; 85bc <.text+0x79ec>
    80b4:	e79a3003 	ldr	r3, [sl, r3]
    80b8:	eb001dc0 	bl	f7c0 <__GI___assert_fail>
    80bc:	e1a01007 	mov	r1, r7
    80c0:	e5943000 	ldr	r3, [r4]
    80c4:	e3530000 	cmp	r3, #0	; 0x0
    80c8:	0a00006f 	beq	828c <_dl_lookup_symbol_x+0x2d0>
    80cc:	e5952000 	ldr	r2, [r5]
    80d0:	e5943000 	ldr	r3, [r4]
    80d4:	e58d3000 	str	r3, [sp]
    80d8:	e58d1004 	str	r1, [sp, #4]
    80dc:	e59b3004 	ldr	r3, [fp, #4]
    80e0:	e58d3008 	str	r3, [sp, #8]
    80e4:	e58d900c 	str	r9, [sp, #12]
    80e8:	e58d6010 	str	r6, [sp, #16]
    80ec:	e59b1008 	ldr	r1, [fp, #8]
    80f0:	e58d1014 	str	r1, [sp, #20]
    80f4:	e51b007c 	ldr	r0, [fp, #-124]
    80f8:	e1a01008 	mov	r1, r8
    80fc:	e24b3070 	sub	r3, fp, #112	; 0x70
    8100:	ebfffe33 	bl	79d4 <do_lookup_x>
    8104:	e3500000 	cmp	r0, #0	; 0x0
    8108:	ca00005f 	bgt	828c <_dl_lookup_symbol_x+0x2d0>
    810c:	aa00005a 	bge	827c <_dl_lookup_symbol_x+0x2c0>
    8110:	e3560000 	cmp	r6, #0	; 0x0
    8114:	1a000058 	bne	827c <_dl_lookup_symbol_x+0x2c0>
    8118:	e59b2004 	ldr	r2, [fp, #4]
    811c:	e3520000 	cmp	r2, #0	; 0x0
    8120:	1a000007 	bne	8144 <_dl_lookup_symbol_x+0x188>
    8124:	e59f0498 	ldr	r0, [pc, #1176]	; 85c4 <.text+0x79f4>
    8128:	e08a0000 	add	r0, sl, r0
    812c:	e59f1484 	ldr	r1, [pc, #1156]	; 85b8 <.text+0x79e8>
    8130:	e08a1001 	add	r1, sl, r1
    8134:	e28220f2 	add	r2, r2, #242	; 0xf2
    8138:	e59f347c 	ldr	r3, [pc, #1148]	; 85bc <.text+0x79ec>
    813c:	e79a3003 	ldr	r3, [sl, r3]
    8140:	eb001d9e 	bl	f7c0 <__GI___assert_fail>
    8144:	e51b3080 	ldr	r3, [fp, #-128]
    8148:	e3530000 	cmp	r3, #0	; 0x0
    814c:	15937004 	ldrne	r7, [r3, #4]
    8150:	03a07000 	moveq	r7, #0	; 0x0
    8154:	e59f346c 	ldr	r3, [pc, #1132]	; 85c8 <.text+0x79f8>
    8158:	e08a3003 	add	r3, sl, r3
    815c:	e50b3068 	str	r3, [fp, #-104]
    8160:	e51b107c 	ldr	r1, [fp, #-124]
    8164:	e50b1064 	str	r1, [fp, #-100]
    8168:	e59f345c 	ldr	r3, [pc, #1116]	; 85cc <.text+0x79fc>
    816c:	e08a3003 	add	r3, sl, r3
    8170:	e50b3060 	str	r3, [fp, #-96]
    8174:	e59b2004 	ldr	r2, [fp, #4]
    8178:	e5923000 	ldr	r3, [r2]
    817c:	e50b305c 	str	r3, [fp, #-92]
    8180:	e59f3448 	ldr	r3, [pc, #1096]	; 85d0 <.text+0x7a00>
    8184:	e08a3003 	add	r3, sl, r3
    8188:	e50b3058 	str	r3, [fp, #-88]
    818c:	e592300c 	ldr	r3, [r2, #12]
    8190:	e50b3054 	str	r3, [fp, #-84]
    8194:	e59f3438 	ldr	r3, [pc, #1080]	; 85d4 <.text+0x7a04>
    8198:	e08a3003 	add	r3, sl, r3
    819c:	e50b3050 	str	r3, [fp, #-80]
    81a0:	e3700002 	cmn	r0, #2	; 0x2
    81a4:	059f342c 	ldreq	r3, [pc, #1068]	; 85d8 <.text+0x7a08>
    81a8:	008a3003 	addeq	r3, sl, r3
    81ac:	159f3428 	ldrne	r3, [pc, #1064]	; 85dc <.text+0x7a0c>
    81b0:	108a3003 	addne	r3, sl, r3
    81b4:	e50b304c 	str	r3, [fp, #-76]
    81b8:	e24be048 	sub	lr, fp, #72	; 0x48
    81bc:	e24bc068 	sub	ip, fp, #104	; 0x68
    81c0:	e8bc000f 	ldmia	ip!, {r0, r1, r2, r3}
    81c4:	e8ae000f 	stmia	lr!, {r0, r1, r2, r3}
    81c8:	e89c000f 	ldmia	ip, {r0, r1, r2, r3}
    81cc:	e88e000f 	stmia	lr, {r0, r1, r2, r3}
    81d0:	e3a06001 	mov	r6, #1	; 0x1
    81d4:	e3a04000 	mov	r4, #0	; 0x0
    81d8:	e24b1028 	sub	r1, fp, #40	; 0x28
    81dc:	e0813104 	add	r3, r1, r4, lsl #2
    81e0:	e5130020 	ldr	r0, [r3, #-32]
    81e4:	eb00238d 	bl	11020 <strlen>
    81e8:	e0866000 	add	r6, r6, r0
    81ec:	e2844001 	add	r4, r4, #1	; 0x1
    81f0:	e3540007 	cmp	r4, #7	; 0x7
    81f4:	9afffff7 	bls	81d8 <_dl_lookup_symbol_x+0x21c>
    81f8:	e2863006 	add	r3, r6, #6	; 0x6
    81fc:	e3c33003 	bic	r3, r3, #3	; 0x3
    8200:	e063d00d 	rsb	sp, r3, sp
    8204:	e28d6018 	add	r6, sp, #24	; 0x18
    8208:	e1a00006 	mov	r0, r6
    820c:	e3a04000 	mov	r4, #0	; 0x0
    8210:	e24b2028 	sub	r2, fp, #40	; 0x28
    8214:	e0823104 	add	r3, r2, r4, lsl #2
    8218:	e5131020 	ldr	r1, [r3, #-32]
    821c:	eb0025a5 	bl	118b8 <__stpcpy>
    8220:	e2844001 	add	r4, r4, #1	; 0x1
    8224:	e3540007 	cmp	r4, #7	; 0x7
    8228:	9afffff8 	bls	8210 <_dl_lookup_symbol_x+0x254>
    822c:	e5d73000 	ldrb	r3, [r7]
    8230:	e3530000 	cmp	r3, #0	; 0x0
    8234:	11a01007 	movne	r1, r7
    8238:	1a000006 	bne	8258 <_dl_lookup_symbol_x+0x29c>
    823c:	e59f339c 	ldr	r3, [pc, #924]	; 85e0 <.text+0x7a10>
    8240:	e79a3003 	ldr	r3, [sl, r3]
    8244:	e5933000 	ldr	r3, [r3]
    8248:	e5931000 	ldr	r1, [r3]
    824c:	e3510000 	cmp	r1, #0	; 0x0
    8250:	059f338c 	ldreq	r3, [pc, #908]	; 85e4 <.text+0x7a14>
    8254:	008a1003 	addeq	r1, sl, r3
    8258:	e3a00000 	mov	r0, #0	; 0x0
    825c:	e59f2384 	ldr	r2, [pc, #900]	; 85e8 <.text+0x7a18>
    8260:	e08a2002 	add	r2, sl, r2
    8264:	e1a03006 	mov	r3, r6
    8268:	eb000dd6 	bl	b9c8 <_dl_signal_cerror>
    826c:	e3a03000 	mov	r3, #0	; 0x0
    8270:	e5853000 	str	r3, [r5]
    8274:	e1a00003 	mov	r0, r3
    8278:	ea0000c9 	b	85a4 <_dl_lookup_symbol_x+0x5e8>
    827c:	e3a01000 	mov	r1, #0	; 0x0
    8280:	e5b43004 	ldr	r3, [r4, #4]!
    8284:	e1530001 	cmp	r3, r1
    8288:	1affff8f 	bne	80cc <_dl_lookup_symbol_x+0x110>
    828c:	e51b3070 	ldr	r3, [fp, #-112]
    8290:	e3530000 	cmp	r3, #0	; 0x0
    8294:	1a00004e 	bne	83d4 <_dl_lookup_symbol_x+0x418>
    8298:	e5953000 	ldr	r3, [r5]
    829c:	e3530000 	cmp	r3, #0	; 0x0
    82a0:	0a000003 	beq	82b4 <_dl_lookup_symbol_x+0x2f8>
    82a4:	e5d3300c 	ldrb	r3, [r3, #12]
    82a8:	e1a03223 	mov	r3, r3, lsr #4
    82ac:	e3530002 	cmp	r3, #2	; 0x2
    82b0:	0a000043 	beq	83c4 <_dl_lookup_symbol_x+0x408>
    82b4:	e3560000 	cmp	r6, #0	; 0x0
    82b8:	1a000041 	bne	83c4 <_dl_lookup_symbol_x+0x408>
    82bc:	e51b3080 	ldr	r3, [fp, #-128]
    82c0:	e3530000 	cmp	r3, #0	; 0x0
    82c4:	15937004 	ldrne	r7, [r3, #4]
    82c8:	059f330c 	ldreq	r3, [pc, #780]	; 85dc <.text+0x7a0c>
    82cc:	008a7003 	addeq	r7, sl, r3
    82d0:	e59b1004 	ldr	r1, [fp, #4]
    82d4:	e3510000 	cmp	r1, #0	; 0x0
    82d8:	159f32ec 	ldrne	r3, [pc, #748]	; 85cc <.text+0x79fc>
    82dc:	108a1003 	addne	r1, sl, r3
    82e0:	059f32f4 	ldreq	r3, [pc, #756]	; 85dc <.text+0x7a0c>
    82e4:	008a1003 	addeq	r1, sl, r3
    82e8:	e59b2004 	ldr	r2, [fp, #4]
    82ec:	e3520000 	cmp	r2, #0	; 0x0
    82f0:	0a000003 	beq	8304 <_dl_lookup_symbol_x+0x348>
    82f4:	e5923000 	ldr	r3, [r2]
    82f8:	e3530000 	cmp	r3, #0	; 0x0
    82fc:	11a02003 	movne	r2, r3
    8300:	1a000001 	bne	830c <_dl_lookup_symbol_x+0x350>
    8304:	e59f32d0 	ldr	r3, [pc, #720]	; 85dc <.text+0x7a0c>
    8308:	e08a2003 	add	r2, sl, r3
    830c:	e59f32d8 	ldr	r3, [pc, #728]	; 85ec <.text+0x7a1c>
    8310:	e79a3003 	ldr	r3, [sl, r3]
    8314:	e50b3068 	str	r3, [fp, #-104]
    8318:	e51b307c 	ldr	r3, [fp, #-124]
    831c:	e50b3064 	str	r3, [fp, #-100]
    8320:	e50b1060 	str	r1, [fp, #-96]
    8324:	e50b205c 	str	r2, [fp, #-92]
    8328:	e3a06001 	mov	r6, #1	; 0x1
    832c:	e3a04000 	mov	r4, #0	; 0x0
    8330:	e24b1028 	sub	r1, fp, #40	; 0x28
    8334:	e0813104 	add	r3, r1, r4, lsl #2
    8338:	e5130040 	ldr	r0, [r3, #-64]
    833c:	eb002337 	bl	11020 <strlen>
    8340:	e0866000 	add	r6, r6, r0
    8344:	e2844001 	add	r4, r4, #1	; 0x1
    8348:	e3540003 	cmp	r4, #3	; 0x3
    834c:	9afffff7 	bls	8330 <_dl_lookup_symbol_x+0x374>
    8350:	e2863006 	add	r3, r6, #6	; 0x6
    8354:	e3c33003 	bic	r3, r3, #3	; 0x3
    8358:	e063d00d 	rsb	sp, r3, sp
    835c:	e28d6018 	add	r6, sp, #24	; 0x18
    8360:	e1a00006 	mov	r0, r6
    8364:	e3a04000 	mov	r4, #0	; 0x0
    8368:	e24b2028 	sub	r2, fp, #40	; 0x28
    836c:	e0823104 	add	r3, r2, r4, lsl #2
    8370:	e5131040 	ldr	r1, [r3, #-64]
    8374:	eb00254f 	bl	118b8 <__stpcpy>
    8378:	e2844001 	add	r4, r4, #1	; 0x1
    837c:	e3540003 	cmp	r4, #3	; 0x3
    8380:	9afffff8 	bls	8368 <_dl_lookup_symbol_x+0x3ac>
    8384:	e5d73000 	ldrb	r3, [r7]
    8388:	e3530000 	cmp	r3, #0	; 0x0
    838c:	11a01007 	movne	r1, r7
    8390:	1a000006 	bne	83b0 <_dl_lookup_symbol_x+0x3f4>
    8394:	e59f3244 	ldr	r3, [pc, #580]	; 85e0 <.text+0x7a10>
    8398:	e79a3003 	ldr	r3, [sl, r3]
    839c:	e5933000 	ldr	r3, [r3]
    83a0:	e5931000 	ldr	r1, [r3]
    83a4:	e3510000 	cmp	r1, #0	; 0x0
    83a8:	059f3234 	ldreq	r3, [pc, #564]	; 85e4 <.text+0x7a14>
    83ac:	008a1003 	addeq	r1, sl, r3
    83b0:	e3a00000 	mov	r0, #0	; 0x0
    83b4:	e59f2234 	ldr	r2, [pc, #564]	; 85f0 <.text+0x7a20>
    83b8:	e08a2002 	add	r2, sl, r2
    83bc:	e1a03006 	mov	r3, r6
    83c0:	eb000d80 	bl	b9c8 <_dl_signal_cerror>
    83c4:	e3a03000 	mov	r3, #0	; 0x0
    83c8:	e5853000 	str	r3, [r5]
    83cc:	e1a00003 	mov	r0, r3
    83d0:	ea000073 	b	85a4 <_dl_lookup_symbol_x+0x5e8>
    83d4:	e3a03000 	mov	r3, #0	; 0x0
    83d8:	e50b3088 	str	r3, [fp, #-136]
    83dc:	e5953000 	ldr	r3, [r5]
    83e0:	e3530000 	cmp	r3, #0	; 0x0
    83e4:	0a000005 	beq	8400 <_dl_lookup_symbol_x+0x444>
    83e8:	e5d3300d 	ldrb	r3, [r3, #13]
    83ec:	e2033003 	and	r3, r3, #3	; 0x3
    83f0:	e3a01000 	mov	r1, #0	; 0x0
    83f4:	e3530003 	cmp	r3, #3	; 0x3
    83f8:	03a01001 	moveq	r1, #1	; 0x1
    83fc:	e50b1088 	str	r1, [fp, #-136]
    8400:	e51b2088 	ldr	r2, [fp, #-136]
    8404:	e3520000 	cmp	r2, #0	; 0x0
    8408:	0a000031 	beq	84d4 <_dl_lookup_symbol_x+0x518>
    840c:	e59b3008 	ldr	r3, [fp, #8]
    8410:	e3530001 	cmp	r3, #1	; 0x1
    8414:	1a00000a 	bne	8444 <_dl_lookup_symbol_x+0x488>
    8418:	e51b3070 	ldr	r3, [fp, #-112]
    841c:	e3530000 	cmp	r3, #0	; 0x0
    8420:	0a00002b 	beq	84d4 <_dl_lookup_symbol_x+0x518>
    8424:	e24b2070 	sub	r2, fp, #112	; 0x70
    8428:	e5923004 	ldr	r3, [r2, #4]
    842c:	e51b1080 	ldr	r1, [fp, #-128]
    8430:	e1530001 	cmp	r3, r1
    8434:	15953000 	ldrne	r3, [r5]
    8438:	150b3070 	strne	r3, [fp, #-112]
    843c:	15821004 	strne	r1, [r2, #4]
    8440:	ea000023 	b	84d4 <_dl_lookup_symbol_x+0x518>
    8444:	e24b3078 	sub	r3, fp, #120	; 0x78
    8448:	e3a02000 	mov	r2, #0	; 0x0
    844c:	e3a01000 	mov	r1, #0	; 0x0
    8450:	e8830006 	stmia	r3, {r1, r2}
    8454:	e51b4084 	ldr	r4, [fp, #-132]
    8458:	e5943000 	ldr	r3, [r4]
    845c:	e3530000 	cmp	r3, #0	; 0x0
    8460:	0a000012 	beq	84b0 <_dl_lookup_symbol_x+0x4f4>
    8464:	e5952000 	ldr	r2, [r5]
    8468:	e5943000 	ldr	r3, [r4]
    846c:	e88d0088 	stmia	sp, {r3, r7}
    8470:	e59b3004 	ldr	r3, [fp, #4]
    8474:	e58d3008 	str	r3, [sp, #8]
    8478:	e58d900c 	str	r9, [sp, #12]
    847c:	e58d6010 	str	r6, [sp, #16]
    8480:	e3a03001 	mov	r3, #1	; 0x1
    8484:	e58d3014 	str	r3, [sp, #20]
    8488:	e51b007c 	ldr	r0, [fp, #-124]
    848c:	e1a01008 	mov	r1, r8
    8490:	e24b3078 	sub	r3, fp, #120	; 0x78
    8494:	ebfffd4e 	bl	79d4 <do_lookup_x>
    8498:	e3500000 	cmp	r0, #0	; 0x0
    849c:	1a000003 	bne	84b0 <_dl_lookup_symbol_x+0x4f4>
    84a0:	e1a07000 	mov	r7, r0
    84a4:	e5b43004 	ldr	r3, [r4, #4]!
    84a8:	e3530000 	cmp	r3, #0	; 0x0
    84ac:	1affffec 	bne	8464 <_dl_lookup_symbol_x+0x4a8>
    84b0:	e51b3078 	ldr	r3, [fp, #-120]
    84b4:	e3530000 	cmp	r3, #0	; 0x0
    84b8:	0a000005 	beq	84d4 <_dl_lookup_symbol_x+0x518>
    84bc:	e51b3074 	ldr	r3, [fp, #-116]
    84c0:	e51b1080 	ldr	r1, [fp, #-128]
    84c4:	e1530001 	cmp	r3, r1
    84c8:	15953000 	ldrne	r3, [r5]
    84cc:	150b3070 	strne	r3, [fp, #-112]
    84d0:	150b106c 	strne	r1, [fp, #-108]
    84d4:	e51b106c 	ldr	r1, [fp, #-108]
    84d8:	e5d13180 	ldrb	r3, [r1, #384]
    84dc:	e2033003 	and	r3, r3, #3	; 0x3
    84e0:	e3530002 	cmp	r3, #2	; 0x2
    84e4:	1a000010 	bne	852c <_dl_lookup_symbol_x+0x570>
    84e8:	e3190001 	tst	r9, #1	; 0x1
    84ec:	0a00000e 	beq	852c <_dl_lookup_symbol_x+0x570>
    84f0:	e51b0080 	ldr	r0, [fp, #-128]
    84f4:	ebfffe29 	bl	7da0 <add_dependency>
    84f8:	e3500000 	cmp	r0, #0	; 0x0
    84fc:	aa00000a 	bge	852c <_dl_lookup_symbol_x+0x570>
    8500:	e59b2004 	ldr	r2, [fp, #4]
    8504:	e58d2000 	str	r2, [sp]
    8508:	e59b3008 	ldr	r3, [fp, #8]
    850c:	e98d0208 	stmib	sp, {r3, r9}
    8510:	e58d600c 	str	r6, [sp, #12]
    8514:	e51b007c 	ldr	r0, [fp, #-124]
    8518:	e51b1080 	ldr	r1, [fp, #-128]
    851c:	e1a02005 	mov	r2, r5
    8520:	e51b3084 	ldr	r3, [fp, #-132]
    8524:	ebfffea4 	bl	7fbc <_dl_lookup_symbol_x>
    8528:	ea00001d 	b	85a4 <_dl_lookup_symbol_x+0x5e8>
    852c:	e24b1070 	sub	r1, fp, #112	; 0x70
    8530:	e5912004 	ldr	r2, [r1, #4]
    8534:	e5d23181 	ldrb	r3, [r2, #385]
    8538:	e3833008 	orr	r3, r3, #8	; 0x8
    853c:	e5c23181 	strb	r3, [r2, #385]
    8540:	e59f30ac 	ldr	r3, [pc, #172]	; 85f4 <.text+0x7a24>
    8544:	e79a3003 	ldr	r3, [sl, r3]
    8548:	e5933000 	ldr	r3, [r3]
    854c:	e3c33ffe 	bic	r3, r3, #1016	; 0x3f8
    8550:	e3c33003 	bic	r3, r3, #3	; 0x3
    8554:	e1a03a83 	mov	r3, r3, lsl #21
    8558:	e1a03aa3 	mov	r3, r3, lsr #21
    855c:	e3530000 	cmp	r3, #0	; 0x0
    8560:	0a00000b 	beq	8594 <_dl_lookup_symbol_x+0x5d8>
    8564:	e58d1000 	str	r1, [sp]
    8568:	e59b1004 	ldr	r1, [fp, #4]
    856c:	e58d1004 	str	r1, [sp, #4]
    8570:	e59b2008 	ldr	r2, [fp, #8]
    8574:	e58d2008 	str	r2, [sp, #8]
    8578:	e51b3088 	ldr	r3, [fp, #-136]
    857c:	e58d300c 	str	r3, [sp, #12]
    8580:	e51b007c 	ldr	r0, [fp, #-124]
    8584:	e51b1080 	ldr	r1, [fp, #-128]
    8588:	e1a02005 	mov	r2, r5
    858c:	e51b3084 	ldr	r3, [fp, #-132]
    8590:	eb000023 	bl	8624 <_dl_debug_bindings>
    8594:	e51b3070 	ldr	r3, [fp, #-112]
    8598:	e5853000 	str	r3, [r5]
    859c:	e51b306c 	ldr	r3, [fp, #-108]
    85a0:	e5930000 	ldr	r0, [r3]
    85a4:	e24bd028 	sub	sp, fp, #40	; 0x28
    85a8:	e89daff0 	ldmia	sp, {r4, r5, r6, r7, r8, r9, sl, fp, sp, pc}
    85ac:	000155bc 	streqh	r5, [r1], -ip
    85b0:	0000023c 	andeq	r0, r0, ip, lsr r2
    85b4:	ffff6c90 	swinv	0x00ff6c90
    85b8:	ffff6cdc 	swinv	0x00ff6cdc
    85bc:	000000ec 	andeq	r0, r0, ip, ror #1
    85c0:	ffff6ce8 	swinv	0x00ff6ce8
    85c4:	ffff6d00 	swinv	0x00ff6d00
    85c8:	ffff6d18 	swinv	0x00ff6d18
    85cc:	ffff6d20 	swinv	0x00ff6d20
    85d0:	ffff6d2c 	swinv	0x00ff6d2c
    85d4:	ffff6d44 	swinv	0x00ff6d44
    85d8:	ffff6d60 	swinv	0x00ff6d60
    85dc:	ffff6010 	swinv	0x00ff6010
    85e0:	000001d8 	ldreqd	r0, [r0], -r8
    85e4:	ffff60bc 	swinv	0x00ff60bc
    85e8:	ffff6bac 	swinv	0x00ff6bac
    85ec:	000000e4 	andeq	r0, r0, r4, ror #1
    85f0:	ffff6bc0 	swinv	0x00ff6bc0
    85f4:	00000210 	andeq	r0, r0, r0, lsl r2

000085f8 <_dl_setup_hash>:
    85f8:	e5903030 	ldr	r3, [r0, #48]
    85fc:	e3530000 	cmp	r3, #0	; 0x0
    8600:	01a0f00e 	moveq	pc, lr
    8604:	e5933004 	ldr	r3, [r3, #4]
    8608:	e4932004 	ldr	r2, [r3], #4
    860c:	e580216c 	str	r2, [r0, #364]
    8610:	e2833004 	add	r3, r3, #4	; 0x4
    8614:	e5803170 	str	r3, [r0, #368]
    8618:	e0833102 	add	r3, r3, r2, lsl #2
    861c:	e5803174 	str	r3, [r0, #372]
    8620:	e1a0f00e 	mov	pc, lr

00008624 <_dl_debug_bindings>:
    8624:	e92d4ff0 	stmdb	sp!, {r4, r5, r6, r7, r8, r9, sl, fp, lr}
    8628:	e24dd024 	sub	sp, sp, #36	; 0x24
    862c:	e59fa2a0 	ldr	sl, [pc, #672]	; 88d4 <.text+0x7d04>
    8630:	e08fa00a 	add	sl, pc, sl
    8634:	e1a05000 	mov	r5, r0
    8638:	e1a04001 	mov	r4, r1
    863c:	e1a09002 	mov	r9, r2
    8640:	e59d7048 	ldr	r7, [sp, #72]
    8644:	e28d604c 	add	r6, sp, #76	; 0x4c
    8648:	e8960840 	ldmia	r6, {r6, fp}
    864c:	e5911004 	ldr	r1, [r1, #4]
    8650:	e59f3280 	ldr	r3, [pc, #640]	; 88d8 <.text+0x7d08>
    8654:	e79a3003 	ldr	r3, [sl, r3]
    8658:	e5933000 	ldr	r3, [r3]
    865c:	e3130004 	tst	r3, #4	; 0x4
    8660:	0a000025 	beq	86fc <_dl_debug_bindings+0xd8>
    8664:	e5d13000 	ldrb	r3, [r1]
    8668:	e3530000 	cmp	r3, #0	; 0x0
    866c:	1a000006 	bne	868c <_dl_debug_bindings+0x68>
    8670:	e59f3264 	ldr	r3, [pc, #612]	; 88dc <.text+0x7d0c>
    8674:	e79a3003 	ldr	r3, [sl, r3]
    8678:	e5933000 	ldr	r3, [r3]
    867c:	e5931000 	ldr	r1, [r3]
    8680:	e3510000 	cmp	r1, #0	; 0x0
    8684:	059f3254 	ldreq	r3, [pc, #596]	; 88e0 <.text+0x7d10>
    8688:	008a1003 	addeq	r1, sl, r3
    868c:	e5973004 	ldr	r3, [r7, #4]
    8690:	e5932004 	ldr	r2, [r3, #4]
    8694:	e5d23000 	ldrb	r3, [r2]
    8698:	e3530000 	cmp	r3, #0	; 0x0
    869c:	059f3238 	ldreq	r3, [pc, #568]	; 88dc <.text+0x7d0c>
    86a0:	079a3003 	ldreq	r3, [sl, r3]
    86a4:	05933000 	ldreq	r3, [r3]
    86a8:	05932000 	ldreq	r2, [r3]
    86ac:	e59d3054 	ldr	r3, [sp, #84]
    86b0:	e3530000 	cmp	r3, #0	; 0x0
    86b4:	159f3228 	ldrne	r3, [pc, #552]	; 88e4 <.text+0x7d14>
    86b8:	108a3003 	addne	r3, sl, r3
    86bc:	059f3224 	ldreq	r3, [pc, #548]	; 88e8 <.text+0x7d18>
    86c0:	008a3003 	addeq	r3, sl, r3
    86c4:	e58d5000 	str	r5, [sp]
    86c8:	e59f021c 	ldr	r0, [pc, #540]	; 88ec <.text+0x7d1c>
    86cc:	e08a0000 	add	r0, sl, r0
    86d0:	eb001065 	bl	c86c <_dl_debug_printf>
    86d4:	e3560000 	cmp	r6, #0	; 0x0
    86d8:	0a000004 	beq	86f0 <_dl_debug_bindings+0xcc>
    86dc:	e59f020c 	ldr	r0, [pc, #524]	; 88f0 <.text+0x7d20>
    86e0:	e08a0000 	add	r0, sl, r0
    86e4:	e5961000 	ldr	r1, [r6]
    86e8:	eb00106f 	bl	c8ac <_dl_debug_printf_c>
    86ec:	ea000002 	b	86fc <_dl_debug_bindings+0xd8>
    86f0:	e59f01fc 	ldr	r0, [pc, #508]	; 88f4 <.text+0x7d24>
    86f4:	e08a0000 	add	r0, sl, r0
    86f8:	eb00106b 	bl	c8ac <_dl_debug_printf_c>
    86fc:	e59f31d4 	ldr	r3, [pc, #468]	; 88d8 <.text+0x7d08>
    8700:	e79a2003 	ldr	r2, [sl, r3]
    8704:	e5923000 	ldr	r3, [r2]
    8708:	e3130b01 	tst	r3, #1024	; 0x400
    870c:	0a00006e 	beq	88cc <_dl_debug_bindings+0x2a8>
    8710:	e3a08000 	mov	r8, #0	; 0x0
    8714:	e3a01000 	mov	r1, #0	; 0x0
    8718:	e3a00000 	mov	r0, #0	; 0x0
    871c:	e28d3020 	add	r3, sp, #32	; 0x20
    8720:	e8030003 	stmda	r3, {r0, r1}
    8724:	e59220ac 	ldr	r2, [r2, #172]
    8728:	e1520008 	cmp	r2, r8
    872c:	0a000004 	beq	8744 <_dl_debug_bindings+0x120>
    8730:	e59f31c0 	ldr	r3, [pc, #448]	; 88f8 <.text+0x7d28>
    8734:	e79a3003 	ldr	r3, [sl, r3]
    8738:	e5933000 	ldr	r3, [r3]
    873c:	e1520003 	cmp	r2, r3
    8740:	1a00001b 	bne	87b4 <_dl_debug_bindings+0x190>
    8744:	e59f31ac 	ldr	r3, [pc, #428]	; 88f8 <.text+0x7d28>
    8748:	e79a3003 	ldr	r3, [sl, r3]
    874c:	e5933000 	ldr	r3, [r3]
    8750:	e1530004 	cmp	r3, r4
    8754:	0a000016 	beq	87b4 <_dl_debug_bindings+0x190>
    8758:	e1a00005 	mov	r0, r5
    875c:	ebfffc7a 	bl	794c <_dl_elf_hash>
    8760:	e1a01000 	mov	r1, r0
    8764:	e59431c4 	ldr	r3, [r4, #452]
    8768:	e58d3000 	str	r3, [sp]
    876c:	e3a03000 	mov	r3, #0	; 0x0
    8770:	e98d0048 	stmib	sp, {r3, r6}
    8774:	e58d300c 	str	r3, [sp, #12]
    8778:	e58d3010 	str	r3, [sp, #16]
    877c:	e58db014 	str	fp, [sp, #20]
    8780:	e1a00005 	mov	r0, r5
    8784:	e5992000 	ldr	r2, [r9]
    8788:	e28d301c 	add	r3, sp, #28	; 0x1c
    878c:	ebfffc90 	bl	79d4 <do_lookup_x>
    8790:	e5972000 	ldr	r2, [r7]
    8794:	e59d301c 	ldr	r3, [sp, #28]
    8798:	e1530002 	cmp	r3, r2
    879c:	1a000003 	bne	87b0 <_dl_debug_bindings+0x18c>
    87a0:	e5972004 	ldr	r2, [r7, #4]
    87a4:	e59d3020 	ldr	r3, [sp, #32]
    87a8:	e1530002 	cmp	r3, r2
    87ac:	0a000000 	beq	87b4 <_dl_debug_bindings+0x190>
    87b0:	e3a08001 	mov	r8, #1	; 0x1
    87b4:	e3580000 	cmp	r8, #0	; 0x0
    87b8:	1a000009 	bne	87e4 <_dl_debug_bindings+0x1c0>
    87bc:	e59f3114 	ldr	r3, [pc, #276]	; 88d8 <.text+0x7d08>
    87c0:	e79a3003 	ldr	r3, [sl, r3]
    87c4:	e59330ac 	ldr	r3, [r3, #172]
    87c8:	e1530004 	cmp	r3, r4
    87cc:	0a000002 	beq	87dc <_dl_debug_bindings+0x1b8>
    87d0:	e35b0004 	cmp	fp, #4	; 0x4
    87d4:	13530000 	cmpne	r3, #0	; 0x0
    87d8:	1a00003b 	bne	88cc <_dl_debug_bindings+0x2a8>
    87dc:	e3580000 	cmp	r8, #0	; 0x0
    87e0:	0a000002 	beq	87f0 <_dl_debug_bindings+0x1cc>
    87e4:	e59f3110 	ldr	r3, [pc, #272]	; 88fc <.text+0x7d2c>
    87e8:	e08ac003 	add	ip, sl, r3
    87ec:	ea000001 	b	87f8 <_dl_debug_bindings+0x1d4>
    87f0:	e59f3108 	ldr	r3, [pc, #264]	; 8900 <.text+0x7d30>
    87f4:	e08ac003 	add	ip, sl, r3
    87f8:	e59421a0 	ldr	r2, [r4, #416]
    87fc:	e58d2000 	str	r2, [sp]
    8800:	e3a01008 	mov	r1, #8	; 0x8
    8804:	e58d1004 	str	r1, [sp, #4]
    8808:	e5993000 	ldr	r3, [r9]
    880c:	e0623003 	rsb	r3, r2, r3
    8810:	e58d3008 	str	r3, [sp, #8]
    8814:	e58d100c 	str	r1, [sp, #12]
    8818:	e5973000 	ldr	r3, [r7]
    881c:	e3530000 	cmp	r3, #0	; 0x0
    8820:	15973004 	ldrne	r3, [r7, #4]
    8824:	159331a0 	ldrne	r3, [r3, #416]
    8828:	03a03000 	moveq	r3, #0	; 0x0
    882c:	e58d3010 	str	r3, [sp, #16]
    8830:	e3a03008 	mov	r3, #8	; 0x8
    8834:	e58d3014 	str	r3, [sp, #20]
    8838:	e5972000 	ldr	r2, [r7]
    883c:	e3520000 	cmp	r2, #0	; 0x0
    8840:	15922004 	ldrne	r2, [r2, #4]
    8844:	03a02000 	moveq	r2, #0	; 0x0
    8848:	e58d2018 	str	r2, [sp, #24]
    884c:	e3a00001 	mov	r0, #1	; 0x1
    8850:	e59f10ac 	ldr	r1, [pc, #172]	; 8904 <.text+0x7d34>
    8854:	e08a1001 	add	r1, sl, r1
    8858:	e1a0200c 	mov	r2, ip
    885c:	e3a03008 	mov	r3, #8	; 0x8
    8860:	eb001021 	bl	c8ec <_dl_dprintf>
    8864:	e3580000 	cmp	r8, #0	; 0x0
    8868:	0a000011 	beq	88b4 <_dl_debug_bindings+0x290>
    886c:	e59d301c 	ldr	r3, [sp, #28]
    8870:	e3530000 	cmp	r3, #0	; 0x0
    8874:	159d3020 	ldrne	r3, [sp, #32]
    8878:	1593c1a0 	ldrne	ip, [r3, #416]
    887c:	03a0c000 	moveq	ip, #0	; 0x0
    8880:	e3a03008 	mov	r3, #8	; 0x8
    8884:	e58d3000 	str	r3, [sp]
    8888:	e59d301c 	ldr	r3, [sp, #28]
    888c:	e3530000 	cmp	r3, #0	; 0x0
    8890:	15933004 	ldrne	r3, [r3, #4]
    8894:	03a03000 	moveq	r3, #0	; 0x0
    8898:	e58d3004 	str	r3, [sp, #4]
    889c:	e3a00001 	mov	r0, #1	; 0x1
    88a0:	e59f1060 	ldr	r1, [pc, #96]	; 8908 <.text+0x7d38>
    88a4:	e08a1001 	add	r1, sl, r1
    88a8:	e3a02008 	mov	r2, #8	; 0x8
    88ac:	e1a0300c 	mov	r3, ip
    88b0:	eb00100d 	bl	c8ec <_dl_dprintf>
    88b4:	e3a00001 	mov	r0, #1	; 0x1
    88b8:	e59f104c 	ldr	r1, [pc, #76]	; 890c <.text+0x7d3c>
    88bc:	e08a1001 	add	r1, sl, r1
    88c0:	e1a0200b 	mov	r2, fp
    88c4:	e1a03005 	mov	r3, r5
    88c8:	eb001007 	bl	c8ec <_dl_dprintf>
    88cc:	e28dd024 	add	sp, sp, #36	; 0x24
    88d0:	e8bd8ff0 	ldmia	sp!, {r4, r5, r6, r7, r8, r9, sl, fp, pc}
    88d4:	00014f5c 	andeq	r4, r1, ip, asr pc
    88d8:	00000210 	andeq	r0, r0, r0, lsl r2
    88dc:	000001d8 	ldreqd	r0, [r0], -r8
    88e0:	ffff60bc 	swinv	0x00ff60bc
    88e4:	ffff6d78 	swinv	0x00ff6d78
    88e8:	ffff6d84 	swinv	0x00ff6d84
    88ec:	ffff6d8c 	swinv	0x00ff6d8c
    88f0:	ffff6db4 	swinv	0x00ff6db4
    88f4:	ffff6c8c 	swinv	0x00ff6c8c
    88f8:	0000023c 	andeq	r0, r0, ip, lsr r2
    88fc:	ffff6dbc 	swinv	0x00ff6dbc
    8900:	ffff6dc8 	swinv	0x00ff6dc8
    8904:	ffff6dd0 	swinv	0x00ff6dd0
    8908:	ffff6df8 	swinv	0x00ff6df8
    890c:	ffff6e0c 	swinv	0x00ff6e0c

00008910 <_dl_new_object>:
    8910:	e92d4ff0 	stmdb	sp!, {r4, r5, r6, r7, r8, r9, sl, fp, lr}
    8914:	e24dd004 	sub	sp, sp, #4	; 0x4
    8918:	e59fa2b4 	ldr	sl, [pc, #692]	; 8bd4 <.text+0x8004>
    891c:	e08fa00a 	add	sl, pc, sl
    8920:	e58d0000 	str	r0, [sp]
    8924:	e1a09001 	mov	r9, r1
    8928:	e1a0b002 	mov	fp, r2
    892c:	e1a05003 	mov	r5, r3
    8930:	e59d802c 	ldr	r8, [sp, #44]
    8934:	e1a00001 	mov	r0, r1
    8938:	eb0021b8 	bl	11020 <strlen>
    893c:	e2807001 	add	r7, r0, #1	; 0x1
    8940:	e2870f8b 	add	r0, r7, #556	; 0x22c
    8944:	e3a01001 	mov	r1, #1	; 0x1
    8948:	ebffe091 	bl	b94 <GLIBC_2.0+0xb94>
    894c:	e2506000 	subs	r6, r0, #0	; 0x0
    8950:	01a00006 	moveq	r0, r6
    8954:	0a00009c 	beq	8bcc <_dl_new_object+0x2bc>
    8958:	e5866014 	str	r6, [r6, #20]
    895c:	e2864e22 	add	r4, r6, #544	; 0x220
    8960:	e586401c 	str	r4, [r6, #28]
    8964:	e2860f8b 	add	r0, r6, #556	; 0x22c
    8968:	e1a01009 	mov	r1, r9
    896c:	e1a02007 	mov	r2, r7
    8970:	eb0023d7 	bl	118d4 <memcpy>
    8974:	e5860220 	str	r0, [r6, #544]
    8978:	e3a03001 	mov	r3, #1	; 0x1
    897c:	e5843008 	str	r3, [r4, #8]
    8980:	e59d3000 	ldr	r3, [sp]
    8984:	e5863004 	str	r3, [r6, #4]
    8988:	e5d63180 	ldrb	r3, [r6, #384]
    898c:	e20b2003 	and	r2, fp, #3	; 0x3
    8990:	e3c33003 	bic	r3, r3, #3	; 0x3
    8994:	e1822003 	orr	r2, r2, r3
    8998:	e5c62180 	strb	r2, [r6, #384]
    899c:	e5865168 	str	r5, [r6, #360]
    89a0:	e5868018 	str	r8, [r6, #24]
    89a4:	e2863f6b 	add	r3, r6, #428	; 0x1ac
    89a8:	e58631c0 	str	r3, [r6, #448]
    89ac:	e3a03004 	mov	r3, #4	; 0x4
    89b0:	e58631bc 	str	r3, [r6, #444]
    89b4:	e3a0c000 	mov	ip, #0	; 0x0
    89b8:	e0882088 	add	r2, r8, r8, lsl #1
    89bc:	e59f3214 	ldr	r3, [pc, #532]	; 8bd8 <.text+0x8008>
    89c0:	e79a3003 	ldr	r3, [sl, r3]
    89c4:	e7933182 	ldr	r3, [r3, r2, lsl #3]
    89c8:	e153000c 	cmp	r3, ip
    89cc:	0a000012 	beq	8a1c <_dl_new_object+0x10c>
    89d0:	e1a02003 	mov	r2, r3
    89d4:	e593300c 	ldr	r3, [r3, #12]
    89d8:	e153000c 	cmp	r3, ip
    89dc:	0a000003 	beq	89f0 <_dl_new_object+0xe0>
    89e0:	e592200c 	ldr	r2, [r2, #12]
    89e4:	e592300c 	ldr	r3, [r2, #12]
    89e8:	e3530000 	cmp	r3, #0	; 0x0
    89ec:	1afffffb 	bne	89e0 <_dl_new_object+0xd0>
    89f0:	e5862010 	str	r2, [r6, #16]
    89f4:	e582600c 	str	r6, [r2, #12]
    89f8:	e59611c0 	ldr	r1, [r6, #448]
    89fc:	e0882088 	add	r2, r8, r8, lsl #1
    8a00:	e59f31d0 	ldr	r3, [pc, #464]	; 8bd8 <.text+0x8008>
    8a04:	e79a3003 	ldr	r3, [sl, r3]
    8a08:	e7933182 	ldr	r3, [r3, r2, lsl #3]
    8a0c:	e2833f56 	add	r3, r3, #344	; 0x158
    8a10:	e781310c 	str	r3, [r1, ip, lsl #2]
    8a14:	e28cc001 	add	ip, ip, #1	; 0x1
    8a18:	ea000003 	b	8a2c <_dl_new_object+0x11c>
    8a1c:	e0883088 	add	r3, r8, r8, lsl #1
    8a20:	e59f21b0 	ldr	r2, [pc, #432]	; 8bd8 <.text+0x8008>
    8a24:	e79a2002 	ldr	r2, [sl, r2]
    8a28:	e7826183 	str	r6, [r2, r3, lsl #3]
    8a2c:	e0882088 	add	r2, r8, r8, lsl #1
    8a30:	e59f31a0 	ldr	r3, [pc, #416]	; 8bd8 <.text+0x8008>
    8a34:	e79a0003 	ldr	r0, [sl, r3]
    8a38:	e0802182 	add	r2, r0, r2, lsl #3
    8a3c:	e5923004 	ldr	r3, [r2, #4]
    8a40:	e2833001 	add	r3, r3, #1	; 0x1
    8a44:	e5823004 	str	r3, [r2, #4]
    8a48:	e2800f66 	add	r0, r0, #408	; 0x198
    8a4c:	e8900006 	ldmia	r0, {r1, r2}
    8a50:	e3a04000 	mov	r4, #0	; 0x0
    8a54:	e3a03001 	mov	r3, #1	; 0x1
    8a58:	e0933001 	adds	r3, r3, r1
    8a5c:	e0a44002 	adc	r4, r4, r2
    8a60:	e8800018 	stmia	r0, {r3, r4}
    8a64:	e3550000 	cmp	r5, #0	; 0x0
    8a68:	01a05006 	moveq	r5, r6
    8a6c:	0a000006 	beq	8a8c <_dl_new_object+0x17c>
    8a70:	e5953168 	ldr	r3, [r5, #360]
    8a74:	e3530000 	cmp	r3, #0	; 0x0
    8a78:	0a000003 	beq	8a8c <_dl_new_object+0x17c>
    8a7c:	e5955168 	ldr	r5, [r5, #360]
    8a80:	e5953168 	ldr	r3, [r5, #360]
    8a84:	e3530000 	cmp	r3, #0	; 0x0
    8a88:	1afffffb 	bne	8a7c <_dl_new_object+0x16c>
    8a8c:	e35c0000 	cmp	ip, #0	; 0x0
    8a90:	0a000004 	beq	8aa8 <_dl_new_object+0x198>
    8a94:	e2853f56 	add	r3, r5, #344	; 0x158
    8a98:	e59621c0 	ldr	r2, [r6, #448]
    8a9c:	e5922000 	ldr	r2, [r2]
    8aa0:	e1530002 	cmp	r3, r2
    8aa4:	0a00000a 	beq	8ad4 <_dl_new_object+0x1c4>
    8aa8:	e25c2000 	subs	r2, ip, #0	; 0x0
    8aac:	13a02001 	movne	r2, #1	; 0x1
    8ab0:	e59d3028 	ldr	r3, [sp, #40]
    8ab4:	e01221a3 	ands	r2, r2, r3, lsr #3
    8ab8:	159621c0 	ldrne	r2, [r6, #448]
    8abc:	15923000 	ldrne	r3, [r2]
    8ac0:	15823004 	strne	r3, [r2, #4]
    8ac4:	13a0c000 	movne	ip, #0	; 0x0
    8ac8:	e59621c0 	ldr	r2, [r6, #448]
    8acc:	e2853f56 	add	r3, r5, #344	; 0x158
    8ad0:	e782310c 	str	r3, [r2, ip, lsl #2]
    8ad4:	e2863f56 	add	r3, r6, #344	; 0x158
    8ad8:	e58631c4 	str	r3, [r6, #452]
    8adc:	e59d3000 	ldr	r3, [sp]
    8ae0:	e5d34000 	ldrb	r4, [r3]
    8ae4:	e3540000 	cmp	r4, #0	; 0x0
    8ae8:	0a000036 	beq	8bc8 <_dl_new_object+0x2b8>
    8aec:	e1a00003 	mov	r0, r3
    8af0:	eb00214a 	bl	11020 <strlen>
    8af4:	e2807001 	add	r7, r0, #1	; 0x1
    8af8:	e354002f 	cmp	r4, #47	; 0x2f
    8afc:	1a000006 	bne	8b1c <_dl_new_object+0x20c>
    8b00:	e1a00007 	mov	r0, r7
    8b04:	ebffe028 	bl	bac <GLIBC_2.0+0xbac>
    8b08:	e1a05000 	mov	r5, r0
    8b0c:	e3550000 	cmp	r5, #0	; 0x0
    8b10:	02455001 	subeq	r5, r5, #1	; 0x1
    8b14:	0a00002a 	beq	8bc4 <_dl_new_object+0x2b4>
    8b18:	ea00001f 	b	8b9c <_dl_new_object+0x28c>
    8b1c:	e1a04007 	mov	r4, r7
    8b20:	e3a05000 	mov	r5, #0	; 0x0
    8b24:	e1a08005 	mov	r8, r5
    8b28:	e59f30ac 	ldr	r3, [pc, #172]	; 8bdc <.text+0x800c>
    8b2c:	e79a9003 	ldr	r9, [sl, r3]
    8b30:	e2844080 	add	r4, r4, #128	; 0x80
    8b34:	e1a00005 	mov	r0, r5
    8b38:	e1a01004 	mov	r1, r4
    8b3c:	ebffe017 	bl	ba0 <GLIBC_2.0+0xba0>
    8b40:	e2503000 	subs	r3, r0, #0	; 0x0
    8b44:	0a000007 	beq	8b68 <_dl_new_object+0x258>
    8b48:	e1a05003 	mov	r5, r3
    8b4c:	e0671004 	rsb	r1, r7, r4
    8b50:	eb002001 	bl	10b5c <__getcwd>
    8b54:	e2508000 	subs	r8, r0, #0	; 0x0
    8b58:	1a000008 	bne	8b80 <_dl_new_object+0x270>
    8b5c:	e5993000 	ldr	r3, [r9]
    8b60:	e3530022 	cmp	r3, #34	; 0x22
    8b64:	0afffff1 	beq	8b30 <_dl_new_object+0x220>
    8b68:	e3580000 	cmp	r8, #0	; 0x0
    8b6c:	1a000003 	bne	8b80 <_dl_new_object+0x270>
    8b70:	e1a00005 	mov	r0, r5
    8b74:	ebffe00f 	bl	bb8 <GLIBC_2.0+0xbb8>
    8b78:	e3e05000 	mvn	r5, #0	; 0x0
    8b7c:	ea000010 	b	8bc4 <_dl_new_object+0x2b4>
    8b80:	e1a00005 	mov	r0, r5
    8b84:	e3a01000 	mov	r1, #0	; 0x0
    8b88:	eb0020d8 	bl	10ef0 <index>
    8b8c:	e5503001 	ldrb	r3, [r0, #-1]
    8b90:	e353002f 	cmp	r3, #47	; 0x2f
    8b94:	13a0302f 	movne	r3, #47	; 0x2f
    8b98:	14c03001 	strneb	r3, [r0], #1
    8b9c:	e59d1000 	ldr	r1, [sp]
    8ba0:	e1a02007 	mov	r2, r7
    8ba4:	eb00231d 	bl	11820 <__mempcpy>
    8ba8:	e5703001 	ldrb	r3, [r0, #-1]!
    8bac:	e353002f 	cmp	r3, #47	; 0x2f
    8bb0:	1afffffc 	bne	8ba8 <_dl_new_object+0x298>
    8bb4:	e1500005 	cmp	r0, r5
    8bb8:	02850001 	addeq	r0, r5, #1	; 0x1
    8bbc:	e3a03000 	mov	r3, #0	; 0x0
    8bc0:	e5c03000 	strb	r3, [r0]
    8bc4:	e586519c 	str	r5, [r6, #412]
    8bc8:	e1a00006 	mov	r0, r6
    8bcc:	e28dd004 	add	sp, sp, #4	; 0x4
    8bd0:	e8bd8ff0 	ldmia	sp!, {r4, r5, r6, r7, r8, r9, sl, fp, pc}
    8bd4:	00014c70 	andeq	r4, r1, r0, ror ip
    8bd8:	0000023c 	andeq	r0, r0, ip, lsr r2
    8bdc:	00000238 	andeq	r0, r0, r8, lsr r2

00008be0 <_dl_relocate_object>:
    8be0:	e1a0c00d 	mov	ip, sp
    8be4:	e92ddff0 	stmdb	sp!, {r4, r5, r6, r7, r8, r9, sl, fp, ip, lr, pc}
    8be8:	e24cb004 	sub	fp, ip, #4	; 0x4
    8bec:	e24dd0e4 	sub	sp, sp, #228	; 0xe4
    8bf0:	e59fafb8 	ldr	sl, [pc, #4024]	; 9bb0 <.text+0x8fe0>
    8bf4:	e08fa00a 	add	sl, pc, sl
    8bf8:	e50b0030 	str	r0, [fp, #-48]
    8bfc:	e50b1034 	str	r1, [fp, #-52]
    8c00:	e1a05002 	mov	r5, r2
    8c04:	e50b3060 	str	r3, [fp, #-96]
    8c08:	e3a01000 	mov	r1, #0	; 0x0
    8c0c:	e50b1064 	str	r1, [fp, #-100]
    8c10:	e5d03180 	ldrb	r3, [r0, #384]
    8c14:	e3130004 	tst	r3, #4	; 0x4
    8c18:	1a000621 	bne	a4a4 <.text+0x98d4>
    8c1c:	e51b2060 	ldr	r2, [fp, #-96]
    8c20:	e1520001 	cmp	r2, r1
    8c24:	1a000002 	bne	8c34 <_dl_relocate_object+0x54>
    8c28:	e5903080 	ldr	r3, [r0, #128]
    8c2c:	e1530001 	cmp	r3, r1
    8c30:	11a05001 	movne	r5, r1
    8c34:	e59f3fa8 	ldr	r3, [pc, #4008]	; 9be4 <.text+0x9014>
    8c38:	e79a3003 	ldr	r3, [sl, r3]
    8c3c:	e5933000 	ldr	r3, [r3]
    8c40:	e3130020 	tst	r3, #32	; 0x20
    8c44:	0a00000f 	beq	8c88 <_dl_relocate_object+0xa8>
    8c48:	e51b3030 	ldr	r3, [fp, #-48]
    8c4c:	e5931004 	ldr	r1, [r3, #4]
    8c50:	e5d13000 	ldrb	r3, [r1]
    8c54:	e3530000 	cmp	r3, #0	; 0x0
    8c58:	059f3fa4 	ldreq	r3, [pc, #4004]	; 9c04 <.text+0x9034>
    8c5c:	079a3003 	ldreq	r3, [sl, r3]
    8c60:	05933000 	ldreq	r3, [r3]
    8c64:	05931000 	ldreq	r1, [r3]
    8c68:	e3550000 	cmp	r5, #0	; 0x0
    8c6c:	159f3f40 	ldrne	r3, [pc, #3904]	; 9bb4 <.text+0x8fe4>
    8c70:	108a2003 	addne	r2, sl, r3
    8c74:	059f3f3c 	ldreq	r3, [pc, #3900]	; 9bb8 <.text+0x8fe8>
    8c78:	008a2003 	addeq	r2, sl, r3
    8c7c:	e59f0f38 	ldr	r0, [pc, #3896]	; 9bbc <.text+0x8fec>
    8c80:	e08a0000 	add	r0, sl, r0
    8c84:	eb000ef8 	bl	c86c <_dl_debug_printf>
    8c88:	e51b2030 	ldr	r2, [fp, #-48]
    8c8c:	e5923078 	ldr	r3, [r2, #120]
    8c90:	e3530000 	cmp	r3, #0	; 0x0
    8c94:	0a000047 	beq	8db8 <_dl_relocate_object+0x1d8>
    8c98:	e592414c 	ldr	r4, [r2, #332]
    8c9c:	e5d23154 	ldrb	r3, [r2, #340]
    8ca0:	e5d22155 	ldrb	r2, [r2, #341]
    8ca4:	e1833402 	orr	r3, r3, r2, lsl #8
    8ca8:	e0843283 	add	r3, r4, r3, lsl #5
    8cac:	e1530004 	cmp	r3, r4
    8cb0:	9a000040 	bls	8db8 <_dl_relocate_object+0x1d8>
    8cb4:	e5943000 	ldr	r3, [r4]
    8cb8:	e3530001 	cmp	r3, #1	; 0x1
    8cbc:	1a000034 	bne	8d94 <_dl_relocate_object+0x1b4>
    8cc0:	e5943018 	ldr	r3, [r4, #24]
    8cc4:	e3130002 	tst	r3, #2	; 0x2
    8cc8:	1a000031 	bne	8d94 <_dl_relocate_object+0x1b4>
    8ccc:	e24dd014 	sub	sp, sp, #20	; 0x14
    8cd0:	e28d6010 	add	r6, sp, #16	; 0x10
    8cd4:	e5942008 	ldr	r2, [r4, #8]
    8cd8:	e5941014 	ldr	r1, [r4, #20]
    8cdc:	e0821001 	add	r1, r2, r1
    8ce0:	e59f3efc 	ldr	r3, [pc, #3836]	; 9be4 <.text+0x9014>
    8ce4:	e79a0003 	ldr	r0, [sl, r3]
    8ce8:	e5903004 	ldr	r3, [r0, #4]
    8cec:	e0811003 	add	r1, r1, r3
    8cf0:	e2411001 	sub	r1, r1, #1	; 0x1
    8cf4:	e2633000 	rsb	r3, r3, #0	; 0x0
    8cf8:	e0011003 	and	r1, r1, r3
    8cfc:	e0033002 	and	r3, r3, r2
    8d00:	e0631001 	rsb	r1, r3, r1
    8d04:	e5861004 	str	r1, [r6, #4]
    8d08:	e5900004 	ldr	r0, [r0, #4]
    8d0c:	e2600000 	rsb	r0, r0, #0	; 0x0
    8d10:	e5943008 	ldr	r3, [r4, #8]
    8d14:	e0000003 	and	r0, r0, r3
    8d18:	e51b3030 	ldr	r3, [fp, #-48]
    8d1c:	e5933000 	ldr	r3, [r3]
    8d20:	e0800003 	add	r0, r0, r3
    8d24:	e5860000 	str	r0, [r6]
    8d28:	e3a02003 	mov	r2, #3	; 0x3
    8d2c:	eb001fe3 	bl	10cc0 <__mprotect>
    8d30:	e3500000 	cmp	r0, #0	; 0x0
    8d34:	aa00000c 	bge	8d6c <_dl_relocate_object+0x18c>
    8d38:	e59f3e80 	ldr	r3, [pc, #3712]	; 9bc0 <.text+0x8ff0>
    8d3c:	e08ac003 	add	ip, sl, r3
    8d40:	e59f3e7c 	ldr	r3, [pc, #3708]	; 9bc4 <.text+0x8ff4>
    8d44:	e79a3003 	ldr	r3, [sl, r3]
    8d48:	e5930000 	ldr	r0, [r3]
    8d4c:	e51b3030 	ldr	r3, [fp, #-48]
    8d50:	e5931004 	ldr	r1, [r3, #4]
    8d54:	e3a02000 	mov	r2, #0	; 0x0
    8d58:	e1a0300c 	mov	r3, ip
    8d5c:	eb000ab2 	bl	b82c <_dl_signal_error>
    8d60:	e59f3e60 	ldr	r3, [pc, #3680]	; 9bc8 <.text+0x8ff8>
    8d64:	e08ac003 	add	ip, sl, r3
    8d68:	eafffff4 	b	8d40 <_dl_relocate_object+0x160>
    8d6c:	e5942018 	ldr	r2, [r4, #24]
    8d70:	e2022007 	and	r2, r2, #7	; 0x7
    8d74:	e1a02102 	mov	r2, r2, lsl #2
    8d78:	e59f3e4c 	ldr	r3, [pc, #3660]	; 9bcc <.text+0x8ffc>
    8d7c:	e1a03253 	mov	r3, r3, asr r2
    8d80:	e203300f 	and	r3, r3, #15	; 0xf
    8d84:	e5863008 	str	r3, [r6, #8]
    8d88:	e51b3064 	ldr	r3, [fp, #-100]
    8d8c:	e586300c 	str	r3, [r6, #12]
    8d90:	e50b6064 	str	r6, [fp, #-100]
    8d94:	e2844020 	add	r4, r4, #32	; 0x20
    8d98:	e51b3030 	ldr	r3, [fp, #-48]
    8d9c:	e5d32154 	ldrb	r2, [r3, #340]
    8da0:	e5d31155 	ldrb	r1, [r3, #341]
    8da4:	e1822401 	orr	r2, r2, r1, lsl #8
    8da8:	e593314c 	ldr	r3, [r3, #332]
    8dac:	e0833282 	add	r3, r3, r2, lsl #5
    8db0:	e1530004 	cmp	r3, r4
    8db4:	8affffbe 	bhi	8cb4 <_dl_relocate_object+0xd4>
    8db8:	e51b2030 	ldr	r2, [fp, #-48]
    8dbc:	e5923034 	ldr	r3, [r2, #52]
    8dc0:	e5933004 	ldr	r3, [r3, #4]
    8dc4:	e50b302c 	str	r3, [fp, #-44]
    8dc8:	e1a04002 	mov	r4, r2
    8dcc:	e51b0060 	ldr	r0, [fp, #-96]
    8dd0:	e592307c 	ldr	r3, [r2, #124]
    8dd4:	e1a06005 	mov	r6, r5
    8dd8:	e3530000 	cmp	r3, #0	; 0x0
    8ddc:	13550000 	cmpne	r5, #0	; 0x0
    8de0:	0a000019 	beq	8e4c <_dl_relocate_object+0x26c>
    8de4:	e592302c 	ldr	r3, [r2, #44]
    8de8:	e5932004 	ldr	r2, [r3, #4]
    8dec:	e5921004 	ldr	r1, [r2, #4]
    8df0:	e3510000 	cmp	r1, #0	; 0x0
    8df4:	15943000 	ldrne	r3, [r4]
    8df8:	10813003 	addne	r3, r1, r3
    8dfc:	15843204 	strne	r3, [r4, #516]
    8e00:	e5824004 	str	r4, [r2, #4]
    8e04:	e3500000 	cmp	r0, #0	; 0x0
    8e08:	0a00000c 	beq	8e40 <_dl_relocate_object+0x260>
    8e0c:	e59f3dbc 	ldr	r3, [pc, #3516]	; 9bd0 <.text+0x9000>
    8e10:	e79a3003 	ldr	r3, [sl, r3]
    8e14:	e5823008 	str	r3, [r2, #8]
    8e18:	e59f3dc4 	ldr	r3, [pc, #3524]	; 9be4 <.text+0x9014>
    8e1c:	e79a3003 	ldr	r3, [sl, r3]
    8e20:	e59300a0 	ldr	r0, [r3, #160]
    8e24:	e1a01004 	mov	r1, r4
    8e28:	eb000eb8 	bl	c910 <_dl_name_match_p>
    8e2c:	e3500000 	cmp	r0, #0	; 0x0
    8e30:	159f3da8 	ldrne	r3, [pc, #3496]	; 9be0 <.text+0x9010>
    8e34:	179a3003 	ldrne	r3, [sl, r3]
    8e38:	158341a4 	strne	r4, [r3, #420]
    8e3c:	ea000002 	b	8e4c <_dl_relocate_object+0x26c>
    8e40:	e59f3d8c 	ldr	r3, [pc, #3468]	; 9bd4 <.text+0x9004>
    8e44:	e79a3003 	ldr	r3, [sl, r3]
    8e48:	e5823008 	str	r3, [r2, #8]
    8e4c:	e50b6068 	str	r6, [fp, #-104]
    8e50:	e3a03000 	mov	r3, #0	; 0x0
    8e54:	e50b3044 	str	r3, [fp, #-68]
    8e58:	e50b303c 	str	r3, [fp, #-60]
    8e5c:	e50b3048 	str	r3, [fp, #-72]
    8e60:	e50b304c 	str	r3, [fp, #-76]
    8e64:	e51b2030 	ldr	r2, [fp, #-48]
    8e68:	e5923064 	ldr	r3, [r2, #100]
    8e6c:	e3530000 	cmp	r3, #0	; 0x0
    8e70:	15933004 	ldrne	r3, [r3, #4]
    8e74:	150b304c 	strne	r3, [fp, #-76]
    8e78:	15923068 	ldrne	r3, [r2, #104]
    8e7c:	15933004 	ldrne	r3, [r3, #4]
    8e80:	150b3048 	strne	r3, [fp, #-72]
    8e84:	e51b2030 	ldr	r2, [fp, #-48]
    8e88:	e5923070 	ldr	r3, [r2, #112]
    8e8c:	e3530000 	cmp	r3, #0	; 0x0
    8e90:	0a00001a 	beq	8f00 <_dl_relocate_object+0x320>
    8e94:	e5933004 	ldr	r3, [r3, #4]
    8e98:	e3530011 	cmp	r3, #17	; 0x11
    8e9c:	1a000017 	bne	8f00 <_dl_relocate_object+0x320>
    8ea0:	e592307c 	ldr	r3, [r2, #124]
    8ea4:	e5931004 	ldr	r1, [r3, #4]
    8ea8:	e51bc068 	ldr	ip, [fp, #-104]
    8eac:	e35c0000 	cmp	ip, #0	; 0x0
    8eb0:	1a000004 	bne	8ec8 <_dl_relocate_object+0x2e8>
    8eb4:	e51b304c 	ldr	r3, [fp, #-76]
    8eb8:	e51b2048 	ldr	r2, [fp, #-72]
    8ebc:	e0833002 	add	r3, r3, r2
    8ec0:	e1530001 	cmp	r3, r1
    8ec4:	0a000007 	beq	8ee8 <_dl_relocate_object+0x308>
    8ec8:	e50b1040 	str	r1, [fp, #-64]
    8ecc:	e51b3030 	ldr	r3, [fp, #-48]
    8ed0:	e5933028 	ldr	r3, [r3, #40]
    8ed4:	e5933004 	ldr	r3, [r3, #4]
    8ed8:	e50b303c 	str	r3, [fp, #-60]
    8edc:	e51b0068 	ldr	r0, [fp, #-104]
    8ee0:	e50b0038 	str	r0, [fp, #-56]
    8ee4:	ea000005 	b	8f00 <_dl_relocate_object+0x320>
    8ee8:	e51b3030 	ldr	r3, [fp, #-48]
    8eec:	e5933028 	ldr	r3, [r3, #40]
    8ef0:	e5932004 	ldr	r2, [r3, #4]
    8ef4:	e51b3048 	ldr	r3, [fp, #-72]
    8ef8:	e0833002 	add	r3, r3, r2
    8efc:	e50b3048 	str	r3, [fp, #-72]
    8f00:	e3a01000 	mov	r1, #0	; 0x0
    8f04:	e50b106c 	str	r1, [fp, #-108]
    8f08:	e59f3cc8 	ldr	r3, [pc, #3272]	; 9bd8 <.text+0x9008>
    8f0c:	e79a3003 	ldr	r3, [sl, r3]
    8f10:	e50b3094 	str	r3, [fp, #-148]
    8f14:	e51b8030 	ldr	r8, [fp, #-48]
    8f18:	e51b206c 	ldr	r2, [fp, #-108]
    8f1c:	e0823082 	add	r3, r2, r2, lsl #1
    8f20:	e24bc028 	sub	ip, fp, #40	; 0x28
    8f24:	e08c3103 	add	r3, ip, r3, lsl #2
    8f28:	e2430020 	sub	r0, r3, #32	; 0x20
    8f2c:	e8900005 	ldmia	r0, {r0, r2}
    8f30:	e5134024 	ldr	r4, [r3, #-36]
    8f34:	e0841000 	add	r1, r4, r0
    8f38:	e50b1070 	str	r1, [fp, #-112]
    8f3c:	e5987000 	ldr	r7, [r8]
    8f40:	e3520000 	cmp	r2, #0	; 0x0
    8f44:	0a000014 	beq	8f9c <_dl_relocate_object+0x3bc>
    8f48:	e1540001 	cmp	r4, r1
    8f4c:	2a000270 	bcs	9914 <_dl_relocate_object+0xd34>
    8f50:	e1a00008 	mov	r0, r8
    8f54:	e5942000 	ldr	r2, [r4]
    8f58:	e087c002 	add	ip, r7, r2
    8f5c:	e5d41004 	ldrb	r1, [r4, #4]
    8f60:	e3510016 	cmp	r1, #22	; 0x16
    8f64:	13a02001 	movne	r2, #1	; 0x1
    8f68:	1b000573 	blne	a53c <_dl_reloc_bad_type>
    8f6c:	e5983204 	ldr	r3, [r8, #516]
    8f70:	e3530000 	cmp	r3, #0	; 0x0
    8f74:	07973002 	ldreq	r3, [r7, r2]
    8f78:	00873003 	addeq	r3, r7, r3
    8f7c:	07873002 	streq	r3, [r7, r2]
    8f80:	15903204 	ldrne	r3, [r0, #516]
    8f84:	158c3000 	strne	r3, [ip]
    8f88:	e2844008 	add	r4, r4, #8	; 0x8
    8f8c:	e51b2070 	ldr	r2, [fp, #-112]
    8f90:	e1540002 	cmp	r4, r2
    8f94:	3affffee 	bcc	8f54 <_dl_relocate_object+0x374>
    8f98:	ea00025d 	b	9914 <_dl_relocate_object+0xd34>
    8f9c:	e5983038 	ldr	r3, [r8, #56]
    8fa0:	e5933004 	ldr	r3, [r3, #4]
    8fa4:	e50b3074 	str	r3, [fp, #-116]
    8fa8:	e59830bc 	ldr	r3, [r8, #188]
    8fac:	e3530000 	cmp	r3, #0	; 0x0
    8fb0:	15932004 	ldrne	r2, [r3, #4]
    8fb4:	03a02000 	moveq	r2, #0	; 0x0
    8fb8:	e1a01004 	mov	r1, r4
    8fbc:	e1a031a0 	mov	r3, r0, lsr #3
    8fc0:	e1530002 	cmp	r3, r2
    8fc4:	21a03002 	movcs	r3, r2
    8fc8:	e0844183 	add	r4, r4, r3, lsl #3
    8fcc:	e59f3c0c 	ldr	r3, [pc, #3084]	; 9be0 <.text+0x9010>
    8fd0:	e79a3003 	ldr	r3, [sl, r3]
    8fd4:	e2833f6e 	add	r3, r3, #440	; 0x1b8
    8fd8:	e1580003 	cmp	r8, r3
    8fdc:	0a000009 	beq	9008 <_dl_relocate_object+0x428>
    8fe0:	e3570000 	cmp	r7, #0	; 0x0
    8fe4:	0a000007 	beq	9008 <_dl_relocate_object+0x428>
    8fe8:	e1510004 	cmp	r1, r4
    8fec:	2a000005 	bcs	9008 <_dl_relocate_object+0x428>
    8ff0:	e4912008 	ldr	r2, [r1], #8
    8ff4:	e7973002 	ldr	r3, [r7, r2]
    8ff8:	e0873003 	add	r3, r7, r3
    8ffc:	e7873002 	str	r3, [r7, r2]
    9000:	e1510004 	cmp	r1, r4
    9004:	3afffff9 	bcc	8ff0 <_dl_relocate_object+0x410>
    9008:	e59830e4 	ldr	r3, [r8, #228]
    900c:	e3530000 	cmp	r3, #0	; 0x0
    9010:	0a000128 	beq	94b8 <_dl_relocate_object+0x8d8>
    9014:	e5933004 	ldr	r3, [r3, #4]
    9018:	e50b3078 	str	r3, [fp, #-120]
    901c:	e51b3070 	ldr	r3, [fp, #-112]
    9020:	e1540003 	cmp	r4, r3
    9024:	2a00023a 	bcs	9914 <_dl_relocate_object+0xd34>
    9028:	e50b807c 	str	r8, [fp, #-124]
    902c:	e59f3ba8 	ldr	r3, [pc, #2984]	; 9bdc <.text+0x900c>
    9030:	e79a3003 	ldr	r3, [sl, r3]
    9034:	e50b308c 	str	r3, [fp, #-140]
    9038:	e59f3bac 	ldr	r3, [pc, #2988]	; 9bec <.text+0x901c>
    903c:	e79a3003 	ldr	r3, [sl, r3]
    9040:	e50b30f8 	str	r3, [fp, #-248]
    9044:	e59f3ba0 	ldr	r3, [pc, #2976]	; 9bec <.text+0x901c>
    9048:	e79a3003 	ldr	r3, [sl, r3]
    904c:	e50b3090 	str	r3, [fp, #-144]
    9050:	e59f3b84 	ldr	r3, [pc, #2948]	; 9bdc <.text+0x900c>
    9054:	e79a3003 	ldr	r3, [sl, r3]
    9058:	e50b30fc 	str	r3, [fp, #-252]
    905c:	e5941004 	ldr	r1, [r4, #4]
    9060:	e1a01421 	mov	r1, r1, lsr #8
    9064:	e1a03081 	mov	r3, r1, lsl #1
    9068:	e51bc078 	ldr	ip, [fp, #-120]
    906c:	e083200c 	add	r2, r3, ip
    9070:	e7d3300c 	ldrb	r3, [r3, ip]
    9074:	e5d22001 	ldrb	r2, [r2, #1]
    9078:	e1833402 	orr	r3, r3, r2, lsl #8
    907c:	e1a03883 	mov	r3, r3, lsl #17
    9080:	e1a038a3 	mov	r3, r3, lsr #17
    9084:	e51b0074 	ldr	r0, [fp, #-116]
    9088:	e0801201 	add	r1, r0, r1, lsl #4
    908c:	e50b1050 	str	r1, [fp, #-80]
    9090:	e5982188 	ldr	r2, [r8, #392]
    9094:	e0820203 	add	r0, r2, r3, lsl #4
    9098:	e5941000 	ldr	r1, [r4]
    909c:	e0879001 	add	r9, r7, r1
    90a0:	e50b9080 	str	r9, [fp, #-128]
    90a4:	e5d45004 	ldrb	r5, [r4, #4]
    90a8:	e3550017 	cmp	r5, #23	; 0x17
    90ac:	07973001 	ldreq	r3, [r7, r1]
    90b0:	05982000 	ldreq	r2, [r8]
    90b4:	00833002 	addeq	r3, r3, r2
    90b8:	07873001 	streq	r3, [r7, r1]
    90bc:	0a0000f8 	beq	94a4 <_dl_relocate_object+0x8c4>
    90c0:	e3550000 	cmp	r5, #0	; 0x0
    90c4:	0a0000f6 	beq	94a4 <_dl_relocate_object+0x8c4>
    90c8:	e51b1050 	ldr	r1, [fp, #-80]
    90cc:	e50b1084 	str	r1, [fp, #-132]
    90d0:	e5d1300c 	ldrb	r3, [r1, #12]
    90d4:	e1b03223 	movs	r3, r3, lsr #4
    90d8:	051b3030 	ldreq	r3, [fp, #-48]
    90dc:	05936000 	ldreq	r6, [r3]
    90e0:	0a00003e 	beq	91e0 <_dl_relocate_object+0x600>
    90e4:	e51b2030 	ldr	r2, [fp, #-48]
    90e8:	e5923208 	ldr	r3, [r2, #520]
    90ec:	e1530001 	cmp	r3, r1
    90f0:	1a000015 	bne	914c <_dl_relocate_object+0x56c>
    90f4:	e3550016 	cmp	r5, #22	; 0x16
    90f8:	13a03000 	movne	r3, #0	; 0x0
    90fc:	03a03001 	moveq	r3, #1	; 0x1
    9100:	e592220c 	ldr	r2, [r2, #524]
    9104:	e3550014 	cmp	r5, #20	; 0x14
    9108:	1a000003 	bne	911c <_dl_relocate_object+0x53c>
    910c:	e3833002 	orr	r3, r3, #2	; 0x2
    9110:	e1530002 	cmp	r3, r2
    9114:	0a000002 	beq	9124 <_dl_relocate_object+0x544>
    9118:	ea00000b 	b	914c <_dl_relocate_object+0x56c>
    911c:	e1530002 	cmp	r3, r2
    9120:	1a000009 	bne	914c <_dl_relocate_object+0x56c>
    9124:	e59f3ab4 	ldr	r3, [pc, #2740]	; 9be0 <.text+0x9010>
    9128:	e79a2003 	ldr	r2, [sl, r3]
    912c:	e59231ac 	ldr	r3, [r2, #428]
    9130:	e2833001 	add	r3, r3, #1	; 0x1
    9134:	e58231ac 	str	r3, [r2, #428]
    9138:	e51b2030 	ldr	r2, [fp, #-48]
    913c:	e5923214 	ldr	r3, [r2, #532]
    9140:	e50b3050 	str	r3, [fp, #-80]
    9144:	e5926210 	ldr	r6, [r2, #528]
    9148:	ea000024 	b	91e0 <_dl_relocate_object+0x600>
    914c:	e3550014 	cmp	r5, #20	; 0x14
    9150:	13a01000 	movne	r1, #0	; 0x0
    9154:	03a01001 	moveq	r1, #1	; 0x1
    9158:	e1a01081 	mov	r1, r1, lsl #1
    915c:	e3550016 	cmp	r5, #22	; 0x16
    9160:	03811001 	orreq	r1, r1, #1	; 0x1
    9164:	e51b3030 	ldr	r3, [fp, #-48]
    9168:	e583120c 	str	r1, [r3, #524]
    916c:	e51b2050 	ldr	r2, [fp, #-80]
    9170:	e51b3030 	ldr	r3, [fp, #-48]
    9174:	e5832208 	str	r2, [r3, #520]
    9178:	e3a0c000 	mov	ip, #0	; 0x0
    917c:	e3a0e001 	mov	lr, #1	; 0x1
    9180:	e150000c 	cmp	r0, ip
    9184:	0a000003 	beq	9198 <_dl_relocate_object+0x5b8>
    9188:	e5903004 	ldr	r3, [r0, #4]
    918c:	e153000c 	cmp	r3, ip
    9190:	11a0c000 	movne	ip, r0
    9194:	124ee001 	subne	lr, lr, #1	; 0x1
    9198:	e51b3050 	ldr	r3, [fp, #-80]
    919c:	e5932000 	ldr	r2, [r3]
    91a0:	e58dc000 	str	ip, [sp]
    91a4:	e98d4002 	stmib	sp, {r1, lr}
    91a8:	e3a03000 	mov	r3, #0	; 0x0
    91ac:	e58d300c 	str	r3, [sp, #12]
    91b0:	e51b002c 	ldr	r0, [fp, #-44]
    91b4:	e0820000 	add	r0, r2, r0
    91b8:	e51b1030 	ldr	r1, [fp, #-48]
    91bc:	e24b2050 	sub	r2, fp, #80	; 0x50
    91c0:	e51b3034 	ldr	r3, [fp, #-52]
    91c4:	ebfffb7c 	bl	7fbc <_dl_lookup_symbol_x>
    91c8:	e51b2050 	ldr	r2, [fp, #-80]
    91cc:	e51b3030 	ldr	r3, [fp, #-48]
    91d0:	e5832214 	str	r2, [r3, #532]
    91d4:	e51b3030 	ldr	r3, [fp, #-48]
    91d8:	e5830210 	str	r0, [r3, #528]
    91dc:	e1a06000 	mov	r6, r0
    91e0:	e51b3050 	ldr	r3, [fp, #-80]
    91e4:	e3530000 	cmp	r3, #0	; 0x0
    91e8:	15933004 	ldrne	r3, [r3, #4]
    91ec:	10866003 	addne	r6, r6, r3
    91f0:	e2453001 	sub	r3, r5, #1	; 0x1
    91f4:	e3530015 	cmp	r3, #21	; 0x15
    91f8:	908ff103 	addls	pc, pc, r3, lsl #2
    91fc:	ea0000a4 	b	9494 <_dl_relocate_object+0x8b4>
    9200:	ea00004e 	b	9340 <_dl_relocate_object+0x760>
    9204:	ea00003f 	b	9308 <_dl_relocate_object+0x728>
    9208:	ea0000a1 	b	9494 <_dl_relocate_object+0x8b4>
    920c:	ea0000a0 	b	9494 <_dl_relocate_object+0x8b4>
    9210:	ea00009f 	b	9494 <_dl_relocate_object+0x8b4>
    9214:	ea00009e 	b	9494 <_dl_relocate_object+0x8b4>
    9218:	ea00009d 	b	9494 <_dl_relocate_object+0x8b4>
    921c:	ea00009c 	b	9494 <_dl_relocate_object+0x8b4>
    9220:	ea00009b 	b	9494 <_dl_relocate_object+0x8b4>
    9224:	ea00009a 	b	9494 <_dl_relocate_object+0x8b4>
    9228:	ea000099 	b	9494 <_dl_relocate_object+0x8b4>
    922c:	ea000098 	b	9494 <_dl_relocate_object+0x8b4>
    9230:	ea000097 	b	9494 <_dl_relocate_object+0x8b4>
    9234:	ea000096 	b	9494 <_dl_relocate_object+0x8b4>
    9238:	ea000095 	b	9494 <_dl_relocate_object+0x8b4>
    923c:	ea000094 	b	9494 <_dl_relocate_object+0x8b4>
    9240:	ea000093 	b	9494 <_dl_relocate_object+0x8b4>
    9244:	ea000092 	b	9494 <_dl_relocate_object+0x8b4>
    9248:	ea000091 	b	9494 <_dl_relocate_object+0x8b4>
    924c:	ea000001 	b	9258 <_dl_relocate_object+0x678>
    9250:	ea00002a 	b	9300 <_dl_relocate_object+0x720>
    9254:	ea000029 	b	9300 <_dl_relocate_object+0x720>
    9258:	e51b3050 	ldr	r3, [fp, #-80]
    925c:	e3530000 	cmp	r3, #0	; 0x0
    9260:	0a00008f 	beq	94a4 <_dl_relocate_object+0x8c4>
    9264:	e5931008 	ldr	r1, [r3, #8]
    9268:	e51b3084 	ldr	r3, [fp, #-132]
    926c:	e5932008 	ldr	r2, [r3, #8]
    9270:	e1510002 	cmp	r1, r2
    9274:	8a000006 	bhi	9294 <_dl_relocate_object+0x6b4>
    9278:	e59f3964 	ldr	r3, [pc, #2404]	; 9be4 <.text+0x9014>
    927c:	e79a3003 	ldr	r3, [sl, r3]
    9280:	e5933020 	ldr	r3, [r3, #32]
    9284:	e3530000 	cmp	r3, #0	; 0x0
    9288:	0a000012 	beq	92d8 <_dl_relocate_object+0x6f8>
    928c:	e1510002 	cmp	r1, r2
    9290:	2a000010 	bcs	92d8 <_dl_relocate_object+0x6f8>
    9294:	e51bc07c 	ldr	ip, [fp, #-124]
    9298:	e59c3034 	ldr	r3, [ip, #52]
    929c:	e593c004 	ldr	ip, [r3, #4]
    92a0:	e59f395c 	ldr	r3, [pc, #2396]	; 9c04 <.text+0x9034>
    92a4:	e79a3003 	ldr	r3, [sl, r3]
    92a8:	e5933000 	ldr	r3, [r3]
    92ac:	e5932000 	ldr	r2, [r3]
    92b0:	e3520000 	cmp	r2, #0	; 0x0
    92b4:	059f394c 	ldreq	r3, [pc, #2380]	; 9c08 <.text+0x9038>
    92b8:	008a2003 	addeq	r2, sl, r3
    92bc:	e51b0084 	ldr	r0, [fp, #-132]
    92c0:	e5903000 	ldr	r3, [r0]
    92c4:	e3a00002 	mov	r0, #2	; 0x2
    92c8:	e59f1918 	ldr	r1, [pc, #2328]	; 9be8 <.text+0x9018>
    92cc:	e08a1001 	add	r1, sl, r1
    92d0:	e08c3003 	add	r3, ip, r3
    92d4:	eb000d84 	bl	c8ec <_dl_dprintf>
    92d8:	e51b1084 	ldr	r1, [fp, #-132]
    92dc:	e5912008 	ldr	r2, [r1, #8]
    92e0:	e51b3050 	ldr	r3, [fp, #-80]
    92e4:	e5933008 	ldr	r3, [r3, #8]
    92e8:	e51b0080 	ldr	r0, [fp, #-128]
    92ec:	e1a01006 	mov	r1, r6
    92f0:	e1520003 	cmp	r2, r3
    92f4:	21a02003 	movcs	r2, r3
    92f8:	eb002175 	bl	118d4 <memcpy>
    92fc:	ea000068 	b	94a4 <_dl_relocate_object+0x8c4>
    9300:	e5896000 	str	r6, [r9]
    9304:	ea000066 	b	94a4 <_dl_relocate_object+0x8c4>
    9308:	e59f28d0 	ldr	r2, [pc, #2256]	; 9be0 <.text+0x9010>
    930c:	e79a2002 	ldr	r2, [sl, r2]
    9310:	e2823f6e 	add	r3, r2, #440	; 0x1b8
    9314:	e51bc07c 	ldr	ip, [fp, #-124]
    9318:	e15c0003 	cmp	ip, r3
    931c:	059231b8 	ldreq	r3, [r2, #440]
    9320:	051b0084 	ldreq	r0, [fp, #-132]
    9324:	05902004 	ldreq	r2, [r0, #4]
    9328:	00833002 	addeq	r3, r3, r2
    932c:	00636006 	rsbeq	r6, r3, r6
    9330:	e5993000 	ldr	r3, [r9]
    9334:	e0863003 	add	r3, r6, r3
    9338:	e5893000 	str	r3, [r9]
    933c:	ea000058 	b	94a4 <_dl_relocate_object+0x8c4>
    9340:	e5993000 	ldr	r3, [r9]
    9344:	e3c354ff 	bic	r5, r3, #-16777216	; 0xff000000
    9348:	e3130502 	tst	r3, #8388608	; 0x800000
    934c:	138554ff 	orrne	r5, r5, #-16777216	; 0xff000000
    9350:	e0691006 	rsb	r1, r9, r6
    9354:	e0811105 	add	r1, r1, r5, lsl #2
    9358:	e20134fe 	and	r3, r1, #-33554432	; 0xfe000000
    935c:	e35304fe 	cmp	r3, #-33554432	; 0xfe000000
    9360:	13530000 	cmpne	r3, #0	; 0x0
    9364:	0a000044 	beq	947c <_dl_relocate_object+0x89c>
    9368:	e50b6088 	str	r6, [fp, #-136]
    936c:	e51b108c 	ldr	r1, [fp, #-140]
    9370:	e5913000 	ldr	r3, [r1]
    9374:	e3530000 	cmp	r3, #0	; 0x0
    9378:	1a00001e 	bne	93f8 <_dl_relocate_object+0x818>
    937c:	e51b60f8 	ldr	r6, [fp, #-248]
    9380:	e5963000 	ldr	r3, [r6]
    9384:	e3530000 	cmp	r3, #0	; 0x0
    9388:	1a000001 	bne	9394 <_dl_relocate_object+0x7b4>
    938c:	eb001e19 	bl	10bf8 <__getpagesize>
    9390:	e5860000 	str	r0, [r6]
    9394:	e3e03000 	mvn	r3, #0	; 0x0
    9398:	e58d3000 	str	r3, [sp]
    939c:	e3a00000 	mov	r0, #0	; 0x0
    93a0:	e58d0004 	str	r0, [sp, #4]
    93a4:	e51b2090 	ldr	r2, [fp, #-144]
    93a8:	e5921000 	ldr	r1, [r2]
    93ac:	e3a02007 	mov	r2, #7	; 0x7
    93b0:	e2833023 	add	r3, r3, #35	; 0x23
    93b4:	eb001e1d 	bl	10c30 <__mmap>
    93b8:	e51b308c 	ldr	r3, [fp, #-140]
    93bc:	e5830000 	str	r0, [r3]
    93c0:	e3500000 	cmp	r0, #0	; 0x0
    93c4:	1a000008 	bne	93ec <_dl_relocate_object+0x80c>
    93c8:	e59f0820 	ldr	r0, [pc, #2080]	; 9bf0 <.text+0x9020>
    93cc:	e08a0000 	add	r0, sl, r0
    93d0:	e59f181c 	ldr	r1, [pc, #2076]	; 9bf4 <.text+0x9024>
    93d4:	e08a1001 	add	r1, sl, r1
    93d8:	e3a02f5f 	mov	r2, #380	; 0x17c
    93dc:	e2822002 	add	r2, r2, #2	; 0x2
    93e0:	e59f3810 	ldr	r3, [pc, #2064]	; 9bf8 <.text+0x9028>
    93e4:	e79a3003 	ldr	r3, [sl, r3]
    93e8:	eb0018f4 	bl	f7c0 <__GI___assert_fail>
    93ec:	e3a03000 	mov	r3, #0	; 0x0
    93f0:	e51bc094 	ldr	ip, [fp, #-148]
    93f4:	e58c3000 	str	r3, [ip]
    93f8:	e51bc0fc 	ldr	ip, [fp, #-252]
    93fc:	e59c1000 	ldr	r1, [ip]
    9400:	e51b0094 	ldr	r0, [fp, #-148]
    9404:	e5902000 	ldr	r2, [r0]
    9408:	e0810002 	add	r0, r1, r2
    940c:	e3a0324e 	mov	r3, #-536870908	; 0xe0000004
    9410:	e2833651 	add	r3, r3, #84934656	; 0x5100000
    9414:	e2833aff 	add	r3, r3, #1044480	; 0xff000
    9418:	e7813002 	str	r3, [r1, r2]
    941c:	e51b1088 	ldr	r1, [fp, #-136]
    9420:	e5801004 	str	r1, [r0, #4]
    9424:	e51b2094 	ldr	r2, [fp, #-148]
    9428:	e5923000 	ldr	r3, [r2]
    942c:	e2833008 	add	r3, r3, #8	; 0x8
    9430:	e5823000 	str	r3, [r2]
    9434:	e51b1090 	ldr	r1, [fp, #-144]
    9438:	e5912000 	ldr	r2, [r1]
    943c:	e1530002 	cmp	r3, r2
    9440:	23a03000 	movcs	r3, #0	; 0x0
    9444:	258c3000 	strcs	r3, [ip]
    9448:	e0691000 	rsb	r1, r9, r0
    944c:	e0811105 	add	r1, r1, r5, lsl #2
    9450:	e20134fe 	and	r3, r1, #-33554432	; 0xfe000000
    9454:	e35304fe 	cmp	r3, #-33554432	; 0xfe000000
    9458:	13530000 	cmpne	r3, #0	; 0x0
    945c:	0a000006 	beq	947c <_dl_relocate_object+0x89c>
    9460:	e3a00000 	mov	r0, #0	; 0x0
    9464:	e51b207c 	ldr	r2, [fp, #-124]
    9468:	e5921004 	ldr	r1, [r2, #4]
    946c:	e1a02000 	mov	r2, r0
    9470:	e59f3784 	ldr	r3, [pc, #1924]	; 9bfc <.text+0x902c>
    9474:	e08a3003 	add	r3, sl, r3
    9478:	eb0008eb 	bl	b82c <_dl_signal_error>
    947c:	e5993000 	ldr	r3, [r9]
    9480:	e20364ff 	and	r6, r3, #-16777216	; 0xff000000
    9484:	e1a03301 	mov	r3, r1, lsl #6
    9488:	e1866423 	orr	r6, r6, r3, lsr #8
    948c:	e5896000 	str	r6, [r9]
    9490:	ea000003 	b	94a4 <_dl_relocate_object+0x8c4>
    9494:	e51b007c 	ldr	r0, [fp, #-124]
    9498:	e1a01005 	mov	r1, r5
    949c:	e3a02000 	mov	r2, #0	; 0x0
    94a0:	eb000425 	bl	a53c <_dl_reloc_bad_type>
    94a4:	e2844008 	add	r4, r4, #8	; 0x8
    94a8:	e51b3070 	ldr	r3, [fp, #-112]
    94ac:	e1540003 	cmp	r4, r3
    94b0:	3afffee9 	bcc	905c <_dl_relocate_object+0x47c>
    94b4:	ea000116 	b	9914 <_dl_relocate_object+0xd34>
    94b8:	e51bc070 	ldr	ip, [fp, #-112]
    94bc:	e154000c 	cmp	r4, ip
    94c0:	2a000113 	bcs	9914 <_dl_relocate_object+0xd34>
    94c4:	e50b8098 	str	r8, [fp, #-152]
    94c8:	e59f370c 	ldr	r3, [pc, #1804]	; 9bdc <.text+0x900c>
    94cc:	e79a3003 	ldr	r3, [sl, r3]
    94d0:	e50b30a0 	str	r3, [fp, #-160]
    94d4:	e59f3710 	ldr	r3, [pc, #1808]	; 9bec <.text+0x901c>
    94d8:	e79a3003 	ldr	r3, [sl, r3]
    94dc:	e50b30a4 	str	r3, [fp, #-164]
    94e0:	e59f36f4 	ldr	r3, [pc, #1780]	; 9bdc <.text+0x900c>
    94e4:	e79a3003 	ldr	r3, [sl, r3]
    94e8:	e50b30f4 	str	r3, [fp, #-244]
    94ec:	e5943004 	ldr	r3, [r4, #4]
    94f0:	e1a03423 	mov	r3, r3, lsr #8
    94f4:	e51b0074 	ldr	r0, [fp, #-116]
    94f8:	e0803203 	add	r3, r0, r3, lsl #4
    94fc:	e50b3054 	str	r3, [fp, #-84]
    9500:	e5941000 	ldr	r1, [r4]
    9504:	e0878001 	add	r8, r7, r1
    9508:	e50b809c 	str	r8, [fp, #-156]
    950c:	e5d45004 	ldrb	r5, [r4, #4]
    9510:	e3550017 	cmp	r5, #23	; 0x17
    9514:	1a000005 	bne	9530 <_dl_relocate_object+0x950>
    9518:	e7973001 	ldr	r3, [r7, r1]
    951c:	e51bc098 	ldr	ip, [fp, #-152]
    9520:	e59c2000 	ldr	r2, [ip]
    9524:	e0833002 	add	r3, r3, r2
    9528:	e7873001 	str	r3, [r7, r1]
    952c:	ea0000f4 	b	9904 <_dl_relocate_object+0xd24>
    9530:	e3550000 	cmp	r5, #0	; 0x0
    9534:	0a0000f2 	beq	9904 <_dl_relocate_object+0xd24>
    9538:	e51b9054 	ldr	r9, [fp, #-84]
    953c:	e5d9300c 	ldrb	r3, [r9, #12]
    9540:	e1b03223 	movs	r3, r3, lsr #4
    9544:	051b3030 	ldreq	r3, [fp, #-48]
    9548:	05936000 	ldreq	r6, [r3]
    954c:	0a00003e 	beq	964c <_dl_relocate_object+0xa6c>
    9550:	e51b2030 	ldr	r2, [fp, #-48]
    9554:	e5923208 	ldr	r3, [r2, #520]
    9558:	e1530009 	cmp	r3, r9
    955c:	1a000015 	bne	95b8 <_dl_relocate_object+0x9d8>
    9560:	e3550016 	cmp	r5, #22	; 0x16
    9564:	13a03000 	movne	r3, #0	; 0x0
    9568:	03a03001 	moveq	r3, #1	; 0x1
    956c:	e592220c 	ldr	r2, [r2, #524]
    9570:	e3550014 	cmp	r5, #20	; 0x14
    9574:	1a000003 	bne	9588 <_dl_relocate_object+0x9a8>
    9578:	e3833002 	orr	r3, r3, #2	; 0x2
    957c:	e1530002 	cmp	r3, r2
    9580:	0a000002 	beq	9590 <_dl_relocate_object+0x9b0>
    9584:	ea00000b 	b	95b8 <_dl_relocate_object+0x9d8>
    9588:	e1530002 	cmp	r3, r2
    958c:	1a000009 	bne	95b8 <_dl_relocate_object+0x9d8>
    9590:	e59f3648 	ldr	r3, [pc, #1608]	; 9be0 <.text+0x9010>
    9594:	e79a2003 	ldr	r2, [sl, r3]
    9598:	e59231ac 	ldr	r3, [r2, #428]
    959c:	e2833001 	add	r3, r3, #1	; 0x1
    95a0:	e58231ac 	str	r3, [r2, #428]
    95a4:	e51b2030 	ldr	r2, [fp, #-48]
    95a8:	e5923214 	ldr	r3, [r2, #532]
    95ac:	e50b3054 	str	r3, [fp, #-84]
    95b0:	e5926210 	ldr	r6, [r2, #528]
    95b4:	ea000024 	b	964c <_dl_relocate_object+0xa6c>
    95b8:	e3550014 	cmp	r5, #20	; 0x14
    95bc:	13a01000 	movne	r1, #0	; 0x0
    95c0:	03a01001 	moveq	r1, #1	; 0x1
    95c4:	e1a01081 	mov	r1, r1, lsl #1
    95c8:	e3550016 	cmp	r5, #22	; 0x16
    95cc:	03811001 	orreq	r1, r1, #1	; 0x1
    95d0:	e51b3030 	ldr	r3, [fp, #-48]
    95d4:	e583120c 	str	r1, [r3, #524]
    95d8:	e51b2054 	ldr	r2, [fp, #-84]
    95dc:	e51b3030 	ldr	r3, [fp, #-48]
    95e0:	e5832208 	str	r2, [r3, #520]
    95e4:	e3a02000 	mov	r2, #0	; 0x0
    95e8:	e3a00001 	mov	r0, #1	; 0x1
    95ec:	e1520002 	cmp	r2, r2
    95f0:	0a000002 	beq	9600 <_dl_relocate_object+0xa20>
    95f4:	e5923004 	ldr	r3, [r2, #4]
    95f8:	e1530002 	cmp	r3, r2
    95fc:	11a00002 	movne	r0, r2
    9600:	e51b3054 	ldr	r3, [fp, #-84]
    9604:	e5933000 	ldr	r3, [r3]
    9608:	e58d2000 	str	r2, [sp]
    960c:	e58d1004 	str	r1, [sp, #4]
    9610:	e58d0008 	str	r0, [sp, #8]
    9614:	e3a00000 	mov	r0, #0	; 0x0
    9618:	e58d000c 	str	r0, [sp, #12]
    961c:	e51b002c 	ldr	r0, [fp, #-44]
    9620:	e0830000 	add	r0, r3, r0
    9624:	e51b1030 	ldr	r1, [fp, #-48]
    9628:	e24b2054 	sub	r2, fp, #84	; 0x54
    962c:	e51b3034 	ldr	r3, [fp, #-52]
    9630:	ebfffa61 	bl	7fbc <_dl_lookup_symbol_x>
    9634:	e51b2054 	ldr	r2, [fp, #-84]
    9638:	e51b3030 	ldr	r3, [fp, #-48]
    963c:	e5832214 	str	r2, [r3, #532]
    9640:	e51b3030 	ldr	r3, [fp, #-48]
    9644:	e5830210 	str	r0, [r3, #528]
    9648:	e1a06000 	mov	r6, r0
    964c:	e51b3054 	ldr	r3, [fp, #-84]
    9650:	e3530000 	cmp	r3, #0	; 0x0
    9654:	15933004 	ldrne	r3, [r3, #4]
    9658:	10866003 	addne	r6, r6, r3
    965c:	e2453001 	sub	r3, r5, #1	; 0x1
    9660:	e3530015 	cmp	r3, #21	; 0x15
    9664:	908ff103 	addls	pc, pc, r3, lsl #2
    9668:	ea0000a1 	b	98f4 <_dl_relocate_object+0xd14>
    966c:	ea00004a 	b	979c <_dl_relocate_object+0xbbc>
    9670:	ea00003c 	b	9768 <_dl_relocate_object+0xb88>
    9674:	ea00009e 	b	98f4 <_dl_relocate_object+0xd14>
    9678:	ea00009d 	b	98f4 <_dl_relocate_object+0xd14>
    967c:	ea00009c 	b	98f4 <_dl_relocate_object+0xd14>
    9680:	ea00009b 	b	98f4 <_dl_relocate_object+0xd14>
    9684:	ea00009a 	b	98f4 <_dl_relocate_object+0xd14>
    9688:	ea000099 	b	98f4 <_dl_relocate_object+0xd14>
    968c:	ea000098 	b	98f4 <_dl_relocate_object+0xd14>
    9690:	ea000097 	b	98f4 <_dl_relocate_object+0xd14>
    9694:	ea000096 	b	98f4 <_dl_relocate_object+0xd14>
    9698:	ea000095 	b	98f4 <_dl_relocate_object+0xd14>
    969c:	ea000094 	b	98f4 <_dl_relocate_object+0xd14>
    96a0:	ea000093 	b	98f4 <_dl_relocate_object+0xd14>
    96a4:	ea000092 	b	98f4 <_dl_relocate_object+0xd14>
    96a8:	ea000091 	b	98f4 <_dl_relocate_object+0xd14>
    96ac:	ea000090 	b	98f4 <_dl_relocate_object+0xd14>
    96b0:	ea00008f 	b	98f4 <_dl_relocate_object+0xd14>
    96b4:	ea00008e 	b	98f4 <_dl_relocate_object+0xd14>
    96b8:	ea000001 	b	96c4 <_dl_relocate_object+0xae4>
    96bc:	ea000027 	b	9760 <_dl_relocate_object+0xb80>
    96c0:	ea000026 	b	9760 <_dl_relocate_object+0xb80>
    96c4:	e51b3054 	ldr	r3, [fp, #-84]
    96c8:	e3530000 	cmp	r3, #0	; 0x0
    96cc:	0a00008c 	beq	9904 <_dl_relocate_object+0xd24>
    96d0:	e5931008 	ldr	r1, [r3, #8]
    96d4:	e5992008 	ldr	r2, [r9, #8]
    96d8:	e1510002 	cmp	r1, r2
    96dc:	8a000006 	bhi	96fc <_dl_relocate_object+0xb1c>
    96e0:	e59f34fc 	ldr	r3, [pc, #1276]	; 9be4 <.text+0x9014>
    96e4:	e79a3003 	ldr	r3, [sl, r3]
    96e8:	e5933020 	ldr	r3, [r3, #32]
    96ec:	e3530000 	cmp	r3, #0	; 0x0
    96f0:	0a000011 	beq	973c <_dl_relocate_object+0xb5c>
    96f4:	e1510002 	cmp	r1, r2
    96f8:	2a00000f 	bcs	973c <_dl_relocate_object+0xb5c>
    96fc:	e51b1098 	ldr	r1, [fp, #-152]
    9700:	e5913034 	ldr	r3, [r1, #52]
    9704:	e593c004 	ldr	ip, [r3, #4]
    9708:	e59f34f4 	ldr	r3, [pc, #1268]	; 9c04 <.text+0x9034>
    970c:	e79a3003 	ldr	r3, [sl, r3]
    9710:	e5933000 	ldr	r3, [r3]
    9714:	e5932000 	ldr	r2, [r3]
    9718:	e3520000 	cmp	r2, #0	; 0x0
    971c:	059f34e4 	ldreq	r3, [pc, #1252]	; 9c08 <.text+0x9038>
    9720:	008a2003 	addeq	r2, sl, r3
    9724:	e5993000 	ldr	r3, [r9]
    9728:	e3a00002 	mov	r0, #2	; 0x2
    972c:	e59f14b4 	ldr	r1, [pc, #1204]	; 9be8 <.text+0x9018>
    9730:	e08a1001 	add	r1, sl, r1
    9734:	e08c3003 	add	r3, ip, r3
    9738:	eb000c6b 	bl	c8ec <_dl_dprintf>
    973c:	e5992008 	ldr	r2, [r9, #8]
    9740:	e51b3054 	ldr	r3, [fp, #-84]
    9744:	e5933008 	ldr	r3, [r3, #8]
    9748:	e51b009c 	ldr	r0, [fp, #-156]
    974c:	e1a01006 	mov	r1, r6
    9750:	e1520003 	cmp	r2, r3
    9754:	21a02003 	movcs	r2, r3
    9758:	eb00205d 	bl	118d4 <memcpy>
    975c:	ea000068 	b	9904 <_dl_relocate_object+0xd24>
    9760:	e5886000 	str	r6, [r8]
    9764:	ea000066 	b	9904 <_dl_relocate_object+0xd24>
    9768:	e59f2470 	ldr	r2, [pc, #1136]	; 9be0 <.text+0x9010>
    976c:	e79a2002 	ldr	r2, [sl, r2]
    9770:	e2823f6e 	add	r3, r2, #440	; 0x1b8
    9774:	e51bc098 	ldr	ip, [fp, #-152]
    9778:	e15c0003 	cmp	ip, r3
    977c:	059231b8 	ldreq	r3, [r2, #440]
    9780:	05992004 	ldreq	r2, [r9, #4]
    9784:	00833002 	addeq	r3, r3, r2
    9788:	00636006 	rsbeq	r6, r3, r6
    978c:	e5983000 	ldr	r3, [r8]
    9790:	e0863003 	add	r3, r6, r3
    9794:	e5883000 	str	r3, [r8]
    9798:	ea000059 	b	9904 <_dl_relocate_object+0xd24>
    979c:	e5983000 	ldr	r3, [r8]
    97a0:	e3c354ff 	bic	r5, r3, #-16777216	; 0xff000000
    97a4:	e3130502 	tst	r3, #8388608	; 0x800000
    97a8:	138554ff 	orrne	r5, r5, #-16777216	; 0xff000000
    97ac:	e0681006 	rsb	r1, r8, r6
    97b0:	e0811105 	add	r1, r1, r5, lsl #2
    97b4:	e20134fe 	and	r3, r1, #-33554432	; 0xfe000000
    97b8:	e35304fe 	cmp	r3, #-33554432	; 0xfe000000
    97bc:	13530000 	cmpne	r3, #0	; 0x0
    97c0:	0a000045 	beq	98dc <_dl_relocate_object+0xcfc>
    97c4:	e1a09006 	mov	r9, r6
    97c8:	e51b00a0 	ldr	r0, [fp, #-160]
    97cc:	e5903000 	ldr	r3, [r0]
    97d0:	e3530000 	cmp	r3, #0	; 0x0
    97d4:	1a000020 	bne	985c <_dl_relocate_object+0xc7c>
    97d8:	e59f340c 	ldr	r3, [pc, #1036]	; 9bec <.text+0x901c>
    97dc:	e79a6003 	ldr	r6, [sl, r3]
    97e0:	e5963000 	ldr	r3, [r6]
    97e4:	e3530000 	cmp	r3, #0	; 0x0
    97e8:	1a000001 	bne	97f4 <_dl_relocate_object+0xc14>
    97ec:	eb001d01 	bl	10bf8 <__getpagesize>
    97f0:	e5860000 	str	r0, [r6]
    97f4:	e3e03000 	mvn	r3, #0	; 0x0
    97f8:	e58d3000 	str	r3, [sp]
    97fc:	e3a01000 	mov	r1, #0	; 0x0
    9800:	e58d1004 	str	r1, [sp, #4]
    9804:	e1a00001 	mov	r0, r1
    9808:	e51b20a4 	ldr	r2, [fp, #-164]
    980c:	e5921000 	ldr	r1, [r2]
    9810:	e3a02007 	mov	r2, #7	; 0x7
    9814:	e2833023 	add	r3, r3, #35	; 0x23
    9818:	eb001d04 	bl	10c30 <__mmap>
    981c:	e51b30a0 	ldr	r3, [fp, #-160]
    9820:	e5830000 	str	r0, [r3]
    9824:	e3500000 	cmp	r0, #0	; 0x0
    9828:	1a000008 	bne	9850 <_dl_relocate_object+0xc70>
    982c:	e59f03bc 	ldr	r0, [pc, #956]	; 9bf0 <.text+0x9020>
    9830:	e08a0000 	add	r0, sl, r0
    9834:	e59f13b8 	ldr	r1, [pc, #952]	; 9bf4 <.text+0x9024>
    9838:	e08a1001 	add	r1, sl, r1
    983c:	e3a02f5f 	mov	r2, #380	; 0x17c
    9840:	e2822002 	add	r2, r2, #2	; 0x2
    9844:	e59f33ac 	ldr	r3, [pc, #940]	; 9bf8 <.text+0x9028>
    9848:	e79a3003 	ldr	r3, [sl, r3]
    984c:	eb0017db 	bl	f7c0 <__GI___assert_fail>
    9850:	e3a00000 	mov	r0, #0	; 0x0
    9854:	e51bc094 	ldr	ip, [fp, #-148]
    9858:	e58c0000 	str	r0, [ip]
    985c:	e51bc0f4 	ldr	ip, [fp, #-244]
    9860:	e59c1000 	ldr	r1, [ip]
    9864:	e51b3094 	ldr	r3, [fp, #-148]
    9868:	e5932000 	ldr	r2, [r3]
    986c:	e0810002 	add	r0, r1, r2
    9870:	e3a0324e 	mov	r3, #-536870908	; 0xe0000004
    9874:	e2833651 	add	r3, r3, #84934656	; 0x5100000
    9878:	e2833aff 	add	r3, r3, #1044480	; 0xff000
    987c:	e7813002 	str	r3, [r1, r2]
    9880:	e5809004 	str	r9, [r0, #4]
    9884:	e51b1094 	ldr	r1, [fp, #-148]
    9888:	e5913000 	ldr	r3, [r1]
    988c:	e2833008 	add	r3, r3, #8	; 0x8
    9890:	e5813000 	str	r3, [r1]
    9894:	e51b10a4 	ldr	r1, [fp, #-164]
    9898:	e5912000 	ldr	r2, [r1]
    989c:	e1530002 	cmp	r3, r2
    98a0:	23a02000 	movcs	r2, #0	; 0x0
    98a4:	258c2000 	strcs	r2, [ip]
    98a8:	e0681000 	rsb	r1, r8, r0
    98ac:	e0811105 	add	r1, r1, r5, lsl #2
    98b0:	e20134fe 	and	r3, r1, #-33554432	; 0xfe000000
    98b4:	e35304fe 	cmp	r3, #-33554432	; 0xfe000000
    98b8:	13530000 	cmpne	r3, #0	; 0x0
    98bc:	0a000006 	beq	98dc <_dl_relocate_object+0xcfc>
    98c0:	e3a00000 	mov	r0, #0	; 0x0
    98c4:	e51b3098 	ldr	r3, [fp, #-152]
    98c8:	e5931004 	ldr	r1, [r3, #4]
    98cc:	e1a02000 	mov	r2, r0
    98d0:	e59f3324 	ldr	r3, [pc, #804]	; 9bfc <.text+0x902c>
    98d4:	e08a3003 	add	r3, sl, r3
    98d8:	eb0007d3 	bl	b82c <_dl_signal_error>
    98dc:	e5983000 	ldr	r3, [r8]
    98e0:	e20364ff 	and	r6, r3, #-16777216	; 0xff000000
    98e4:	e1a03301 	mov	r3, r1, lsl #6
    98e8:	e1866423 	orr	r6, r6, r3, lsr #8
    98ec:	e5886000 	str	r6, [r8]
    98f0:	ea000003 	b	9904 <_dl_relocate_object+0xd24>
    98f4:	e51b0098 	ldr	r0, [fp, #-152]
    98f8:	e1a01005 	mov	r1, r5
    98fc:	e3a02000 	mov	r2, #0	; 0x0
    9900:	eb00030d 	bl	a53c <_dl_reloc_bad_type>
    9904:	e2844008 	add	r4, r4, #8	; 0x8
    9908:	e51bc070 	ldr	ip, [fp, #-112]
    990c:	e154000c 	cmp	r4, ip
    9910:	3afffef5 	bcc	94ec <_dl_relocate_object+0x90c>
    9914:	e51b006c 	ldr	r0, [fp, #-108]
    9918:	e2800001 	add	r0, r0, #1	; 0x1
    991c:	e50b006c 	str	r0, [fp, #-108]
    9920:	e3500001 	cmp	r0, #1	; 0x1
    9924:	dafffd7a 	ble	8f14 <_dl_relocate_object+0x334>
    9928:	e3a03000 	mov	r3, #0	; 0x0
    992c:	e50b3044 	str	r3, [fp, #-68]
    9930:	e50b303c 	str	r3, [fp, #-60]
    9934:	e50b3048 	str	r3, [fp, #-72]
    9938:	e50b304c 	str	r3, [fp, #-76]
    993c:	e51b2030 	ldr	r2, [fp, #-48]
    9940:	e592303c 	ldr	r3, [r2, #60]
    9944:	e3530000 	cmp	r3, #0	; 0x0
    9948:	15933004 	ldrne	r3, [r3, #4]
    994c:	150b304c 	strne	r3, [fp, #-76]
    9950:	15923040 	ldrne	r3, [r2, #64]
    9954:	15933004 	ldrne	r3, [r3, #4]
    9958:	150b3048 	strne	r3, [fp, #-72]
    995c:	e51b2030 	ldr	r2, [fp, #-48]
    9960:	e5923070 	ldr	r3, [r2, #112]
    9964:	e3530000 	cmp	r3, #0	; 0x0
    9968:	0a00001a 	beq	99d8 <_dl_relocate_object+0xdf8>
    996c:	e5933004 	ldr	r3, [r3, #4]
    9970:	e3530007 	cmp	r3, #7	; 0x7
    9974:	1a000017 	bne	99d8 <_dl_relocate_object+0xdf8>
    9978:	e592307c 	ldr	r3, [r2, #124]
    997c:	e5931004 	ldr	r1, [r3, #4]
    9980:	e51b2068 	ldr	r2, [fp, #-104]
    9984:	e3520000 	cmp	r2, #0	; 0x0
    9988:	1a000004 	bne	99a0 <_dl_relocate_object+0xdc0>
    998c:	e51b304c 	ldr	r3, [fp, #-76]
    9990:	e51b2048 	ldr	r2, [fp, #-72]
    9994:	e0833002 	add	r3, r3, r2
    9998:	e1530001 	cmp	r3, r1
    999c:	0a000007 	beq	99c0 <_dl_relocate_object+0xde0>
    99a0:	e50b1040 	str	r1, [fp, #-64]
    99a4:	e51b3030 	ldr	r3, [fp, #-48]
    99a8:	e5933028 	ldr	r3, [r3, #40]
    99ac:	e5933004 	ldr	r3, [r3, #4]
    99b0:	e50b303c 	str	r3, [fp, #-60]
    99b4:	e51b3068 	ldr	r3, [fp, #-104]
    99b8:	e50b3038 	str	r3, [fp, #-56]
    99bc:	ea000005 	b	99d8 <_dl_relocate_object+0xdf8>
    99c0:	e51b3030 	ldr	r3, [fp, #-48]
    99c4:	e5933028 	ldr	r3, [r3, #40]
    99c8:	e5932004 	ldr	r2, [r3, #4]
    99cc:	e51b3048 	ldr	r3, [fp, #-72]
    99d0:	e0833002 	add	r3, r3, r2
    99d4:	e50b3048 	str	r3, [fp, #-72]
    99d8:	e3a0c000 	mov	ip, #0	; 0x0
    99dc:	e50bc0a8 	str	ip, [fp, #-168]
    99e0:	e59f31f0 	ldr	r3, [pc, #496]	; 9bd8 <.text+0x9008>
    99e4:	e79a3003 	ldr	r3, [sl, r3]
    99e8:	e50b30d0 	str	r3, [fp, #-208]
    99ec:	e51b7030 	ldr	r7, [fp, #-48]
    99f0:	e51b00a8 	ldr	r0, [fp, #-168]
    99f4:	e0803080 	add	r3, r0, r0, lsl #1
    99f8:	e24b1028 	sub	r1, fp, #40	; 0x28
    99fc:	e0813103 	add	r3, r1, r3, lsl #2
    9a00:	e5130020 	ldr	r0, [r3, #-32]
    9a04:	e5136024 	ldr	r6, [r3, #-36]
    9a08:	e0862000 	add	r2, r6, r0
    9a0c:	e50b20ac 	str	r2, [fp, #-172]
    9a10:	e5978000 	ldr	r8, [r7]
    9a14:	e5973038 	ldr	r3, [r7, #56]
    9a18:	e5933004 	ldr	r3, [r3, #4]
    9a1c:	e50b30b0 	str	r3, [fp, #-176]
    9a20:	e59730c0 	ldr	r3, [r7, #192]
    9a24:	e3530000 	cmp	r3, #0	; 0x0
    9a28:	15935004 	ldrne	r5, [r3, #4]
    9a2c:	03a05000 	moveq	r5, #0	; 0x0
    9a30:	e1a04006 	mov	r4, r6
    9a34:	e3a0100c 	mov	r1, #12	; 0xc
    9a38:	eb0020e4 	bl	11dd0 <__udivsi3>
    9a3c:	e1500005 	cmp	r0, r5
    9a40:	21a00005 	movcs	r0, r5
    9a44:	e0800080 	add	r0, r0, r0, lsl #1
    9a48:	e0866100 	add	r6, r6, r0, lsl #2
    9a4c:	e59f318c 	ldr	r3, [pc, #396]	; 9be0 <.text+0x9010>
    9a50:	e79a3003 	ldr	r3, [sl, r3]
    9a54:	e2833f6e 	add	r3, r3, #440	; 0x1b8
    9a58:	e1570003 	cmp	r7, r3
    9a5c:	0a00000d 	beq	9a98 <_dl_relocate_object+0xeb8>
    9a60:	e3580000 	cmp	r8, #0	; 0x0
    9a64:	1a000002 	bne	9a74 <_dl_relocate_object+0xe94>
    9a68:	e597311c 	ldr	r3, [r7, #284]
    9a6c:	e3530000 	cmp	r3, #0	; 0x0
    9a70:	1a000008 	bne	9a98 <_dl_relocate_object+0xeb8>
    9a74:	e1540006 	cmp	r4, r6
    9a78:	2a000006 	bcs	9a98 <_dl_relocate_object+0xeb8>
    9a7c:	e5942000 	ldr	r2, [r4]
    9a80:	e5943008 	ldr	r3, [r4, #8]
    9a84:	e0883003 	add	r3, r8, r3
    9a88:	e7883002 	str	r3, [r8, r2]
    9a8c:	e284400c 	add	r4, r4, #12	; 0xc
    9a90:	e1540006 	cmp	r4, r6
    9a94:	3afffff8 	bcc	9a7c <_dl_relocate_object+0xe9c>
    9a98:	e59730e4 	ldr	r3, [r7, #228]
    9a9c:	e3530000 	cmp	r3, #0	; 0x0
    9aa0:	0a000135 	beq	9f7c <.text+0x93ac>
    9aa4:	e5933004 	ldr	r3, [r3, #4]
    9aa8:	e50b30b4 	str	r3, [fp, #-180]
    9aac:	e51b30ac 	ldr	r3, [fp, #-172]
    9ab0:	e1560003 	cmp	r6, r3
    9ab4:	2a00023d 	bcs	a3b0 <.text+0x97e0>
    9ab8:	e50b70b8 	str	r7, [fp, #-184]
    9abc:	e59f3118 	ldr	r3, [pc, #280]	; 9bdc <.text+0x900c>
    9ac0:	e79a3003 	ldr	r3, [sl, r3]
    9ac4:	e50b30c8 	str	r3, [fp, #-200]
    9ac8:	e59f311c 	ldr	r3, [pc, #284]	; 9bec <.text+0x901c>
    9acc:	e79a3003 	ldr	r3, [sl, r3]
    9ad0:	e50b30ec 	str	r3, [fp, #-236]
    9ad4:	e59f3110 	ldr	r3, [pc, #272]	; 9bec <.text+0x901c>
    9ad8:	e79a3003 	ldr	r3, [sl, r3]
    9adc:	e50b30cc 	str	r3, [fp, #-204]
    9ae0:	e59f30f4 	ldr	r3, [pc, #244]	; 9bdc <.text+0x900c>
    9ae4:	e79a3003 	ldr	r3, [sl, r3]
    9ae8:	e50b30f0 	str	r3, [fp, #-240]
    9aec:	e5961004 	ldr	r1, [r6, #4]
    9af0:	e1a01421 	mov	r1, r1, lsr #8
    9af4:	e1a03081 	mov	r3, r1, lsl #1
    9af8:	e51bc0b4 	ldr	ip, [fp, #-180]
    9afc:	e083200c 	add	r2, r3, ip
    9b00:	e7d3300c 	ldrb	r3, [r3, ip]
    9b04:	e5d22001 	ldrb	r2, [r2, #1]
    9b08:	e1833402 	orr	r3, r3, r2, lsl #8
    9b0c:	e1a03883 	mov	r3, r3, lsl #17
    9b10:	e1a038a3 	mov	r3, r3, lsr #17
    9b14:	e50b60bc 	str	r6, [fp, #-188]
    9b18:	e51b00b0 	ldr	r0, [fp, #-176]
    9b1c:	e0801201 	add	r1, r0, r1, lsl #4
    9b20:	e50b1058 	str	r1, [fp, #-88]
    9b24:	e5972188 	ldr	r2, [r7, #392]
    9b28:	e0820203 	add	r0, r2, r3, lsl #4
    9b2c:	e5961000 	ldr	r1, [r6]
    9b30:	e0882001 	add	r2, r8, r1
    9b34:	e50b20c4 	str	r2, [fp, #-196]
    9b38:	e50b20c0 	str	r2, [fp, #-192]
    9b3c:	e5d64004 	ldrb	r4, [r6, #4]
    9b40:	e3540017 	cmp	r4, #23	; 0x17
    9b44:	05973000 	ldreq	r3, [r7]
    9b48:	05962008 	ldreq	r2, [r6, #8]
    9b4c:	00833002 	addeq	r3, r3, r2
    9b50:	07883001 	streq	r3, [r8, r1]
    9b54:	0a000103 	beq	9f68 <.text+0x9398>
    9b58:	e3540000 	cmp	r4, #0	; 0x0
    9b5c:	0a000101 	beq	9f68 <.text+0x9398>
    9b60:	e51b9058 	ldr	r9, [fp, #-88]
    9b64:	e5d9300c 	ldrb	r3, [r9, #12]
    9b68:	e1b03223 	movs	r3, r3, lsr #4
    9b6c:	051b3030 	ldreq	r3, [fp, #-48]
    9b70:	05935000 	ldreq	r5, [r3]
    9b74:	0a000056 	beq	9cd4 <.text+0x9104>
    9b78:	e51b2030 	ldr	r2, [fp, #-48]
    9b7c:	e5923208 	ldr	r3, [r2, #520]
    9b80:	e1530009 	cmp	r3, r9
    9b84:	1a00002d 	bne	9c40 <.text+0x9070>
    9b88:	e3540016 	cmp	r4, #22	; 0x16
    9b8c:	13a03000 	movne	r3, #0	; 0x0
    9b90:	03a03001 	moveq	r3, #1	; 0x1
    9b94:	e592220c 	ldr	r2, [r2, #524]
    9b98:	e3540014 	cmp	r4, #20	; 0x14
    9b9c:	1a00001b 	bne	9c10 <.text+0x9040>
    9ba0:	e3833002 	orr	r3, r3, #2	; 0x2
    9ba4:	e1530002 	cmp	r3, r2
    9ba8:	0a00001a 	beq	9c18 <.text+0x9048>
    9bac:	ea000023 	b	9c40 <.text+0x9070>
    9bb0:	00014998 	muleq	r1, r8, r9
    9bb4:	ffff6ee8 	swinv	0x00ff6ee8
    9bb8:	ffff6010 	swinv	0x00ff6010
    9bbc:	ffff6e14 	swinv	0x00ff6e14
    9bc0:	ffff6e34 	swinv	0x00ff6e34
    9bc4:	00000238 	andeq	r0, r0, r8, lsr r2
    9bc8:	ffff6e60 	swinv	0x00ff6e60
    9bcc:	73516240 	cmpvc	r1, #4	; 0x4
    9bd0:	00000218 	andeq	r0, r0, r8, lsl r2
    9bd4:	000001e8 	andeq	r0, r0, r8, ror #3
    9bd8:	000000f8 	streqd	r0, [r0], -r8
    9bdc:	000000f4 	streqd	r0, [r0], -r4
    9be0:	0000023c 	andeq	r0, r0, ip, lsr r2
    9be4:	00000210 	andeq	r0, r0, r0, lsl r2
    9be8:	ffff58c8 	swinv	0x00ff58c8
    9bec:	000000fc 	streqd	r0, [r0], -ip
    9bf0:	ffff5914 	swinv	0x00ff5914
    9bf4:	ffff5938 	swinv	0x00ff5938
    9bf8:	000000f0 	streqd	r0, [r0], -r0
    9bfc:	ffff5954 	swinv	0x00ff5954
    9c00:	ffff6e88 	swinv	0x00ff6e88
    9c04:	000001d8 	ldreqd	r0, [r0], -r8
    9c08:	ffff58b0 	swinv	0x00ff58b0
    9c0c:	ffff6eb4 	swinv	0x00ff6eb4
    9c10:	e1530002 	cmp	r3, r2
    9c14:	1a000009 	bne	9c40 <.text+0x9070>
    9c18:	e51f3040 	ldr	r3, [pc, #-64]	; 9be0 <.text+0x9010>
    9c1c:	e79a2003 	ldr	r2, [sl, r3]
    9c20:	e59231ac 	ldr	r3, [r2, #428]
    9c24:	e2833001 	add	r3, r3, #1	; 0x1
    9c28:	e58231ac 	str	r3, [r2, #428]
    9c2c:	e51b2030 	ldr	r2, [fp, #-48]
    9c30:	e5923214 	ldr	r3, [r2, #532]
    9c34:	e50b3058 	str	r3, [fp, #-88]
    9c38:	e5925210 	ldr	r5, [r2, #528]
    9c3c:	ea000024 	b	9cd4 <.text+0x9104>
    9c40:	e3540014 	cmp	r4, #20	; 0x14
    9c44:	13a01000 	movne	r1, #0	; 0x0
    9c48:	03a01001 	moveq	r1, #1	; 0x1
    9c4c:	e1a01081 	mov	r1, r1, lsl #1
    9c50:	e3540016 	cmp	r4, #22	; 0x16
    9c54:	03811001 	orreq	r1, r1, #1	; 0x1
    9c58:	e51b3030 	ldr	r3, [fp, #-48]
    9c5c:	e583120c 	str	r1, [r3, #524]
    9c60:	e51b2058 	ldr	r2, [fp, #-88]
    9c64:	e51b3030 	ldr	r3, [fp, #-48]
    9c68:	e5832208 	str	r2, [r3, #520]
    9c6c:	e3a0c000 	mov	ip, #0	; 0x0
    9c70:	e3a0e001 	mov	lr, #1	; 0x1
    9c74:	e150000c 	cmp	r0, ip
    9c78:	0a000003 	beq	9c8c <.text+0x90bc>
    9c7c:	e5903004 	ldr	r3, [r0, #4]
    9c80:	e153000c 	cmp	r3, ip
    9c84:	11a0c000 	movne	ip, r0
    9c88:	124ee001 	subne	lr, lr, #1	; 0x1
    9c8c:	e51b3058 	ldr	r3, [fp, #-88]
    9c90:	e5932000 	ldr	r2, [r3]
    9c94:	e58dc000 	str	ip, [sp]
    9c98:	e98d4002 	stmib	sp, {r1, lr}
    9c9c:	e3a03000 	mov	r3, #0	; 0x0
    9ca0:	e58d300c 	str	r3, [sp, #12]
    9ca4:	e51b002c 	ldr	r0, [fp, #-44]
    9ca8:	e0820000 	add	r0, r2, r0
    9cac:	e51b1030 	ldr	r1, [fp, #-48]
    9cb0:	e24b2058 	sub	r2, fp, #88	; 0x58
    9cb4:	e51b3034 	ldr	r3, [fp, #-52]
    9cb8:	ebfff8bf 	bl	7fbc <_dl_lookup_symbol_x>
    9cbc:	e51b2058 	ldr	r2, [fp, #-88]
    9cc0:	e51b3030 	ldr	r3, [fp, #-48]
    9cc4:	e5832214 	str	r2, [r3, #532]
    9cc8:	e51b3030 	ldr	r3, [fp, #-48]
    9ccc:	e5830210 	str	r0, [r3, #528]
    9cd0:	e1a05000 	mov	r5, r0
    9cd4:	e51b3058 	ldr	r3, [fp, #-88]
    9cd8:	e3530000 	cmp	r3, #0	; 0x0
    9cdc:	15933004 	ldrne	r3, [r3, #4]
    9ce0:	10855003 	addne	r5, r5, r3
    9ce4:	e2443001 	sub	r3, r4, #1	; 0x1
    9ce8:	e3530015 	cmp	r3, #21	; 0x15
    9cec:	908ff103 	addls	pc, pc, r3, lsl #2
    9cf0:	ea000098 	b	9f58 <.text+0x9388>
    9cf4:	ea000041 	b	9e00 <.text+0x9230>
    9cf8:	ea00003a 	b	9de8 <.text+0x9218>
    9cfc:	ea000095 	b	9f58 <.text+0x9388>
    9d00:	ea000094 	b	9f58 <.text+0x9388>
    9d04:	ea000093 	b	9f58 <.text+0x9388>
    9d08:	ea000092 	b	9f58 <.text+0x9388>
    9d0c:	ea000091 	b	9f58 <.text+0x9388>
    9d10:	ea000090 	b	9f58 <.text+0x9388>
    9d14:	ea00008f 	b	9f58 <.text+0x9388>
    9d18:	ea00008e 	b	9f58 <.text+0x9388>
    9d1c:	ea00008d 	b	9f58 <.text+0x9388>
    9d20:	ea00008c 	b	9f58 <.text+0x9388>
    9d24:	ea00008b 	b	9f58 <.text+0x9388>
    9d28:	ea00008a 	b	9f58 <.text+0x9388>
    9d2c:	ea000089 	b	9f58 <.text+0x9388>
    9d30:	ea000088 	b	9f58 <.text+0x9388>
    9d34:	ea000087 	b	9f58 <.text+0x9388>
    9d38:	ea000086 	b	9f58 <.text+0x9388>
    9d3c:	ea000085 	b	9f58 <.text+0x9388>
    9d40:	ea000001 	b	9d4c <.text+0x917c>
    9d44:	ea000027 	b	9de8 <.text+0x9218>
    9d48:	ea000026 	b	9de8 <.text+0x9218>
    9d4c:	e51b3058 	ldr	r3, [fp, #-88]
    9d50:	e3530000 	cmp	r3, #0	; 0x0
    9d54:	0a000083 	beq	9f68 <.text+0x9398>
    9d58:	e5931008 	ldr	r1, [r3, #8]
    9d5c:	e5992008 	ldr	r2, [r9, #8]
    9d60:	e1510002 	cmp	r1, r2
    9d64:	8a000006 	bhi	9d84 <.text+0x91b4>
    9d68:	e51f318c 	ldr	r3, [pc, #-396]	; 9be4 <.text+0x9014>
    9d6c:	e79a3003 	ldr	r3, [sl, r3]
    9d70:	e5933020 	ldr	r3, [r3, #32]
    9d74:	e3530000 	cmp	r3, #0	; 0x0
    9d78:	0a000011 	beq	9dc4 <.text+0x91f4>
    9d7c:	e1510002 	cmp	r1, r2
    9d80:	2a00000f 	bcs	9dc4 <.text+0x91f4>
    9d84:	e51bc0b8 	ldr	ip, [fp, #-184]
    9d88:	e59c3034 	ldr	r3, [ip, #52]
    9d8c:	e593c004 	ldr	ip, [r3, #4]
    9d90:	e51f3194 	ldr	r3, [pc, #-404]	; 9c04 <.text+0x9034>
    9d94:	e79a3003 	ldr	r3, [sl, r3]
    9d98:	e5933000 	ldr	r3, [r3]
    9d9c:	e5932000 	ldr	r2, [r3]
    9da0:	e3520000 	cmp	r2, #0	; 0x0
    9da4:	051f31a4 	ldreq	r3, [pc, #-420]	; 9c08 <.text+0x9038>
    9da8:	008a2003 	addeq	r2, sl, r3
    9dac:	e5993000 	ldr	r3, [r9]
    9db0:	e3a00002 	mov	r0, #2	; 0x2
    9db4:	e51f11d4 	ldr	r1, [pc, #-468]	; 9be8 <.text+0x9018>
    9db8:	e08a1001 	add	r1, sl, r1
    9dbc:	e08c3003 	add	r3, ip, r3
    9dc0:	eb000ac9 	bl	c8ec <_dl_dprintf>
    9dc4:	e5992008 	ldr	r2, [r9, #8]
    9dc8:	e51b3058 	ldr	r3, [fp, #-88]
    9dcc:	e5933008 	ldr	r3, [r3, #8]
    9dd0:	e51b00c0 	ldr	r0, [fp, #-192]
    9dd4:	e1a01005 	mov	r1, r5
    9dd8:	e1520003 	cmp	r2, r3
    9ddc:	21a02003 	movcs	r2, r3
    9de0:	eb001ebb 	bl	118d4 <memcpy>
    9de4:	ea00005f 	b	9f68 <.text+0x9398>
    9de8:	e51b00bc 	ldr	r0, [fp, #-188]
    9dec:	e5903008 	ldr	r3, [r0, #8]
    9df0:	e0853003 	add	r3, r5, r3
    9df4:	e51b10c4 	ldr	r1, [fp, #-196]
    9df8:	e5813000 	str	r3, [r1]
    9dfc:	ea000059 	b	9f68 <.text+0x9398>
    9e00:	e51b20bc 	ldr	r2, [fp, #-188]
    9e04:	e5923008 	ldr	r3, [r2, #8]
    9e08:	e0851003 	add	r1, r5, r3
    9e0c:	e51b30c4 	ldr	r3, [fp, #-196]
    9e10:	e0631001 	rsb	r1, r3, r1
    9e14:	e20134fe 	and	r3, r1, #-33554432	; 0xfe000000
    9e18:	e35304fe 	cmp	r3, #-33554432	; 0xfe000000
    9e1c:	13530000 	cmpne	r3, #0	; 0x0
    9e20:	0a000045 	beq	9f3c <.text+0x936c>
    9e24:	e51bc0c8 	ldr	ip, [fp, #-200]
    9e28:	e59c3000 	ldr	r3, [ip]
    9e2c:	e3530000 	cmp	r3, #0	; 0x0
    9e30:	1a00001e 	bne	9eb0 <.text+0x92e0>
    9e34:	e51b40ec 	ldr	r4, [fp, #-236]
    9e38:	e5943000 	ldr	r3, [r4]
    9e3c:	e3530000 	cmp	r3, #0	; 0x0
    9e40:	1a000001 	bne	9e4c <.text+0x927c>
    9e44:	eb001b6b 	bl	10bf8 <__getpagesize>
    9e48:	e5840000 	str	r0, [r4]
    9e4c:	e3e03000 	mvn	r3, #0	; 0x0
    9e50:	e58d3000 	str	r3, [sp]
    9e54:	e3a00000 	mov	r0, #0	; 0x0
    9e58:	e58d0004 	str	r0, [sp, #4]
    9e5c:	e51b20cc 	ldr	r2, [fp, #-204]
    9e60:	e5921000 	ldr	r1, [r2]
    9e64:	e3a02007 	mov	r2, #7	; 0x7
    9e68:	e2833023 	add	r3, r3, #35	; 0x23
    9e6c:	eb001b6f 	bl	10c30 <__mmap>
    9e70:	e51b30c8 	ldr	r3, [fp, #-200]
    9e74:	e5830000 	str	r0, [r3]
    9e78:	e3500000 	cmp	r0, #0	; 0x0
    9e7c:	1a000008 	bne	9ea4 <.text+0x92d4>
    9e80:	e51f0298 	ldr	r0, [pc, #-664]	; 9bf0 <.text+0x9020>
    9e84:	e08a0000 	add	r0, sl, r0
    9e88:	e51f129c 	ldr	r1, [pc, #-668]	; 9bf4 <.text+0x9024>
    9e8c:	e08a1001 	add	r1, sl, r1
    9e90:	e3a02f5f 	mov	r2, #380	; 0x17c
    9e94:	e2822002 	add	r2, r2, #2	; 0x2
    9e98:	e51f32a8 	ldr	r3, [pc, #-680]	; 9bf8 <.text+0x9028>
    9e9c:	e79a3003 	ldr	r3, [sl, r3]
    9ea0:	eb001646 	bl	f7c0 <__GI___assert_fail>
    9ea4:	e3a03000 	mov	r3, #0	; 0x0
    9ea8:	e51bc0d0 	ldr	ip, [fp, #-208]
    9eac:	e58c3000 	str	r3, [ip]
    9eb0:	e51bc0f0 	ldr	ip, [fp, #-240]
    9eb4:	e59c1000 	ldr	r1, [ip]
    9eb8:	e51b00d0 	ldr	r0, [fp, #-208]
    9ebc:	e5902000 	ldr	r2, [r0]
    9ec0:	e0810002 	add	r0, r1, r2
    9ec4:	e3a0324e 	mov	r3, #-536870908	; 0xe0000004
    9ec8:	e2833651 	add	r3, r3, #84934656	; 0x5100000
    9ecc:	e2833aff 	add	r3, r3, #1044480	; 0xff000
    9ed0:	e7813002 	str	r3, [r1, r2]
    9ed4:	e5805004 	str	r5, [r0, #4]
    9ed8:	e51b10d0 	ldr	r1, [fp, #-208]
    9edc:	e5913000 	ldr	r3, [r1]
    9ee0:	e2833008 	add	r3, r3, #8	; 0x8
    9ee4:	e5813000 	str	r3, [r1]
    9ee8:	e51b10cc 	ldr	r1, [fp, #-204]
    9eec:	e5912000 	ldr	r2, [r1]
    9ef0:	e1530002 	cmp	r3, r2
    9ef4:	23a03000 	movcs	r3, #0	; 0x0
    9ef8:	258c3000 	strcs	r3, [ip]
    9efc:	e51b20c4 	ldr	r2, [fp, #-196]
    9f00:	e0621000 	rsb	r1, r2, r0
    9f04:	e51bc0bc 	ldr	ip, [fp, #-188]
    9f08:	e59c3008 	ldr	r3, [ip, #8]
    9f0c:	e0811103 	add	r1, r1, r3, lsl #2
    9f10:	e20134fe 	and	r3, r1, #-33554432	; 0xfe000000
    9f14:	e35304fe 	cmp	r3, #-33554432	; 0xfe000000
    9f18:	13530000 	cmpne	r3, #0	; 0x0
    9f1c:	0a000006 	beq	9f3c <.text+0x936c>
    9f20:	e3a00000 	mov	r0, #0	; 0x0
    9f24:	e51b20b8 	ldr	r2, [fp, #-184]
    9f28:	e5921004 	ldr	r1, [r2, #4]
    9f2c:	e1a02000 	mov	r2, r0
    9f30:	e51f333c 	ldr	r3, [pc, #-828]	; 9bfc <.text+0x902c>
    9f34:	e08a3003 	add	r3, sl, r3
    9f38:	eb00063b 	bl	b82c <_dl_signal_error>
    9f3c:	e51bc0c4 	ldr	ip, [fp, #-196]
    9f40:	e59c3000 	ldr	r3, [ip]
    9f44:	e20354ff 	and	r5, r3, #-16777216	; 0xff000000
    9f48:	e1a03301 	mov	r3, r1, lsl #6
    9f4c:	e1855423 	orr	r5, r5, r3, lsr #8
    9f50:	e58c5000 	str	r5, [ip]
    9f54:	ea000003 	b	9f68 <.text+0x9398>
    9f58:	e51b00b8 	ldr	r0, [fp, #-184]
    9f5c:	e1a01004 	mov	r1, r4
    9f60:	e3a02000 	mov	r2, #0	; 0x0
    9f64:	eb000174 	bl	a53c <_dl_reloc_bad_type>
    9f68:	e286600c 	add	r6, r6, #12	; 0xc
    9f6c:	e51b00ac 	ldr	r0, [fp, #-172]
    9f70:	e1560000 	cmp	r6, r0
    9f74:	3afffedc 	bcc	9aec <_dl_relocate_object+0xf0c>
    9f78:	ea00010c 	b	a3b0 <.text+0x97e0>
    9f7c:	e51b10ac 	ldr	r1, [fp, #-172]
    9f80:	e1560001 	cmp	r6, r1
    9f84:	2a000109 	bcs	a3b0 <.text+0x97e0>
    9f88:	e50b70d4 	str	r7, [fp, #-212]
    9f8c:	e51f33b8 	ldr	r3, [pc, #-952]	; 9bdc <.text+0x900c>
    9f90:	e79a3003 	ldr	r3, [sl, r3]
    9f94:	e50b30e0 	str	r3, [fp, #-224]
    9f98:	e51f33b4 	ldr	r3, [pc, #-948]	; 9bec <.text+0x901c>
    9f9c:	e79a3003 	ldr	r3, [sl, r3]
    9fa0:	e50b30e4 	str	r3, [fp, #-228]
    9fa4:	e51f33d0 	ldr	r3, [pc, #-976]	; 9bdc <.text+0x900c>
    9fa8:	e79a3003 	ldr	r3, [sl, r3]
    9fac:	e50b30e8 	str	r3, [fp, #-232]
    9fb0:	e50b60d8 	str	r6, [fp, #-216]
    9fb4:	e5963004 	ldr	r3, [r6, #4]
    9fb8:	e1a03423 	mov	r3, r3, lsr #8
    9fbc:	e51b20b0 	ldr	r2, [fp, #-176]
    9fc0:	e0823203 	add	r3, r2, r3, lsl #4
    9fc4:	e50b305c 	str	r3, [fp, #-92]
    9fc8:	e5961000 	ldr	r1, [r6]
    9fcc:	e0889001 	add	r9, r8, r1
    9fd0:	e50b90dc 	str	r9, [fp, #-220]
    9fd4:	e5d64004 	ldrb	r4, [r6, #4]
    9fd8:	e3540017 	cmp	r4, #23	; 0x17
    9fdc:	1a000005 	bne	9ff8 <.text+0x9428>
    9fe0:	e51bc0d4 	ldr	ip, [fp, #-212]
    9fe4:	e59c3000 	ldr	r3, [ip]
    9fe8:	e5962008 	ldr	r2, [r6, #8]
    9fec:	e0833002 	add	r3, r3, r2
    9ff0:	e7883001 	str	r3, [r8, r1]
    9ff4:	ea0000e9 	b	a3a0 <.text+0x97d0>
    9ff8:	e3540000 	cmp	r4, #0	; 0x0
    9ffc:	0a0000e7 	beq	a3a0 <.text+0x97d0>
    a000:	e51b705c 	ldr	r7, [fp, #-92]
    a004:	e5d7300c 	ldrb	r3, [r7, #12]
    a008:	e1b03223 	movs	r3, r3, lsr #4
    a00c:	051b3030 	ldreq	r3, [fp, #-48]
    a010:	05935000 	ldreq	r5, [r3]
    a014:	0a00003e 	beq	a114 <.text+0x9544>
    a018:	e51b2030 	ldr	r2, [fp, #-48]
    a01c:	e5923208 	ldr	r3, [r2, #520]
    a020:	e1530007 	cmp	r3, r7
    a024:	1a000015 	bne	a080 <.text+0x94b0>
    a028:	e3540016 	cmp	r4, #22	; 0x16
    a02c:	13a03000 	movne	r3, #0	; 0x0
    a030:	03a03001 	moveq	r3, #1	; 0x1
    a034:	e592220c 	ldr	r2, [r2, #524]
    a038:	e3540014 	cmp	r4, #20	; 0x14
    a03c:	1a000003 	bne	a050 <.text+0x9480>
    a040:	e3833002 	orr	r3, r3, #2	; 0x2
    a044:	e1530002 	cmp	r3, r2
    a048:	0a000002 	beq	a058 <.text+0x9488>
    a04c:	ea00000b 	b	a080 <.text+0x94b0>
    a050:	e1530002 	cmp	r3, r2
    a054:	1a000009 	bne	a080 <.text+0x94b0>
    a058:	e51f3480 	ldr	r3, [pc, #-1152]	; 9be0 <.text+0x9010>
    a05c:	e79a2003 	ldr	r2, [sl, r3]
    a060:	e59231ac 	ldr	r3, [r2, #428]
    a064:	e2833001 	add	r3, r3, #1	; 0x1
    a068:	e58231ac 	str	r3, [r2, #428]
    a06c:	e51b2030 	ldr	r2, [fp, #-48]
    a070:	e5923214 	ldr	r3, [r2, #532]
    a074:	e50b305c 	str	r3, [fp, #-92]
    a078:	e5925210 	ldr	r5, [r2, #528]
    a07c:	ea000024 	b	a114 <.text+0x9544>
    a080:	e3540014 	cmp	r4, #20	; 0x14
    a084:	13a01000 	movne	r1, #0	; 0x0
    a088:	03a01001 	moveq	r1, #1	; 0x1
    a08c:	e1a01081 	mov	r1, r1, lsl #1
    a090:	e3540016 	cmp	r4, #22	; 0x16
    a094:	03811001 	orreq	r1, r1, #1	; 0x1
    a098:	e51b3030 	ldr	r3, [fp, #-48]
    a09c:	e583120c 	str	r1, [r3, #524]
    a0a0:	e51b205c 	ldr	r2, [fp, #-92]
    a0a4:	e51b3030 	ldr	r3, [fp, #-48]
    a0a8:	e5832208 	str	r2, [r3, #520]
    a0ac:	e3a02000 	mov	r2, #0	; 0x0
    a0b0:	e3a00001 	mov	r0, #1	; 0x1
    a0b4:	e1520002 	cmp	r2, r2
    a0b8:	0a000002 	beq	a0c8 <.text+0x94f8>
    a0bc:	e5923004 	ldr	r3, [r2, #4]
    a0c0:	e1530002 	cmp	r3, r2
    a0c4:	11a00002 	movne	r0, r2
    a0c8:	e51b305c 	ldr	r3, [fp, #-92]
    a0cc:	e5933000 	ldr	r3, [r3]
    a0d0:	e58d2000 	str	r2, [sp]
    a0d4:	e58d1004 	str	r1, [sp, #4]
    a0d8:	e58d0008 	str	r0, [sp, #8]
    a0dc:	e3a00000 	mov	r0, #0	; 0x0
    a0e0:	e58d000c 	str	r0, [sp, #12]
    a0e4:	e51b002c 	ldr	r0, [fp, #-44]
    a0e8:	e0830000 	add	r0, r3, r0
    a0ec:	e51b1030 	ldr	r1, [fp, #-48]
    a0f0:	e24b205c 	sub	r2, fp, #92	; 0x5c
    a0f4:	e51b3034 	ldr	r3, [fp, #-52]
    a0f8:	ebfff7af 	bl	7fbc <_dl_lookup_symbol_x>
    a0fc:	e51b205c 	ldr	r2, [fp, #-92]
    a100:	e51b3030 	ldr	r3, [fp, #-48]
    a104:	e5832214 	str	r2, [r3, #532]
    a108:	e51b3030 	ldr	r3, [fp, #-48]
    a10c:	e5830210 	str	r0, [r3, #528]
    a110:	e1a05000 	mov	r5, r0
    a114:	e51b305c 	ldr	r3, [fp, #-92]
    a118:	e3530000 	cmp	r3, #0	; 0x0
    a11c:	15933004 	ldrne	r3, [r3, #4]
    a120:	10855003 	addne	r5, r5, r3
    a124:	e2443001 	sub	r3, r4, #1	; 0x1
    a128:	e3530015 	cmp	r3, #21	; 0x15
    a12c:	908ff103 	addls	pc, pc, r3, lsl #2
    a130:	ea000096 	b	a390 <.text+0x97c0>
    a134:	ea000040 	b	a23c <.text+0x966c>
    a138:	ea00003a 	b	a228 <.text+0x9658>
    a13c:	ea000093 	b	a390 <.text+0x97c0>
    a140:	ea000092 	b	a390 <.text+0x97c0>
    a144:	ea000091 	b	a390 <.text+0x97c0>
    a148:	ea000090 	b	a390 <.text+0x97c0>
    a14c:	ea00008f 	b	a390 <.text+0x97c0>
    a150:	ea00008e 	b	a390 <.text+0x97c0>
    a154:	ea00008d 	b	a390 <.text+0x97c0>
    a158:	ea00008c 	b	a390 <.text+0x97c0>
    a15c:	ea00008b 	b	a390 <.text+0x97c0>
    a160:	ea00008a 	b	a390 <.text+0x97c0>
    a164:	ea000089 	b	a390 <.text+0x97c0>
    a168:	ea000088 	b	a390 <.text+0x97c0>
    a16c:	ea000087 	b	a390 <.text+0x97c0>
    a170:	ea000086 	b	a390 <.text+0x97c0>
    a174:	ea000085 	b	a390 <.text+0x97c0>
    a178:	ea000084 	b	a390 <.text+0x97c0>
    a17c:	ea000083 	b	a390 <.text+0x97c0>
    a180:	ea000001 	b	a18c <.text+0x95bc>
    a184:	ea000027 	b	a228 <.text+0x9658>
    a188:	ea000026 	b	a228 <.text+0x9658>
    a18c:	e51b305c 	ldr	r3, [fp, #-92]
    a190:	e3530000 	cmp	r3, #0	; 0x0
    a194:	0a000081 	beq	a3a0 <.text+0x97d0>
    a198:	e5931008 	ldr	r1, [r3, #8]
    a19c:	e5972008 	ldr	r2, [r7, #8]
    a1a0:	e1510002 	cmp	r1, r2
    a1a4:	8a000006 	bhi	a1c4 <.text+0x95f4>
    a1a8:	e51f35cc 	ldr	r3, [pc, #-1484]	; 9be4 <.text+0x9014>
    a1ac:	e79a3003 	ldr	r3, [sl, r3]
    a1b0:	e5933020 	ldr	r3, [r3, #32]
    a1b4:	e3530000 	cmp	r3, #0	; 0x0
    a1b8:	0a000011 	beq	a204 <.text+0x9634>
    a1bc:	e1510002 	cmp	r1, r2
    a1c0:	2a00000f 	bcs	a204 <.text+0x9634>
    a1c4:	e51b10d4 	ldr	r1, [fp, #-212]
    a1c8:	e5913034 	ldr	r3, [r1, #52]
    a1cc:	e593c004 	ldr	ip, [r3, #4]
    a1d0:	e51f35d4 	ldr	r3, [pc, #-1492]	; 9c04 <.text+0x9034>
    a1d4:	e79a3003 	ldr	r3, [sl, r3]
    a1d8:	e5933000 	ldr	r3, [r3]
    a1dc:	e5932000 	ldr	r2, [r3]
    a1e0:	e3520000 	cmp	r2, #0	; 0x0
    a1e4:	051f35e4 	ldreq	r3, [pc, #-1508]	; 9c08 <.text+0x9038>
    a1e8:	008a2003 	addeq	r2, sl, r3
    a1ec:	e5973000 	ldr	r3, [r7]
    a1f0:	e3a00002 	mov	r0, #2	; 0x2
    a1f4:	e51f1614 	ldr	r1, [pc, #-1556]	; 9be8 <.text+0x9018>
    a1f8:	e08a1001 	add	r1, sl, r1
    a1fc:	e08c3003 	add	r3, ip, r3
    a200:	eb0009b9 	bl	c8ec <_dl_dprintf>
    a204:	e5972008 	ldr	r2, [r7, #8]
    a208:	e51b305c 	ldr	r3, [fp, #-92]
    a20c:	e5933008 	ldr	r3, [r3, #8]
    a210:	e51b00dc 	ldr	r0, [fp, #-220]
    a214:	e1a01005 	mov	r1, r5
    a218:	e1520003 	cmp	r2, r3
    a21c:	21a02003 	movcs	r2, r3
    a220:	eb001dab 	bl	118d4 <memcpy>
    a224:	ea00005d 	b	a3a0 <.text+0x97d0>
    a228:	e51b20d8 	ldr	r2, [fp, #-216]
    a22c:	e5923008 	ldr	r3, [r2, #8]
    a230:	e0853003 	add	r3, r5, r3
    a234:	e5893000 	str	r3, [r9]
    a238:	ea000058 	b	a3a0 <.text+0x97d0>
    a23c:	e51bc0d8 	ldr	ip, [fp, #-216]
    a240:	e59c3008 	ldr	r3, [ip, #8]
    a244:	e0851003 	add	r1, r5, r3
    a248:	e0691001 	rsb	r1, r9, r1
    a24c:	e20134fe 	and	r3, r1, #-33554432	; 0xfe000000
    a250:	e35304fe 	cmp	r3, #-33554432	; 0xfe000000
    a254:	13530000 	cmpne	r3, #0	; 0x0
    a258:	0a000046 	beq	a378 <.text+0x97a8>
    a25c:	e51b00e0 	ldr	r0, [fp, #-224]
    a260:	e5903000 	ldr	r3, [r0]
    a264:	e3530000 	cmp	r3, #0	; 0x0
    a268:	1a000020 	bne	a2f0 <.text+0x9720>
    a26c:	e51f3688 	ldr	r3, [pc, #-1672]	; 9bec <.text+0x901c>
    a270:	e79a4003 	ldr	r4, [sl, r3]
    a274:	e5943000 	ldr	r3, [r4]
    a278:	e3530000 	cmp	r3, #0	; 0x0
    a27c:	1a000001 	bne	a288 <.text+0x96b8>
    a280:	eb001a5c 	bl	10bf8 <__getpagesize>
    a284:	e5840000 	str	r0, [r4]
    a288:	e3e03000 	mvn	r3, #0	; 0x0
    a28c:	e58d3000 	str	r3, [sp]
    a290:	e3a01000 	mov	r1, #0	; 0x0
    a294:	e58d1004 	str	r1, [sp, #4]
    a298:	e1a00001 	mov	r0, r1
    a29c:	e51b20e4 	ldr	r2, [fp, #-228]
    a2a0:	e5921000 	ldr	r1, [r2]
    a2a4:	e3a02007 	mov	r2, #7	; 0x7
    a2a8:	e2833023 	add	r3, r3, #35	; 0x23
    a2ac:	eb001a5f 	bl	10c30 <__mmap>
    a2b0:	e51b30e0 	ldr	r3, [fp, #-224]
    a2b4:	e5830000 	str	r0, [r3]
    a2b8:	e3500000 	cmp	r0, #0	; 0x0
    a2bc:	1a000008 	bne	a2e4 <.text+0x9714>
    a2c0:	e51f06d8 	ldr	r0, [pc, #-1752]	; 9bf0 <.text+0x9020>
    a2c4:	e08a0000 	add	r0, sl, r0
    a2c8:	e51f16dc 	ldr	r1, [pc, #-1756]	; 9bf4 <.text+0x9024>
    a2cc:	e08a1001 	add	r1, sl, r1
    a2d0:	e3a02f5f 	mov	r2, #380	; 0x17c
    a2d4:	e2822002 	add	r2, r2, #2	; 0x2
    a2d8:	e51f36e8 	ldr	r3, [pc, #-1768]	; 9bf8 <.text+0x9028>
    a2dc:	e79a3003 	ldr	r3, [sl, r3]
    a2e0:	eb001536 	bl	f7c0 <__GI___assert_fail>
    a2e4:	e3a00000 	mov	r0, #0	; 0x0
    a2e8:	e51bc0d0 	ldr	ip, [fp, #-208]
    a2ec:	e58c0000 	str	r0, [ip]
    a2f0:	e51bc0e8 	ldr	ip, [fp, #-232]
    a2f4:	e59c1000 	ldr	r1, [ip]
    a2f8:	e51b30d0 	ldr	r3, [fp, #-208]
    a2fc:	e5932000 	ldr	r2, [r3]
    a300:	e0810002 	add	r0, r1, r2
    a304:	e3a0324e 	mov	r3, #-536870908	; 0xe0000004
    a308:	e2833651 	add	r3, r3, #84934656	; 0x5100000
    a30c:	e2833aff 	add	r3, r3, #1044480	; 0xff000
    a310:	e7813002 	str	r3, [r1, r2]
    a314:	e5805004 	str	r5, [r0, #4]
    a318:	e51b10d0 	ldr	r1, [fp, #-208]
    a31c:	e5913000 	ldr	r3, [r1]
    a320:	e2833008 	add	r3, r3, #8	; 0x8
    a324:	e5813000 	str	r3, [r1]
    a328:	e51b10e4 	ldr	r1, [fp, #-228]
    a32c:	e5912000 	ldr	r2, [r1]
    a330:	e1530002 	cmp	r3, r2
    a334:	23a02000 	movcs	r2, #0	; 0x0
    a338:	258c2000 	strcs	r2, [ip]
    a33c:	e0691000 	rsb	r1, r9, r0
    a340:	e51bc0d8 	ldr	ip, [fp, #-216]
    a344:	e59c3008 	ldr	r3, [ip, #8]
    a348:	e0811103 	add	r1, r1, r3, lsl #2
    a34c:	e20134fe 	and	r3, r1, #-33554432	; 0xfe000000
    a350:	e35304fe 	cmp	r3, #-33554432	; 0xfe000000
    a354:	13530000 	cmpne	r3, #0	; 0x0
    a358:	0a000006 	beq	a378 <.text+0x97a8>
    a35c:	e3a00000 	mov	r0, #0	; 0x0
    a360:	e51b20d4 	ldr	r2, [fp, #-212]
    a364:	e5921004 	ldr	r1, [r2, #4]
    a368:	e1a02000 	mov	r2, r0
    a36c:	e51f3778 	ldr	r3, [pc, #-1912]	; 9bfc <.text+0x902c>
    a370:	e08a3003 	add	r3, sl, r3
    a374:	eb00052c 	bl	b82c <_dl_signal_error>
    a378:	e5993000 	ldr	r3, [r9]
    a37c:	e20354ff 	and	r5, r3, #-16777216	; 0xff000000
    a380:	e1a03301 	mov	r3, r1, lsl #6
    a384:	e1855423 	orr	r5, r5, r3, lsr #8
    a388:	e5895000 	str	r5, [r9]
    a38c:	ea000003 	b	a3a0 <.text+0x97d0>
    a390:	e51b00d4 	ldr	r0, [fp, #-212]
    a394:	e1a01004 	mov	r1, r4
    a398:	e3a02000 	mov	r2, #0	; 0x0
    a39c:	eb000066 	bl	a53c <_dl_reloc_bad_type>
    a3a0:	e286600c 	add	r6, r6, #12	; 0xc
    a3a4:	e51b30ac 	ldr	r3, [fp, #-172]
    a3a8:	e1560003 	cmp	r6, r3
    a3ac:	3afffeff 	bcc	9fb0 <.text+0x93e0>
    a3b0:	e51bc0a8 	ldr	ip, [fp, #-168]
    a3b4:	e28cc001 	add	ip, ip, #1	; 0x1
    a3b8:	e50bc0a8 	str	ip, [fp, #-168]
    a3bc:	e35c0001 	cmp	ip, #1	; 0x1
    a3c0:	dafffd89 	ble	99ec <_dl_relocate_object+0xe0c>
    a3c4:	e51b0060 	ldr	r0, [fp, #-96]
    a3c8:	e3500000 	cmp	r0, #0	; 0x0
    a3cc:	0a00001f 	beq	a450 <.text+0x9880>
    a3d0:	e51b3030 	ldr	r3, [fp, #-48]
    a3d4:	e5933028 	ldr	r3, [r3, #40]
    a3d8:	e3530000 	cmp	r3, #0	; 0x0
    a3dc:	1a00000f 	bne	a420 <.text+0x9850>
    a3e0:	e51f37e8 	ldr	r3, [pc, #-2024]	; 9c00 <.text+0x9030>
    a3e4:	e08ac003 	add	ip, sl, r3
    a3e8:	e51f37ec 	ldr	r3, [pc, #-2028]	; 9c04 <.text+0x9034>
    a3ec:	e79a3003 	ldr	r3, [sl, r3]
    a3f0:	e5933000 	ldr	r3, [r3]
    a3f4:	e5932000 	ldr	r2, [r3]
    a3f8:	e3520000 	cmp	r2, #0	; 0x0
    a3fc:	051f37fc 	ldreq	r3, [pc, #-2044]	; 9c08 <.text+0x9038>
    a400:	008a2003 	addeq	r2, sl, r3
    a404:	e3a00002 	mov	r0, #2	; 0x2
    a408:	e1a0100c 	mov	r1, ip
    a40c:	e51b3030 	ldr	r3, [fp, #-48]
    a410:	e5933004 	ldr	r3, [r3, #4]
    a414:	eb000934 	bl	c8ec <_dl_dprintf>
    a418:	e3a0007f 	mov	r0, #127	; 0x7f
    a41c:	eb001a3f 	bl	10d20 <_Exit>
    a420:	e51b4030 	ldr	r4, [fp, #-48]
    a424:	e5943028 	ldr	r3, [r4, #40]
    a428:	e3a00004 	mov	r0, #4	; 0x4
    a42c:	e5931004 	ldr	r1, [r3, #4]
    a430:	ebffd9d7 	bl	b94 <GLIBC_2.0+0xb94>
    a434:	e5840194 	str	r0, [r4, #404]
    a438:	e51b3030 	ldr	r3, [fp, #-48]
    a43c:	e5933194 	ldr	r3, [r3, #404]
    a440:	e3530000 	cmp	r3, #0	; 0x0
    a444:	051f3840 	ldreq	r3, [pc, #-2112]	; 9c0c <.text+0x903c>
    a448:	008ac003 	addeq	ip, sl, r3
    a44c:	0affffe5 	beq	a3e8 <.text+0x9818>
    a450:	e51b2030 	ldr	r2, [fp, #-48]
    a454:	e5d23180 	ldrb	r3, [r2, #384]
    a458:	e3833004 	orr	r3, r3, #4	; 0x4
    a45c:	e5c23180 	strb	r3, [r2, #384]
    a460:	e51b1064 	ldr	r1, [fp, #-100]
    a464:	e3510000 	cmp	r1, #0	; 0x0
    a468:	0a000009 	beq	a494 <.text+0x98c4>
    a46c:	e51b2064 	ldr	r2, [fp, #-100]
    a470:	e8920007 	ldmia	r2, {r0, r1, r2}
    a474:	eb001a11 	bl	10cc0 <__mprotect>
    a478:	e3500000 	cmp	r0, #0	; 0x0
    a47c:	bafffa37 	blt	8d60 <_dl_relocate_object+0x180>
    a480:	e51b3064 	ldr	r3, [fp, #-100]
    a484:	e593300c 	ldr	r3, [r3, #12]
    a488:	e50b3064 	str	r3, [fp, #-100]
    a48c:	e3530000 	cmp	r3, #0	; 0x0
    a490:	1afffff5 	bne	a46c <.text+0x989c>
    a494:	e51b0030 	ldr	r0, [fp, #-48]
    a498:	e590321c 	ldr	r3, [r0, #540]
    a49c:	e3530000 	cmp	r3, #0	; 0x0
    a4a0:	1b000001 	blne	a4ac <_dl_protect_relro>
    a4a4:	e24bd028 	sub	sp, fp, #40	; 0x28
    a4a8:	e89daff0 	ldmia	sp, {r4, r5, r6, r7, r8, r9, sl, fp, sp, pc}

0000a4ac <_dl_protect_relro>:
    a4ac:	e92d4410 	stmdb	sp!, {r4, sl, lr}
    a4b0:	e59fa074 	ldr	sl, [pc, #116]	; a52c <.text+0x995c>
    a4b4:	e08fa00a 	add	sl, pc, sl
    a4b8:	e1a04000 	mov	r4, r0
    a4bc:	e5900000 	ldr	r0, [r0]
    a4c0:	e5941218 	ldr	r1, [r4, #536]
    a4c4:	e080c001 	add	ip, r0, r1
    a4c8:	e59f3060 	ldr	r3, [pc, #96]	; a530 <.text+0x9960>
    a4cc:	e79a3003 	ldr	r3, [sl, r3]
    a4d0:	e5932004 	ldr	r2, [r3, #4]
    a4d4:	e2622000 	rsb	r2, r2, #0	; 0x0
    a4d8:	e00cc002 	and	ip, ip, r2
    a4dc:	e0801001 	add	r1, r0, r1
    a4e0:	e594321c 	ldr	r3, [r4, #540]
    a4e4:	e0811003 	add	r1, r1, r3
    a4e8:	e0011002 	and	r1, r1, r2
    a4ec:	e15c0001 	cmp	ip, r1
    a4f0:	08bd8410 	ldmeqia	sp!, {r4, sl, pc}
    a4f4:	e1a0000c 	mov	r0, ip
    a4f8:	e06c1001 	rsb	r1, ip, r1
    a4fc:	e3a02001 	mov	r2, #1	; 0x1
    a500:	eb0019ee 	bl	10cc0 <__mprotect>
    a504:	e3500000 	cmp	r0, #0	; 0x0
    a508:	a8bd8410 	ldmgeia	sp!, {r4, sl, pc}
    a50c:	e59f3020 	ldr	r3, [pc, #32]	; a534 <.text+0x9964>
    a510:	e79a3003 	ldr	r3, [sl, r3]
    a514:	e5930000 	ldr	r0, [r3]
    a518:	e5941004 	ldr	r1, [r4, #4]
    a51c:	e3a02000 	mov	r2, #0	; 0x0
    a520:	e59f3010 	ldr	r3, [pc, #16]	; a538 <.text+0x9968>
    a524:	e79a3003 	ldr	r3, [sl, r3]
    a528:	eb0004bf 	bl	b82c <_dl_signal_error>
    a52c:	000130d8 	ldreqd	r3, [r1], -r8
    a530:	00000210 	andeq	r0, r0, r0, lsl r2
    a534:	00000238 	andeq	r0, r0, r8, lsr r2
    a538:	00000100 	andeq	r0, r0, r0, lsl #2

0000a53c <_dl_reloc_bad_type>:
    a53c:	e24dd020 	sub	sp, sp, #32	; 0x20
    a540:	e59fa058 	ldr	sl, [pc, #88]	; a5a0 <.text+0x99d0>
    a544:	e08fa00a 	add	sl, pc, sl
    a548:	e1a06000 	mov	r6, r0
    a54c:	e1a04001 	mov	r4, r1
    a550:	e1a0000d 	mov	r0, sp
    a554:	e59f3048 	ldr	r3, [pc, #72]	; a5a4 <.text+0x99d4>
    a558:	e79a1003 	ldr	r1, [sl, r3]
    a55c:	e0811282 	add	r1, r1, r2, lsl #5
    a560:	eb001cd4 	bl	118b8 <__stpcpy>
    a564:	e59f303c 	ldr	r3, [pc, #60]	; a5a8 <.text+0x99d8>
    a568:	e79a2003 	ldr	r2, [sl, r3]
    a56c:	e1a03224 	mov	r3, r4, lsr #4
    a570:	e203300f 	and	r3, r3, #15	; 0xf
    a574:	e7d23003 	ldrb	r3, [r2, r3]
    a578:	e4c03001 	strb	r3, [r0], #1
    a57c:	e204400f 	and	r4, r4, #15	; 0xf
    a580:	e7d23004 	ldrb	r3, [r2, r4]
    a584:	e4c03001 	strb	r3, [r0], #1
    a588:	e3a02000 	mov	r2, #0	; 0x0
    a58c:	e5c02000 	strb	r2, [r0]
    a590:	e1a00002 	mov	r0, r2
    a594:	e5961004 	ldr	r1, [r6, #4]
    a598:	e1a0300d 	mov	r3, sp
    a59c:	eb0004a2 	bl	b82c <_dl_signal_error>
    a5a0:	00013048 	andeq	r3, r1, r8, asr #32
    a5a4:	00000104 	andeq	r0, r0, r4, lsl #2
    a5a8:	000001c8 	andeq	r0, r0, r8, asr #3

0000a5ac <openaux>:
    a5ac:	e92d4010 	stmdb	sp!, {r4, lr}
    a5b0:	e24dd00c 	sub	sp, sp, #12	; 0xc
    a5b4:	e1a04000 	mov	r4, r0
    a5b8:	e5903000 	ldr	r3, [r0]
    a5bc:	e5d33180 	ldrb	r3, [r3, #384]
    a5c0:	e2133003 	ands	r3, r3, #3	; 0x3
    a5c4:	e5902004 	ldr	r2, [r0, #4]
    a5c8:	e58d2000 	str	r2, [sp]
    a5cc:	e5902008 	ldr	r2, [r0, #8]
    a5d0:	e58d2004 	str	r2, [sp, #4]
    a5d4:	e5900000 	ldr	r0, [r0]
    a5d8:	e5902018 	ldr	r2, [r0, #24]
    a5dc:	e58d2008 	str	r2, [sp, #8]
    a5e0:	e5941010 	ldr	r1, [r4, #16]
    a5e4:	e3a02000 	mov	r2, #0	; 0x0
    a5e8:	03a03001 	moveq	r3, #1	; 0x1
    a5ec:	ebfff0b0 	bl	68b4 <_dl_map_object>
    a5f0:	e5840014 	str	r0, [r4, #20]
    a5f4:	e28dd00c 	add	sp, sp, #12	; 0xc
    a5f8:	e8bd8010 	ldmia	sp!, {r4, pc}

0000a5fc <_dl_build_local_scope>:
    a5fc:	e92d4070 	stmdb	sp!, {r4, r5, r6, lr}
    a600:	e1a06000 	mov	r6, r0
    a604:	e1a05000 	mov	r5, r0
    a608:	e4851004 	str	r1, [r5], #4
    a60c:	e5d13180 	ldrb	r3, [r1, #384]
    a610:	e3c33040 	bic	r3, r3, #64	; 0x40
    a614:	e3833020 	orr	r3, r3, #32	; 0x20
    a618:	e5c13180 	strb	r3, [r1, #384]
    a61c:	e59131e4 	ldr	r3, [r1, #484]
    a620:	e3530000 	cmp	r3, #0	; 0x0
    a624:	0a00000d 	beq	a660 <_dl_build_local_scope+0x64>
    a628:	e2834004 	add	r4, r3, #4	; 0x4
    a62c:	e5933004 	ldr	r3, [r3, #4]
    a630:	e3530000 	cmp	r3, #0	; 0x0
    a634:	0a000009 	beq	a660 <_dl_build_local_scope+0x64>
    a638:	e5941000 	ldr	r1, [r4]
    a63c:	e5d13180 	ldrb	r3, [r1, #384]
    a640:	e3130060 	tst	r3, #96	; 0x60
    a644:	1a000002 	bne	a654 <_dl_build_local_scope+0x58>
    a648:	e1a00005 	mov	r0, r5
    a64c:	ebffffea 	bl	a5fc <_dl_build_local_scope>
    a650:	e0855100 	add	r5, r5, r0, lsl #2
    a654:	e5b43004 	ldr	r3, [r4, #4]!
    a658:	e3530000 	cmp	r3, #0	; 0x0
    a65c:	1afffff5 	bne	a638 <_dl_build_local_scope+0x3c>
    a660:	e0660005 	rsb	r0, r6, r5
    a664:	e1a00140 	mov	r0, r0, asr #2
    a668:	e8bd8070 	ldmia	sp!, {r4, r5, r6, pc}

0000a66c <_dl_map_object_deps>:
    a66c:	e1a0c00d 	mov	ip, sp
    a670:	e92ddff0 	stmdb	sp!, {r4, r5, r6, r7, r8, r9, sl, fp, ip, lr, pc}
    a674:	e24cb004 	sub	fp, ip, #4	; 0x4
    a678:	e24dd058 	sub	sp, sp, #88	; 0x58
    a67c:	e59fae20 	ldr	sl, [pc, #3616]	; b4a4 <.text+0xa8d4>
    a680:	e08fa00a 	add	sl, pc, sl
    a684:	e1a09000 	mov	r9, r0
    a688:	e1a0e001 	mov	lr, r1
    a68c:	e1a0c002 	mov	ip, r2
    a690:	e50b3054 	str	r3, [fp, #-84]
    a694:	e0823082 	add	r3, r2, r2, lsl #1
    a698:	e1a03103 	mov	r3, r3, lsl #2
    a69c:	e283301c 	add	r3, r3, #28	; 0x1c
    a6a0:	e063d00d 	rsb	sp, r3, sp
    a6a4:	e50bd02c 	str	sp, [fp, #-44]
    a6a8:	e3a01000 	mov	r1, #0	; 0x0
    a6ac:	e50b1030 	str	r1, [fp, #-48]
    a6b0:	e58d1000 	str	r1, [sp]
    a6b4:	e51b2030 	ldr	r2, [fp, #-48]
    a6b8:	e0822082 	add	r2, r2, r2, lsl #1
    a6bc:	e51b302c 	ldr	r3, [fp, #-44]
    a6c0:	e0833102 	add	r3, r3, r2, lsl #2
    a6c4:	e5830004 	str	r0, [r3, #4]
    a6c8:	e51b3030 	ldr	r3, [fp, #-48]
    a6cc:	e0833083 	add	r3, r3, r3, lsl #1
    a6d0:	e51b202c 	ldr	r2, [fp, #-44]
    a6d4:	e0822103 	add	r2, r2, r3, lsl #2
    a6d8:	e282300c 	add	r3, r2, #12	; 0xc
    a6dc:	e5823008 	str	r3, [r2, #8]
    a6e0:	e51b3030 	ldr	r3, [fp, #-48]
    a6e4:	e2833001 	add	r3, r3, #1	; 0x1
    a6e8:	e50b3030 	str	r3, [fp, #-48]
    a6ec:	e5d03180 	ldrb	r3, [r0, #384]
    a6f0:	e3c33040 	bic	r3, r3, #64	; 0x40
    a6f4:	e3833020 	orr	r3, r3, #32	; 0x20
    a6f8:	e5c03180 	strb	r3, [r0, #384]
    a6fc:	e1a08001 	mov	r8, r1
    a700:	e151000c 	cmp	r1, ip
    a704:	2a00001a 	bcs	a774 <_dl_map_object_deps+0x108>
    a708:	e79e0108 	ldr	r0, [lr, r8, lsl #2]
    a70c:	e51b3030 	ldr	r3, [fp, #-48]
    a710:	e0833083 	add	r3, r3, r3, lsl #1
    a714:	e51b102c 	ldr	r1, [fp, #-44]
    a718:	e3a02000 	mov	r2, #0	; 0x0
    a71c:	e7812103 	str	r2, [r1, r3, lsl #2]
    a720:	e51b2030 	ldr	r2, [fp, #-48]
    a724:	e0822082 	add	r2, r2, r2, lsl #1
    a728:	e51b302c 	ldr	r3, [fp, #-44]
    a72c:	e0833102 	add	r3, r3, r2, lsl #2
    a730:	e5830004 	str	r0, [r3, #4]
    a734:	e51b3030 	ldr	r3, [fp, #-48]
    a738:	e0833083 	add	r3, r3, r3, lsl #1
    a73c:	e51b202c 	ldr	r2, [fp, #-44]
    a740:	e0822103 	add	r2, r2, r3, lsl #2
    a744:	e282300c 	add	r3, r2, #12	; 0xc
    a748:	e5823008 	str	r3, [r2, #8]
    a74c:	e51b3030 	ldr	r3, [fp, #-48]
    a750:	e2833001 	add	r3, r3, #1	; 0x1
    a754:	e50b3030 	str	r3, [fp, #-48]
    a758:	e5d03180 	ldrb	r3, [r0, #384]
    a75c:	e3c33040 	bic	r3, r3, #64	; 0x40
    a760:	e3833020 	orr	r3, r3, #32	; 0x20
    a764:	e5c03180 	strb	r3, [r0, #384]
    a768:	e2888001 	add	r8, r8, #1	; 0x1
    a76c:	e158000c 	cmp	r8, ip
    a770:	3affffe4 	bcc	a708 <_dl_map_object_deps+0x9c>
    a774:	e51b3030 	ldr	r3, [fp, #-48]
    a778:	e0833083 	add	r3, r3, r3, lsl #1
    a77c:	e51b202c 	ldr	r2, [fp, #-44]
    a780:	e0822103 	add	r2, r2, r3, lsl #2
    a784:	e3a01000 	mov	r1, #0	; 0x0
    a788:	e5021004 	str	r1, [r2, #-4]
    a78c:	e51b3030 	ldr	r3, [fp, #-48]
    a790:	e0833083 	add	r3, r3, r3, lsl #1
    a794:	e51b202c 	ldr	r2, [fp, #-44]
    a798:	e0823103 	add	r3, r2, r3, lsl #2
    a79c:	e243300c 	sub	r3, r3, #12	; 0xc
    a7a0:	e50b3058 	str	r3, [fp, #-88]
    a7a4:	e59f3cfc 	ldr	r3, [pc, #3324]	; b4a8 <.text+0xa8d8>
    a7a8:	e79a3003 	ldr	r3, [sl, r3]
    a7ac:	e5930000 	ldr	r0, [r3]
    a7b0:	e50b005c 	str	r0, [fp, #-92]
    a7b4:	e50b1060 	str	r1, [fp, #-96]
    a7b8:	e50b1050 	str	r1, [fp, #-80]
    a7bc:	e5831000 	str	r1, [r3]
    a7c0:	e2528000 	subs	r8, r2, #0	; 0x0
    a7c4:	0a00020d 	beq	b000 <_dl_map_object_deps+0x994>
    a7c8:	e5981004 	ldr	r1, [r8, #4]
    a7cc:	e50b1064 	str	r1, [fp, #-100]
    a7d0:	e3a02000 	mov	r2, #0	; 0x0
    a7d4:	e50b206c 	str	r2, [fp, #-108]
    a7d8:	e50b2068 	str	r2, [fp, #-104]
    a7dc:	e3a03001 	mov	r3, #1	; 0x1
    a7e0:	e5883000 	str	r3, [r8]
    a7e4:	e5913158 	ldr	r3, [r1, #344]
    a7e8:	e1530002 	cmp	r3, r2
    a7ec:	1a000011 	bne	a838 <_dl_map_object_deps+0x1cc>
    a7f0:	e59131e4 	ldr	r3, [r1, #484]
    a7f4:	e1530002 	cmp	r3, r2
    a7f8:	13a03000 	movne	r3, #0	; 0x0
    a7fc:	03a03001 	moveq	r3, #1	; 0x1
    a800:	e1510009 	cmp	r1, r9
    a804:	03a03000 	moveq	r3, #0	; 0x0
    a808:	e1530002 	cmp	r3, r2
    a80c:	0a000009 	beq	a838 <_dl_map_object_deps+0x1cc>
    a810:	e5d12156 	ldrb	r2, [r1, #342]
    a814:	e5d13157 	ldrb	r3, [r1, #343]
    a818:	e1923403 	orrs	r3, r2, r3, lsl #8
    a81c:	0a000005 	beq	a838 <_dl_map_object_deps+0x1cc>
    a820:	e1a03103 	mov	r3, r3, lsl #2
    a824:	e2833006 	add	r3, r3, #6	; 0x6
    a828:	e3c333ff 	bic	r3, r3, #-67108861	; 0xfc000003
    a82c:	e3c337fe 	bic	r3, r3, #66584576	; 0x3f80000
    a830:	e063d00d 	rsb	sp, r3, sp
    a834:	e50bd068 	str	sp, [fp, #-104]
    a838:	e51b0064 	ldr	r0, [fp, #-100]
    a83c:	e5903024 	ldr	r3, [r0, #36]
    a840:	e3530000 	cmp	r3, #0	; 0x0
    a844:	1a000005 	bne	a860 <_dl_map_object_deps+0x1f4>
    a848:	e59030f0 	ldr	r3, [r0, #240]
    a84c:	e3530000 	cmp	r3, #0	; 0x0
    a850:	1a000002 	bne	a860 <_dl_map_object_deps+0x1f4>
    a854:	e59030e8 	ldr	r3, [r0, #232]
    a858:	e3530000 	cmp	r3, #0	; 0x0
    a85c:	0a0001b6 	beq	af3c <_dl_map_object_deps+0x8d0>
    a860:	e51b1064 	ldr	r1, [fp, #-100]
    a864:	e5913034 	ldr	r3, [r1, #52]
    a868:	e5933004 	ldr	r3, [r3, #4]
    a86c:	e50b3070 	str	r3, [fp, #-112]
    a870:	e50b303c 	str	r3, [fp, #-60]
    a874:	e50b1048 	str	r1, [fp, #-72]
    a878:	e51b2054 	ldr	r2, [fp, #-84]
    a87c:	e50b2044 	str	r2, [fp, #-68]
    a880:	e59b3004 	ldr	r3, [fp, #4]
    a884:	e50b3040 	str	r3, [fp, #-64]
    a888:	e50b8074 	str	r8, [fp, #-116]
    a88c:	e5914008 	ldr	r4, [r1, #8]
    a890:	e5943000 	ldr	r3, [r4]
    a894:	e3530000 	cmp	r3, #0	; 0x0
    a898:	0a0001a7 	beq	af3c <_dl_map_object_deps+0x8d0>
    a89c:	e59f3c08 	ldr	r3, [pc, #3080]	; b4ac <.text+0xa8dc>
    a8a0:	e79a3003 	ldr	r3, [sl, r3]
    a8a4:	e50b307c 	str	r3, [fp, #-124]
    a8a8:	e5943000 	ldr	r3, [r4]
    a8ac:	e3530001 	cmp	r3, #1	; 0x1
    a8b0:	1a000081 	bne	aabc <_dl_map_object_deps+0x450>
    a8b4:	e5943004 	ldr	r3, [r4, #4]
    a8b8:	e51b0070 	ldr	r0, [fp, #-112]
    a8bc:	e0805003 	add	r5, r0, r3
    a8c0:	e1a07005 	mov	r7, r5
    a8c4:	e3a06000 	mov	r6, #0	; 0x0
    a8c8:	e1a00005 	mov	r0, r5
    a8cc:	e3a01024 	mov	r1, #36	; 0x24
    a8d0:	eb001986 	bl	10ef0 <index>
    a8d4:	e3500000 	cmp	r0, #0	; 0x0
    a8d8:	0a000002 	beq	a8e8 <_dl_map_object_deps+0x27c>
    a8dc:	e1a01006 	mov	r1, r6
    a8e0:	ebffe5da 	bl	4050 <_dl_dst_count>
    a8e4:	e1a06000 	mov	r6, r0
    a8e8:	e3560000 	cmp	r6, #0	; 0x0
    a8ec:	0a00004a 	beq	aa1c <_dl_map_object_deps+0x3b0>
    a8f0:	e59f3bb8 	ldr	r3, [pc, #3000]	; b4b0 <.text+0xa8e0>
    a8f4:	e79a3003 	ldr	r3, [sl, r3]
    a8f8:	e5933000 	ldr	r3, [r3]
    a8fc:	e3530000 	cmp	r3, #0	; 0x0
    a900:	0a000005 	beq	a91c <_dl_map_object_deps+0x2b0>
    a904:	e3a00000 	mov	r0, #0	; 0x0
    a908:	e1a01007 	mov	r1, r7
    a90c:	e1a02000 	mov	r2, r0
    a910:	e59f3b9c 	ldr	r3, [pc, #2972]	; b4b4 <.text+0xa8e4>
    a914:	e08a3003 	add	r3, sl, r3
    a918:	eb0003c3 	bl	b82c <_dl_signal_error>
    a91c:	e1a00007 	mov	r0, r7
    a920:	eb0019be 	bl	11020 <strlen>
    a924:	e1a05000 	mov	r5, r0
    a928:	e51b1078 	ldr	r1, [fp, #-120]
    a92c:	e3510000 	cmp	r1, #0	; 0x0
    a930:	0a000024 	beq	a9c8 <_dl_map_object_deps+0x35c>
    a934:	e51b2064 	ldr	r2, [fp, #-100]
    a938:	e592319c 	ldr	r3, [r2, #412]
    a93c:	e3530000 	cmp	r3, #0	; 0x0
    a940:	1a000014 	bne	a998 <_dl_map_object_deps+0x32c>
    a944:	e5923004 	ldr	r3, [r2, #4]
    a948:	e5d33000 	ldrb	r3, [r3]
    a94c:	e3530000 	cmp	r3, #0	; 0x0
    a950:	0a000007 	beq	a974 <_dl_map_object_deps+0x308>
    a954:	e59f0b5c 	ldr	r0, [pc, #2908]	; b4b8 <.text+0xa8e8>
    a958:	e08a0000 	add	r0, sl, r0
    a95c:	e59f1b58 	ldr	r1, [pc, #2904]	; b4bc <.text+0xa8ec>
    a960:	e08a1001 	add	r1, sl, r1
    a964:	e3a020f1 	mov	r2, #241	; 0xf1
    a968:	e59f3b50 	ldr	r3, [pc, #2896]	; b4c0 <.text+0xa8f0>
    a96c:	e79a3003 	ldr	r3, [sl, r3]
    a970:	eb001392 	bl	f7c0 <__GI___assert_fail>
    a974:	eb000e57 	bl	e2d8 <_dl_get_origin>
    a978:	e51b1064 	ldr	r1, [fp, #-100]
    a97c:	e581019c 	str	r0, [r1, #412]
    a980:	e3500000 	cmp	r0, #0	; 0x0
    a984:	13700001 	cmnne	r0, #1	; 0x1
    a988:	03a00000 	moveq	r0, #0	; 0x0
    a98c:	0a000006 	beq	a9ac <_dl_map_object_deps+0x340>
    a990:	eb0019a2 	bl	11020 <strlen>
    a994:	ea000004 	b	a9ac <_dl_map_object_deps+0x340>
    a998:	e51b2064 	ldr	r2, [fp, #-100]
    a99c:	e592019c 	ldr	r0, [r2, #412]
    a9a0:	e3700001 	cmn	r0, #1	; 0x1
    a9a4:	03a00000 	moveq	r0, #0	; 0x0
    a9a8:	1b00199c 	blne	11020 <strlen>
    a9ac:	e51b107c 	ldr	r1, [fp, #-124]
    a9b0:	e5913010 	ldr	r3, [r1, #16]
    a9b4:	e1500003 	cmp	r0, r3
    a9b8:	21a03000 	movcs	r3, r0
    a9bc:	e2433007 	sub	r3, r3, #7	; 0x7
    a9c0:	e51b2078 	ldr	r2, [fp, #-120]
    a9c4:	e0255392 	mla	r5, r2, r3, r5
    a9c8:	e2853006 	add	r3, r5, #6	; 0x6
    a9cc:	e3c33003 	bic	r3, r3, #3	; 0x3
    a9d0:	e063d00d 	rsb	sp, r3, sp
    a9d4:	e51b0064 	ldr	r0, [fp, #-100]
    a9d8:	e1a01007 	mov	r1, r7
    a9dc:	e1a0200d 	mov	r2, sp
    a9e0:	e3a03000 	mov	r3, #0	; 0x0
    a9e4:	ebffe5ce 	bl	4124 <_dl_dst_substitute>
    a9e8:	e1a05000 	mov	r5, r0
    a9ec:	e5d03000 	ldrb	r3, [r0]
    a9f0:	e3530000 	cmp	r3, #0	; 0x0
    a9f4:	1a000008 	bne	aa1c <_dl_map_object_deps+0x3b0>
    a9f8:	e51b007c 	ldr	r0, [fp, #-124]
    a9fc:	e5903000 	ldr	r3, [r0]
    aa00:	e3130001 	tst	r3, #1	; 0x1
    aa04:	0a000149 	beq	af30 <_dl_map_object_deps+0x8c4>
    aa08:	e59f0ab4 	ldr	r0, [pc, #2740]	; b4c4 <.text+0xa8f4>
    aa0c:	e08a0000 	add	r0, sl, r0
    aa10:	e1a01007 	mov	r1, r7
    aa14:	eb000794 	bl	c86c <_dl_debug_printf>
    aa18:	ea000144 	b	af30 <_dl_map_object_deps+0x8c4>
    aa1c:	e50b5038 	str	r5, [fp, #-56]
    aa20:	e24b004c 	sub	r0, fp, #76	; 0x4c
    aa24:	e24b1050 	sub	r1, fp, #80	; 0x50
    aa28:	e59f3a98 	ldr	r3, [pc, #2712]	; b4c8 <.text+0xa8f8>
    aa2c:	e79a2003 	ldr	r2, [sl, r3]
    aa30:	e24b3048 	sub	r3, fp, #72	; 0x48
    aa34:	eb000418 	bl	ba9c <_dl_catch_error>
    aa38:	e51b3050 	ldr	r3, [fp, #-80]
    aa3c:	e3530000 	cmp	r3, #0	; 0x0
    aa40:	0a000004 	beq	aa58 <_dl_map_object_deps+0x3ec>
    aa44:	e3500000 	cmp	r0, #0	; 0x0
    aa48:	03e01000 	mvneq	r1, #0	; 0x0
    aa4c:	050b1060 	streq	r1, [fp, #-96]
    aa50:	0a00016a 	beq	b000 <_dl_map_object_deps+0x994>
    aa54:	ea000188 	b	b07c <_dl_map_object_deps+0xa10>
    aa58:	e51b2034 	ldr	r2, [fp, #-52]
    aa5c:	e5d23180 	ldrb	r3, [r2, #384]
    aa60:	e1a032a3 	mov	r3, r3, lsr #5
    aa64:	e2131003 	ands	r1, r3, #3	; 0x3
    aa68:	1a00000c 	bne	aaa0 <_dl_map_object_deps+0x434>
    aa6c:	e24dd010 	sub	sp, sp, #16	; 0x10
    aa70:	e88d0006 	stmia	sp, {r1, r2}
    aa74:	e58d1008 	str	r1, [sp, #8]
    aa78:	e51b0058 	ldr	r0, [fp, #-88]
    aa7c:	e580d008 	str	sp, [r0, #8]
    aa80:	e50bd058 	str	sp, [fp, #-88]
    aa84:	e51b3030 	ldr	r3, [fp, #-48]
    aa88:	e2833001 	add	r3, r3, #1	; 0x1
    aa8c:	e50b3030 	str	r3, [fp, #-48]
    aa90:	e5d23180 	ldrb	r3, [r2, #384]
    aa94:	e3c33040 	bic	r3, r3, #64	; 0x40
    aa98:	e3833020 	orr	r3, r3, #32	; 0x20
    aa9c:	e5c23180 	strb	r3, [r2, #384]
    aaa0:	e51b1068 	ldr	r1, [fp, #-104]
    aaa4:	e3510000 	cmp	r1, #0	; 0x0
    aaa8:	151b306c 	ldrne	r3, [fp, #-108]
    aaac:	17812103 	strne	r2, [r1, r3, lsl #2]
    aab0:	12833001 	addne	r3, r3, #1	; 0x1
    aab4:	150b306c 	strne	r3, [fp, #-108]
    aab8:	ea00011c 	b	af30 <_dl_map_object_deps+0x8c4>
    aabc:	e5943000 	ldr	r3, [r4]
    aac0:	e373010e 	cmn	r3, #-2147483645	; 0x80000003
    aac4:	13730106 	cmnne	r3, #-2147483647	; 0x80000001
    aac8:	1a000118 	bne	af30 <_dl_map_object_deps+0x8c4>
    aacc:	e5943004 	ldr	r3, [r4, #4]
    aad0:	e51b0070 	ldr	r0, [fp, #-112]
    aad4:	e0805003 	add	r5, r0, r3
    aad8:	e1a07005 	mov	r7, r5
    aadc:	e3a06000 	mov	r6, #0	; 0x0
    aae0:	e1a00005 	mov	r0, r5
    aae4:	e3a01024 	mov	r1, #36	; 0x24
    aae8:	eb001900 	bl	10ef0 <index>
    aaec:	e3500000 	cmp	r0, #0	; 0x0
    aaf0:	0a000002 	beq	ab00 <_dl_map_object_deps+0x494>
    aaf4:	e1a01006 	mov	r1, r6
    aaf8:	ebffe554 	bl	4050 <_dl_dst_count>
    aafc:	e1a06000 	mov	r6, r0
    ab00:	e3560000 	cmp	r6, #0	; 0x0
    ab04:	0a000053 	beq	ac58 <_dl_map_object_deps+0x5ec>
    ab08:	e59f39a0 	ldr	r3, [pc, #2464]	; b4b0 <.text+0xa8e0>
    ab0c:	e79a3003 	ldr	r3, [sl, r3]
    ab10:	e5933000 	ldr	r3, [r3]
    ab14:	e3530000 	cmp	r3, #0	; 0x0
    ab18:	0a000005 	beq	ab34 <_dl_map_object_deps+0x4c8>
    ab1c:	e3a00000 	mov	r0, #0	; 0x0
    ab20:	e1a01007 	mov	r1, r7
    ab24:	e1a02000 	mov	r2, r0
    ab28:	e59f3984 	ldr	r3, [pc, #2436]	; b4b4 <.text+0xa8e4>
    ab2c:	e08a3003 	add	r3, sl, r3
    ab30:	eb00033d 	bl	b82c <_dl_signal_error>
    ab34:	e1a00007 	mov	r0, r7
    ab38:	eb001938 	bl	11020 <strlen>
    ab3c:	e1a05000 	mov	r5, r0
    ab40:	e51b1080 	ldr	r1, [fp, #-128]
    ab44:	e3510000 	cmp	r1, #0	; 0x0
    ab48:	0a000025 	beq	abe4 <_dl_map_object_deps+0x578>
    ab4c:	e51b2064 	ldr	r2, [fp, #-100]
    ab50:	e592319c 	ldr	r3, [r2, #412]
    ab54:	e3530000 	cmp	r3, #0	; 0x0
    ab58:	1a000015 	bne	abb4 <_dl_map_object_deps+0x548>
    ab5c:	e5923004 	ldr	r3, [r2, #4]
    ab60:	e5d33000 	ldrb	r3, [r3]
    ab64:	e3530000 	cmp	r3, #0	; 0x0
    ab68:	0a000008 	beq	ab90 <_dl_map_object_deps+0x524>
    ab6c:	e59f0944 	ldr	r0, [pc, #2372]	; b4b8 <.text+0xa8e8>
    ab70:	e08a0000 	add	r0, sl, r0
    ab74:	e59f1940 	ldr	r1, [pc, #2368]	; b4bc <.text+0xa8ec>
    ab78:	e08a1001 	add	r1, sl, r1
    ab7c:	e3a02f47 	mov	r2, #284	; 0x11c
    ab80:	e2822001 	add	r2, r2, #1	; 0x1
    ab84:	e59f3934 	ldr	r3, [pc, #2356]	; b4c0 <.text+0xa8f0>
    ab88:	e79a3003 	ldr	r3, [sl, r3]
    ab8c:	eb00130b 	bl	f7c0 <__GI___assert_fail>
    ab90:	eb000dd0 	bl	e2d8 <_dl_get_origin>
    ab94:	e51b1064 	ldr	r1, [fp, #-100]
    ab98:	e581019c 	str	r0, [r1, #412]
    ab9c:	e3500000 	cmp	r0, #0	; 0x0
    aba0:	13700001 	cmnne	r0, #1	; 0x1
    aba4:	03a00000 	moveq	r0, #0	; 0x0
    aba8:	0a000006 	beq	abc8 <_dl_map_object_deps+0x55c>
    abac:	eb00191b 	bl	11020 <strlen>
    abb0:	ea000004 	b	abc8 <_dl_map_object_deps+0x55c>
    abb4:	e51b2064 	ldr	r2, [fp, #-100]
    abb8:	e592019c 	ldr	r0, [r2, #412]
    abbc:	e3700001 	cmn	r0, #1	; 0x1
    abc0:	03a00000 	moveq	r0, #0	; 0x0
    abc4:	1b001915 	blne	11020 <strlen>
    abc8:	e51b107c 	ldr	r1, [fp, #-124]
    abcc:	e5913010 	ldr	r3, [r1, #16]
    abd0:	e1500003 	cmp	r0, r3
    abd4:	21a03000 	movcs	r3, r0
    abd8:	e2433007 	sub	r3, r3, #7	; 0x7
    abdc:	e51b2080 	ldr	r2, [fp, #-128]
    abe0:	e0255392 	mla	r5, r2, r3, r5
    abe4:	e2853006 	add	r3, r5, #6	; 0x6
    abe8:	e3c33003 	bic	r3, r3, #3	; 0x3
    abec:	e063d00d 	rsb	sp, r3, sp
    abf0:	e51b0064 	ldr	r0, [fp, #-100]
    abf4:	e1a01007 	mov	r1, r7
    abf8:	e1a0200d 	mov	r2, sp
    abfc:	e3a03000 	mov	r3, #0	; 0x0
    ac00:	ebffe547 	bl	4124 <_dl_dst_substitute>
    ac04:	e1a05000 	mov	r5, r0
    ac08:	e5d02000 	ldrb	r2, [r0]
    ac0c:	e3520000 	cmp	r2, #0	; 0x0
    ac10:	1a000010 	bne	ac58 <_dl_map_object_deps+0x5ec>
    ac14:	e5943000 	ldr	r3, [r4]
    ac18:	e373010e 	cmn	r3, #-2147483645	; 0x80000003
    ac1c:	1a000004 	bne	ac34 <_dl_map_object_deps+0x5c8>
    ac20:	e1a00002 	mov	r0, r2
    ac24:	e1a01007 	mov	r1, r7
    ac28:	e59f389c 	ldr	r3, [pc, #2204]	; b4cc <.text+0xa8fc>
    ac2c:	e08a3003 	add	r3, sl, r3
    ac30:	eb0002fd 	bl	b82c <_dl_signal_error>
    ac34:	e51b007c 	ldr	r0, [fp, #-124]
    ac38:	e5903000 	ldr	r3, [r0]
    ac3c:	e3130001 	tst	r3, #1	; 0x1
    ac40:	0a0000ba 	beq	af30 <_dl_map_object_deps+0x8c4>
    ac44:	e59f0878 	ldr	r0, [pc, #2168]	; b4c4 <.text+0xa8f4>
    ac48:	e08a0000 	add	r0, sl, r0
    ac4c:	e1a01007 	mov	r1, r7
    ac50:	eb000705 	bl	c86c <_dl_debug_printf>
    ac54:	ea0000b5 	b	af30 <_dl_map_object_deps+0x8c4>
    ac58:	e1a01005 	mov	r1, r5
    ac5c:	e50b5038 	str	r5, [fp, #-56]
    ac60:	e5943000 	ldr	r3, [r4]
    ac64:	e373010e 	cmn	r3, #-2147483645	; 0x80000003
    ac68:	1a00001e 	bne	ace8 <_dl_map_object_deps+0x67c>
    ac6c:	e51b207c 	ldr	r2, [fp, #-124]
    ac70:	e5923000 	ldr	r3, [r2]
    ac74:	e3130001 	tst	r3, #1	; 0x1
    ac78:	0a00000a 	beq	aca8 <_dl_map_object_deps+0x63c>
    ac7c:	e51b3064 	ldr	r3, [fp, #-100]
    ac80:	e5932004 	ldr	r2, [r3, #4]
    ac84:	e5d23000 	ldrb	r3, [r2]
    ac88:	e3530000 	cmp	r3, #0	; 0x0
    ac8c:	059f383c 	ldreq	r3, [pc, #2108]	; b4d0 <.text+0xa900>
    ac90:	079a3003 	ldreq	r3, [sl, r3]
    ac94:	05933000 	ldreq	r3, [r3]
    ac98:	05932000 	ldreq	r2, [r3]
    ac9c:	e59f0830 	ldr	r0, [pc, #2096]	; b4d4 <.text+0xa904>
    aca0:	e08a0000 	add	r0, sl, r0
    aca4:	eb0006f0 	bl	c86c <_dl_debug_printf>
    aca8:	e24b004c 	sub	r0, fp, #76	; 0x4c
    acac:	e24b1050 	sub	r1, fp, #80	; 0x50
    acb0:	e59f3810 	ldr	r3, [pc, #2064]	; b4c8 <.text+0xa8f8>
    acb4:	e79a2003 	ldr	r2, [sl, r3]
    acb8:	e24b3048 	sub	r3, fp, #72	; 0x48
    acbc:	eb000376 	bl	ba9c <_dl_catch_error>
    acc0:	e51b3050 	ldr	r3, [fp, #-80]
    acc4:	e3530000 	cmp	r3, #0	; 0x0
    acc8:	0a000023 	beq	ad5c <_dl_map_object_deps+0x6f0>
    accc:	e1a00003 	mov	r0, r3
    acd0:	e59f3800 	ldr	r3, [pc, #2048]	; b4d8 <.text+0xa908>
    acd4:	e79a3003 	ldr	r3, [sl, r3]
    acd8:	e1500003 	cmp	r0, r3
    acdc:	0a000093 	beq	af30 <_dl_map_object_deps+0x8c4>
    ace0:	ebffd7b4 	bl	bb8 <GLIBC_2.0+0xbb8>
    ace4:	ea000091 	b	af30 <_dl_map_object_deps+0x8c4>
    ace8:	e51b007c 	ldr	r0, [fp, #-124]
    acec:	e5903000 	ldr	r3, [r0]
    acf0:	e3130001 	tst	r3, #1	; 0x1
    acf4:	0a00000a 	beq	ad24 <_dl_map_object_deps+0x6b8>
    acf8:	e51b3064 	ldr	r3, [fp, #-100]
    acfc:	e5932004 	ldr	r2, [r3, #4]
    ad00:	e5d23000 	ldrb	r3, [r2]
    ad04:	e3530000 	cmp	r3, #0	; 0x0
    ad08:	059f37c0 	ldreq	r3, [pc, #1984]	; b4d0 <.text+0xa900>
    ad0c:	079a3003 	ldreq	r3, [sl, r3]
    ad10:	05933000 	ldreq	r3, [r3]
    ad14:	05932000 	ldreq	r2, [r3]
    ad18:	e59f07bc 	ldr	r0, [pc, #1980]	; b4dc <.text+0xa90c>
    ad1c:	e08a0000 	add	r0, sl, r0
    ad20:	eb0006d1 	bl	c86c <_dl_debug_printf>
    ad24:	e24b004c 	sub	r0, fp, #76	; 0x4c
    ad28:	e24b1050 	sub	r1, fp, #80	; 0x50
    ad2c:	e59f3794 	ldr	r3, [pc, #1940]	; b4c8 <.text+0xa8f8>
    ad30:	e79a2003 	ldr	r2, [sl, r3]
    ad34:	e24b3048 	sub	r3, fp, #72	; 0x48
    ad38:	eb000357 	bl	ba9c <_dl_catch_error>
    ad3c:	e51b3050 	ldr	r3, [fp, #-80]
    ad40:	e3530000 	cmp	r3, #0	; 0x0
    ad44:	0a000004 	beq	ad5c <_dl_map_object_deps+0x6f0>
    ad48:	e3500000 	cmp	r0, #0	; 0x0
    ad4c:	02400001 	subeq	r0, r0, #1	; 0x1
    ad50:	050b0060 	streq	r0, [fp, #-96]
    ad54:	0a0000a9 	beq	b000 <_dl_map_object_deps+0x994>
    ad58:	ea0000c5 	b	b074 <_dl_map_object_deps+0xa08>
    ad5c:	e24dd010 	sub	sp, sp, #16	; 0x10
    ad60:	e1a0c00d 	mov	ip, sp
    ad64:	e51b3074 	ldr	r3, [fp, #-116]
    ad68:	e8930007 	ldmia	r3, {r0, r1, r2}
    ad6c:	e88d0007 	stmia	sp, {r0, r1, r2}
    ad70:	e3a03000 	mov	r3, #0	; 0x0
    ad74:	e51b0074 	ldr	r0, [fp, #-116]
    ad78:	e5803000 	str	r3, [r0]
    ad7c:	e51b3034 	ldr	r3, [fp, #-52]
    ad80:	e5803004 	str	r3, [r0, #4]
    ad84:	e51b1068 	ldr	r1, [fp, #-104]
    ad88:	e3510000 	cmp	r1, #0	; 0x0
    ad8c:	151b3034 	ldrne	r3, [fp, #-52]
    ad90:	151b206c 	ldrne	r2, [fp, #-108]
    ad94:	17813102 	strne	r3, [r1, r2, lsl #2]
    ad98:	12822001 	addne	r2, r2, #1	; 0x1
    ad9c:	150b206c 	strne	r2, [fp, #-108]
    ada0:	e51b3034 	ldr	r3, [fp, #-52]
    ada4:	e5d33180 	ldrb	r3, [r3, #384]
    ada8:	e3130060 	tst	r3, #96	; 0x60
    adac:	0a000037 	beq	ae90 <_dl_map_object_deps+0x824>
    adb0:	e1a0200d 	mov	r2, sp
    adb4:	e59d3008 	ldr	r3, [sp, #8]
    adb8:	e3530000 	cmp	r3, #0	; 0x0
    adbc:	0a00002f 	beq	ae80 <_dl_map_object_deps+0x814>
    adc0:	e51b0034 	ldr	r0, [fp, #-52]
    adc4:	e5921008 	ldr	r1, [r2, #8]
    adc8:	e5913004 	ldr	r3, [r1, #4]
    adcc:	e1530000 	cmp	r3, r0
    add0:	0a000004 	beq	ade8 <_dl_map_object_deps+0x77c>
    add4:	e1a02001 	mov	r2, r1
    add8:	e5913008 	ldr	r3, [r1, #8]
    addc:	e3530000 	cmp	r3, #0	; 0x0
    ade0:	1afffff7 	bne	adc4 <_dl_map_object_deps+0x758>
    ade4:	ea000025 	b	ae80 <_dl_map_object_deps+0x814>
    ade8:	e5923008 	ldr	r3, [r2, #8]
    adec:	e3530000 	cmp	r3, #0	; 0x0
    adf0:	0a000022 	beq	ae80 <_dl_map_object_deps+0x814>
    adf4:	e51b3074 	ldr	r3, [fp, #-116]
    adf8:	e583c008 	str	ip, [r3, #8]
    adfc:	e5923008 	ldr	r3, [r2, #8]
    ae00:	e51b0058 	ldr	r0, [fp, #-88]
    ae04:	e1530000 	cmp	r3, r0
    ae08:	01a00002 	moveq	r0, r2
    ae0c:	e50b0058 	str	r0, [fp, #-88]
    ae10:	e5923008 	ldr	r3, [r2, #8]
    ae14:	e5933008 	ldr	r3, [r3, #8]
    ae18:	e5823008 	str	r3, [r2, #8]
    ae1c:	e51b3034 	ldr	r3, [fp, #-52]
    ae20:	e5932010 	ldr	r2, [r3, #16]
    ae24:	e3520000 	cmp	r2, #0	; 0x0
    ae28:	1593300c 	ldrne	r3, [r3, #12]
    ae2c:	1582300c 	strne	r3, [r2, #12]
    ae30:	e51b3034 	ldr	r3, [fp, #-52]
    ae34:	e593200c 	ldr	r2, [r3, #12]
    ae38:	e3520000 	cmp	r2, #0	; 0x0
    ae3c:	15933010 	ldrne	r3, [r3, #16]
    ae40:	15823010 	strne	r3, [r2, #16]
    ae44:	e59c3004 	ldr	r3, [ip, #4]
    ae48:	e5932010 	ldr	r2, [r3, #16]
    ae4c:	e51b3034 	ldr	r3, [fp, #-52]
    ae50:	e5832010 	str	r2, [r3, #16]
    ae54:	e59c2004 	ldr	r2, [ip, #4]
    ae58:	e51b3034 	ldr	r3, [fp, #-52]
    ae5c:	e5823010 	str	r3, [r2, #16]
    ae60:	e51b2034 	ldr	r2, [fp, #-52]
    ae64:	e5923010 	ldr	r3, [r2, #16]
    ae68:	e3530000 	cmp	r3, #0	; 0x0
    ae6c:	1583200c 	strne	r2, [r3, #12]
    ae70:	e59c2004 	ldr	r2, [ip, #4]
    ae74:	e51b3034 	ldr	r3, [fp, #-52]
    ae78:	e583200c 	str	r2, [r3, #12]
    ae7c:	ea000025 	b	af18 <_dl_map_object_deps+0x8ac>
    ae80:	e89c0007 	ldmia	ip, {r0, r1, r2}
    ae84:	e51b3074 	ldr	r3, [fp, #-116]
    ae88:	e8830007 	stmia	r3, {r0, r1, r2}
    ae8c:	ea000027 	b	af30 <_dl_map_object_deps+0x8c4>
    ae90:	e51b0074 	ldr	r0, [fp, #-116]
    ae94:	e580d008 	str	sp, [r0, #8]
    ae98:	e51b3030 	ldr	r3, [fp, #-48]
    ae9c:	e2833001 	add	r3, r3, #1	; 0x1
    aea0:	e50b3030 	str	r3, [fp, #-48]
    aea4:	e51b2034 	ldr	r2, [fp, #-52]
    aea8:	e5d23180 	ldrb	r3, [r2, #384]
    aeac:	e3c33040 	bic	r3, r3, #64	; 0x40
    aeb0:	e3833020 	orr	r3, r3, #32	; 0x20
    aeb4:	e5c23180 	strb	r3, [r2, #384]
    aeb8:	e51b3034 	ldr	r3, [fp, #-52]
    aebc:	e5932010 	ldr	r2, [r3, #16]
    aec0:	e3520000 	cmp	r2, #0	; 0x0
    aec4:	1593300c 	ldrne	r3, [r3, #12]
    aec8:	1582300c 	strne	r3, [r2, #12]
    aecc:	e51b3034 	ldr	r3, [fp, #-52]
    aed0:	e593200c 	ldr	r2, [r3, #12]
    aed4:	e3520000 	cmp	r2, #0	; 0x0
    aed8:	15933010 	ldrne	r3, [r3, #16]
    aedc:	15823010 	strne	r3, [r2, #16]
    aee0:	e59d3004 	ldr	r3, [sp, #4]
    aee4:	e5932010 	ldr	r2, [r3, #16]
    aee8:	e51b3034 	ldr	r3, [fp, #-52]
    aeec:	e5832010 	str	r2, [r3, #16]
    aef0:	e59d2004 	ldr	r2, [sp, #4]
    aef4:	e51b3034 	ldr	r3, [fp, #-52]
    aef8:	e5823010 	str	r3, [r2, #16]
    aefc:	e51b2034 	ldr	r2, [fp, #-52]
    af00:	e5923010 	ldr	r3, [r2, #16]
    af04:	e3530000 	cmp	r3, #0	; 0x0
    af08:	1583200c 	strne	r2, [r3, #12]
    af0c:	e59d2004 	ldr	r2, [sp, #4]
    af10:	e51b3034 	ldr	r3, [fp, #-52]
    af14:	e583200c 	str	r2, [r3, #12]
    af18:	e51b1058 	ldr	r1, [fp, #-88]
    af1c:	e51b2074 	ldr	r2, [fp, #-116]
    af20:	e1520001 	cmp	r2, r1
    af24:	01a0100c 	moveq	r1, ip
    af28:	e50b1058 	str	r1, [fp, #-88]
    af2c:	e50bc074 	str	ip, [fp, #-116]
    af30:	e5b43008 	ldr	r3, [r4, #8]!
    af34:	e3530000 	cmp	r3, #0	; 0x0
    af38:	1afffe5a 	bne	a8a8 <_dl_map_object_deps+0x23c>
    af3c:	e51b0068 	ldr	r0, [fp, #-104]
    af40:	e3500000 	cmp	r0, #0	; 0x0
    af44:	0a000022 	beq	afd4 <_dl_map_object_deps+0x968>
    af48:	e3a03000 	mov	r3, #0	; 0x0
    af4c:	e51b106c 	ldr	r1, [fp, #-108]
    af50:	e7803101 	str	r3, [r0, r1, lsl #2]
    af54:	e2811001 	add	r1, r1, #1	; 0x1
    af58:	e50b106c 	str	r1, [fp, #-108]
    af5c:	e1a00181 	mov	r0, r1, lsl #3
    af60:	e2800004 	add	r0, r0, #4	; 0x4
    af64:	ebffd710 	bl	bac <GLIBC_2.0+0xbac>
    af68:	e1a02000 	mov	r2, r0
    af6c:	e51b3064 	ldr	r3, [fp, #-100]
    af70:	e58301e4 	str	r0, [r3, #484]
    af74:	e3500000 	cmp	r0, #0	; 0x0
    af78:	1a000004 	bne	af90 <_dl_map_object_deps+0x924>
    af7c:	e3a0000c 	mov	r0, #12	; 0xc
    af80:	e5991004 	ldr	r1, [r9, #4]
    af84:	e59f3554 	ldr	r3, [pc, #1364]	; b4e0 <.text+0xa910>
    af88:	e08a3003 	add	r3, sl, r3
    af8c:	eb000226 	bl	b82c <_dl_signal_error>
    af90:	e51b0064 	ldr	r0, [fp, #-100]
    af94:	e59031e4 	ldr	r3, [r0, #484]
    af98:	e5830000 	str	r0, [r3]
    af9c:	e51b1064 	ldr	r1, [fp, #-100]
    afa0:	e59101e4 	ldr	r0, [r1, #484]
    afa4:	e51b206c 	ldr	r2, [fp, #-108]
    afa8:	e1a04102 	mov	r4, r2, lsl #2
    afac:	e2800004 	add	r0, r0, #4	; 0x4
    afb0:	e51b1068 	ldr	r1, [fp, #-104]
    afb4:	e1a02004 	mov	r2, r4
    afb8:	eb001a45 	bl	118d4 <memcpy>
    afbc:	e51b3064 	ldr	r3, [fp, #-100]
    afc0:	e59311e4 	ldr	r1, [r3, #484]
    afc4:	e0840001 	add	r0, r4, r1
    afc8:	e2800004 	add	r0, r0, #4	; 0x4
    afcc:	e1a02004 	mov	r2, r4
    afd0:	eb001a3f 	bl	118d4 <memcpy>
    afd4:	e5983000 	ldr	r3, [r8]
    afd8:	e3530000 	cmp	r3, #0	; 0x0
    afdc:	0a000005 	beq	aff8 <_dl_map_object_deps+0x98c>
    afe0:	e5988008 	ldr	r8, [r8, #8]
    afe4:	e3580000 	cmp	r8, #0	; 0x0
    afe8:	0a000004 	beq	b000 <_dl_map_object_deps+0x994>
    afec:	e5983000 	ldr	r3, [r8]
    aff0:	e3530000 	cmp	r3, #0	; 0x0
    aff4:	1afffff9 	bne	afe0 <_dl_map_object_deps+0x974>
    aff8:	e3580000 	cmp	r8, #0	; 0x0
    affc:	1afffdf1 	bne	a7c8 <_dl_map_object_deps+0x15c>
    b000:	e59f34a0 	ldr	r3, [pc, #1184]	; b4a8 <.text+0xa8d8>
    b004:	e79a2003 	ldr	r2, [sl, r3]
    b008:	e5923000 	ldr	r3, [r2]
    b00c:	e51b005c 	ldr	r0, [fp, #-92]
    b010:	e2733001 	rsbs	r3, r3, #1	; 0x1
    b014:	33a03000 	movcc	r3, #0	; 0x0
    b018:	e3500000 	cmp	r0, #0	; 0x0
    b01c:	03a03000 	moveq	r3, #0	; 0x0
    b020:	e3530000 	cmp	r3, #0	; 0x0
    b024:	15820000 	strne	r0, [r2]
    b028:	e59931e4 	ldr	r3, [r9, #484]
    b02c:	e3530000 	cmp	r3, #0	; 0x0
    b030:	0a000015 	beq	b08c <_dl_map_object_deps+0xa20>
    b034:	e5d93180 	ldrb	r3, [r9, #384]
    b038:	e2033003 	and	r3, r3, #3	; 0x3
    b03c:	e3530002 	cmp	r3, #2	; 0x2
    b040:	1a000011 	bne	b08c <_dl_map_object_deps+0xa20>
    b044:	e5993158 	ldr	r3, [r9, #344]
    b048:	e3530000 	cmp	r3, #0	; 0x0
    b04c:	0a00000c 	beq	b084 <_dl_map_object_deps+0xa18>
    b050:	e59f048c 	ldr	r0, [pc, #1164]	; b4e4 <.text+0xa914>
    b054:	e08a0000 	add	r0, sl, r0
    b058:	e59f145c 	ldr	r1, [pc, #1116]	; b4bc <.text+0xa8ec>
    b05c:	e08a1001 	add	r1, sl, r1
    b060:	e3a02e1e 	mov	r2, #480	; 0x1e0
    b064:	e2822003 	add	r2, r2, #3	; 0x3
    b068:	e59f3450 	ldr	r3, [pc, #1104]	; b4c0 <.text+0xa8f0>
    b06c:	e79a3003 	ldr	r3, [sl, r3]
    b070:	eb0011d2 	bl	f7c0 <__GI___assert_fail>
    b074:	e50b0060 	str	r0, [fp, #-96]
    b078:	eaffffe0 	b	b000 <_dl_map_object_deps+0x994>
    b07c:	e50b0060 	str	r0, [fp, #-96]
    b080:	eaffffde 	b	b000 <_dl_map_object_deps+0x994>
    b084:	e59901e4 	ldr	r0, [r9, #484]
    b088:	ebffd6ca 	bl	bb8 <GLIBC_2.0+0xbb8>
    b08c:	e51b0030 	ldr	r0, [fp, #-48]
    b090:	e1a00180 	mov	r0, r0, lsl #3
    b094:	e2800004 	add	r0, r0, #4	; 0x4
    b098:	ebffd6c3 	bl	bac <GLIBC_2.0+0xbac>
    b09c:	e1a02000 	mov	r2, r0
    b0a0:	e58901e4 	str	r0, [r9, #484]
    b0a4:	e3500000 	cmp	r0, #0	; 0x0
    b0a8:	1a000004 	bne	b0c0 <_dl_map_object_deps+0xa54>
    b0ac:	e3a0000c 	mov	r0, #12	; 0xc
    b0b0:	e5991004 	ldr	r1, [r9, #4]
    b0b4:	e59f342c 	ldr	r3, [pc, #1068]	; b4e8 <.text+0xa918>
    b0b8:	e08a3003 	add	r3, sl, r3
    b0bc:	eb0001da 	bl	b82c <_dl_signal_error>
    b0c0:	e51b3030 	ldr	r3, [fp, #-48]
    b0c4:	e59921e4 	ldr	r2, [r9, #484]
    b0c8:	e0822103 	add	r2, r2, r3, lsl #2
    b0cc:	e2822004 	add	r2, r2, #4	; 0x4
    b0d0:	e5892158 	str	r2, [r9, #344]
    b0d4:	e589315c 	str	r3, [r9, #348]
    b0d8:	e3a03000 	mov	r3, #0	; 0x0
    b0dc:	e50b3030 	str	r3, [fp, #-48]
    b0e0:	e51b802c 	ldr	r8, [fp, #-44]
    b0e4:	e1580003 	cmp	r8, r3
    b0e8:	0a000016 	beq	b148 <_dl_map_object_deps+0xadc>
    b0ec:	e51b1054 	ldr	r1, [fp, #-84]
    b0f0:	e3510000 	cmp	r1, #0	; 0x0
    b0f4:	0a000006 	beq	b114 <_dl_map_object_deps+0xaa8>
    b0f8:	e5983004 	ldr	r3, [r8, #4]
    b0fc:	e5d33181 	ldrb	r3, [r3, #385]
    b100:	e3130002 	tst	r3, #2	; 0x2
    b104:	1599315c 	ldrne	r3, [r9, #348]
    b108:	12433001 	subne	r3, r3, #1	; 0x1
    b10c:	1589315c 	strne	r3, [r9, #348]
    b110:	1a000005 	bne	b12c <_dl_map_object_deps+0xac0>
    b114:	e51b3030 	ldr	r3, [fp, #-48]
    b118:	e5991158 	ldr	r1, [r9, #344]
    b11c:	e5982004 	ldr	r2, [r8, #4]
    b120:	e7812103 	str	r2, [r1, r3, lsl #2]
    b124:	e2833001 	add	r3, r3, #1	; 0x1
    b128:	e50b3030 	str	r3, [fp, #-48]
    b12c:	e5982004 	ldr	r2, [r8, #4]
    b130:	e5d23180 	ldrb	r3, [r2, #384]
    b134:	e3c33060 	bic	r3, r3, #96	; 0x60
    b138:	e5c23180 	strb	r3, [r2, #384]
    b13c:	e5988008 	ldr	r8, [r8, #8]
    b140:	e3580000 	cmp	r8, #0	; 0x0
    b144:	1affffe8 	bne	b0ec <_dl_map_object_deps+0xa80>
    b148:	e59f335c 	ldr	r3, [pc, #860]	; b4ac <.text+0xa8dc>
    b14c:	e79a3003 	ldr	r3, [sl, r3]
    b150:	e5933000 	ldr	r3, [r3]
    b154:	e3130b01 	tst	r3, #1024	; 0x400
    b158:	0a000053 	beq	b2ac <_dl_map_object_deps+0xc40>
    b15c:	e59f3388 	ldr	r3, [pc, #904]	; b4ec <.text+0xa91c>
    b160:	e79a3003 	ldr	r3, [sl, r3]
    b164:	e5933000 	ldr	r3, [r3]
    b168:	e1530009 	cmp	r3, r9
    b16c:	1a00004e 	bne	b2ac <_dl_map_object_deps+0xc40>
    b170:	e3a08000 	mov	r8, #0	; 0x0
    b174:	e51b3030 	ldr	r3, [fp, #-48]
    b178:	e1580003 	cmp	r8, r3
    b17c:	2a00004a 	bcs	b2ac <_dl_map_object_deps+0xc40>
    b180:	e5993158 	ldr	r3, [r9, #344]
    b184:	e7934108 	ldr	r4, [r3, r8, lsl #2]
    b188:	e1540009 	cmp	r4, r9
    b18c:	0a000042 	beq	b29c <_dl_map_object_deps+0xc30>
    b190:	e59431c4 	ldr	r3, [r4, #452]
    b194:	e3530000 	cmp	r3, #0	; 0x0
    b198:	0a000002 	beq	b1a8 <_dl_map_object_deps+0xb3c>
    b19c:	e5933004 	ldr	r3, [r3, #4]
    b1a0:	e3530000 	cmp	r3, #0	; 0x0
    b1a4:	1a00003c 	bne	b29c <_dl_map_object_deps+0xc30>
    b1a8:	e59430f0 	ldr	r3, [r4, #240]
    b1ac:	e3530000 	cmp	r3, #0	; 0x0
    b1b0:	1a000002 	bne	b1c0 <_dl_map_object_deps+0xb54>
    b1b4:	e59430e8 	ldr	r3, [r4, #232]
    b1b8:	e3530000 	cmp	r3, #0	; 0x0
    b1bc:	0a000005 	beq	b1d8 <_dl_map_object_deps+0xb6c>
    b1c0:	e3a00016 	mov	r0, #22	; 0x16
    b1c4:	e5941004 	ldr	r1, [r4, #4]
    b1c8:	e3a02000 	mov	r2, #0	; 0x0
    b1cc:	e59f331c 	ldr	r3, [pc, #796]	; b4f0 <.text+0xa920>
    b1d0:	e08a3003 	add	r3, sl, r3
    b1d4:	eb000194 	bl	b82c <_dl_signal_error>
    b1d8:	e59901e4 	ldr	r0, [r9, #484]
    b1dc:	e1a01004 	mov	r1, r4
    b1e0:	ebfffd05 	bl	a5fc <_dl_build_local_scope>
    b1e4:	e1a05000 	mov	r5, r0
    b1e8:	e51b3030 	ldr	r3, [fp, #-48]
    b1ec:	e1500003 	cmp	r0, r3
    b1f0:	9a000008 	bls	b218 <_dl_map_object_deps+0xbac>
    b1f4:	e59f02f8 	ldr	r0, [pc, #760]	; b4f4 <.text+0xa924>
    b1f8:	e08a0000 	add	r0, sl, r0
    b1fc:	e59f12b8 	ldr	r1, [pc, #696]	; b4bc <.text+0xa8ec>
    b200:	e08a1001 	add	r1, sl, r1
    b204:	e3a02f86 	mov	r2, #536	; 0x218
    b208:	e2822003 	add	r2, r2, #3	; 0x3
    b20c:	e59f32ac 	ldr	r3, [pc, #684]	; b4c0 <.text+0xa8f0>
    b210:	e79a3003 	ldr	r3, [sl, r3]
    b214:	eb001169 	bl	f7c0 <__GI___assert_fail>
    b218:	e3a01000 	mov	r1, #0	; 0x0
    b21c:	e1510000 	cmp	r1, r0
    b220:	2a000007 	bcs	b244 <_dl_map_object_deps+0xbd8>
    b224:	e59931e4 	ldr	r3, [r9, #484]
    b228:	e7932101 	ldr	r2, [r3, r1, lsl #2]
    b22c:	e5d23180 	ldrb	r3, [r2, #384]
    b230:	e3c33060 	bic	r3, r3, #96	; 0x60
    b234:	e5c23180 	strb	r3, [r2, #384]
    b238:	e2811001 	add	r1, r1, #1	; 0x1
    b23c:	e1510005 	cmp	r1, r5
    b240:	3afffff7 	bcc	b224 <_dl_map_object_deps+0xbb8>
    b244:	e1a00105 	mov	r0, r5, lsl #2
    b248:	e2800008 	add	r0, r0, #8	; 0x8
    b24c:	ebffd656 	bl	bac <GLIBC_2.0+0xbac>
    b250:	e1a02000 	mov	r2, r0
    b254:	e58401c4 	str	r0, [r4, #452]
    b258:	e3500000 	cmp	r0, #0	; 0x0
    b25c:	1a000004 	bne	b274 <_dl_map_object_deps+0xc08>
    b260:	e3a0000c 	mov	r0, #12	; 0xc
    b264:	e5991004 	ldr	r1, [r9, #4]
    b268:	e59f3278 	ldr	r3, [pc, #632]	; b4e8 <.text+0xa918>
    b26c:	e08a3003 	add	r3, sl, r3
    b270:	eb00016d 	bl	b82c <_dl_signal_error>
    b274:	e59431c4 	ldr	r3, [r4, #452]
    b278:	e5835004 	str	r5, [r3, #4]
    b27c:	e59421c4 	ldr	r2, [r4, #452]
    b280:	e2823008 	add	r3, r2, #8	; 0x8
    b284:	e5823000 	str	r3, [r2]
    b288:	e59431c4 	ldr	r3, [r4, #452]
    b28c:	e5930000 	ldr	r0, [r3]
    b290:	e59911e4 	ldr	r1, [r9, #484]
    b294:	e1a02105 	mov	r2, r5, lsl #2
    b298:	eb00198d 	bl	118d4 <memcpy>
    b29c:	e2888001 	add	r8, r8, #1	; 0x1
    b2a0:	e51b3030 	ldr	r3, [fp, #-48]
    b2a4:	e1580003 	cmp	r8, r3
    b2a8:	3affffb4 	bcc	b180 <_dl_map_object_deps+0xb14>
    b2ac:	e5993158 	ldr	r3, [r9, #344]
    b2b0:	e5933000 	ldr	r3, [r3]
    b2b4:	e1530009 	cmp	r3, r9
    b2b8:	0a000008 	beq	b2e0 <_dl_map_object_deps+0xc74>
    b2bc:	e59f0234 	ldr	r0, [pc, #564]	; b4f8 <.text+0xa928>
    b2c0:	e08a0000 	add	r0, sl, r0
    b2c4:	e59f11f0 	ldr	r1, [pc, #496]	; b4bc <.text+0xa8ec>
    b2c8:	e08a1001 	add	r1, sl, r1
    b2cc:	e3a02f8b 	mov	r2, #556	; 0x22c
    b2d0:	e2822003 	add	r2, r2, #3	; 0x3
    b2d4:	e59f31e4 	ldr	r3, [pc, #484]	; b4c0 <.text+0xa8f0>
    b2d8:	e79a3003 	ldr	r3, [sl, r3]
    b2dc:	eb001137 	bl	f7c0 <__GI___assert_fail>
    b2e0:	e3a08000 	mov	r8, #0	; 0x0
    b2e4:	e59931ec 	ldr	r3, [r9, #492]
    b2e8:	e1530008 	cmp	r3, r8
    b2ec:	9a000022 	bls	b37c <_dl_map_object_deps+0xd10>
    b2f0:	e3a00001 	mov	r0, #1	; 0x1
    b2f4:	e51b3030 	ldr	r3, [fp, #-48]
    b2f8:	e1500003 	cmp	r0, r3
    b2fc:	2a00001a 	bcs	b36c <_dl_map_object_deps+0xd00>
    b300:	e5993158 	ldr	r3, [r9, #344]
    b304:	e59921f0 	ldr	r2, [r9, #496]
    b308:	e7931100 	ldr	r1, [r3, r0, lsl #2]
    b30c:	e7923108 	ldr	r3, [r2, r8, lsl #2]
    b310:	e1510003 	cmp	r1, r3
    b314:	1a000010 	bne	b35c <_dl_map_object_deps+0xcf0>
    b318:	e2880001 	add	r0, r8, #1	; 0x1
    b31c:	e59931ec 	ldr	r3, [r9, #492]
    b320:	e1530000 	cmp	r3, r0
    b324:	9a000007 	bls	b348 <_dl_map_object_deps+0xcdc>
    b328:	e59931f0 	ldr	r3, [r9, #496]
    b32c:	e0832100 	add	r2, r3, r0, lsl #2
    b330:	e7933100 	ldr	r3, [r3, r0, lsl #2]
    b334:	e5023004 	str	r3, [r2, #-4]
    b338:	e2800001 	add	r0, r0, #1	; 0x1
    b33c:	e59931ec 	ldr	r3, [r9, #492]
    b340:	e1530000 	cmp	r3, r0
    b344:	8afffff7 	bhi	b328 <_dl_map_object_deps+0xcbc>
    b348:	e59931ec 	ldr	r3, [r9, #492]
    b34c:	e2433001 	sub	r3, r3, #1	; 0x1
    b350:	e58931ec 	str	r3, [r9, #492]
    b354:	e2488001 	sub	r8, r8, #1	; 0x1
    b358:	ea000003 	b	b36c <_dl_map_object_deps+0xd00>
    b35c:	e2800001 	add	r0, r0, #1	; 0x1
    b360:	e51b3030 	ldr	r3, [fp, #-48]
    b364:	e1500003 	cmp	r0, r3
    b368:	3affffe4 	bcc	b300 <_dl_map_object_deps+0xc94>
    b36c:	e2888001 	add	r8, r8, #1	; 0x1
    b370:	e59931ec 	ldr	r3, [r9, #492]
    b374:	e1530008 	cmp	r3, r8
    b378:	8affffdc 	bhi	b2f0 <_dl_map_object_deps+0xc84>
    b37c:	e59901e4 	ldr	r0, [r9, #484]
    b380:	e5991158 	ldr	r1, [r9, #344]
    b384:	e51b2030 	ldr	r2, [fp, #-48]
    b388:	e1a02102 	mov	r2, r2, lsl #2
    b38c:	eb001950 	bl	118d4 <memcpy>
    b390:	e3a08001 	mov	r8, #1	; 0x1
    b394:	e51b3030 	ldr	r3, [fp, #-48]
    b398:	e1580003 	cmp	r8, r3
    b39c:	2a000030 	bcs	b464 <_dl_map_object_deps+0xdf8>
    b3a0:	e5993158 	ldr	r3, [r9, #344]
    b3a4:	e7936108 	ldr	r6, [r3, r8, lsl #2]
    b3a8:	e3a07001 	mov	r7, #1	; 0x1
    b3ac:	e59931e4 	ldr	r3, [r9, #484]
    b3b0:	e7933107 	ldr	r3, [r3, r7, lsl #2]
    b3b4:	e1530006 	cmp	r3, r6
    b3b8:	0a000004 	beq	b3d0 <_dl_map_object_deps+0xd64>
    b3bc:	e59921e4 	ldr	r2, [r9, #484]
    b3c0:	e2877001 	add	r7, r7, #1	; 0x1
    b3c4:	e7923107 	ldr	r3, [r2, r7, lsl #2]
    b3c8:	e1530006 	cmp	r3, r6
    b3cc:	1afffffb 	bne	b3c0 <_dl_map_object_deps+0xd54>
    b3d0:	e2875001 	add	r5, r7, #1	; 0x1
    b3d4:	e51b3030 	ldr	r3, [fp, #-48]
    b3d8:	e1550003 	cmp	r5, r3
    b3dc:	2a00001c 	bcs	b454 <_dl_map_object_deps+0xde8>
    b3e0:	e59931e4 	ldr	r3, [r9, #484]
    b3e4:	e7933105 	ldr	r3, [r3, r5, lsl #2]
    b3e8:	e59321e4 	ldr	r2, [r3, #484]
    b3ec:	e3520000 	cmp	r2, #0	; 0x0
    b3f0:	0a000013 	beq	b444 <_dl_map_object_deps+0xdd8>
    b3f4:	e5923000 	ldr	r3, [r2]
    b3f8:	e3530000 	cmp	r3, #0	; 0x0
    b3fc:	0a000010 	beq	b444 <_dl_map_object_deps+0xdd8>
    b400:	e4923004 	ldr	r3, [r2], #4
    b404:	e1530006 	cmp	r3, r6
    b408:	1a00000a 	bne	b438 <_dl_map_object_deps+0xdcc>
    b40c:	e59911e4 	ldr	r1, [r9, #484]
    b410:	e7914105 	ldr	r4, [r1, r5, lsl #2]
    b414:	e0811107 	add	r1, r1, r7, lsl #2
    b418:	e0672005 	rsb	r2, r7, r5
    b41c:	e2810004 	add	r0, r1, #4	; 0x4
    b420:	e1a02102 	mov	r2, r2, lsl #2
    b424:	eb00188b 	bl	11658 <memmove>
    b428:	e59931e4 	ldr	r3, [r9, #484]
    b42c:	e7834107 	str	r4, [r3, r7, lsl #2]
    b430:	e2877001 	add	r7, r7, #1	; 0x1
    b434:	ea000002 	b	b444 <_dl_map_object_deps+0xdd8>
    b438:	e5923000 	ldr	r3, [r2]
    b43c:	e3530000 	cmp	r3, #0	; 0x0
    b440:	1affffee 	bne	b400 <_dl_map_object_deps+0xd94>
    b444:	e2855001 	add	r5, r5, #1	; 0x1
    b448:	e51b3030 	ldr	r3, [fp, #-48]
    b44c:	e1550003 	cmp	r5, r3
    b450:	3affffe2 	bcc	b3e0 <_dl_map_object_deps+0xd74>
    b454:	e2888001 	add	r8, r8, #1	; 0x1
    b458:	e51b3030 	ldr	r3, [fp, #-48]
    b45c:	e1580003 	cmp	r8, r3
    b460:	3affffce 	bcc	b3a0 <_dl_map_object_deps+0xd34>
    b464:	e59911e4 	ldr	r1, [r9, #484]
    b468:	e3a02000 	mov	r2, #0	; 0x0
    b46c:	e51b3030 	ldr	r3, [fp, #-48]
    b470:	e7812103 	str	r2, [r1, r3, lsl #2]
    b474:	e51b2060 	ldr	r2, [fp, #-96]
    b478:	e3520000 	cmp	r2, #0	; 0x0
    b47c:	0a000006 	beq	b49c <_dl_map_object_deps+0xe30>
    b480:	e1a00002 	mov	r0, r2
    b484:	e3720001 	cmn	r2, #1	; 0x1
    b488:	03a00000 	moveq	r0, #0	; 0x0
    b48c:	e51b104c 	ldr	r1, [fp, #-76]
    b490:	e3a02000 	mov	r2, #0	; 0x0
    b494:	e51b3050 	ldr	r3, [fp, #-80]
    b498:	eb0000e3 	bl	b82c <_dl_signal_error>
    b49c:	e24bd028 	sub	sp, fp, #40	; 0x28
    b4a0:	e89daff0 	ldmia	sp, {r4, r5, r6, r7, r8, r9, sl, fp, sp, pc}
    b4a4:	00012f0c 	andeq	r2, r1, ip, lsl #30
    b4a8:	00000238 	andeq	r0, r0, r8, lsr r2
    b4ac:	00000210 	andeq	r0, r0, r0, lsl r2
    b4b0:	00000200 	andeq	r0, r0, r0, lsl #4
    b4b4:	ffff6ef0 	swinv	0x00ff6ef0
    b4b8:	ffff64b8 	swinv	0x00ff64b8
    b4bc:	ffff6f18 	swinv	0x00ff6f18
    b4c0:	0000010c 	andeq	r0, r0, ip, lsl #2
    b4c4:	ffff6f24 	swinv	0x00ff6f24
    b4c8:	00000108 	andeq	r0, r0, r8, lsl #2
    b4cc:	ffff6f74 	swinv	0x00ff6f74
    b4d0:	000001d8 	ldreqd	r0, [r0], -r8
    b4d4:	ffff6fa0 	swinv	0x00ff6fa0
    b4d8:	000001fc 	streqd	r0, [r0], -ip
    b4dc:	ffff6fd0 	swinv	0x00ff6fd0
    b4e0:	ffff7000 	swinv	0x00ff7000
    b4e4:	ffff7020 	swinv	0x00ff7020
    b4e8:	ffff7048 	swinv	0x00ff7048
    b4ec:	0000023c 	andeq	r0, r0, ip, lsr r2
    b4f0:	ffff706c 	swinv	0x00ff706c
    b4f4:	ffff709c 	swinv	0x00ff709c
    b4f8:	ffff70ac 	swinv	0x00ff70ac

0000b4fc <fixup>:
    b4fc:	e92d4430 	stmdb	sp!, {r4, r5, sl, lr}
    b500:	e24dd014 	sub	sp, sp, #20	; 0x14
    b504:	e59fa138 	ldr	sl, [pc, #312]	; b644 <.text+0xaa74>
    b508:	e08fa00a 	add	sl, pc, sl
    b50c:	e1a0c000 	mov	ip, r0
    b510:	e5903038 	ldr	r3, [r0, #56]
    b514:	e5932004 	ldr	r2, [r3, #4]
    b518:	e5903034 	ldr	r3, [r0, #52]
    b51c:	e5934004 	ldr	r4, [r3, #4]
    b520:	e590307c 	ldr	r3, [r0, #124]
    b524:	e5930004 	ldr	r0, [r3, #4]
    b528:	e081e000 	add	lr, r1, r0
    b52c:	e59e3004 	ldr	r3, [lr, #4]
    b530:	e1a03423 	mov	r3, r3, lsr #8
    b534:	e0822203 	add	r2, r2, r3, lsl #4
    b538:	e58d2010 	str	r2, [sp, #16]
    b53c:	e59c2000 	ldr	r2, [ip]
    b540:	e7913000 	ldr	r3, [r1, r0]
    b544:	e0825003 	add	r5, r2, r3
    b548:	e5de3004 	ldrb	r3, [lr, #4]
    b54c:	e3530016 	cmp	r3, #22	; 0x16
    b550:	0a000007 	beq	b574 <fixup+0x78>
    b554:	e59f00ec 	ldr	r0, [pc, #236]	; b648 <.text+0xaa78>
    b558:	e08a0000 	add	r0, sl, r0
    b55c:	e59f10e8 	ldr	r1, [pc, #232]	; b64c <.text+0xaa7c>
    b560:	e08a1001 	add	r1, sl, r1
    b564:	e3a0204c 	mov	r2, #76	; 0x4c
    b568:	e59f30e0 	ldr	r3, [pc, #224]	; b650 <.text+0xaa80>
    b56c:	e79a3003 	ldr	r3, [sl, r3]
    b570:	eb001092 	bl	f7c0 <__GI___assert_fail>
    b574:	e59d3010 	ldr	r3, [sp, #16]
    b578:	e5d3300d 	ldrb	r3, [r3, #13]
    b57c:	e2133003 	ands	r3, r3, #3	; 0x3
    b580:	159c3000 	ldrne	r3, [ip]
    b584:	159d2010 	ldrne	r2, [sp, #16]
    b588:	15922004 	ldrne	r2, [r2, #4]
    b58c:	10830002 	addne	r0, r3, r2
    b590:	1a000024 	bne	b628 <fixup+0x12c>
    b594:	e1a01003 	mov	r1, r3
    b598:	e59c30e4 	ldr	r3, [ip, #228]
    b59c:	e3530000 	cmp	r3, #0	; 0x0
    b5a0:	0a00000e 	beq	b5e0 <fixup+0xe4>
    b5a4:	e5931004 	ldr	r1, [r3, #4]
    b5a8:	e59e3004 	ldr	r3, [lr, #4]
    b5ac:	e1a03423 	mov	r3, r3, lsr #8
    b5b0:	e1a03083 	mov	r3, r3, lsl #1
    b5b4:	e0832001 	add	r2, r3, r1
    b5b8:	e7d33001 	ldrb	r3, [r3, r1]
    b5bc:	e5d22001 	ldrb	r2, [r2, #1]
    b5c0:	e1833402 	orr	r3, r3, r2, lsl #8
    b5c4:	e1a03883 	mov	r3, r3, lsl #17
    b5c8:	e1a038a3 	mov	r3, r3, lsr #17
    b5cc:	e59c2188 	ldr	r2, [ip, #392]
    b5d0:	e0821203 	add	r1, r2, r3, lsl #4
    b5d4:	e5913004 	ldr	r3, [r1, #4]
    b5d8:	e3530000 	cmp	r3, #0	; 0x0
    b5dc:	03a01000 	moveq	r1, #0	; 0x0
    b5e0:	e28d2014 	add	r2, sp, #20	; 0x14
    b5e4:	e5323004 	ldr	r3, [r2, #-4]!
    b5e8:	e5930000 	ldr	r0, [r3]
    b5ec:	e58d1000 	str	r1, [sp]
    b5f0:	e3a03001 	mov	r3, #1	; 0x1
    b5f4:	e58d3004 	str	r3, [sp, #4]
    b5f8:	e58d3008 	str	r3, [sp, #8]
    b5fc:	e2433001 	sub	r3, r3, #1	; 0x1
    b600:	e58d300c 	str	r3, [sp, #12]
    b604:	e0840000 	add	r0, r4, r0
    b608:	e1a0100c 	mov	r1, ip
    b60c:	e59c31c0 	ldr	r3, [ip, #448]
    b610:	ebfff269 	bl	7fbc <_dl_lookup_symbol_x>
    b614:	e59d3010 	ldr	r3, [sp, #16]
    b618:	e3530000 	cmp	r3, #0	; 0x0
    b61c:	15933004 	ldrne	r3, [r3, #4]
    b620:	10800003 	addne	r0, r0, r3
    b624:	03a00000 	moveq	r0, #0	; 0x0
    b628:	e59f3024 	ldr	r3, [pc, #36]	; b654 <.text+0xaa84>
    b62c:	e79a3003 	ldr	r3, [sl, r3]
    b630:	e593302c 	ldr	r3, [r3, #44]
    b634:	e3530000 	cmp	r3, #0	; 0x0
    b638:	05850000 	streq	r0, [r5]
    b63c:	e28dd014 	add	sp, sp, #20	; 0x14
    b640:	e8bd8430 	ldmia	sp!, {r4, r5, sl, pc}
    b644:	00012084 	andeq	r2, r1, r4, lsl #1
    b648:	ffff70d0 	swinv	0x00ff70d0
    b64c:	ffff70f0 	swinv	0x00ff70f0
    b650:	00000110 	andeq	r0, r0, r0, lsl r1
    b654:	00000210 	andeq	r0, r0, r0, lsl r2

0000b658 <profile_fixup>:
    b658:	e92d4470 	stmdb	sp!, {r4, r5, r6, sl, lr}
    b65c:	e24dd014 	sub	sp, sp, #20	; 0x14
    b660:	e59fa164 	ldr	sl, [pc, #356]	; b7cc <.text+0xabfc>
    b664:	e08fa00a 	add	sl, pc, sl
    b668:	e1a0c000 	mov	ip, r0
    b66c:	e1a05002 	mov	r5, r2
    b670:	e1a031a1 	mov	r3, r1, lsr #3
    b674:	e1a03103 	mov	r3, r3, lsl #2
    b678:	e5902194 	ldr	r2, [r0, #404]
    b67c:	e0836002 	add	r6, r3, r2
    b680:	e7934002 	ldr	r4, [r3, r2]
    b684:	e3540000 	cmp	r4, #0	; 0x0
    b688:	1a000047 	bne	b7ac <profile_fixup+0x154>
    b68c:	e5903038 	ldr	r3, [r0, #56]
    b690:	e5932004 	ldr	r2, [r3, #4]
    b694:	e5903034 	ldr	r3, [r0, #52]
    b698:	e593e004 	ldr	lr, [r3, #4]
    b69c:	e590307c 	ldr	r3, [r0, #124]
    b6a0:	e5933004 	ldr	r3, [r3, #4]
    b6a4:	e0810003 	add	r0, r1, r3
    b6a8:	e5903004 	ldr	r3, [r0, #4]
    b6ac:	e1a03423 	mov	r3, r3, lsr #8
    b6b0:	e0822203 	add	r2, r2, r3, lsl #4
    b6b4:	e58d2010 	str	r2, [sp, #16]
    b6b8:	e5d03004 	ldrb	r3, [r0, #4]
    b6bc:	e3530016 	cmp	r3, #22	; 0x16
    b6c0:	0a000007 	beq	b6e4 <profile_fixup+0x8c>
    b6c4:	e59f0104 	ldr	r0, [pc, #260]	; b7d0 <.text+0xac00>
    b6c8:	e08a0000 	add	r0, sl, r0
    b6cc:	e59f1100 	ldr	r1, [pc, #256]	; b7d4 <.text+0xac04>
    b6d0:	e08a1001 	add	r1, sl, r1
    b6d4:	e3a020a0 	mov	r2, #160	; 0xa0
    b6d8:	e59f30f8 	ldr	r3, [pc, #248]	; b7d8 <.text+0xac08>
    b6dc:	e79a3003 	ldr	r3, [sl, r3]
    b6e0:	eb001036 	bl	f7c0 <__GI___assert_fail>
    b6e4:	e59d3010 	ldr	r3, [sp, #16]
    b6e8:	e5d3300d 	ldrb	r3, [r3, #13]
    b6ec:	e2133003 	ands	r3, r3, #3	; 0x3
    b6f0:	159c3000 	ldrne	r3, [ip]
    b6f4:	159d2010 	ldrne	r2, [sp, #16]
    b6f8:	15922004 	ldrne	r2, [r2, #4]
    b6fc:	10834002 	addne	r4, r3, r2
    b700:	1a000024 	bne	b798 <profile_fixup+0x140>
    b704:	e1a01003 	mov	r1, r3
    b708:	e59c30e4 	ldr	r3, [ip, #228]
    b70c:	e3530000 	cmp	r3, #0	; 0x0
    b710:	0a00000e 	beq	b750 <profile_fixup+0xf8>
    b714:	e5931004 	ldr	r1, [r3, #4]
    b718:	e5903004 	ldr	r3, [r0, #4]
    b71c:	e1a03423 	mov	r3, r3, lsr #8
    b720:	e1a03083 	mov	r3, r3, lsl #1
    b724:	e0832001 	add	r2, r3, r1
    b728:	e7d33001 	ldrb	r3, [r3, r1]
    b72c:	e5d22001 	ldrb	r2, [r2, #1]
    b730:	e1833402 	orr	r3, r3, r2, lsl #8
    b734:	e1a03883 	mov	r3, r3, lsl #17
    b738:	e1a038a3 	mov	r3, r3, lsr #17
    b73c:	e59c2188 	ldr	r2, [ip, #392]
    b740:	e0821203 	add	r1, r2, r3, lsl #4
    b744:	e5913004 	ldr	r3, [r1, #4]
    b748:	e3530000 	cmp	r3, #0	; 0x0
    b74c:	03a01000 	moveq	r1, #0	; 0x0
    b750:	e28d2014 	add	r2, sp, #20	; 0x14
    b754:	e5323004 	ldr	r3, [r2, #-4]!
    b758:	e5930000 	ldr	r0, [r3]
    b75c:	e58d1000 	str	r1, [sp]
    b760:	e3a03001 	mov	r3, #1	; 0x1
    b764:	e58d3004 	str	r3, [sp, #4]
    b768:	e58d3008 	str	r3, [sp, #8]
    b76c:	e2433001 	sub	r3, r3, #1	; 0x1
    b770:	e58d300c 	str	r3, [sp, #12]
    b774:	e08e0000 	add	r0, lr, r0
    b778:	e1a0100c 	mov	r1, ip
    b77c:	e59c31c0 	ldr	r3, [ip, #448]
    b780:	ebfff20d 	bl	7fbc <_dl_lookup_symbol_x>
    b784:	e59d3010 	ldr	r3, [sp, #16]
    b788:	e3530000 	cmp	r3, #0	; 0x0
    b78c:	15933004 	ldrne	r3, [r3, #4]
    b790:	10804003 	addne	r4, r0, r3
    b794:	03a04000 	moveq	r4, #0	; 0x0
    b798:	e59f303c 	ldr	r3, [pc, #60]	; b7dc <.text+0xac0c>
    b79c:	e79a3003 	ldr	r3, [sl, r3]
    b7a0:	e593302c 	ldr	r3, [r3, #44]
    b7a4:	e3530000 	cmp	r3, #0	; 0x0
    b7a8:	05864000 	streq	r4, [r6]
    b7ac:	e1a00005 	mov	r0, r5
    b7b0:	e1a01004 	mov	r1, r4
    b7b4:	e59f3024 	ldr	r3, [pc, #36]	; b7e0 <.text+0xac10>
    b7b8:	e1a0e00f 	mov	lr, pc
    b7bc:	e79af003 	ldr	pc, [sl, r3]
    b7c0:	e1a00004 	mov	r0, r4
    b7c4:	e28dd014 	add	sp, sp, #20	; 0x14
    b7c8:	e8bd8470 	ldmia	sp!, {r4, r5, r6, sl, pc}
    b7cc:	00011f28 	andeq	r1, r1, r8, lsr #30
    b7d0:	ffff70d0 	swinv	0x00ff70d0
    b7d4:	ffff70f0 	swinv	0x00ff70f0
    b7d8:	00000114 	andeq	r0, r0, r4, lsl r1
    b7dc:	00000210 	andeq	r0, r0, r0, lsl r2
    b7e0:	000001f0 	streqd	r0, [r0], -r0

0000b7e4 <_dl_runtime_resolve>:
    b7e4:	e92d000f 	stmdb	sp!, {r0, r1, r2, r3}
    b7e8:	e51e0004 	ldr	r0, [lr, #-4]
    b7ec:	e04c100e 	sub	r1, ip, lr
    b7f0:	e2411004 	sub	r1, r1, #4	; 0x4
    b7f4:	e0811001 	add	r1, r1, r1
    b7f8:	ebffff3f 	bl	b4fc <fixup>
    b7fc:	e1a0c000 	mov	ip, r0
    b800:	e8bd400f 	ldmia	sp!, {r0, r1, r2, r3, lr}
    b804:	e1a0f00c 	mov	pc, ip

0000b808 <_dl_runtime_profile>:
    b808:	e92d000f 	stmdb	sp!, {r0, r1, r2, r3}
    b80c:	e51e0004 	ldr	r0, [lr, #-4]
    b810:	e04c100e 	sub	r1, ip, lr
    b814:	e2411004 	sub	r1, r1, #4	; 0x4
    b818:	e0811001 	add	r1, r1, r1
    b81c:	ebffff8d 	bl	b658 <profile_fixup>
    b820:	e1a0c000 	mov	ip, r0
    b824:	e8bd400f 	ldmia	sp!, {r0, r1, r2, r3, lr}
    b828:	e1a0f00c 	mov	pc, ip

0000b82c <_dl_signal_error>:
    b82c:	e92d47f0 	stmdb	sp!, {r4, r5, r6, r7, r8, r9, sl, lr}
    b830:	e24dde41 	sub	sp, sp, #1040	; 0x410
    b834:	e24dd004 	sub	sp, sp, #4	; 0x4
    b838:	e59fa160 	ldr	sl, [pc, #352]	; b9a0 <.text+0xadd0>
    b83c:	e08fa00a 	add	sl, pc, sl
    b840:	e1a09000 	mov	r9, r0
    b844:	e1a07001 	mov	r7, r1
    b848:	e1a05002 	mov	r5, r2
    b84c:	e2538000 	subs	r8, r3, #0	; 0x0
    b850:	059f314c 	ldreq	r3, [pc, #332]	; b9a4 <.text+0xadd4>
    b854:	008a8003 	addeq	r8, sl, r3
    b858:	e59f3148 	ldr	r3, [pc, #328]	; b9a8 <.text+0xadd8>
    b85c:	e79a3003 	ldr	r3, [sl, r3]
    b860:	e1a0e00f 	mov	lr, pc
    b864:	e593f1b4 	ldr	pc, [r3, #436]
    b868:	e5904000 	ldr	r4, [r0]
    b86c:	e3570000 	cmp	r7, #0	; 0x0
    b870:	059f3134 	ldreq	r3, [pc, #308]	; b9ac <.text+0xaddc>
    b874:	008a7003 	addeq	r7, sl, r3
    b878:	e3540000 	cmp	r4, #0	; 0x0
    b87c:	0a00001d 	beq	b8f8 <_dl_signal_error+0xcc>
    b880:	e1a00007 	mov	r0, r7
    b884:	eb0015e5 	bl	11020 <strlen>
    b888:	e2806001 	add	r6, r0, #1	; 0x1
    b88c:	e1a00008 	mov	r0, r8
    b890:	eb0015e2 	bl	11020 <strlen>
    b894:	e2805001 	add	r5, r0, #1	; 0x1
    b898:	e0860005 	add	r0, r6, r5
    b89c:	ebffd4c2 	bl	bac <GLIBC_2.0+0xbac>
    b8a0:	e5840004 	str	r0, [r4, #4]
    b8a4:	e3500000 	cmp	r0, #0	; 0x0
    b8a8:	0a000007 	beq	b8cc <_dl_signal_error+0xa0>
    b8ac:	e1a01008 	mov	r1, r8
    b8b0:	e1a02005 	mov	r2, r5
    b8b4:	eb0017d9 	bl	11820 <__mempcpy>
    b8b8:	e1a01007 	mov	r1, r7
    b8bc:	e1a02006 	mov	r2, r6
    b8c0:	eb001803 	bl	118d4 <memcpy>
    b8c4:	e5840000 	str	r0, [r4]
    b8c8:	ea000005 	b	b8e4 <_dl_signal_error+0xb8>
    b8cc:	e59f30d8 	ldr	r3, [pc, #216]	; b9ac <.text+0xaddc>
    b8d0:	e08a3003 	add	r3, sl, r3
    b8d4:	e5843000 	str	r3, [r4]
    b8d8:	e59f30d0 	ldr	r3, [pc, #208]	; b9b0 <.text+0xade0>
    b8dc:	e79a3003 	ldr	r3, [sl, r3]
    b8e0:	e5843004 	str	r3, [r4, #4]
    b8e4:	e3590000 	cmp	r9, #0	; 0x0
    b8e8:	e2840008 	add	r0, r4, #8	; 0x8
    b8ec:	11a01009 	movne	r1, r9
    b8f0:	03e01000 	mvneq	r1, #0	; 0x0
    b8f4:	eb000f69 	bl	f6a0 <longjmp>
    b8f8:	e3590000 	cmp	r9, #0	; 0x0
    b8fc:	0a000004 	beq	b914 <_dl_signal_error+0xe8>
    b900:	e1a00009 	mov	r0, r9
    b904:	e28d1014 	add	r1, sp, #20	; 0x14
    b908:	e3a02b01 	mov	r2, #1024	; 0x400
    b90c:	eb000f64 	bl	f6a4 <__strerror_r>
    b910:	ea000001 	b	b91c <_dl_signal_error+0xf0>
    b914:	e59f3090 	ldr	r3, [pc, #144]	; b9ac <.text+0xaddc>
    b918:	e08a0003 	add	r0, sl, r3
    b91c:	e59f3090 	ldr	r3, [pc, #144]	; b9b4 <.text+0xade4>
    b920:	e79a3003 	ldr	r3, [sl, r3]
    b924:	e5933000 	ldr	r3, [r3]
    b928:	e5932000 	ldr	r2, [r3]
    b92c:	e3520000 	cmp	r2, #0	; 0x0
    b930:	059f3080 	ldreq	r3, [pc, #128]	; b9b8 <.text+0xade8>
    b934:	008a2003 	addeq	r2, sl, r3
    b938:	e3550000 	cmp	r5, #0	; 0x0
    b93c:	11a0c005 	movne	ip, r5
    b940:	059f3074 	ldreq	r3, [pc, #116]	; b9bc <.text+0xadec>
    b944:	008ac003 	addeq	ip, sl, r3
    b948:	e58d7000 	str	r7, [sp]
    b94c:	e5d73000 	ldrb	r3, [r7]
    b950:	e3530000 	cmp	r3, #0	; 0x0
    b954:	159f3064 	ldrne	r3, [pc, #100]	; b9c0 <.text+0xadf0>
    b958:	108a3003 	addne	r3, sl, r3
    b95c:	059f3048 	ldreq	r3, [pc, #72]	; b9ac <.text+0xaddc>
    b960:	008a3003 	addeq	r3, sl, r3
    b964:	e98d0108 	stmib	sp, {r3, r8}
    b968:	e3590000 	cmp	r9, #0	; 0x0
    b96c:	159f304c 	ldrne	r3, [pc, #76]	; b9c0 <.text+0xadf0>
    b970:	108a3003 	addne	r3, sl, r3
    b974:	059f3030 	ldreq	r3, [pc, #48]	; b9ac <.text+0xaddc>
    b978:	008a3003 	addeq	r3, sl, r3
    b97c:	e58d300c 	str	r3, [sp, #12]
    b980:	e58d0010 	str	r0, [sp, #16]
    b984:	e3a00002 	mov	r0, #2	; 0x2
    b988:	e59f1034 	ldr	r1, [pc, #52]	; b9c4 <.text+0xadf4>
    b98c:	e08a1001 	add	r1, sl, r1
    b990:	e1a0300c 	mov	r3, ip
    b994:	eb0003d4 	bl	c8ec <_dl_dprintf>
    b998:	e3a0007f 	mov	r0, #127	; 0x7f
    b99c:	eb0014df 	bl	10d20 <_Exit>
    b9a0:	00011d50 	andeq	r1, r1, r0, asr sp
    b9a4:	ffff7140 	swinv	0x00ff7140
    b9a8:	0000023c 	andeq	r0, r0, ip, lsr r2
    b9ac:	ffff6010 	swinv	0x00ff6010
    b9b0:	000001fc 	streqd	r0, [r0], -ip
    b9b4:	000001d8 	ldreqd	r0, [r0], -r8
    b9b8:	ffff58b0 	swinv	0x00ff58b0
    b9bc:	ffff7100 	swinv	0x00ff7100
    b9c0:	ffff7128 	swinv	0x00ff7128
    b9c4:	ffff712c 	swinv	0x00ff712c

0000b9c8 <_dl_signal_cerror>:
    b9c8:	e92d44f0 	stmdb	sp!, {r4, r5, r6, r7, sl, lr}
    b9cc:	e24dd004 	sub	sp, sp, #4	; 0x4
    b9d0:	e59fa0ac 	ldr	sl, [pc, #172]	; ba84 <.text+0xaeb4>
    b9d4:	e08fa00a 	add	sl, pc, sl
    b9d8:	e1a06000 	mov	r6, r0
    b9dc:	e1a04001 	mov	r4, r1
    b9e0:	e1a07002 	mov	r7, r2
    b9e4:	e1a05003 	mov	r5, r3
    b9e8:	e59f3098 	ldr	r3, [pc, #152]	; ba88 <.text+0xaeb8>
    b9ec:	e79a3003 	ldr	r3, [sl, r3]
    b9f0:	e5933000 	ldr	r3, [r3]
    b9f4:	e3d32d12 	bics	r2, r3, #1152	; 0x480
    b9f8:	0a00000e 	beq	ba38 <_dl_signal_cerror+0x70>
    b9fc:	e59f3088 	ldr	r3, [pc, #136]	; ba8c <.text+0xaebc>
    ba00:	e79a3003 	ldr	r3, [sl, r3]
    ba04:	e5933000 	ldr	r3, [r3]
    ba08:	e3530000 	cmp	r3, #0	; 0x0
    ba0c:	159f307c 	ldrne	r3, [pc, #124]	; ba90 <.text+0xaec0>
    ba10:	108a3003 	addne	r3, sl, r3
    ba14:	059f3078 	ldreq	r3, [pc, #120]	; ba94 <.text+0xaec4>
    ba18:	008a3003 	addeq	r3, sl, r3
    ba1c:	e58d3000 	str	r3, [sp]
    ba20:	e59f0070 	ldr	r0, [pc, #112]	; ba98 <.text+0xaec8>
    ba24:	e08a0000 	add	r0, sl, r0
    ba28:	e1a01004 	mov	r1, r4
    ba2c:	e1a02007 	mov	r2, r7
    ba30:	e1a03005 	mov	r3, r5
    ba34:	eb00038c 	bl	c86c <_dl_debug_printf>
    ba38:	e59f304c 	ldr	r3, [pc, #76]	; ba8c <.text+0xaebc>
    ba3c:	e79a3003 	ldr	r3, [sl, r3]
    ba40:	e5933000 	ldr	r3, [r3]
    ba44:	e3530000 	cmp	r3, #0	; 0x0
    ba48:	1a000004 	bne	ba60 <_dl_signal_cerror+0x98>
    ba4c:	e1a00006 	mov	r0, r6
    ba50:	e1a01004 	mov	r1, r4
    ba54:	e1a02007 	mov	r2, r7
    ba58:	e1a03005 	mov	r3, r5
    ba5c:	ebffff72 	bl	b82c <_dl_signal_error>
    ba60:	e1a00006 	mov	r0, r6
    ba64:	e1a01004 	mov	r1, r4
    ba68:	e1a02005 	mov	r2, r5
    ba6c:	e59f3018 	ldr	r3, [pc, #24]	; ba8c <.text+0xaebc>
    ba70:	e79a3003 	ldr	r3, [sl, r3]
    ba74:	e1a0e00f 	mov	lr, pc
    ba78:	e593f000 	ldr	pc, [r3]
    ba7c:	e28dd004 	add	sp, sp, #4	; 0x4
    ba80:	e8bd84f0 	ldmia	sp!, {r4, r5, r6, r7, sl, pc}
    ba84:	00011bb8 	streqh	r1, [r1], -r8
    ba88:	00000210 	andeq	r0, r0, r0, lsl r2
    ba8c:	00000118 	andeq	r0, r0, r8, lsl r1
    ba90:	ffff7158 	swinv	0x00ff7158
    ba94:	ffff7164 	swinv	0x00ff7164
    ba98:	ffff716c 	swinv	0x00ff716c

0000ba9c <_dl_catch_error>:
    ba9c:	e92d4410 	stmdb	sp!, {r4, sl, lr}
    baa0:	e24dd0cc 	sub	sp, sp, #204	; 0xcc
    baa4:	e59fa0b8 	ldr	sl, [pc, #184]	; bb64 <.text+0xaf94>
    baa8:	e08fa00a 	add	sl, pc, sl
    baac:	e58d0010 	str	r0, [sp, #16]
    bab0:	e58d100c 	str	r1, [sp, #12]
    bab4:	e58d2008 	str	r2, [sp, #8]
    bab8:	e58d3004 	str	r3, [sp, #4]
    babc:	e3a03000 	mov	r3, #0	; 0x0
    bac0:	e58d3018 	str	r3, [sp, #24]
    bac4:	e59f309c 	ldr	r3, [pc, #156]	; bb68 <.text+0xaf98>
    bac8:	e79a3003 	ldr	r3, [sl, r3]
    bacc:	e1a0e00f 	mov	lr, pc
    bad0:	e593f1b4 	ldr	pc, [r3, #436]
    bad4:	e58d0000 	str	r0, [sp]
    bad8:	e5903000 	ldr	r3, [r0]
    badc:	e58d30c8 	str	r3, [sp, #200]
    bae0:	e28d001c 	add	r0, sp, #28	; 0x1c
    bae4:	eb0014a5 	bl	10d80 <_setjmp>
    bae8:	e2504000 	subs	r4, r0, #0	; 0x0
    baec:	1a00000e 	bne	bb2c <_dl_catch_error+0x90>
    baf0:	e28d3014 	add	r3, sp, #20	; 0x14
    baf4:	e59d2000 	ldr	r2, [sp]
    baf8:	e5823000 	str	r3, [r2]
    bafc:	e99d0009 	ldmib	sp, {r0, r3}
    bb00:	e1a0e00f 	mov	lr, pc
    bb04:	e1a0f003 	mov	pc, r3
    bb08:	e59d30c8 	ldr	r3, [sp, #200]
    bb0c:	e59d2000 	ldr	r2, [sp]
    bb10:	e5823000 	str	r3, [r2]
    bb14:	e59d3010 	ldr	r3, [sp, #16]
    bb18:	e5834000 	str	r4, [r3]
    bb1c:	e59d200c 	ldr	r2, [sp, #12]
    bb20:	e5824000 	str	r4, [r2]
    bb24:	e1a00004 	mov	r0, r4
    bb28:	ea00000b 	b	bb5c <_dl_catch_error+0xc0>
    bb2c:	e59d30c8 	ldr	r3, [sp, #200]
    bb30:	e59d2000 	ldr	r2, [sp]
    bb34:	e5823000 	str	r3, [r2]
    bb38:	e28d2010 	add	r2, sp, #16	; 0x10
    bb3c:	e892000c 	ldmia	r2, {r2, r3}
    bb40:	e5823000 	str	r3, [r2]
    bb44:	e59d3018 	ldr	r3, [sp, #24]
    bb48:	e59d200c 	ldr	r2, [sp, #12]
    bb4c:	e5823000 	str	r3, [r2]
    bb50:	e3740001 	cmn	r4, #1	; 0x1
    bb54:	11a00004 	movne	r0, r4
    bb58:	03a00000 	moveq	r0, #0	; 0x0
    bb5c:	e28dd0cc 	add	sp, sp, #204	; 0xcc
    bb60:	e8bd8410 	ldmia	sp!, {r4, sl, pc}
    bb64:	00011ae4 	andeq	r1, r1, r4, ror #21
    bb68:	0000023c 	andeq	r0, r0, ip, lsr r2

0000bb6c <_dl_receive_error>:
    bb6c:	e92d4ff0 	stmdb	sp!, {r4, r5, r6, r7, r8, r9, sl, fp, lr}
    bb70:	e59fa054 	ldr	sl, [pc, #84]	; bbcc <.text+0xaffc>
    bb74:	e08fa00a 	add	sl, pc, sl
    bb78:	e1a09000 	mov	r9, r0
    bb7c:	e1a0b001 	mov	fp, r1
    bb80:	e1a08002 	mov	r8, r2
    bb84:	e59f3044 	ldr	r3, [pc, #68]	; bbd0 <.text+0xb000>
    bb88:	e79a3003 	ldr	r3, [sl, r3]
    bb8c:	e1a0e00f 	mov	lr, pc
    bb90:	e593f1b4 	ldr	pc, [r3, #436]
    bb94:	e1a05000 	mov	r5, r0
    bb98:	e5907000 	ldr	r7, [r0]
    bb9c:	e59f3030 	ldr	r3, [pc, #48]	; bbd4 <.text+0xb004>
    bba0:	e79a4003 	ldr	r4, [sl, r3]
    bba4:	e5946000 	ldr	r6, [r4]
    bba8:	e3a03000 	mov	r3, #0	; 0x0
    bbac:	e5803000 	str	r3, [r0]
    bbb0:	e5849000 	str	r9, [r4]
    bbb4:	e1a00008 	mov	r0, r8
    bbb8:	e1a0e00f 	mov	lr, pc
    bbbc:	e1a0f00b 	mov	pc, fp
    bbc0:	e5857000 	str	r7, [r5]
    bbc4:	e5846000 	str	r6, [r4]
    bbc8:	e8bd8ff0 	ldmia	sp!, {r4, r5, r6, r7, r8, r9, sl, fp, pc}
    bbcc:	00011a18 	andeq	r1, r1, r8, lsl sl
    bbd0:	0000023c 	andeq	r0, r0, ip, lsr r2
    bbd4:	00000118 	andeq	r0, r0, r8, lsl r1

0000bbd8 <call_init>:
    bbd8:	e92d47f0 	stmdb	sp!, {r4, r5, r6, r7, r8, r9, sl, lr}
    bbdc:	e59fa114 	ldr	sl, [pc, #276]	; bcf8 <.text+0xb128>
    bbe0:	e08fa00a 	add	sl, pc, sl
    bbe4:	e1a04000 	mov	r4, r0
    bbe8:	e1a09001 	mov	r9, r1
    bbec:	e1a08002 	mov	r8, r2
    bbf0:	e1a07003 	mov	r7, r3
    bbf4:	e5d03180 	ldrb	r3, [r0, #384]
    bbf8:	e3130008 	tst	r3, #8	; 0x8
    bbfc:	18bd87f0 	ldmneia	sp!, {r4, r5, r6, r7, r8, r9, sl, pc}
    bc00:	e3833008 	orr	r3, r3, #8	; 0x8
    bc04:	e5c03180 	strb	r3, [r0, #384]
    bc08:	e5903004 	ldr	r3, [r0, #4]
    bc0c:	e5d33000 	ldrb	r3, [r3]
    bc10:	e3530000 	cmp	r3, #0	; 0x0
    bc14:	1a000002 	bne	bc24 <call_init+0x4c>
    bc18:	e5d03180 	ldrb	r3, [r0, #384]
    bc1c:	e3130003 	tst	r3, #3	; 0x3
    bc20:	08bd87f0 	ldmeqia	sp!, {r4, r5, r6, r7, r8, r9, sl, pc}
    bc24:	e5943050 	ldr	r3, [r4, #80]
    bc28:	e3530000 	cmp	r3, #0	; 0x0
    bc2c:	1a000002 	bne	bc3c <call_init+0x64>
    bc30:	e5943084 	ldr	r3, [r4, #132]
    bc34:	e3530000 	cmp	r3, #0	; 0x0
    bc38:	08bd87f0 	ldmeqia	sp!, {r4, r5, r6, r7, r8, r9, sl, pc}
    bc3c:	e59f30b8 	ldr	r3, [pc, #184]	; bcfc <.text+0xb12c>
    bc40:	e79a3003 	ldr	r3, [sl, r3]
    bc44:	e5933000 	ldr	r3, [r3]
    bc48:	e3130002 	tst	r3, #2	; 0x2
    bc4c:	0a000009 	beq	bc78 <call_init+0xa0>
    bc50:	e5941004 	ldr	r1, [r4, #4]
    bc54:	e5d13000 	ldrb	r3, [r1]
    bc58:	e3530000 	cmp	r3, #0	; 0x0
    bc5c:	059f309c 	ldreq	r3, [pc, #156]	; bd00 <.text+0xb130>
    bc60:	079a3003 	ldreq	r3, [sl, r3]
    bc64:	05933000 	ldreq	r3, [r3]
    bc68:	05931000 	ldreq	r1, [r3]
    bc6c:	e59f0090 	ldr	r0, [pc, #144]	; bd04 <.text+0xb134>
    bc70:	e08a0000 	add	r0, sl, r0
    bc74:	eb0002fc 	bl	c86c <_dl_debug_printf>
    bc78:	e5943050 	ldr	r3, [r4, #80]
    bc7c:	e3530000 	cmp	r3, #0	; 0x0
    bc80:	0a000007 	beq	bca4 <call_init+0xcc>
    bc84:	e594c000 	ldr	ip, [r4]
    bc88:	e5933004 	ldr	r3, [r3, #4]
    bc8c:	e08cc003 	add	ip, ip, r3
    bc90:	e1a00009 	mov	r0, r9
    bc94:	e1a01008 	mov	r1, r8
    bc98:	e1a02007 	mov	r2, r7
    bc9c:	e1a0e00f 	mov	lr, pc
    bca0:	e1a0f00c 	mov	pc, ip
    bca4:	e5942084 	ldr	r2, [r4, #132]
    bca8:	e3520000 	cmp	r2, #0	; 0x0
    bcac:	08bd87f0 	ldmeqia	sp!, {r4, r5, r6, r7, r8, r9, sl, pc}
    bcb0:	e594308c 	ldr	r3, [r4, #140]
    bcb4:	e5933004 	ldr	r3, [r3, #4]
    bcb8:	e1a06123 	mov	r6, r3, lsr #2
    bcbc:	e5922004 	ldr	r2, [r2, #4]
    bcc0:	e5943000 	ldr	r3, [r4]
    bcc4:	e0825003 	add	r5, r2, r3
    bcc8:	e3a04000 	mov	r4, #0	; 0x0
    bccc:	e1540006 	cmp	r4, r6
    bcd0:	28bd87f0 	ldmcsia	sp!, {r4, r5, r6, r7, r8, r9, sl, pc}
    bcd4:	e1a00009 	mov	r0, r9
    bcd8:	e1a01008 	mov	r1, r8
    bcdc:	e1a02007 	mov	r2, r7
    bce0:	e1a0e00f 	mov	lr, pc
    bce4:	e795f104 	ldr	pc, [r5, r4, lsl #2]
    bce8:	e2844001 	add	r4, r4, #1	; 0x1
    bcec:	e1540006 	cmp	r4, r6
    bcf0:	3afffff7 	bcc	bcd4 <call_init+0xfc>
    bcf4:	e8bd87f0 	ldmia	sp!, {r4, r5, r6, r7, r8, r9, sl, pc}
    bcf8:	000119ac 	andeq	r1, r1, ip, lsr #19
    bcfc:	00000210 	andeq	r0, r0, r0, lsl r2
    bd00:	000001d8 	ldreqd	r0, [r0], -r8
    bd04:	ffff7184 	swinv	0x00ff7184

0000bd08 <_dl_init>:
    bd08:	e92d4ff0 	stmdb	sp!, {r4, r5, r6, r7, r8, r9, sl, fp, lr}
    bd0c:	e59fa124 	ldr	sl, [pc, #292]	; be38 <.text+0xb268>
    bd10:	e08fa00a 	add	sl, pc, sl
    bd14:	e1a05000 	mov	r5, r0
    bd18:	e1a09001 	mov	r9, r1
    bd1c:	e1a08002 	mov	r8, r2
    bd20:	e1a07003 	mov	r7, r3
    bd24:	e590b0a0 	ldr	fp, [r0, #160]
    bd28:	e59060a4 	ldr	r6, [r0, #164]
    bd2c:	e59f0108 	ldr	r0, [pc, #264]	; be3c <.text+0xb26c>
    bd30:	e79a4000 	ldr	r4, [sl, r0]
    bd34:	e59401a0 	ldr	r0, [r4, #416]
    bd38:	e3500000 	cmp	r0, #0	; 0x0
    bd3c:	0a000002 	beq	bd4c <_dl_init+0x44>
    bd40:	ebffffa4 	bl	bbd8 <call_init>
    bd44:	e3a03000 	mov	r3, #0	; 0x0
    bd48:	e58431a0 	str	r3, [r4, #416]
    bd4c:	e35b0000 	cmp	fp, #0	; 0x0
    bd50:	0a000021 	beq	bddc <_dl_init+0xd4>
    bd54:	e3560000 	cmp	r6, #0	; 0x0
    bd58:	0a00001f 	beq	bddc <_dl_init+0xd4>
    bd5c:	e5963004 	ldr	r3, [r6, #4]
    bd60:	e1b04123 	movs	r4, r3, lsr #2
    bd64:	0a00001c 	beq	bddc <_dl_init+0xd4>
    bd68:	e59f30d0 	ldr	r3, [pc, #208]	; be40 <.text+0xb270>
    bd6c:	e79a3003 	ldr	r3, [sl, r3]
    bd70:	e5933000 	ldr	r3, [r3]
    bd74:	e3130002 	tst	r3, #2	; 0x2
    bd78:	0a000009 	beq	bda4 <_dl_init+0x9c>
    bd7c:	e5951004 	ldr	r1, [r5, #4]
    bd80:	e5d13000 	ldrb	r3, [r1]
    bd84:	e3530000 	cmp	r3, #0	; 0x0
    bd88:	059f30b4 	ldreq	r3, [pc, #180]	; be44 <.text+0xb274>
    bd8c:	079a3003 	ldreq	r3, [sl, r3]
    bd90:	05933000 	ldreq	r3, [r3]
    bd94:	05931000 	ldreq	r1, [r3]
    bd98:	e59f00a8 	ldr	r0, [pc, #168]	; be48 <.text+0xb278>
    bd9c:	e08a0000 	add	r0, sl, r0
    bda0:	eb0002b1 	bl	c86c <_dl_debug_printf>
    bda4:	e59b2004 	ldr	r2, [fp, #4]
    bda8:	e5953000 	ldr	r3, [r5]
    bdac:	e082b003 	add	fp, r2, r3
    bdb0:	e3a06000 	mov	r6, #0	; 0x0
    bdb4:	e1560004 	cmp	r6, r4
    bdb8:	2a000007 	bcs	bddc <_dl_init+0xd4>
    bdbc:	e1a00009 	mov	r0, r9
    bdc0:	e1a01008 	mov	r1, r8
    bdc4:	e1a02007 	mov	r2, r7
    bdc8:	e1a0e00f 	mov	lr, pc
    bdcc:	e79bf106 	ldr	pc, [fp, r6, lsl #2]
    bdd0:	e2866001 	add	r6, r6, #1	; 0x1
    bdd4:	e1560004 	cmp	r6, r4
    bdd8:	3afffff7 	bcc	bdbc <_dl_init+0xb4>
    bddc:	e3a00000 	mov	r0, #0	; 0x0
    bde0:	eb000172 	bl	c3b0 <_dl_debug_initialize>
    bde4:	e1a06000 	mov	r6, r0
    bde8:	e3a03001 	mov	r3, #1	; 0x1
    bdec:	e580300c 	str	r3, [r0, #12]
    bdf0:	eb000188 	bl	c418 <_dl_debug_state>
    bdf4:	e595415c 	ldr	r4, [r5, #348]
    bdf8:	e2444001 	sub	r4, r4, #1	; 0x1
    bdfc:	e3740001 	cmn	r4, #1	; 0x1
    be00:	0a000008 	beq	be28 <_dl_init+0x120>
    be04:	e59531e4 	ldr	r3, [r5, #484]
    be08:	e7930104 	ldr	r0, [r3, r4, lsl #2]
    be0c:	e1a01009 	mov	r1, r9
    be10:	e1a02008 	mov	r2, r8
    be14:	e1a03007 	mov	r3, r7
    be18:	ebffff6e 	bl	bbd8 <call_init>
    be1c:	e2444001 	sub	r4, r4, #1	; 0x1
    be20:	e3740001 	cmn	r4, #1	; 0x1
    be24:	1afffff6 	bne	be04 <_dl_init+0xfc>
    be28:	e3a03000 	mov	r3, #0	; 0x0
    be2c:	e586300c 	str	r3, [r6, #12]
    be30:	eb000178 	bl	c418 <_dl_debug_state>
    be34:	e8bd8ff0 	ldmia	sp!, {r4, r5, r6, r7, r8, r9, sl, fp, pc}
    be38:	0001187c 	andeq	r1, r1, ip, ror r8
    be3c:	0000023c 	andeq	r0, r0, ip, lsr r2
    be40:	00000210 	andeq	r0, r0, r0, lsl r2
    be44:	000001d8 	ldreqd	r0, [r0], -r8
    be48:	ffff7198 	swinv	0x00ff7198

0000be4c <_dl_sort_fini>:
    be4c:	e92d4ff0 	stmdb	sp!, {r4, r5, r6, r7, r8, r9, sl, fp, lr}
    be50:	e24dd004 	sub	sp, sp, #4	; 0x4
    be54:	e59fa1c0 	ldr	sl, [pc, #448]	; c01c <.text+0xb44c>
    be58:	e08fa00a 	add	sl, pc, sl
    be5c:	e1a05000 	mov	r5, r0
    be60:	e1a08001 	mov	r8, r1
    be64:	e1a09002 	mov	r9, r2
    be68:	e58d3000 	str	r3, [sp]
    be6c:	e59d3028 	ldr	r3, [sp, #40]
    be70:	e3530000 	cmp	r3, #0	; 0x0
    be74:	0590500c 	ldreq	r5, [r0, #12]
    be78:	e3550000 	cmp	r5, #0	; 0x0
    be7c:	0a000064 	beq	c014 <_dl_sort_fini+0x1c8>
    be80:	e5953014 	ldr	r3, [r5, #20]
    be84:	e1530005 	cmp	r3, r5
    be88:	1a00005e 	bne	c008 <_dl_sort_fini+0x1bc>
    be8c:	e5953200 	ldr	r3, [r5, #512]
    be90:	e3730001 	cmn	r3, #1	; 0x1
    be94:	0a00005b 	beq	c008 <_dl_sort_fini+0x1bc>
    be98:	e59d3028 	ldr	r3, [sp, #40]
    be9c:	e2736001 	rsbs	r6, r3, #1	; 0x1
    bea0:	33a06000 	movcc	r6, #0	; 0x0
    bea4:	e7983106 	ldr	r3, [r8, r6, lsl #2]
    bea8:	e1530005 	cmp	r3, r5
    beac:	0a00000d 	beq	bee8 <_dl_sort_fini+0x9c>
    beb0:	e1560009 	cmp	r6, r9
    beb4:	3a000007 	bcc	bed8 <_dl_sort_fini+0x8c>
    beb8:	e59f0160 	ldr	r0, [pc, #352]	; c020 <.text+0xb450>
    bebc:	e08a0000 	add	r0, sl, r0
    bec0:	e59f115c 	ldr	r1, [pc, #348]	; c024 <.text+0xb454>
    bec4:	e08a1001 	add	r1, sl, r1
    bec8:	e3a0202b 	mov	r2, #43	; 0x2b
    becc:	e59f3154 	ldr	r3, [pc, #340]	; c028 <.text+0xb458>
    bed0:	e79a3003 	ldr	r3, [sl, r3]
    bed4:	eb000e39 	bl	f7c0 <__GI___assert_fail>
    bed8:	e2866001 	add	r6, r6, #1	; 0x1
    bedc:	e7983106 	ldr	r3, [r8, r6, lsl #2]
    bee0:	e1530005 	cmp	r3, r5
    bee4:	1afffff1 	bne	beb0 <_dl_sort_fini+0x64>
    bee8:	e2867001 	add	r7, r6, #1	; 0x1
    beec:	e1570009 	cmp	r7, r9
    bef0:	2a000044 	bcs	c008 <_dl_sort_fini+0x1bc>
    bef4:	e7983107 	ldr	r3, [r8, r7, lsl #2]
    bef8:	e59321e4 	ldr	r2, [r3, #484]
    befc:	e3520000 	cmp	r2, #0	; 0x0
    bf00:	0a00001b 	beq	bf74 <_dl_sort_fini+0x128>
    bf04:	e5923000 	ldr	r3, [r2]
    bf08:	e3530000 	cmp	r3, #0	; 0x0
    bf0c:	0a000018 	beq	bf74 <_dl_sort_fini+0x128>
    bf10:	e5923000 	ldr	r3, [r2]
    bf14:	e1530005 	cmp	r3, r5
    bf18:	1a000012 	bne	bf68 <_dl_sort_fini+0x11c>
    bf1c:	e7984107 	ldr	r4, [r8, r7, lsl #2]
    bf20:	e0881106 	add	r1, r8, r6, lsl #2
    bf24:	e066b007 	rsb	fp, r6, r7
    bf28:	e2810004 	add	r0, r1, #4	; 0x4
    bf2c:	e1a0210b 	mov	r2, fp, lsl #2
    bf30:	eb0015c8 	bl	11658 <memmove>
    bf34:	e7884106 	str	r4, [r8, r6, lsl #2]
    bf38:	e59d3000 	ldr	r3, [sp]
    bf3c:	e3530000 	cmp	r3, #0	; 0x0
    bf40:	0a000006 	beq	bf60 <_dl_sort_fini+0x114>
    bf44:	e7d34007 	ldrb	r4, [r3, r7]
    bf48:	e0831006 	add	r1, r3, r6
    bf4c:	e2810001 	add	r0, r1, #1	; 0x1
    bf50:	e1a0200b 	mov	r2, fp
    bf54:	eb0015bf 	bl	11658 <memmove>
    bf58:	e59d3000 	ldr	r3, [sp]
    bf5c:	e7c34006 	strb	r4, [r3, r6]
    bf60:	e2866001 	add	r6, r6, #1	; 0x1
    bf64:	ea000002 	b	bf74 <_dl_sort_fini+0x128>
    bf68:	e5b23004 	ldr	r3, [r2, #4]!
    bf6c:	e3530000 	cmp	r3, #0	; 0x0
    bf70:	1affffe6 	bne	bf10 <_dl_sort_fini+0xc4>
    bf74:	e7983107 	ldr	r3, [r8, r7, lsl #2]
    bf78:	e59321f0 	ldr	r2, [r3, #496]
    bf7c:	e3520000 	cmp	r2, #0	; 0x0
    bf80:	0a00001d 	beq	bffc <_dl_sort_fini+0x1b0>
    bf84:	e59301ec 	ldr	r0, [r3, #492]
    bf88:	e1a0c002 	mov	ip, r2
    bf8c:	e2400001 	sub	r0, r0, #1	; 0x1
    bf90:	e3700001 	cmn	r0, #1	; 0x1
    bf94:	0a000018 	beq	bffc <_dl_sort_fini+0x1b0>
    bf98:	e0881106 	add	r1, r8, r6, lsl #2
    bf9c:	e0662007 	rsb	r2, r6, r7
    bfa0:	e79c3100 	ldr	r3, [ip, r0, lsl #2]
    bfa4:	e1530005 	cmp	r3, r5
    bfa8:	1a000010 	bne	bff0 <_dl_sort_fini+0x1a4>
    bfac:	e7984107 	ldr	r4, [r8, r7, lsl #2]
    bfb0:	e1a0b002 	mov	fp, r2
    bfb4:	e2810004 	add	r0, r1, #4	; 0x4
    bfb8:	e1a02102 	mov	r2, r2, lsl #2
    bfbc:	eb0015a5 	bl	11658 <memmove>
    bfc0:	e7884106 	str	r4, [r8, r6, lsl #2]
    bfc4:	e59d3000 	ldr	r3, [sp]
    bfc8:	e3530000 	cmp	r3, #0	; 0x0
    bfcc:	0a00000a 	beq	bffc <_dl_sort_fini+0x1b0>
    bfd0:	e7d34007 	ldrb	r4, [r3, r7]
    bfd4:	e0831006 	add	r1, r3, r6
    bfd8:	e2810001 	add	r0, r1, #1	; 0x1
    bfdc:	e1a0200b 	mov	r2, fp
    bfe0:	eb00159c 	bl	11658 <memmove>
    bfe4:	e59d3000 	ldr	r3, [sp]
    bfe8:	e7c34006 	strb	r4, [r3, r6]
    bfec:	ea000002 	b	bffc <_dl_sort_fini+0x1b0>
    bff0:	e2400001 	sub	r0, r0, #1	; 0x1
    bff4:	e3700001 	cmn	r0, #1	; 0x1
    bff8:	1affffe8 	bne	bfa0 <_dl_sort_fini+0x154>
    bffc:	e2877001 	add	r7, r7, #1	; 0x1
    c000:	e1570009 	cmp	r7, r9
    c004:	3affffba 	bcc	bef4 <_dl_sort_fini+0xa8>
    c008:	e595500c 	ldr	r5, [r5, #12]
    c00c:	e3550000 	cmp	r5, #0	; 0x0
    c010:	1affff9a 	bne	be80 <_dl_sort_fini+0x34>
    c014:	e28dd004 	add	sp, sp, #4	; 0x4
    c018:	e8bd8ff0 	ldmia	sp!, {r4, r5, r6, r7, r8, r9, sl, fp, pc}
    c01c:	00011734 	andeq	r1, r1, r4, lsr r7
    c020:	ffff71b0 	swinv	0x00ff71b0
    c024:	ffff71bc 	swinv	0x00ff71bc
    c028:	0000011c 	andeq	r0, r0, ip, lsl r1

0000c02c <_dl_fini>:
    c02c:	e1a0c00d 	mov	ip, sp
    c030:	e92ddff0 	stmdb	sp!, {r4, r5, r6, r7, r8, r9, sl, fp, ip, lr, pc}
    c034:	e24cb004 	sub	fp, ip, #4	; 0x4
    c038:	e24dd010 	sub	sp, sp, #16	; 0x10
    c03c:	e59fa33c 	ldr	sl, [pc, #828]	; c380 <.text+0xb7b0>
    c040:	e08fa00a 	add	sl, pc, sl
    c044:	e3a01000 	mov	r1, #0	; 0x0
    c048:	e50b102c 	str	r1, [fp, #-44]
    c04c:	e50b1030 	str	r1, [fp, #-48]
    c050:	e3a0800f 	mov	r8, #15	; 0xf
    c054:	e59f3328 	ldr	r3, [pc, #808]	; c384 <.text+0xb7b4>
    c058:	e79a3003 	ldr	r3, [sl, r3]
    c05c:	e50b3034 	str	r3, [fp, #-52]
    c060:	e51b2034 	ldr	r2, [fp, #-52]
    c064:	e2820d06 	add	r0, r2, #384	; 0x180
    c068:	e1a0e00f 	mov	lr, pc
    c06c:	e592f3d8 	ldr	pc, [r2, #984]
    c070:	e0883088 	add	r3, r8, r8, lsl #1
    c074:	e51bc034 	ldr	ip, [fp, #-52]
    c078:	e08c3183 	add	r3, ip, r3, lsl #3
    c07c:	e5932004 	ldr	r2, [r3, #4]
    c080:	e3580000 	cmp	r8, #0	; 0x0
    c084:	03520000 	cmpeq	r2, #0	; 0x0
    c088:	1a000007 	bne	c0ac <_dl_fini+0x80>
    c08c:	e59f02f4 	ldr	r0, [pc, #756]	; c388 <.text+0xb7b8>
    c090:	e08a0000 	add	r0, sl, r0
    c094:	e59f12f0 	ldr	r1, [pc, #752]	; c38c <.text+0xb7bc>
    c098:	e08a1001 	add	r1, sl, r1
    c09c:	e3a02093 	mov	r2, #147	; 0x93
    c0a0:	e59f32e8 	ldr	r3, [pc, #744]	; c390 <.text+0xb7c0>
    c0a4:	e79a3003 	ldr	r3, [sl, r3]
    c0a8:	eb000dc4 	bl	f7c0 <__GI___assert_fail>
    c0ac:	e1a03102 	mov	r3, r2, lsl #2
    c0b0:	e51b1030 	ldr	r1, [fp, #-48]
    c0b4:	e1530001 	cmp	r3, r1
    c0b8:	9a000013 	bls	c10c <_dl_fini+0xe0>
    c0bc:	e3510000 	cmp	r1, #0	; 0x0
    c0c0:	1a000005 	bne	c0dc <_dl_fini+0xb0>
    c0c4:	e50b3030 	str	r3, [fp, #-48]
    c0c8:	e2833004 	add	r3, r3, #4	; 0x4
    c0cc:	e063d00d 	rsb	sp, r3, sp
    c0d0:	e28d3004 	add	r3, sp, #4	; 0x4
    c0d4:	e50b302c 	str	r3, [fp, #-44]
    c0d8:	ea00000b 	b	c10c <_dl_fini+0xe0>
    c0dc:	e1a01102 	mov	r1, r2, lsl #2
    c0e0:	e2813004 	add	r3, r1, #4	; 0x4
    c0e4:	e063d00d 	rsb	sp, r3, sp
    c0e8:	e28d0004 	add	r0, sp, #4	; 0x4
    c0ec:	e0803001 	add	r3, r0, r1
    c0f0:	e51bc02c 	ldr	ip, [fp, #-44]
    c0f4:	e153000c 	cmp	r3, ip
    c0f8:	051b3030 	ldreq	r3, [fp, #-48]
    c0fc:	00833001 	addeq	r3, r3, r1
    c100:	050b3030 	streq	r3, [fp, #-48]
    c104:	150b1030 	strne	r1, [fp, #-48]
    c108:	e50b002c 	str	r0, [fp, #-44]
    c10c:	e0883088 	add	r3, r8, r8, lsl #1
    c110:	e51bc034 	ldr	ip, [fp, #-52]
    c114:	e79c5183 	ldr	r5, [ip, r3, lsl #3]
    c118:	e3a06000 	mov	r6, #0	; 0x0
    c11c:	e1550006 	cmp	r5, r6
    c120:	0a000016 	beq	c180 <_dl_fini+0x154>
    c124:	e5953014 	ldr	r3, [r5, #20]
    c128:	e1530005 	cmp	r3, r5
    c12c:	1a000010 	bne	c174 <_dl_fini+0x148>
    c130:	e1560002 	cmp	r6, r2
    c134:	3a000007 	bcc	c158 <_dl_fini+0x12c>
    c138:	e59f0254 	ldr	r0, [pc, #596]	; c394 <.text+0xb7c4>
    c13c:	e08a0000 	add	r0, sl, r0
    c140:	e59f1244 	ldr	r1, [pc, #580]	; c38c <.text+0xb7bc>
    c144:	e08a1001 	add	r1, sl, r1
    c148:	e3a020aa 	mov	r2, #170	; 0xaa
    c14c:	e59f323c 	ldr	r3, [pc, #572]	; c390 <.text+0xb7c0>
    c150:	e79a3003 	ldr	r3, [sl, r3]
    c154:	eb000d99 	bl	f7c0 <__GI___assert_fail>
    c158:	e51b102c 	ldr	r1, [fp, #-44]
    c15c:	e7815106 	str	r5, [r1, r6, lsl #2]
    c160:	e5856200 	str	r6, [r5, #512]
    c164:	e2866001 	add	r6, r6, #1	; 0x1
    c168:	e595317c 	ldr	r3, [r5, #380]
    c16c:	e2833001 	add	r3, r3, #1	; 0x1
    c170:	e585317c 	str	r3, [r5, #380]
    c174:	e595500c 	ldr	r5, [r5, #12]
    c178:	e3550000 	cmp	r5, #0	; 0x0
    c17c:	1affffe8 	bne	c124 <_dl_fini+0xf8>
    c180:	e2783001 	rsbs	r3, r8, #1	; 0x1
    c184:	33a03000 	movcc	r3, #0	; 0x0
    c188:	e1560002 	cmp	r6, r2
    c18c:	03a03000 	moveq	r3, #0	; 0x0
    c190:	e3530000 	cmp	r3, #0	; 0x0
    c194:	0a000007 	beq	c1b8 <_dl_fini+0x18c>
    c198:	e59f01f8 	ldr	r0, [pc, #504]	; c398 <.text+0xb7c8>
    c19c:	e08a0000 	add	r0, sl, r0
    c1a0:	e59f11e4 	ldr	r1, [pc, #484]	; c38c <.text+0xb7bc>
    c1a4:	e08a1001 	add	r1, sl, r1
    c1a8:	e3a020b4 	mov	r2, #180	; 0xb4
    c1ac:	e59f31dc 	ldr	r3, [pc, #476]	; c390 <.text+0xb7c0>
    c1b0:	e79a3003 	ldr	r3, [sl, r3]
    c1b4:	eb000d81 	bl	f7c0 <__GI___assert_fail>
    c1b8:	e3580000 	cmp	r8, #0	; 0x0
    c1bc:	11560002 	cmpne	r6, r2
    c1c0:	0a00000a 	beq	c1f0 <_dl_fini+0x1c4>
    c1c4:	e2423001 	sub	r3, r2, #1	; 0x1
    c1c8:	e1530006 	cmp	r3, r6
    c1cc:	0a000007 	beq	c1f0 <_dl_fini+0x1c4>
    c1d0:	e59f01c4 	ldr	r0, [pc, #452]	; c39c <.text+0xb7cc>
    c1d4:	e08a0000 	add	r0, sl, r0
    c1d8:	e59f11ac 	ldr	r1, [pc, #428]	; c38c <.text+0xb7bc>
    c1dc:	e08a1001 	add	r1, sl, r1
    c1e0:	e3a020b5 	mov	r2, #181	; 0xb5
    c1e4:	e59f31a4 	ldr	r3, [pc, #420]	; c390 <.text+0xb7c0>
    c1e8:	e79a3003 	ldr	r3, [sl, r3]
    c1ec:	eb000d73 	bl	f7c0 <__GI___assert_fail>
    c1f0:	e1a09006 	mov	r9, r6
    c1f4:	e3560000 	cmp	r6, #0	; 0x0
    c1f8:	0a000007 	beq	c21c <_dl_fini+0x1f0>
    c1fc:	e0883088 	add	r3, r8, r8, lsl #1
    c200:	e58d8000 	str	r8, [sp]
    c204:	e51b2034 	ldr	r2, [fp, #-52]
    c208:	e7920183 	ldr	r0, [r2, r3, lsl #3]
    c20c:	e51b102c 	ldr	r1, [fp, #-44]
    c210:	e1a02006 	mov	r2, r6
    c214:	e3a03000 	mov	r3, #0	; 0x0
    c218:	ebffff0b 	bl	be4c <_dl_sort_fini>
    c21c:	e51b3034 	ldr	r3, [fp, #-52]
    c220:	e2830d06 	add	r0, r3, #384	; 0x180
    c224:	e1a0e00f 	mov	lr, pc
    c228:	e593f3dc 	ldr	pc, [r3, #988]
    c22c:	e3a06000 	mov	r6, #0	; 0x0
    c230:	e1560009 	cmp	r6, r9
    c234:	2a000041 	bcs	c340 <_dl_fini+0x314>
    c238:	e51bc02c 	ldr	ip, [fp, #-44]
    c23c:	e79c5106 	ldr	r5, [ip, r6, lsl #2]
    c240:	e5d53180 	ldrb	r3, [r5, #384]
    c244:	e3130008 	tst	r3, #8	; 0x8
    c248:	0a000036 	beq	c328 <_dl_fini+0x2fc>
    c24c:	e3c33008 	bic	r3, r3, #8	; 0x8
    c250:	e5c53180 	strb	r3, [r5, #384]
    c254:	e5953004 	ldr	r3, [r5, #4]
    c258:	e5d33000 	ldrb	r3, [r3]
    c25c:	e3530000 	cmp	r3, #0	; 0x0
    c260:	1a000002 	bne	c270 <_dl_fini+0x244>
    c264:	e5d53180 	ldrb	r3, [r5, #384]
    c268:	e3130003 	tst	r3, #3	; 0x3
    c26c:	0a000030 	beq	c334 <_dl_fini+0x308>
    c270:	e5953088 	ldr	r3, [r5, #136]
    c274:	e3530000 	cmp	r3, #0	; 0x0
    c278:	1a000002 	bne	c288 <_dl_fini+0x25c>
    c27c:	e5953054 	ldr	r3, [r5, #84]
    c280:	e3530000 	cmp	r3, #0	; 0x0
    c284:	0a00002a 	beq	c334 <_dl_fini+0x308>
    c288:	e59f3110 	ldr	r3, [pc, #272]	; c3a0 <.text+0xb7d0>
    c28c:	e79a3003 	ldr	r3, [sl, r3]
    c290:	e5933000 	ldr	r3, [r3]
    c294:	e3130002 	tst	r3, #2	; 0x2
    c298:	0a00000a 	beq	c2c8 <_dl_fini+0x29c>
    c29c:	e5951004 	ldr	r1, [r5, #4]
    c2a0:	e5d13000 	ldrb	r3, [r1]
    c2a4:	e3530000 	cmp	r3, #0	; 0x0
    c2a8:	059f30f4 	ldreq	r3, [pc, #244]	; c3a4 <.text+0xb7d4>
    c2ac:	079a3003 	ldreq	r3, [sl, r3]
    c2b0:	05933000 	ldreq	r3, [r3]
    c2b4:	05931000 	ldreq	r1, [r3]
    c2b8:	e59f00e8 	ldr	r0, [pc, #232]	; c3a8 <.text+0xb7d8>
    c2bc:	e08a0000 	add	r0, sl, r0
    c2c0:	e1a02008 	mov	r2, r8
    c2c4:	eb000168 	bl	c86c <_dl_debug_printf>
    c2c8:	e5953088 	ldr	r3, [r5, #136]
    c2cc:	e3530000 	cmp	r3, #0	; 0x0
    c2d0:	0a00000d 	beq	c30c <_dl_fini+0x2e0>
    c2d4:	e5952000 	ldr	r2, [r5]
    c2d8:	e5933004 	ldr	r3, [r3, #4]
    c2dc:	e0827003 	add	r7, r2, r3
    c2e0:	e5953090 	ldr	r3, [r5, #144]
    c2e4:	e5933004 	ldr	r3, [r3, #4]
    c2e8:	e1a04123 	mov	r4, r3, lsr #2
    c2ec:	e2444001 	sub	r4, r4, #1	; 0x1
    c2f0:	e3740001 	cmn	r4, #1	; 0x1
    c2f4:	0a000004 	beq	c30c <_dl_fini+0x2e0>
    c2f8:	e1a0e00f 	mov	lr, pc
    c2fc:	e797f104 	ldr	pc, [r7, r4, lsl #2]
    c300:	e2444001 	sub	r4, r4, #1	; 0x1
    c304:	e3740001 	cmn	r4, #1	; 0x1
    c308:	1afffffa 	bne	c2f8 <_dl_fini+0x2cc>
    c30c:	e5952054 	ldr	r2, [r5, #84]
    c310:	e3520000 	cmp	r2, #0	; 0x0
    c314:	15953000 	ldrne	r3, [r5]
    c318:	15922004 	ldrne	r2, [r2, #4]
    c31c:	10833002 	addne	r3, r3, r2
    c320:	11a0e00f 	movne	lr, pc
    c324:	11a0f003 	movne	pc, r3
    c328:	e595317c 	ldr	r3, [r5, #380]
    c32c:	e2433001 	sub	r3, r3, #1	; 0x1
    c330:	e585317c 	str	r3, [r5, #380]
    c334:	e2866001 	add	r6, r6, #1	; 0x1
    c338:	e1560009 	cmp	r6, r9
    c33c:	3affffbd 	bcc	c238 <_dl_fini+0x20c>
    c340:	e2588001 	subs	r8, r8, #1	; 0x1
    c344:	5affff45 	bpl	c060 <_dl_fini+0x34>
    c348:	e59f3050 	ldr	r3, [pc, #80]	; c3a0 <.text+0xb7d0>
    c34c:	e79a3003 	ldr	r3, [sl, r3]
    c350:	e5933000 	ldr	r3, [r3]
    c354:	e3130080 	tst	r3, #128	; 0x80
    c358:	0a000006 	beq	c378 <_dl_fini+0x34c>
    c35c:	e59f3020 	ldr	r3, [pc, #32]	; c384 <.text+0xb7b4>
    c360:	e79a3003 	ldr	r3, [sl, r3]
    c364:	e59f0040 	ldr	r0, [pc, #64]	; c3ac <.text+0xb7dc>
    c368:	e08a0000 	add	r0, sl, r0
    c36c:	e2831f6a 	add	r1, r3, #424	; 0x1a8
    c370:	e8910006 	ldmia	r1, {r1, r2}
    c374:	eb00013c 	bl	c86c <_dl_debug_printf>
    c378:	e24bd028 	sub	sp, fp, #40	; 0x28
    c37c:	e89daff0 	ldmia	sp, {r4, r5, r6, r7, r8, r9, sl, fp, sp, pc}
    c380:	0001154c 	andeq	r1, r1, ip, asr #10
    c384:	0000023c 	andeq	r0, r0, ip, lsr r2
    c388:	ffff71c8 	swinv	0x00ff71c8
    c38c:	ffff71bc 	swinv	0x00ff71bc
    c390:	00000120 	andeq	r0, r0, r0, lsr #2
    c394:	ffff71e0 	swinv	0x00ff71e0
    c398:	ffff71ec 	swinv	0x00ff71ec
    c39c:	ffff7204 	swinv	0x00ff7204
    c3a0:	00000210 	andeq	r0, r0, r0, lsl r2
    c3a4:	000001d8 	ldreqd	r0, [r0], -r8
    c3a8:	ffff7230 	swinv	0x00ff7230
    c3ac:	ffff724c 	swinv	0x00ff724c

0000c3b0 <_dl_debug_initialize>:
    c3b0:	e52da004 	str	sl, [sp, #-4]!
    c3b4:	e59fa04c 	ldr	sl, [pc, #76]	; c408 <.text+0xb838>
    c3b8:	e08fa00a 	add	sl, pc, sl
    c3bc:	e59f3048 	ldr	r3, [pc, #72]	; c40c <.text+0xb83c>
    c3c0:	e79a2003 	ldr	r2, [sl, r3]
    c3c4:	e5923008 	ldr	r3, [r2, #8]
    c3c8:	e3530000 	cmp	r3, #0	; 0x0
    c3cc:	1a000009 	bne	c3f8 <_dl_debug_initialize+0x48>
    c3d0:	e2833001 	add	r3, r3, #1	; 0x1
    c3d4:	e5823000 	str	r3, [r2]
    c3d8:	e5820010 	str	r0, [r2, #16]
    c3dc:	e59f302c 	ldr	r3, [pc, #44]	; c410 <.text+0xb840>
    c3e0:	e79a3003 	ldr	r3, [sl, r3]
    c3e4:	e5933000 	ldr	r3, [r3]
    c3e8:	e5823004 	str	r3, [r2, #4]
    c3ec:	e59f3020 	ldr	r3, [pc, #32]	; c414 <.text+0xb844>
    c3f0:	e79a3003 	ldr	r3, [sl, r3]
    c3f4:	e5823008 	str	r3, [r2, #8]
    c3f8:	e59f300c 	ldr	r3, [pc, #12]	; c40c <.text+0xb83c>
    c3fc:	e79a0003 	ldr	r0, [sl, r3]
    c400:	e8bd0400 	ldmia	sp!, {sl}
    c404:	e1a0f00e 	mov	pc, lr
    c408:	000111d4 	ldreqd	r1, [r1], -r4
    c40c:	00000214 	andeq	r0, r0, r4, lsl r2
    c410:	0000023c 	andeq	r0, r0, ip, lsr r2
    c414:	00000220 	andeq	r0, r0, r0, lsr #4

0000c418 <_dl_debug_state>:
    c418:	e1a0f00e 	mov	pc, lr

0000c41c <_dl_sysdep_read_whole_file>:
    c41c:	e92d40f0 	stmdb	sp!, {r4, r5, r6, r7, lr}
    c420:	e24dd068 	sub	sp, sp, #104	; 0x68
    c424:	e1a05001 	mov	r5, r1
    c428:	e1a07002 	mov	r7, r2
    c42c:	e3e06000 	mvn	r6, #0	; 0x0
    c430:	e3a01000 	mov	r1, #0	; 0x0
    c434:	eb0010c5 	bl	10750 <__libc_open>
    c438:	e2504000 	subs	r4, r0, #0	; 0x0
    c43c:	ba000012 	blt	c48c <_dl_sysdep_read_whole_file+0x70>
    c440:	e3a00003 	mov	r0, #3	; 0x3
    c444:	e1a01004 	mov	r1, r4
    c448:	e28d2008 	add	r2, sp, #8	; 0x8
    c44c:	eb0010ae 	bl	1070c <__GI___fxstat64>
    c450:	e3500000 	cmp	r0, #0	; 0x0
    c454:	ba00000a 	blt	c484 <_dl_sysdep_read_whole_file+0x68>
    c458:	e59d1034 	ldr	r1, [sp, #52]
    c45c:	e5851000 	str	r1, [r5]
    c460:	e3510000 	cmp	r1, #0	; 0x0
    c464:	0a000006 	beq	c484 <_dl_sysdep_read_whole_file+0x68>
    c468:	e58d4000 	str	r4, [sp]
    c46c:	e3a00000 	mov	r0, #0	; 0x0
    c470:	e58d0004 	str	r0, [sp, #4]
    c474:	e1a02007 	mov	r2, r7
    c478:	e3a03002 	mov	r3, #2	; 0x2
    c47c:	eb0011eb 	bl	10c30 <__mmap>
    c480:	e1a06000 	mov	r6, r0
    c484:	e1a00004 	mov	r0, r4
    c488:	eb0010bc 	bl	10780 <__close>
    c48c:	e1a00006 	mov	r0, r6
    c490:	e28dd068 	add	sp, sp, #104	; 0x68
    c494:	e8bd80f0 	ldmia	sp!, {r4, r5, r6, r7, pc}

0000c498 <_dl_debug_vdprintf>:
    c498:	e1a0c00d 	mov	ip, sp
    c49c:	e92ddff0 	stmdb	sp!, {r4, r5, r6, r7, r8, r9, sl, fp, ip, lr, pc}
    c4a0:	e24cb004 	sub	fp, ip, #4	; 0x4
    c4a4:	e24dde22 	sub	sp, sp, #544	; 0x220
    c4a8:	e59fa3a4 	ldr	sl, [pc, #932]	; c854 <.text+0xbc84>
    c4ac:	e08fa00a 	add	sl, pc, sl
    c4b0:	e50b0238 	str	r0, [fp, #-568]
    c4b4:	e1a04001 	mov	r4, r1
    c4b8:	e1a05002 	mov	r5, r2
    c4bc:	e1a09003 	mov	r9, r3
    c4c0:	e3a07000 	mov	r7, #0	; 0x0
    c4c4:	e50b723c 	str	r7, [fp, #-572]
    c4c8:	e5d23000 	ldrb	r3, [r2]
    c4cc:	e1530007 	cmp	r3, r7
    c4d0:	0a0000d9 	beq	c83c <_dl_debug_vdprintf+0x3a4>
    c4d4:	e1a06005 	mov	r6, r5
    c4d8:	e3540000 	cmp	r4, #0	; 0x0
    c4dc:	da000034 	ble	c5b4 <_dl_debug_vdprintf+0x11c>
    c4e0:	e51b223c 	ldr	r2, [fp, #-572]
    c4e4:	e3520000 	cmp	r2, #0	; 0x0
    c4e8:	1a00001f 	bne	c56c <_dl_debug_vdprintf+0xd4>
    c4ec:	eb00121f 	bl	10d70 <__getpid>
    c4f0:	e3500000 	cmp	r0, #0	; 0x0
    c4f4:	e50b023c 	str	r0, [fp, #-572]
    c4f8:	aa000007 	bge	c51c <_dl_debug_vdprintf+0x84>
    c4fc:	e59f0354 	ldr	r0, [pc, #852]	; c858 <.text+0xbc88>
    c500:	e08a0000 	add	r0, sl, r0
    c504:	e59f1350 	ldr	r1, [pc, #848]	; c85c <.text+0xbc8c>
    c508:	e08a1001 	add	r1, sl, r1
    c50c:	e3a0206d 	mov	r2, #109	; 0x6d
    c510:	e59f3348 	ldr	r3, [pc, #840]	; c860 <.text+0xbc90>
    c514:	e79a3003 	ldr	r3, [sl, r3]
    c518:	eb000ca8 	bl	f7c0 <__GI___assert_fail>
    c51c:	e24b4f8d 	sub	r4, fp, #564	; 0x234
    c520:	e3a03000 	mov	r3, #0	; 0x0
    c524:	e58d3000 	str	r3, [sp]
    c528:	e51b323c 	ldr	r3, [fp, #-572]
    c52c:	e1a00003 	mov	r0, r3
    c530:	e1a01fc0 	mov	r1, r0, asr #31
    c534:	e284200a 	add	r2, r4, #10	; 0xa
    c538:	e3a0300a 	mov	r3, #10	; 0xa
    c53c:	eb000d3d 	bl	fa38 <_itoa>
    c540:	e1540000 	cmp	r4, r0
    c544:	2a000004 	bcs	c55c <_dl_debug_vdprintf+0xc4>
    c548:	e3a02020 	mov	r2, #32	; 0x20
    c54c:	e24b3f8d 	sub	r3, fp, #564	; 0x234
    c550:	e5602001 	strb	r2, [r0, #-1]!
    c554:	e1530000 	cmp	r3, r0
    c558:	3afffffc 	bcc	c550 <_dl_debug_vdprintf+0xb8>
    c55c:	e3a0303a 	mov	r3, #58	; 0x3a
    c560:	e54b322a 	strb	r3, [fp, #-554]
    c564:	e2433031 	sub	r3, r3, #49	; 0x31
    c568:	e54b3229 	strb	r3, [fp, #-553]
    c56c:	e357003f 	cmp	r7, #63	; 0x3f
    c570:	da000007 	ble	c594 <_dl_debug_vdprintf+0xfc>
    c574:	e59f02e8 	ldr	r0, [pc, #744]	; c864 <.text+0xbc94>
    c578:	e08a0000 	add	r0, sl, r0
    c57c:	e59f12d8 	ldr	r1, [pc, #728]	; c85c <.text+0xbc8c>
    c580:	e08a1001 	add	r1, sl, r1
    c584:	e3a02076 	mov	r2, #118	; 0x76
    c588:	e59f32d0 	ldr	r3, [pc, #720]	; c860 <.text+0xbc90>
    c58c:	e79a3003 	ldr	r3, [sl, r3]
    c590:	eb000c8a 	bl	f7c0 <__GI___assert_fail>
    c594:	e24b2028 	sub	r2, fp, #40	; 0x28
    c598:	e0823187 	add	r3, r2, r7, lsl #3
    c59c:	e3a0200c 	mov	r2, #12	; 0xc
    c5a0:	e50321fc 	str	r2, [r3, #-508]
    c5a4:	e24b2f8d 	sub	r2, fp, #564	; 0x234
    c5a8:	e5032200 	str	r2, [r3, #-512]
    c5ac:	e2877001 	add	r7, r7, #1	; 0x1
    c5b0:	e3e04000 	mvn	r4, #0	; 0x0
    c5b4:	e5d53000 	ldrb	r3, [r5]
    c5b8:	e3530000 	cmp	r3, #0	; 0x0
    c5bc:	13530025 	cmpne	r3, #37	; 0x25
    c5c0:	0a00000b 	beq	c5f4 <_dl_debug_vdprintf+0x15c>
    c5c4:	e3540000 	cmp	r4, #0	; 0x0
    c5c8:	0a000001 	beq	c5d4 <_dl_debug_vdprintf+0x13c>
    c5cc:	e353000a 	cmp	r3, #10	; 0xa
    c5d0:	0a000007 	beq	c5f4 <_dl_debug_vdprintf+0x15c>
    c5d4:	e5f53001 	ldrb	r3, [r5, #1]!
    c5d8:	e3530000 	cmp	r3, #0	; 0x0
    c5dc:	13530025 	cmpne	r3, #37	; 0x25
    c5e0:	0a000003 	beq	c5f4 <_dl_debug_vdprintf+0x15c>
    c5e4:	e3540000 	cmp	r4, #0	; 0x0
    c5e8:	0afffff9 	beq	c5d4 <_dl_debug_vdprintf+0x13c>
    c5ec:	e353000a 	cmp	r3, #10	; 0xa
    c5f0:	1afffff7 	bne	c5d4 <_dl_debug_vdprintf+0x13c>
    c5f4:	e357003f 	cmp	r7, #63	; 0x3f
    c5f8:	da000007 	ble	c61c <_dl_debug_vdprintf+0x184>
    c5fc:	e59f0260 	ldr	r0, [pc, #608]	; c864 <.text+0xbc94>
    c600:	e08a0000 	add	r0, sl, r0
    c604:	e59f1250 	ldr	r1, [pc, #592]	; c85c <.text+0xbc8c>
    c608:	e08a1001 	add	r1, sl, r1
    c60c:	e3a02083 	mov	r2, #131	; 0x83
    c610:	e59f3248 	ldr	r3, [pc, #584]	; c860 <.text+0xbc90>
    c614:	e79a3003 	ldr	r3, [sl, r3]
    c618:	eb000c68 	bl	f7c0 <__GI___assert_fail>
    c61c:	e24b3028 	sub	r3, fp, #40	; 0x28
    c620:	e0832187 	add	r2, r3, r7, lsl #3
    c624:	e0663005 	rsb	r3, r6, r5
    c628:	e50231fc 	str	r3, [r2, #-508]
    c62c:	e3530000 	cmp	r3, #0	; 0x0
    c630:	15026200 	strne	r6, [r2, #-512]
    c634:	12877001 	addne	r7, r7, #1	; 0x1
    c638:	e5d53000 	ldrb	r3, [r5]
    c63c:	e3530025 	cmp	r3, #37	; 0x25
    c640:	1a000067 	bne	c7e4 <_dl_debug_vdprintf+0x34c>
    c644:	e3a02020 	mov	r2, #32	; 0x20
    c648:	e50b2240 	str	r2, [fp, #-576]
    c64c:	e2433026 	sub	r3, r3, #38	; 0x26
    c650:	e50b3244 	str	r3, [fp, #-580]
    c654:	e1a08003 	mov	r8, r3
    c658:	e5f53001 	ldrb	r3, [r5, #1]!
    c65c:	e3530030 	cmp	r3, #48	; 0x30
    c660:	050b3240 	streq	r3, [fp, #-576]
    c664:	02855001 	addeq	r5, r5, #1	; 0x1
    c668:	e5d53000 	ldrb	r3, [r5]
    c66c:	e353002a 	cmp	r3, #42	; 0x2a
    c670:	01a03009 	moveq	r3, r9
    c674:	02899004 	addeq	r9, r9, #4	; 0x4
    c678:	05938000 	ldreq	r8, [r3]
    c67c:	02855001 	addeq	r5, r5, #1	; 0x1
    c680:	e5d53000 	ldrb	r3, [r5]
    c684:	e353002e 	cmp	r3, #46	; 0x2e
    c688:	1a000006 	bne	c6a8 <_dl_debug_vdprintf+0x210>
    c68c:	e5d53001 	ldrb	r3, [r5, #1]
    c690:	e353002a 	cmp	r3, #42	; 0x2a
    c694:	01a03009 	moveq	r3, r9
    c698:	02899004 	addeq	r9, r9, #4	; 0x4
    c69c:	05933000 	ldreq	r3, [r3]
    c6a0:	050b3244 	streq	r3, [fp, #-580]
    c6a4:	02855002 	addeq	r5, r5, #2	; 0x2
    c6a8:	e5d53000 	ldrb	r3, [r5]
    c6ac:	e353005a 	cmp	r3, #90	; 0x5a
    c6b0:	1353006c 	cmpne	r3, #108	; 0x6c
    c6b4:	02855001 	addeq	r5, r5, #1	; 0x1
    c6b8:	e5d53000 	ldrb	r3, [r5]
    c6bc:	e3530075 	cmp	r3, #117	; 0x75
    c6c0:	0a000007 	beq	c6e4 <_dl_debug_vdprintf+0x24c>
    c6c4:	ca000004 	bgt	c6dc <_dl_debug_vdprintf+0x244>
    c6c8:	e3530025 	cmp	r3, #37	; 0x25
    c6cc:	0a000033 	beq	c7a0 <_dl_debug_vdprintf+0x308>
    c6d0:	e3530073 	cmp	r3, #115	; 0x73
    c6d4:	0a000021 	beq	c760 <_dl_debug_vdprintf+0x2c8>
    c6d8:	ea000037 	b	c7bc <_dl_debug_vdprintf+0x324>
    c6dc:	e3530078 	cmp	r3, #120	; 0x78
    c6e0:	1a000035 	bne	c7bc <_dl_debug_vdprintf+0x324>
    c6e4:	e1a03009 	mov	r3, r9
    c6e8:	e2899004 	add	r9, r9, #4	; 0x4
    c6ec:	e5930000 	ldr	r0, [r3]
    c6f0:	e24dd010 	sub	sp, sp, #16	; 0x10
    c6f4:	e28d6010 	add	r6, sp, #16	; 0x10
    c6f8:	e5d53000 	ldrb	r3, [r5]
    c6fc:	e3a02000 	mov	r2, #0	; 0x0
    c700:	e58d2000 	str	r2, [sp]
    c704:	e3a01000 	mov	r1, #0	; 0x0
    c708:	e1a02006 	mov	r2, r6
    c70c:	e3530078 	cmp	r3, #120	; 0x78
    c710:	13a0300a 	movne	r3, #10	; 0xa
    c714:	03a03010 	moveq	r3, #16	; 0x10
    c718:	eb000cc6 	bl	fa38 <_itoa>
    c71c:	e3780001 	cmn	r8, #1	; 0x1
    c720:	0a000007 	beq	c744 <_dl_debug_vdprintf+0x2ac>
    c724:	e0603006 	rsb	r3, r0, r6
    c728:	e1530008 	cmp	r3, r8
    c72c:	aa000004 	bge	c744 <_dl_debug_vdprintf+0x2ac>
    c730:	e51b2240 	ldr	r2, [fp, #-576]
    c734:	e5602001 	strb	r2, [r0, #-1]!
    c738:	e0603006 	rsb	r3, r0, r6
    c73c:	e1530008 	cmp	r3, r8
    c740:	bafffffa 	blt	c730 <_dl_debug_vdprintf+0x298>
    c744:	e24b3028 	sub	r3, fp, #40	; 0x28
    c748:	e0832187 	add	r2, r3, r7, lsl #3
    c74c:	e5020200 	str	r0, [r2, #-512]
    c750:	e0603006 	rsb	r3, r0, r6
    c754:	e50231fc 	str	r3, [r2, #-508]
    c758:	e2877001 	add	r7, r7, #1	; 0x1
    c75c:	ea00001e 	b	c7dc <_dl_debug_vdprintf+0x344>
    c760:	e24b2028 	sub	r2, fp, #40	; 0x28
    c764:	e0826187 	add	r6, r2, r7, lsl #3
    c768:	e1a03009 	mov	r3, r9
    c76c:	e2899004 	add	r9, r9, #4	; 0x4
    c770:	e5930000 	ldr	r0, [r3]
    c774:	e5060200 	str	r0, [r6, #-512]
    c778:	eb001228 	bl	11020 <strlen>
    c77c:	e50601fc 	str	r0, [r6, #-508]
    c780:	e51b3244 	ldr	r3, [fp, #-580]
    c784:	e3730001 	cmn	r3, #1	; 0x1
    c788:	0a000002 	beq	c798 <_dl_debug_vdprintf+0x300>
    c78c:	e1500003 	cmp	r0, r3
    c790:	950601fc 	strls	r0, [r6, #-508]
    c794:	850631fc 	strhi	r3, [r6, #-508]
    c798:	e2877001 	add	r7, r7, #1	; 0x1
    c79c:	ea00000e 	b	c7dc <_dl_debug_vdprintf+0x344>
    c7a0:	e24b3028 	sub	r3, fp, #40	; 0x28
    c7a4:	e0832187 	add	r2, r3, r7, lsl #3
    c7a8:	e5025200 	str	r5, [r2, #-512]
    c7ac:	e3a03001 	mov	r3, #1	; 0x1
    c7b0:	e50231fc 	str	r3, [r2, #-508]
    c7b4:	e0877003 	add	r7, r7, r3
    c7b8:	ea000007 	b	c7dc <_dl_debug_vdprintf+0x344>
    c7bc:	e59f00a4 	ldr	r0, [pc, #164]	; c868 <.text+0xbc98>
    c7c0:	e08a0000 	add	r0, sl, r0
    c7c4:	e59f1090 	ldr	r1, [pc, #144]	; c85c <.text+0xbc8c>
    c7c8:	e08a1001 	add	r1, sl, r1
    c7cc:	e3a020e3 	mov	r2, #227	; 0xe3
    c7d0:	e59f3088 	ldr	r3, [pc, #136]	; c860 <.text+0xbc90>
    c7d4:	e79a3003 	ldr	r3, [sl, r3]
    c7d8:	eb000bf8 	bl	f7c0 <__GI___assert_fail>
    c7dc:	e2855001 	add	r5, r5, #1	; 0x1
    c7e0:	ea000012 	b	c830 <_dl_debug_vdprintf+0x398>
    c7e4:	e5d53000 	ldrb	r3, [r5]
    c7e8:	e353000a 	cmp	r3, #10	; 0xa
    c7ec:	1a00000f 	bne	c830 <_dl_debug_vdprintf+0x398>
    c7f0:	e1550006 	cmp	r5, r6
    c7f4:	1a000006 	bne	c814 <_dl_debug_vdprintf+0x37c>
    c7f8:	e24b3028 	sub	r3, fp, #40	; 0x28
    c7fc:	e0832187 	add	r2, r3, r7, lsl #3
    c800:	e5025200 	str	r5, [r2, #-512]
    c804:	e3a03001 	mov	r3, #1	; 0x1
    c808:	e50231fc 	str	r3, [r2, #-508]
    c80c:	e0877003 	add	r7, r7, r3
    c810:	ea000004 	b	c828 <_dl_debug_vdprintf+0x390>
    c814:	e24b3028 	sub	r3, fp, #40	; 0x28
    c818:	e0832187 	add	r2, r3, r7, lsl #3
    c81c:	e5123204 	ldr	r3, [r2, #-516]
    c820:	e2833001 	add	r3, r3, #1	; 0x1
    c824:	e5023204 	str	r3, [r2, #-516]
    c828:	e3a04001 	mov	r4, #1	; 0x1
    c82c:	e0855004 	add	r5, r5, r4
    c830:	e5d53000 	ldrb	r3, [r5]
    c834:	e3530000 	cmp	r3, #0	; 0x0
    c838:	1affff25 	bne	c4d4 <_dl_debug_vdprintf+0x3c>
    c83c:	e1a02007 	mov	r2, r7
    c840:	e24b1f8a 	sub	r1, fp, #552	; 0x228
    c844:	e51b0238 	ldr	r0, [fp, #-568]
    c848:	ef900092 	swi	0x00900092
    c84c:	e24bd028 	sub	sp, fp, #40	; 0x28
    c850:	e89daff0 	ldmia	sp, {r4, r5, r6, r7, r8, r9, sl, fp, sp, pc}
    c854:	000110e0 	andeq	r1, r1, r0, ror #1
    c858:	ffff72c4 	swinv	0x00ff72c4
    c85c:	ffff72e4 	swinv	0x00ff72e4
    c860:	00000124 	andeq	r0, r0, r4, lsr #2
    c864:	ffff72f0 	swinv	0x00ff72f0
    c868:	ffff72fc 	swinv	0x00ff72fc

0000c86c <_dl_debug_printf>:
    c86c:	e92d000f 	stmdb	sp!, {r0, r1, r2, r3}
    c870:	e92d4400 	stmdb	sp!, {sl, lr}
    c874:	e59fa028 	ldr	sl, [pc, #40]	; c8a4 <.text+0xbcd4>
    c878:	e08fa00a 	add	sl, pc, sl
    c87c:	e59f3024 	ldr	r3, [pc, #36]	; c8a8 <.text+0xbcd8>
    c880:	e79a3003 	ldr	r3, [sl, r3]
    c884:	e5930024 	ldr	r0, [r3, #36]
    c888:	e3a01001 	mov	r1, #1	; 0x1
    c88c:	e59d2008 	ldr	r2, [sp, #8]
    c890:	e28d300c 	add	r3, sp, #12	; 0xc
    c894:	ebfffeff 	bl	c498 <_dl_debug_vdprintf>
    c898:	e8bd4400 	ldmia	sp!, {sl, lr}
    c89c:	e28dd010 	add	sp, sp, #16	; 0x10
    c8a0:	e1a0f00e 	mov	pc, lr
    c8a4:	00010d14 	andeq	r0, r1, r4, lsl sp
    c8a8:	00000210 	andeq	r0, r0, r0, lsl r2

0000c8ac <_dl_debug_printf_c>:
    c8ac:	e92d000f 	stmdb	sp!, {r0, r1, r2, r3}
    c8b0:	e92d4400 	stmdb	sp!, {sl, lr}
    c8b4:	e59fa028 	ldr	sl, [pc, #40]	; c8e4 <.text+0xbd14>
    c8b8:	e08fa00a 	add	sl, pc, sl
    c8bc:	e59f3024 	ldr	r3, [pc, #36]	; c8e8 <.text+0xbd18>
    c8c0:	e79a3003 	ldr	r3, [sl, r3]
    c8c4:	e5930024 	ldr	r0, [r3, #36]
    c8c8:	e3e01000 	mvn	r1, #0	; 0x0
    c8cc:	e59d2008 	ldr	r2, [sp, #8]
    c8d0:	e28d300c 	add	r3, sp, #12	; 0xc
    c8d4:	ebfffeef 	bl	c498 <_dl_debug_vdprintf>
    c8d8:	e8bd4400 	ldmia	sp!, {sl, lr}
    c8dc:	e28dd010 	add	sp, sp, #16	; 0x10
    c8e0:	e1a0f00e 	mov	pc, lr
    c8e4:	00010cd4 	ldreqd	r0, [r1], -r4
    c8e8:	00000210 	andeq	r0, r0, r0, lsl r2

0000c8ec <_dl_dprintf>:
    c8ec:	e92d000e 	stmdb	sp!, {r1, r2, r3}
    c8f0:	e52de004 	str	lr, [sp, #-4]!
    c8f4:	e3a01000 	mov	r1, #0	; 0x0
    c8f8:	e59d2004 	ldr	r2, [sp, #4]
    c8fc:	e28d3008 	add	r3, sp, #8	; 0x8
    c900:	ebfffee4 	bl	c498 <_dl_debug_vdprintf>
    c904:	e49de004 	ldr	lr, [sp], #4
    c908:	e28dd00c 	add	sp, sp, #12	; 0xc
    c90c:	e1a0f00e 	mov	pc, lr

0000c910 <_dl_name_match_p>:
    c910:	e92d4030 	stmdb	sp!, {r4, r5, lr}
    c914:	e1a05000 	mov	r5, r0
    c918:	e1a04001 	mov	r4, r1
    c91c:	e5911004 	ldr	r1, [r1, #4]
    c920:	eb0011b2 	bl	10ff0 <strcmp>
    c924:	e3500000 	cmp	r0, #0	; 0x0
    c928:	02800001 	addeq	r0, r0, #1	; 0x1
    c92c:	08bd8030 	ldmeqia	sp!, {r4, r5, pc}
    c930:	ea000001 	b	c93c <_dl_name_match_p+0x2c>
    c934:	e3a00001 	mov	r0, #1	; 0x1
    c938:	e8bd8030 	ldmia	sp!, {r4, r5, pc}
    c93c:	e594401c 	ldr	r4, [r4, #28]
    c940:	e3540000 	cmp	r4, #0	; 0x0
    c944:	0a000007 	beq	c968 <_dl_name_match_p+0x58>
    c948:	e1a00005 	mov	r0, r5
    c94c:	e5941000 	ldr	r1, [r4]
    c950:	eb0011a6 	bl	10ff0 <strcmp>
    c954:	e3500000 	cmp	r0, #0	; 0x0
    c958:	0afffff5 	beq	c934 <_dl_name_match_p+0x24>
    c95c:	e5944004 	ldr	r4, [r4, #4]
    c960:	e3540000 	cmp	r4, #0	; 0x0
    c964:	1afffff7 	bne	c948 <_dl_name_match_p+0x38>
    c968:	e3a00000 	mov	r0, #0	; 0x0
    c96c:	e8bd8030 	ldmia	sp!, {r4, r5, pc}

0000c970 <match_symbol>:
    c970:	e1a0c00d 	mov	ip, sp
    c974:	e92ddff0 	stmdb	sp!, {r4, r5, r6, r7, r8, r9, sl, fp, ip, lr, pc}
    c978:	e24cb004 	sub	fp, ip, #4	; 0x4
    c97c:	e24dd034 	sub	sp, sp, #52	; 0x34
    c980:	e59fa3c0 	ldr	sl, [pc, #960]	; cd48 <.text+0xc178>
    c984:	e08fa00a 	add	sl, pc, sl
    c988:	e1a09000 	mov	r9, r0
    c98c:	e1a05001 	mov	r5, r1
    c990:	e1a06002 	mov	r6, r2
    c994:	e1a07003 	mov	r7, r3
    c998:	e5933034 	ldr	r3, [r3, #52]
    c99c:	e5938004 	ldr	r8, [r3, #4]
    c9a0:	e3a02000 	mov	r2, #0	; 0x0
    c9a4:	e50b2058 	str	r2, [fp, #-88]
    c9a8:	e59f339c 	ldr	r3, [pc, #924]	; cd4c <.text+0xc17c>
    c9ac:	e79a3003 	ldr	r3, [sl, r3]
    c9b0:	e5933000 	ldr	r3, [r3]
    c9b4:	e3130010 	tst	r3, #16	; 0x10
    c9b8:	0a00000b 	beq	c9ec <match_symbol+0x7c>
    c9bc:	e5972004 	ldr	r2, [r7, #4]
    c9c0:	e5d23000 	ldrb	r3, [r2]
    c9c4:	e3530000 	cmp	r3, #0	; 0x0
    c9c8:	059f3380 	ldreq	r3, [pc, #896]	; cd50 <.text+0xc180>
    c9cc:	079a3003 	ldreq	r3, [sl, r3]
    c9d0:	05933000 	ldreq	r3, [r3]
    c9d4:	05932000 	ldreq	r2, [r3]
    c9d8:	e59f0374 	ldr	r0, [pc, #884]	; cd54 <.text+0xc184>
    c9dc:	e08a0000 	add	r0, sl, r0
    c9e0:	e1a01006 	mov	r1, r6
    c9e4:	e1a03009 	mov	r3, r9
    c9e8:	ebffff9f 	bl	c86c <_dl_debug_printf>
    c9ec:	e59720b4 	ldr	r2, [r7, #180]
    c9f0:	e3520000 	cmp	r2, #0	; 0x0
    c9f4:	1a000023 	bne	ca88 <match_symbol+0x118>
    c9f8:	e59b3004 	ldr	r3, [fp, #4]
    c9fc:	e3530000 	cmp	r3, #0	; 0x0
    ca00:	03a00000 	moveq	r0, #0	; 0x0
    ca04:	0a0000cd 	beq	cd40 <match_symbol+0x3d0>
    ca08:	e59f3348 	ldr	r3, [pc, #840]	; cd58 <.text+0xc188>
    ca0c:	e08a3003 	add	r3, sl, r3
    ca10:	e50b3034 	str	r3, [fp, #-52]
    ca14:	e50b9030 	str	r9, [fp, #-48]
    ca18:	e59f333c 	ldr	r3, [pc, #828]	; cd5c <.text+0xc18c>
    ca1c:	e08a3003 	add	r3, sl, r3
    ca20:	e50b302c 	str	r3, [fp, #-44]
    ca24:	e3a05001 	mov	r5, #1	; 0x1
    ca28:	e1a04002 	mov	r4, r2
    ca2c:	e24b2028 	sub	r2, fp, #40	; 0x28
    ca30:	e0823104 	add	r3, r2, r4, lsl #2
    ca34:	e513000c 	ldr	r0, [r3, #-12]
    ca38:	eb001178 	bl	11020 <strlen>
    ca3c:	e0855000 	add	r5, r5, r0
    ca40:	e2844001 	add	r4, r4, #1	; 0x1
    ca44:	e3540002 	cmp	r4, #2	; 0x2
    ca48:	9afffff7 	bls	ca2c <match_symbol+0xbc>
    ca4c:	e2853006 	add	r3, r5, #6	; 0x6
    ca50:	e3c33003 	bic	r3, r3, #3	; 0x3
    ca54:	e063d00d 	rsb	sp, r3, sp
    ca58:	e28d5004 	add	r5, sp, #4	; 0x4
    ca5c:	e1a00005 	mov	r0, r5
    ca60:	e3a04000 	mov	r4, #0	; 0x0
    ca64:	e24b2028 	sub	r2, fp, #40	; 0x28
    ca68:	e0823104 	add	r3, r2, r4, lsl #2
    ca6c:	e513100c 	ldr	r1, [r3, #-12]
    ca70:	eb001390 	bl	118b8 <__stpcpy>
    ca74:	e2844001 	add	r4, r4, #1	; 0x1
    ca78:	e3540002 	cmp	r4, #2	; 0x2
    ca7c:	9afffff8 	bls	ca64 <match_symbol+0xf4>
    ca80:	e1a0c005 	mov	ip, r5
    ca84:	ea0000a1 	b	cd10 <match_symbol+0x3a0>
    ca88:	e59730b4 	ldr	r3, [r7, #180]
    ca8c:	e5932004 	ldr	r2, [r3, #4]
    ca90:	e3520000 	cmp	r2, #0	; 0x0
    ca94:	15973000 	ldrne	r3, [r7]
    ca98:	10824003 	addne	r4, r2, r3
    ca9c:	1a000007 	bne	cac0 <match_symbol+0x150>
    caa0:	e59f02b8 	ldr	r0, [pc, #696]	; cd60 <.text+0xc190>
    caa4:	e08a0000 	add	r0, sl, r0
    caa8:	e59f12b4 	ldr	r1, [pc, #692]	; cd64 <.text+0xc194>
    caac:	e08a1001 	add	r1, sl, r1
    cab0:	e2822071 	add	r2, r2, #113	; 0x71
    cab4:	e59f32ac 	ldr	r3, [pc, #684]	; cd68 <.text+0xc198>
    cab8:	e79a3003 	ldr	r3, [sl, r3]
    cabc:	eb000b3f 	bl	f7c0 <__GI___assert_fail>
    cac0:	e5d43000 	ldrb	r3, [r4]
    cac4:	e5d42001 	ldrb	r2, [r4, #1]
    cac8:	e1833402 	orr	r3, r3, r2, lsl #8
    cacc:	e3530001 	cmp	r3, #1	; 0x1
    cad0:	0a000030 	beq	cb98 <match_symbol+0x228>
    cad4:	e3a03000 	mov	r3, #0	; 0x0
    cad8:	e54b3035 	strb	r3, [fp, #-53]
    cadc:	e59f3288 	ldr	r3, [pc, #648]	; cd6c <.text+0xc19c>
    cae0:	e08a3003 	add	r3, sl, r3
    cae4:	e50b3054 	str	r3, [fp, #-84]
    cae8:	e5d42000 	ldrb	r2, [r4]
    caec:	e5d43001 	ldrb	r3, [r4, #1]
    caf0:	e1820403 	orr	r0, r2, r3, lsl #8
    caf4:	e3a02000 	mov	r2, #0	; 0x0
    caf8:	e58d2000 	str	r2, [sp]
    cafc:	e3a01000 	mov	r1, #0	; 0x0
    cb00:	e24b2035 	sub	r2, fp, #53	; 0x35
    cb04:	e3a0300a 	mov	r3, #10	; 0xa
    cb08:	eb000bca 	bl	fa38 <_itoa>
    cb0c:	e50b0050 	str	r0, [fp, #-80]
    cb10:	e59f3258 	ldr	r3, [pc, #600]	; cd70 <.text+0xc1a0>
    cb14:	e08a3003 	add	r3, sl, r3
    cb18:	e50b304c 	str	r3, [fp, #-76]
    cb1c:	e24bc034 	sub	ip, fp, #52	; 0x34
    cb20:	e24b3054 	sub	r3, fp, #84	; 0x54
    cb24:	e8930007 	ldmia	r3, {r0, r1, r2}
    cb28:	e88c0007 	stmia	ip, {r0, r1, r2}
    cb2c:	e3a05001 	mov	r5, #1	; 0x1
    cb30:	e3a04000 	mov	r4, #0	; 0x0
    cb34:	e24b2028 	sub	r2, fp, #40	; 0x28
    cb38:	e0823104 	add	r3, r2, r4, lsl #2
    cb3c:	e513000c 	ldr	r0, [r3, #-12]
    cb40:	eb001136 	bl	11020 <strlen>
    cb44:	e0855000 	add	r5, r5, r0
    cb48:	e2844001 	add	r4, r4, #1	; 0x1
    cb4c:	e3540002 	cmp	r4, #2	; 0x2
    cb50:	9afffff7 	bls	cb34 <match_symbol+0x1c4>
    cb54:	e2853006 	add	r3, r5, #6	; 0x6
    cb58:	e3c33003 	bic	r3, r3, #3	; 0x3
    cb5c:	e063d00d 	rsb	sp, r3, sp
    cb60:	e28d5004 	add	r5, sp, #4	; 0x4
    cb64:	e1a00005 	mov	r0, r5
    cb68:	e3a04000 	mov	r4, #0	; 0x0
    cb6c:	e24b2028 	sub	r2, fp, #40	; 0x28
    cb70:	e0823104 	add	r3, r2, r4, lsl #2
    cb74:	e513100c 	ldr	r1, [r3, #-12]
    cb78:	eb00134e 	bl	118b8 <__stpcpy>
    cb7c:	e2844001 	add	r4, r4, #1	; 0x1
    cb80:	e3540002 	cmp	r4, #2	; 0x2
    cb84:	9afffff8 	bls	cb6c <match_symbol+0x1fc>
    cb88:	e1a0c005 	mov	ip, r5
    cb8c:	e3a03001 	mov	r3, #1	; 0x1
    cb90:	e50b3058 	str	r3, [fp, #-88]
    cb94:	ea00005d 	b	cd10 <match_symbol+0x3a0>
    cb98:	e5943008 	ldr	r3, [r4, #8]
    cb9c:	e1530005 	cmp	r3, r5
    cba0:	1a000006 	bne	cbc0 <match_symbol+0x250>
    cba4:	e594300c 	ldr	r3, [r4, #12]
    cba8:	e7941003 	ldr	r1, [r4, r3]
    cbac:	e1a00006 	mov	r0, r6
    cbb0:	e0881001 	add	r1, r8, r1
    cbb4:	eb00110d 	bl	10ff0 <strcmp>
    cbb8:	e3500000 	cmp	r0, #0	; 0x0
    cbbc:	0a00005f 	beq	cd40 <match_symbol+0x3d0>
    cbc0:	e5943010 	ldr	r3, [r4, #16]
    cbc4:	e3530000 	cmp	r3, #0	; 0x0
    cbc8:	10844003 	addne	r4, r4, r3
    cbcc:	1affffbb 	bne	cac0 <match_symbol+0x150>
    cbd0:	e59b3008 	ldr	r3, [fp, #8]
    cbd4:	e3530000 	cmp	r3, #0	; 0x0
    cbd8:	0a000027 	beq	cc7c <match_symbol+0x30c>
    cbdc:	e59b2004 	ldr	r2, [fp, #4]
    cbe0:	e3520000 	cmp	r2, #0	; 0x0
    cbe4:	03a00000 	moveq	r0, #0	; 0x0
    cbe8:	0a000054 	beq	cd40 <match_symbol+0x3d0>
    cbec:	e59f3180 	ldr	r3, [pc, #384]	; cd74 <.text+0xc1a4>
    cbf0:	e08a3003 	add	r3, sl, r3
    cbf4:	e50b3054 	str	r3, [fp, #-84]
    cbf8:	e50b6050 	str	r6, [fp, #-80]
    cbfc:	e59f3174 	ldr	r3, [pc, #372]	; cd78 <.text+0xc1a8>
    cc00:	e08a3003 	add	r3, sl, r3
    cc04:	e50b304c 	str	r3, [fp, #-76]
    cc08:	e50b9048 	str	r9, [fp, #-72]
    cc0c:	e59f3148 	ldr	r3, [pc, #328]	; cd5c <.text+0xc18c>
    cc10:	e08a3003 	add	r3, sl, r3
    cc14:	e50b3044 	str	r3, [fp, #-68]
    cc18:	e3a05001 	mov	r5, #1	; 0x1
    cc1c:	e3a04000 	mov	r4, #0	; 0x0
    cc20:	e24b2028 	sub	r2, fp, #40	; 0x28
    cc24:	e0823104 	add	r3, r2, r4, lsl #2
    cc28:	e513002c 	ldr	r0, [r3, #-44]
    cc2c:	eb0010fb 	bl	11020 <strlen>
    cc30:	e0855000 	add	r5, r5, r0
    cc34:	e2844001 	add	r4, r4, #1	; 0x1
    cc38:	e3540004 	cmp	r4, #4	; 0x4
    cc3c:	9afffff7 	bls	cc20 <match_symbol+0x2b0>
    cc40:	e2853006 	add	r3, r5, #6	; 0x6
    cc44:	e3c33003 	bic	r3, r3, #3	; 0x3
    cc48:	e063d00d 	rsb	sp, r3, sp
    cc4c:	e28d5004 	add	r5, sp, #4	; 0x4
    cc50:	e1a00005 	mov	r0, r5
    cc54:	e3a04000 	mov	r4, #0	; 0x0
    cc58:	e24b2028 	sub	r2, fp, #40	; 0x28
    cc5c:	e0823104 	add	r3, r2, r4, lsl #2
    cc60:	e513102c 	ldr	r1, [r3, #-44]
    cc64:	eb001313 	bl	118b8 <__stpcpy>
    cc68:	e2844001 	add	r4, r4, #1	; 0x1
    cc6c:	e3540004 	cmp	r4, #4	; 0x4
    cc70:	9afffff8 	bls	cc58 <match_symbol+0x2e8>
    cc74:	e1a0c005 	mov	ip, r5
    cc78:	ea000024 	b	cd10 <match_symbol+0x3a0>
    cc7c:	e59f30f8 	ldr	r3, [pc, #248]	; cd7c <.text+0xc1ac>
    cc80:	e08a3003 	add	r3, sl, r3
    cc84:	e50b3054 	str	r3, [fp, #-84]
    cc88:	e50b6050 	str	r6, [fp, #-80]
    cc8c:	e59f30e4 	ldr	r3, [pc, #228]	; cd78 <.text+0xc1a8>
    cc90:	e08a3003 	add	r3, sl, r3
    cc94:	e50b304c 	str	r3, [fp, #-76]
    cc98:	e50b9048 	str	r9, [fp, #-72]
    cc9c:	e59f30b8 	ldr	r3, [pc, #184]	; cd5c <.text+0xc18c>
    cca0:	e08a3003 	add	r3, sl, r3
    cca4:	e50b3044 	str	r3, [fp, #-68]
    cca8:	e3a05001 	mov	r5, #1	; 0x1
    ccac:	e3a04000 	mov	r4, #0	; 0x0
    ccb0:	e24b2028 	sub	r2, fp, #40	; 0x28
    ccb4:	e0823104 	add	r3, r2, r4, lsl #2
    ccb8:	e513002c 	ldr	r0, [r3, #-44]
    ccbc:	eb0010d7 	bl	11020 <strlen>
    ccc0:	e0855000 	add	r5, r5, r0
    ccc4:	e2844001 	add	r4, r4, #1	; 0x1
    ccc8:	e3540004 	cmp	r4, #4	; 0x4
    cccc:	9afffff7 	bls	ccb0 <match_symbol+0x340>
    ccd0:	e2853006 	add	r3, r5, #6	; 0x6
    ccd4:	e3c33003 	bic	r3, r3, #3	; 0x3
    ccd8:	e063d00d 	rsb	sp, r3, sp
    ccdc:	e28d5004 	add	r5, sp, #4	; 0x4
    cce0:	e1a00005 	mov	r0, r5
    cce4:	e3a04000 	mov	r4, #0	; 0x0
    cce8:	e24b2028 	sub	r2, fp, #40	; 0x28
    ccec:	e0823104 	add	r3, r2, r4, lsl #2
    ccf0:	e513102c 	ldr	r1, [r3, #-44]
    ccf4:	eb0012ef 	bl	118b8 <__stpcpy>
    ccf8:	e2844001 	add	r4, r4, #1	; 0x1
    ccfc:	e3540004 	cmp	r4, #4	; 0x4
    cd00:	9afffff8 	bls	cce8 <match_symbol+0x378>
    cd04:	e1a0c005 	mov	ip, r5
    cd08:	e3a03001 	mov	r3, #1	; 0x1
    cd0c:	e50b3058 	str	r3, [fp, #-88]
    cd10:	e5971004 	ldr	r1, [r7, #4]
    cd14:	e5d13000 	ldrb	r3, [r1]
    cd18:	e3530000 	cmp	r3, #0	; 0x0
    cd1c:	059f302c 	ldreq	r3, [pc, #44]	; cd50 <.text+0xc180>
    cd20:	079a3003 	ldreq	r3, [sl, r3]
    cd24:	05933000 	ldreq	r3, [r3]
    cd28:	05931000 	ldreq	r1, [r3]
    cd2c:	e3a00000 	mov	r0, #0	; 0x0
    cd30:	e1a02000 	mov	r2, r0
    cd34:	e1a0300c 	mov	r3, ip
    cd38:	ebfffb22 	bl	b9c8 <_dl_signal_cerror>
    cd3c:	e51b0058 	ldr	r0, [fp, #-88]
    cd40:	e24bd028 	sub	sp, fp, #40	; 0x28
    cd44:	e89daff0 	ldmia	sp, {r4, r5, r6, r7, r8, r9, sl, fp, sp, pc}
    cd48:	00010c08 	andeq	r0, r1, r8, lsl #24
    cd4c:	00000210 	andeq	r0, r0, r0, lsl r2
    cd50:	000001d8 	ldreqd	r0, [r0], -r8
    cd54:	ffff731c 	swinv	0x00ff731c
    cd58:	ffff7358 	swinv	0x00ff7358
    cd5c:	ffff56cc 	swinv	0x00ff56cc
    cd60:	ffff7388 	swinv	0x00ff7388
    cd64:	ffff7398 	swinv	0x00ff7398
    cd68:	00000128 	andeq	r0, r0, r8, lsr #2
    cd6c:	ffff73a8 	swinv	0x00ff73a8
    cd70:	ffff73c0 	swinv	0x00ff73c0
    cd74:	ffff73d4 	swinv	0x00ff73d4
    cd78:	ffff73e4 	swinv	0x00ff73e4
    cd7c:	ffff7400 	swinv	0x00ff7400

0000cd80 <_dl_check_map_versions>:
    cd80:	e1a0c00d 	mov	ip, sp
    cd84:	e92ddff0 	stmdb	sp!, {r4, r5, r6, r7, r8, r9, sl, fp, ip, lr, pc}
    cd88:	e24cb004 	sub	fp, ip, #4	; 0x4
    cd8c:	e24dd058 	sub	sp, sp, #88	; 0x58
    cd90:	e59fa4b0 	ldr	sl, [pc, #1200]	; d248 <.text+0xc678>
    cd94:	e08fa00a 	add	sl, pc, sl
    cd98:	e1a06000 	mov	r6, r0
    cd9c:	e50b1058 	str	r1, [fp, #-88]
    cda0:	e50b205c 	str	r2, [fp, #-92]
    cda4:	e3a00000 	mov	r0, #0	; 0x0
    cda8:	e50b0060 	str	r0, [fp, #-96]
    cdac:	e1a07000 	mov	r7, r0
    cdb0:	e50b006c 	str	r0, [fp, #-108]
    cdb4:	e5963034 	ldr	r3, [r6, #52]
    cdb8:	e1530000 	cmp	r3, r0
    cdbc:	01a00000 	moveq	r0, r0
    cdc0:	0a00011e 	beq	d240 <_dl_check_map_versions+0x4c0>
    cdc4:	e5963034 	ldr	r3, [r6, #52]
    cdc8:	e5939004 	ldr	r9, [r3, #4]
    cdcc:	e59610ac 	ldr	r1, [r6, #172]
    cdd0:	e50b1064 	str	r1, [fp, #-100]
    cdd4:	e59620b4 	ldr	r2, [r6, #180]
    cdd8:	e50b2068 	str	r2, [fp, #-104]
    cddc:	e3510000 	cmp	r1, #0	; 0x0
    cde0:	0a0000a3 	beq	d074 <_dl_check_map_versions+0x2f4>
    cde4:	e596e000 	ldr	lr, [r6]
    cde8:	e591c004 	ldr	ip, [r1, #4]
    cdec:	e08e800c 	add	r8, lr, ip
    cdf0:	e7de300c 	ldrb	r3, [lr, ip]
    cdf4:	e5d82001 	ldrb	r2, [r8, #1]
    cdf8:	e1833402 	orr	r3, r3, r2, lsl #8
    cdfc:	e3530001 	cmp	r3, #1	; 0x1
    ce00:	0a000036 	beq	cee0 <_dl_check_map_versions+0x160>
    ce04:	e3a04000 	mov	r4, #0	; 0x0
    ce08:	e54b4029 	strb	r4, [fp, #-41]
    ce0c:	e59f3438 	ldr	r3, [pc, #1080]	; d24c <.text+0xc67c>
    ce10:	e08a3003 	add	r3, sl, r3
    ce14:	e50b3054 	str	r3, [fp, #-84]
    ce18:	e7de200c 	ldrb	r2, [lr, ip]
    ce1c:	e5d83001 	ldrb	r3, [r8, #1]
    ce20:	e1820403 	orr	r0, r2, r3, lsl #8
    ce24:	e58d4000 	str	r4, [sp]
    ce28:	e3a01000 	mov	r1, #0	; 0x0
    ce2c:	e24b2029 	sub	r2, fp, #41	; 0x29
    ce30:	e3a0300a 	mov	r3, #10	; 0xa
    ce34:	eb000aff 	bl	fa38 <_itoa>
    ce38:	e50b0050 	str	r0, [fp, #-80]
    ce3c:	e59f340c 	ldr	r3, [pc, #1036]	; d250 <.text+0xc680>
    ce40:	e08a3003 	add	r3, sl, r3
    ce44:	e50b304c 	str	r3, [fp, #-76]
    ce48:	e24bc048 	sub	ip, fp, #72	; 0x48
    ce4c:	e24b3054 	sub	r3, fp, #84	; 0x54
    ce50:	e8930007 	ldmia	r3, {r0, r1, r2}
    ce54:	e88c0007 	stmia	ip, {r0, r1, r2}
    ce58:	e3a05001 	mov	r5, #1	; 0x1
    ce5c:	e24b0028 	sub	r0, fp, #40	; 0x28
    ce60:	e0803104 	add	r3, r0, r4, lsl #2
    ce64:	e5130020 	ldr	r0, [r3, #-32]
    ce68:	eb00106c 	bl	11020 <strlen>
    ce6c:	e0855000 	add	r5, r5, r0
    ce70:	e2844001 	add	r4, r4, #1	; 0x1
    ce74:	e3540002 	cmp	r4, #2	; 0x2
    ce78:	9afffff7 	bls	ce5c <_dl_check_map_versions+0xdc>
    ce7c:	e2853006 	add	r3, r5, #6	; 0x6
    ce80:	e3c33003 	bic	r3, r3, #3	; 0x3
    ce84:	e063d00d 	rsb	sp, r3, sp
    ce88:	e28d5008 	add	r5, sp, #8	; 0x8
    ce8c:	e1a00005 	mov	r0, r5
    ce90:	e3a04000 	mov	r4, #0	; 0x0
    ce94:	e24b1028 	sub	r1, fp, #40	; 0x28
    ce98:	e0813104 	add	r3, r1, r4, lsl #2
    ce9c:	e5131020 	ldr	r1, [r3, #-32]
    cea0:	eb001284 	bl	118b8 <__stpcpy>
    cea4:	e2844001 	add	r4, r4, #1	; 0x1
    cea8:	e3540002 	cmp	r4, #2	; 0x2
    ceac:	9afffff8 	bls	ce94 <_dl_check_map_versions+0x114>
    ceb0:	e1a0c005 	mov	ip, r5
    ceb4:	e5961004 	ldr	r1, [r6, #4]
    ceb8:	e5d13000 	ldrb	r3, [r1]
    cebc:	e3530000 	cmp	r3, #0	; 0x0
    cec0:	059f338c 	ldreq	r3, [pc, #908]	; d254 <.text+0xc684>
    cec4:	079a3003 	ldreq	r3, [sl, r3]
    cec8:	05933000 	ldreq	r3, [r3]
    cecc:	05931000 	ldreq	r1, [r3]
    ced0:	e51b006c 	ldr	r0, [fp, #-108]
    ced4:	e3a02000 	mov	r2, #0	; 0x0
    ced8:	e1a0300c 	mov	r3, ip
    cedc:	ebfffa52 	bl	b82c <_dl_signal_error>
    cee0:	e50b6070 	str	r6, [fp, #-112]
    cee4:	e59f336c 	ldr	r3, [pc, #876]	; d258 <.text+0xc688>
    cee8:	e79a3003 	ldr	r3, [sl, r3]
    ceec:	e50b3074 	str	r3, [fp, #-116]
    cef0:	e5983004 	ldr	r3, [r8, #4]
    cef4:	e0895003 	add	r5, r9, r3
    cef8:	e5963018 	ldr	r3, [r6, #24]
    cefc:	e0833083 	add	r3, r3, r3, lsl #1
    cf00:	e51b2074 	ldr	r2, [fp, #-116]
    cf04:	e7924183 	ldr	r4, [r2, r3, lsl #3]
    cf08:	e3540000 	cmp	r4, #0	; 0x0
    cf0c:	0a000007 	beq	cf30 <_dl_check_map_versions+0x1b0>
    cf10:	e1a00005 	mov	r0, r5
    cf14:	e1a01004 	mov	r1, r4
    cf18:	ebfffe7c 	bl	c910 <_dl_name_match_p>
    cf1c:	e3500000 	cmp	r0, #0	; 0x0
    cf20:	1a000022 	bne	cfb0 <_dl_check_map_versions+0x230>
    cf24:	e594400c 	ldr	r4, [r4, #12]
    cf28:	e3540000 	cmp	r4, #0	; 0x0
    cf2c:	1afffff7 	bne	cf10 <_dl_check_map_versions+0x190>
    cf30:	e3a04000 	mov	r4, #0	; 0x0
    cf34:	e51b0070 	ldr	r0, [fp, #-112]
    cf38:	e590315c 	ldr	r3, [r0, #348]
    cf3c:	e1530004 	cmp	r3, r4
    cf40:	9a00000b 	bls	cf74 <_dl_check_map_versions+0x1f4>
    cf44:	e51b1070 	ldr	r1, [fp, #-112]
    cf48:	e5913158 	ldr	r3, [r1, #344]
    cf4c:	e1a00005 	mov	r0, r5
    cf50:	e7931104 	ldr	r1, [r3, r4, lsl #2]
    cf54:	ebfffe6d 	bl	c910 <_dl_name_match_p>
    cf58:	e3500000 	cmp	r0, #0	; 0x0
    cf5c:	1a00000f 	bne	cfa0 <_dl_check_map_versions+0x220>
    cf60:	e2844001 	add	r4, r4, #1	; 0x1
    cf64:	e51b2070 	ldr	r2, [fp, #-112]
    cf68:	e592315c 	ldr	r3, [r2, #348]
    cf6c:	e1530004 	cmp	r3, r4
    cf70:	8afffff3 	bhi	cf44 <_dl_check_map_versions+0x1c4>
    cf74:	e3a01000 	mov	r1, #0	; 0x0
    cf78:	e2515000 	subs	r5, r1, #0	; 0x0
    cf7c:	1a00000d 	bne	cfb8 <_dl_check_map_versions+0x238>
    cf80:	e59f02d4 	ldr	r0, [pc, #724]	; d25c <.text+0xc68c>
    cf84:	e08a0000 	add	r0, sl, r0
    cf88:	e59f12d0 	ldr	r1, [pc, #720]	; d260 <.text+0xc690>
    cf8c:	e08a1001 	add	r1, sl, r1
    cf90:	e3a020e6 	mov	r2, #230	; 0xe6
    cf94:	e59f32c8 	ldr	r3, [pc, #712]	; d264 <.text+0xc694>
    cf98:	e79a3003 	ldr	r3, [sl, r3]
    cf9c:	eb000a07 	bl	f7c0 <__GI___assert_fail>
    cfa0:	e51b0070 	ldr	r0, [fp, #-112]
    cfa4:	e5903158 	ldr	r3, [r0, #344]
    cfa8:	e7931104 	ldr	r1, [r3, r4, lsl #2]
    cfac:	eafffff1 	b	cf78 <_dl_check_map_versions+0x1f8>
    cfb0:	e1a01004 	mov	r1, r4
    cfb4:	eaffffef 	b	cf78 <_dl_check_map_versions+0x1f8>
    cfb8:	e51b105c 	ldr	r1, [fp, #-92]
    cfbc:	e3510000 	cmp	r1, #0	; 0x0
    cfc0:	0a000002 	beq	cfd0 <_dl_check_map_versions+0x250>
    cfc4:	e5d53181 	ldrb	r3, [r5, #385]
    cfc8:	e3130002 	tst	r3, #2	; 0x2
    cfcc:	1a000024 	bne	d064 <_dl_check_map_versions+0x2e4>
    cfd0:	e5983008 	ldr	r3, [r8, #8]
    cfd4:	e0884003 	add	r4, r8, r3
    cfd8:	e59f3274 	ldr	r3, [pc, #628]	; d254 <.text+0xc684>
    cfdc:	e79a3003 	ldr	r3, [sl, r3]
    cfe0:	e50b3078 	str	r3, [fp, #-120]
    cfe4:	e5960004 	ldr	r0, [r6, #4]
    cfe8:	e5d03000 	ldrb	r3, [r0]
    cfec:	e3530000 	cmp	r3, #0	; 0x0
    cff0:	11a0c000 	movne	ip, r0
    cff4:	051b2078 	ldreq	r2, [fp, #-120]
    cff8:	05923000 	ldreq	r3, [r2]
    cffc:	0593c000 	ldreq	ip, [r3]
    d000:	e5941000 	ldr	r1, [r4]
    d004:	e5942008 	ldr	r2, [r4, #8]
    d008:	e5953014 	ldr	r3, [r5, #20]
    d00c:	e51b0058 	ldr	r0, [fp, #-88]
    d010:	e58d0000 	str	r0, [sp]
    d014:	e5d40004 	ldrb	r0, [r4, #4]
    d018:	e2000002 	and	r0, r0, #2	; 0x2
    d01c:	e58d0004 	str	r0, [sp, #4]
    d020:	e1a0000c 	mov	r0, ip
    d024:	e0892002 	add	r2, r9, r2
    d028:	ebfffe50 	bl	c970 <match_symbol>
    d02c:	e51b1060 	ldr	r1, [fp, #-96]
    d030:	e1811000 	orr	r1, r1, r0
    d034:	e50b1060 	str	r1, [fp, #-96]
    d038:	e5d43006 	ldrb	r3, [r4, #6]
    d03c:	e5d42007 	ldrb	r2, [r4, #7]
    d040:	e1833402 	orr	r3, r3, r2, lsl #8
    d044:	e1a03883 	mov	r3, r3, lsl #17
    d048:	e1a038a3 	mov	r3, r3, lsr #17
    d04c:	e1570003 	cmp	r7, r3
    d050:	31a07003 	movcc	r7, r3
    d054:	e594300c 	ldr	r3, [r4, #12]
    d058:	e3530000 	cmp	r3, #0	; 0x0
    d05c:	10844003 	addne	r4, r4, r3
    d060:	1affffdf 	bne	cfe4 <_dl_check_map_versions+0x264>
    d064:	e598300c 	ldr	r3, [r8, #12]
    d068:	e3530000 	cmp	r3, #0	; 0x0
    d06c:	10888003 	addne	r8, r8, r3
    d070:	1affff9e 	bne	cef0 <_dl_check_map_versions+0x170>
    d074:	e51b2068 	ldr	r2, [fp, #-104]
    d078:	e3520000 	cmp	r2, #0	; 0x0
    d07c:	0a00000f 	beq	d0c0 <_dl_check_map_versions+0x340>
    d080:	e5962000 	ldr	r2, [r6]
    d084:	e51b0068 	ldr	r0, [fp, #-104]
    d088:	e5903004 	ldr	r3, [r0, #4]
    d08c:	e0821003 	add	r1, r2, r3
    d090:	e3a00c7f 	mov	r0, #32512	; 0x7f00
    d094:	e28000ff 	add	r0, r0, #255	; 0xff
    d098:	e5d13004 	ldrb	r3, [r1, #4]
    d09c:	e5d12005 	ldrb	r2, [r1, #5]
    d0a0:	e1833402 	orr	r3, r3, r2, lsl #8
    d0a4:	e0033000 	and	r3, r3, r0
    d0a8:	e1570003 	cmp	r7, r3
    d0ac:	31a07003 	movcc	r7, r3
    d0b0:	e5913010 	ldr	r3, [r1, #16]
    d0b4:	e3530000 	cmp	r3, #0	; 0x0
    d0b8:	10811003 	addne	r1, r1, r3
    d0bc:	1afffff5 	bne	d098 <_dl_check_map_versions+0x318>
    d0c0:	e3570000 	cmp	r7, #0	; 0x0
    d0c4:	0a00005c 	beq	d23c <_dl_check_map_versions+0x4bc>
    d0c8:	e2870001 	add	r0, r7, #1	; 0x1
    d0cc:	e3a01010 	mov	r1, #16	; 0x10
    d0d0:	ebffceaf 	bl	b94 <GLIBC_2.0+0xb94>
    d0d4:	e5860188 	str	r0, [r6, #392]
    d0d8:	e3500000 	cmp	r0, #0	; 0x0
    d0dc:	1a000004 	bne	d0f4 <_dl_check_map_versions+0x374>
    d0e0:	e59f3180 	ldr	r3, [pc, #384]	; d268 <.text+0xc698>
    d0e4:	e08ac003 	add	ip, sl, r3
    d0e8:	e3a0100c 	mov	r1, #12	; 0xc
    d0ec:	e50b106c 	str	r1, [fp, #-108]
    d0f0:	eaffff6f 	b	ceb4 <_dl_check_map_versions+0x134>
    d0f4:	e2873001 	add	r3, r7, #1	; 0x1
    d0f8:	e5863184 	str	r3, [r6, #388]
    d0fc:	e59630e4 	ldr	r3, [r6, #228]
    d100:	e5933004 	ldr	r3, [r3, #4]
    d104:	e5863198 	str	r3, [r6, #408]
    d108:	e51b2064 	ldr	r2, [fp, #-100]
    d10c:	e3520000 	cmp	r2, #0	; 0x0
    d110:	0a000028 	beq	d1b8 <_dl_check_map_versions+0x438>
    d114:	e5962000 	ldr	r2, [r6]
    d118:	e51b0064 	ldr	r0, [fp, #-100]
    d11c:	e5903004 	ldr	r3, [r0, #4]
    d120:	e0824003 	add	r4, r2, r3
    d124:	e3a05c7f 	mov	r5, #32512	; 0x7f00
    d128:	e28550ff 	add	r5, r5, #255	; 0xff
    d12c:	e5943008 	ldr	r3, [r4, #8]
    d130:	e084e003 	add	lr, r4, r3
    d134:	e28ec006 	add	ip, lr, #6	; 0x6
    d138:	e5de1006 	ldrb	r1, [lr, #6]
    d13c:	e5dc3001 	ldrb	r3, [ip, #1]
    d140:	e1811403 	orr	r1, r1, r3, lsl #8
    d144:	e0011005 	and	r1, r1, r5
    d148:	e5963188 	ldr	r3, [r6, #392]
    d14c:	e1a00201 	mov	r0, r1, lsl #4
    d150:	e0803003 	add	r3, r0, r3
    d154:	e59e2000 	ldr	r2, [lr]
    d158:	e5832004 	str	r2, [r3, #4]
    d15c:	e5962188 	ldr	r2, [r6, #392]
    d160:	e0802002 	add	r2, r0, r2
    d164:	e5dc3001 	ldrb	r3, [ip, #1]
    d168:	e1a03403 	mov	r3, r3, lsl #8
    d16c:	e2033902 	and	r3, r3, #32768	; 0x8000
    d170:	e5823008 	str	r3, [r2, #8]
    d174:	e5962188 	ldr	r2, [r6, #392]
    d178:	e59e3008 	ldr	r3, [lr, #8]
    d17c:	e0893003 	add	r3, r9, r3
    d180:	e7823201 	str	r3, [r2, r1, lsl #4]
    d184:	e5963188 	ldr	r3, [r6, #392]
    d188:	e0800003 	add	r0, r0, r3
    d18c:	e5943004 	ldr	r3, [r4, #4]
    d190:	e0893003 	add	r3, r9, r3
    d194:	e580300c 	str	r3, [r0, #12]
    d198:	e59e300c 	ldr	r3, [lr, #12]
    d19c:	e3530000 	cmp	r3, #0	; 0x0
    d1a0:	108ee003 	addne	lr, lr, r3
    d1a4:	1affffe2 	bne	d134 <_dl_check_map_versions+0x3b4>
    d1a8:	e594300c 	ldr	r3, [r4, #12]
    d1ac:	e3530000 	cmp	r3, #0	; 0x0
    d1b0:	10844003 	addne	r4, r4, r3
    d1b4:	1affffdc 	bne	d12c <_dl_check_map_versions+0x3ac>
    d1b8:	e51b1068 	ldr	r1, [fp, #-104]
    d1bc:	e3510000 	cmp	r1, #0	; 0x0
    d1c0:	0a00001d 	beq	d23c <_dl_check_map_versions+0x4bc>
    d1c4:	e5962000 	ldr	r2, [r6]
    d1c8:	e5913004 	ldr	r3, [r1, #4]
    d1cc:	e082c003 	add	ip, r2, r3
    d1d0:	e3a04c7f 	mov	r4, #32512	; 0x7f00
    d1d4:	e28440ff 	add	r4, r4, #255	; 0xff
    d1d8:	e59ce00c 	ldr	lr, [ip, #12]
    d1dc:	e5dc3002 	ldrb	r3, [ip, #2]
    d1e0:	e3130001 	tst	r3, #1	; 0x1
    d1e4:	1a000010 	bne	d22c <_dl_check_map_versions+0x4ac>
    d1e8:	e5dc1004 	ldrb	r1, [ip, #4]
    d1ec:	e5dc3005 	ldrb	r3, [ip, #5]
    d1f0:	e1811403 	orr	r1, r1, r3, lsl #8
    d1f4:	e0011004 	and	r1, r1, r4
    d1f8:	e5963188 	ldr	r3, [r6, #392]
    d1fc:	e1a00201 	mov	r0, r1, lsl #4
    d200:	e0803003 	add	r3, r0, r3
    d204:	e59c2008 	ldr	r2, [ip, #8]
    d208:	e5832004 	str	r2, [r3, #4]
    d20c:	e5962188 	ldr	r2, [r6, #392]
    d210:	e79c300e 	ldr	r3, [ip, lr]
    d214:	e0893003 	add	r3, r9, r3
    d218:	e7823201 	str	r3, [r2, r1, lsl #4]
    d21c:	e5963188 	ldr	r3, [r6, #392]
    d220:	e0800003 	add	r0, r0, r3
    d224:	e3a03000 	mov	r3, #0	; 0x0
    d228:	e580300c 	str	r3, [r0, #12]
    d22c:	e59c3010 	ldr	r3, [ip, #16]
    d230:	e3530000 	cmp	r3, #0	; 0x0
    d234:	108cc003 	addne	ip, ip, r3
    d238:	1affffe6 	bne	d1d8 <_dl_check_map_versions+0x458>
    d23c:	e51b0060 	ldr	r0, [fp, #-96]
    d240:	e24bd028 	sub	sp, fp, #40	; 0x28
    d244:	e89daff0 	ldmia	sp, {r4, r5, r6, r7, r8, r9, sl, fp, sp, pc}
    d248:	000107f8 	streqd	r0, [r1], -r8
    d24c:	ffff73a8 	swinv	0x00ff73a8
    d250:	ffff740c 	swinv	0x00ff740c
    d254:	000001d8 	ldreqd	r0, [r0], -r8
    d258:	0000023c 	andeq	r0, r0, ip, lsr r2
    d25c:	ffff7420 	swinv	0x00ff7420
    d260:	ffff7398 	swinv	0x00ff7398
    d264:	0000012c 	andeq	r0, r0, ip, lsr #2
    d268:	ffff7438 	swinv	0x00ff7438

0000d26c <_dl_check_all_versions>:
    d26c:	e92d41f0 	stmdb	sp!, {r4, r5, r6, r7, r8, lr}
    d270:	e1a08001 	mov	r8, r1
    d274:	e1a07002 	mov	r7, r2
    d278:	e3a06000 	mov	r6, #0	; 0x0
    d27c:	e2504000 	subs	r4, r0, #0	; 0x0
    d280:	0a00000d 	beq	d2bc <_dl_check_all_versions+0x50>
    d284:	e3a05000 	mov	r5, #0	; 0x0
    d288:	e5d43181 	ldrb	r3, [r4, #385]
    d28c:	e3130002 	tst	r3, #2	; 0x2
    d290:	1a000005 	bne	d2ac <_dl_check_all_versions+0x40>
    d294:	e1a00004 	mov	r0, r4
    d298:	e1a01008 	mov	r1, r8
    d29c:	e1a02007 	mov	r2, r7
    d2a0:	ebfffeb6 	bl	cd80 <_dl_check_map_versions>
    d2a4:	e1500005 	cmp	r0, r5
    d2a8:	13a05001 	movne	r5, #1	; 0x1
    d2ac:	e1866005 	orr	r6, r6, r5
    d2b0:	e594400c 	ldr	r4, [r4, #12]
    d2b4:	e3540000 	cmp	r4, #0	; 0x0
    d2b8:	1afffff1 	bne	d284 <_dl_check_all_versions+0x18>
    d2bc:	e1a00006 	mov	r0, r6
    d2c0:	e8bd81f0 	ldmia	sp!, {r4, r5, r6, r7, r8, pc}

0000d2c4 <_dl_start_profile>:
    d2c4:	e1a0c00d 	mov	ip, sp
    d2c8:	e92ddff0 	stmdb	sp!, {r4, r5, r6, r7, r8, r9, sl, fp, ip, lr, pc}
    d2cc:	e24cb004 	sub	fp, ip, #4	; 0x4
    d2d0:	e24ddf92 	sub	sp, sp, #584	; 0x248
    d2d4:	e59fa758 	ldr	sl, [pc, #1880]	; da34 <.text+0xce64>
    d2d8:	e08fa00a 	add	sl, pc, sl
    d2dc:	e3e06000 	mvn	r6, #0	; 0x0
    d2e0:	e3a01000 	mov	r1, #0	; 0x0
    d2e4:	e50b1260 	str	r1, [fp, #-608]
    d2e8:	e1a05001 	mov	r5, r1
    d2ec:	e59f3744 	ldr	r3, [pc, #1860]	; da38 <.text+0xce68>
    d2f0:	e79a3003 	ldr	r3, [sl, r3]
    d2f4:	e59321a4 	ldr	r2, [r3, #420]
    d2f8:	e592e14c 	ldr	lr, [r2, #332]
    d2fc:	e5d23154 	ldrb	r3, [r2, #340]
    d300:	e5d22155 	ldrb	r2, [r2, #341]
    d304:	e1833402 	orr	r3, r3, r2, lsl #8
    d308:	e08e3283 	add	r3, lr, r3, lsl #5
    d30c:	e153000e 	cmp	r3, lr
    d310:	9a00001e 	bls	d390 <_dl_start_profile+0xcc>
    d314:	e59f3720 	ldr	r3, [pc, #1824]	; da3c <.text+0xce6c>
    d318:	e79a7003 	ldr	r7, [sl, r3]
    d31c:	e59f3714 	ldr	r3, [pc, #1812]	; da38 <.text+0xce68>
    d320:	e79a3003 	ldr	r3, [sl, r3]
    d324:	e59331a4 	ldr	r3, [r3, #420]
    d328:	e5d32154 	ldrb	r2, [r3, #340]
    d32c:	e5d31155 	ldrb	r1, [r3, #341]
    d330:	e1822401 	orr	r2, r2, r1, lsl #8
    d334:	e08e4282 	add	r4, lr, r2, lsl #5
    d338:	e59e3000 	ldr	r3, [lr]
    d33c:	e3530001 	cmp	r3, #1	; 0x1
    d340:	1a00000f 	bne	d384 <_dl_start_profile+0xc0>
    d344:	e59e3018 	ldr	r3, [lr, #24]
    d348:	e3130001 	tst	r3, #1	; 0x1
    d34c:	0a00000c 	beq	d384 <_dl_start_profile+0xc0>
    d350:	e5971004 	ldr	r1, [r7, #4]
    d354:	e2610000 	rsb	r0, r1, #0	; 0x0
    d358:	e59e3008 	ldr	r3, [lr, #8]
    d35c:	e000c003 	and	ip, r0, r3
    d360:	e59e2014 	ldr	r2, [lr, #20]
    d364:	e0833002 	add	r3, r3, r2
    d368:	e0833001 	add	r3, r3, r1
    d36c:	e2433001 	sub	r3, r3, #1	; 0x1
    d370:	e0033000 	and	r3, r3, r0
    d374:	e156000c 	cmp	r6, ip
    d378:	21a0600c 	movcs	r6, ip
    d37c:	e1550003 	cmp	r5, r3
    d380:	31a05003 	movcc	r5, r3
    d384:	e28ee020 	add	lr, lr, #32	; 0x20
    d388:	e154000e 	cmp	r4, lr
    d38c:	8affffe9 	bhi	d338 <_dl_start_profile+0x74>
    d390:	e3a02000 	mov	r2, #0	; 0x0
    d394:	e59f36a4 	ldr	r3, [pc, #1700]	; da40 <.text+0xce70>
    d398:	e79a3003 	ldr	r3, [sl, r3]
    d39c:	e5832000 	str	r2, [r3]
    d3a0:	e59f3690 	ldr	r3, [pc, #1680]	; da38 <.text+0xce68>
    d3a4:	e79a3003 	ldr	r3, [sl, r3]
    d3a8:	e59321a4 	ldr	r2, [r3, #420]
    d3ac:	e5920000 	ldr	r0, [r2]
    d3b0:	e0860000 	add	r0, r6, r0
    d3b4:	e3c00003 	bic	r0, r0, #3	; 0x3
    d3b8:	e59f3684 	ldr	r3, [pc, #1668]	; da44 <.text+0xce74>
    d3bc:	e79a3003 	ldr	r3, [sl, r3]
    d3c0:	e5830000 	str	r0, [r3]
    d3c4:	e5923000 	ldr	r3, [r2]
    d3c8:	e0859003 	add	r9, r5, r3
    d3cc:	e2899003 	add	r9, r9, #3	; 0x3
    d3d0:	e3c99003 	bic	r9, r9, #3	; 0x3
    d3d4:	e0600009 	rsb	r0, r0, r9
    d3d8:	e59f3668 	ldr	r3, [pc, #1640]	; da48 <.text+0xce78>
    d3dc:	e79a3003 	ldr	r3, [sl, r3]
    d3e0:	e5830000 	str	r0, [r3]
    d3e4:	e1a020a0 	mov	r2, r0, lsr #1
    d3e8:	e50b225c 	str	r2, [fp, #-604]
    d3ec:	e3a02004 	mov	r2, #4	; 0x4
    d3f0:	e59f3654 	ldr	r3, [pc, #1620]	; da4c <.text+0xce7c>
    d3f4:	e79a3003 	ldr	r3, [sl, r3]
    d3f8:	e5832000 	str	r2, [r3]
    d3fc:	e51b325c 	ldr	r3, [fp, #-604]
    d400:	e50b3250 	str	r3, [fp, #-592]
    d404:	e59f3644 	ldr	r3, [pc, #1604]	; da50 <.text+0xce80>
    d408:	e79a4003 	ldr	r4, [sl, r3]
    d40c:	e0800080 	add	r0, r0, r0, lsl #1
    d410:	e3a01064 	mov	r1, #100	; 0x64
    d414:	eb00126d 	bl	11dd0 <__udivsi3>
    d418:	e5840000 	str	r0, [r4]
    d41c:	e3500031 	cmp	r0, #49	; 0x31
    d420:	93a03032 	movls	r3, #50	; 0x32
    d424:	95843000 	strls	r3, [r4]
    d428:	e59f3620 	ldr	r3, [pc, #1568]	; da50 <.text+0xce80>
    d42c:	e79a2003 	ldr	r2, [sl, r3]
    d430:	e5923000 	ldr	r3, [r2]
    d434:	e3530601 	cmp	r3, #1048576	; 0x100000
    d438:	83a03601 	movhi	r3, #1048576	; 0x100000
    d43c:	85823000 	strhi	r3, [r2]
    d440:	e59f3608 	ldr	r3, [pc, #1544]	; da50 <.text+0xce80>
    d444:	e79a3003 	ldr	r3, [sl, r3]
    d448:	e5933000 	ldr	r3, [r3]
    d44c:	e1a04183 	mov	r4, r3, lsl #3
    d450:	e50b4254 	str	r4, [fp, #-596]
    d454:	e0843203 	add	r3, r4, r3, lsl #4
    d458:	e51b125c 	ldr	r1, [fp, #-604]
    d45c:	e0817103 	add	r7, r1, r3, lsl #2
    d460:	e2877040 	add	r7, r7, #64	; 0x40
    d464:	e3a04000 	mov	r4, #0	; 0x0
    d468:	e50b4094 	str	r4, [fp, #-148]
    d46c:	e50b4090 	str	r4, [fp, #-144]
    d470:	e50b408c 	str	r4, [fp, #-140]
    d474:	e59f35d8 	ldr	r3, [pc, #1496]	; da54 <.text+0xce84>
    d478:	e50b309c 	str	r3, [fp, #-156]
    d47c:	e3e034ff 	mvn	r3, #-16777216	; 0xff000000
    d480:	e24338fe 	sub	r3, r3, #16646144	; 0xfe0000
    d484:	e50b3098 	str	r3, [fp, #-152]
    d488:	e50b60bc 	str	r6, [fp, #-188]
    d48c:	e50b50b8 	str	r5, [fp, #-184]
    d490:	e1a030a1 	mov	r3, r1, lsr #1
    d494:	e50b30b4 	str	r3, [fp, #-180]
    d498:	eb000c80 	bl	106a0 <__profile_frequency>
    d49c:	e50b00b0 	str	r0, [fp, #-176]
    d4a0:	e59f35b0 	ldr	r3, [pc, #1456]	; da58 <.text+0xce88>
    d4a4:	e08a3003 	add	r3, sl, r3
    d4a8:	e24b20ac 	sub	r2, fp, #172	; 0xac
    d4ac:	e8930003 	ldmia	r3, {r0, r1}
    d4b0:	e8820003 	stmia	r2, {r0, r1}
    d4b4:	e50b40a4 	str	r4, [fp, #-164]
    d4b8:	e54b40a0 	strb	r4, [fp, #-160]
    d4bc:	e54b409f 	strb	r4, [fp, #-159]
    d4c0:	e54b409e 	strb	r4, [fp, #-158]
    d4c4:	e3a03073 	mov	r3, #115	; 0x73
    d4c8:	e54b309d 	strb	r3, [fp, #-157]
    d4cc:	e59f3568 	ldr	r3, [pc, #1384]	; da3c <.text+0xce6c>
    d4d0:	e79a5003 	ldr	r5, [sl, r3]
    d4d4:	e59500a4 	ldr	r0, [r5, #164]
    d4d8:	eb000ed0 	bl	11020 <strlen>
    d4dc:	e1a04000 	mov	r4, r0
    d4e0:	e59500a0 	ldr	r0, [r5, #160]
    d4e4:	eb000ecd 	bl	11020 <strlen>
    d4e8:	e0844000 	add	r4, r4, r0
    d4ec:	e2844010 	add	r4, r4, #16	; 0x10
    d4f0:	e3c44003 	bic	r4, r4, #3	; 0x3
    d4f4:	e064d00d 	rsb	sp, r4, sp
    d4f8:	e28d8008 	add	r8, sp, #8	; 0x8
    d4fc:	e1a00008 	mov	r0, r8
    d500:	e59510a4 	ldr	r1, [r5, #164]
    d504:	eb0010eb 	bl	118b8 <__stpcpy>
    d508:	e3a0302f 	mov	r3, #47	; 0x2f
    d50c:	e4c03001 	strb	r3, [r0], #1
    d510:	e59510a0 	ldr	r1, [r5, #160]
    d514:	eb0010e7 	bl	118b8 <__stpcpy>
    d518:	e59f153c 	ldr	r1, [pc, #1340]	; da5c <.text+0xce8c>
    d51c:	e08a1001 	add	r1, sl, r1
    d520:	eb0010e4 	bl	118b8 <__stpcpy>
    d524:	e1a00008 	mov	r0, r8
    d528:	e3a01902 	mov	r1, #32768	; 0x8000
    d52c:	e2811042 	add	r1, r1, #66	; 0x42
    d530:	e3a02f6d 	mov	r2, #436	; 0x1b4
    d534:	e2822002 	add	r2, r2, #2	; 0x2
    d538:	eb000c84 	bl	10750 <__libc_open>
    d53c:	e1a05000 	mov	r5, r0
    d540:	e3700001 	cmn	r0, #1	; 0x1
    d544:	1a000011 	bne	d590 <_dl_start_profile+0x2cc>
    d548:	e59f3510 	ldr	r3, [pc, #1296]	; da60 <.text+0xce90>
    d54c:	e08a6003 	add	r6, sl, r3
    d550:	e59f350c 	ldr	r3, [pc, #1292]	; da64 <.text+0xce94>
    d554:	e79a3003 	ldr	r3, [sl, r3]
    d558:	e5934000 	ldr	r4, [r3]
    d55c:	e3750001 	cmn	r5, #1	; 0x1
    d560:	11a00005 	movne	r0, r5
    d564:	1b000c85 	blne	10780 <__close>
    d568:	e1a00004 	mov	r0, r4
    d56c:	e24b1f93 	sub	r1, fp, #588	; 0x24c
    d570:	e3a02e19 	mov	r2, #400	; 0x190
    d574:	eb00084a 	bl	f6a4 <__strerror_r>
    d578:	e1a03000 	mov	r3, r0
    d57c:	e3a00002 	mov	r0, #2	; 0x2
    d580:	e1a01006 	mov	r1, r6
    d584:	e1a02008 	mov	r2, r8
    d588:	ebfffcd7 	bl	c8ec <_dl_dprintf>
    d58c:	ea000126 	b	da2c <_dl_start_profile+0x768>
    d590:	e3a00003 	mov	r0, #3	; 0x3
    d594:	e1a01005 	mov	r1, r5
    d598:	e24b2088 	sub	r2, fp, #136	; 0x88
    d59c:	eb000c5a 	bl	1070c <__GI___fxstat64>
    d5a0:	e3500000 	cmp	r0, #0	; 0x0
    d5a4:	ba000003 	blt	d5b8 <_dl_start_profile+0x2f4>
    d5a8:	e51b3078 	ldr	r3, [fp, #-120]
    d5ac:	e2033a0f 	and	r3, r3, #61440	; 0xf000
    d5b0:	e3530902 	cmp	r3, #32768	; 0x8000
    d5b4:	0a000002 	beq	d5c4 <_dl_start_profile+0x300>
    d5b8:	e59f34a8 	ldr	r3, [pc, #1192]	; da68 <.text+0xce98>
    d5bc:	e08a6003 	add	r6, sl, r3
    d5c0:	eaffffe2 	b	d550 <_dl_start_profile+0x28c>
    d5c4:	e51b605c 	ldr	r6, [fp, #-92]
    d5c8:	e51b3058 	ldr	r3, [fp, #-88]
    d5cc:	e1966003 	orrs	r6, r6, r3
    d5d0:	1a00002a 	bne	d680 <_dl_start_profile+0x3bc>
    d5d4:	e50bd264 	str	sp, [fp, #-612]
    d5d8:	e59f345c 	ldr	r3, [pc, #1116]	; da3c <.text+0xce6c>
    d5dc:	e79a4003 	ldr	r4, [sl, r3]
    d5e0:	e5942004 	ldr	r2, [r4, #4]
    d5e4:	e2823006 	add	r3, r2, #6	; 0x6
    d5e8:	e3c33003 	bic	r3, r3, #3	; 0x3
    d5ec:	e063d00d 	rsb	sp, r3, sp
    d5f0:	e28d3008 	add	r3, sp, #8	; 0x8
    d5f4:	e50b3268 	str	r3, [fp, #-616]
    d5f8:	e1a00003 	mov	r0, r3
    d5fc:	e1a01006 	mov	r1, r6
    d600:	eb001062 	bl	11790 <memset>
    d604:	e5941004 	ldr	r1, [r4, #4]
    d608:	e2611000 	rsb	r1, r1, #0	; 0x0
    d60c:	e1a00005 	mov	r0, r5
    d610:	e0011007 	and	r1, r1, r7
    d614:	e1a02006 	mov	r2, r6
    d618:	eb000c7c 	bl	10810 <__libc_lseek>
    d61c:	e3700001 	cmn	r0, #1	; 0x1
    d620:	1a000003 	bne	d634 <_dl_start_profile+0x370>
    d624:	e59f3440 	ldr	r3, [pc, #1088]	; da6c <.text+0xce9c>
    d628:	e08a6003 	add	r6, sl, r3
    d62c:	e51bd264 	ldr	sp, [fp, #-612]
    d630:	eaffffc6 	b	d550 <_dl_start_profile+0x28c>
    d634:	e59f3400 	ldr	r3, [pc, #1024]	; da3c <.text+0xce6c>
    d638:	e79a6003 	ldr	r6, [sl, r3]
    d63c:	e59f3420 	ldr	r3, [pc, #1056]	; da64 <.text+0xce94>
    d640:	e79a4003 	ldr	r4, [sl, r3]
    d644:	e5962004 	ldr	r2, [r6, #4]
    d648:	e2422001 	sub	r2, r2, #1	; 0x1
    d64c:	e1a00005 	mov	r0, r5
    d650:	e51b1268 	ldr	r1, [fp, #-616]
    d654:	e0022007 	and	r2, r2, r7
    d658:	eb000c60 	bl	107e0 <__libc_write>
    d65c:	e3700001 	cmn	r0, #1	; 0x1
    d660:	1a000002 	bne	d670 <_dl_start_profile+0x3ac>
    d664:	e5943000 	ldr	r3, [r4]
    d668:	e3530004 	cmp	r3, #4	; 0x4
    d66c:	0afffff4 	beq	d644 <_dl_start_profile+0x380>
    d670:	e3500000 	cmp	r0, #0	; 0x0
    d674:	baffffea 	blt	d624 <_dl_start_profile+0x360>
    d678:	e51bd264 	ldr	sp, [fp, #-612]
    d67c:	ea000017 	b	d6e0 <_dl_start_profile+0x41c>
    d680:	e1a01007 	mov	r1, r7
    d684:	e1a02fc1 	mov	r2, r1, asr #31
    d688:	e51b305c 	ldr	r3, [fp, #-92]
    d68c:	e1530001 	cmp	r3, r1
    d690:	1a000002 	bne	d6a0 <_dl_start_profile+0x3dc>
    d694:	e51b3058 	ldr	r3, [fp, #-88]
    d698:	e1530002 	cmp	r3, r2
    d69c:	0a00000f 	beq	d6e0 <_dl_start_profile+0x41c>
    d6a0:	e1a00005 	mov	r0, r5
    d6a4:	eb000c35 	bl	10780 <__close>
    d6a8:	e51b4260 	ldr	r4, [fp, #-608]
    d6ac:	e3540000 	cmp	r4, #0	; 0x0
    d6b0:	11a00004 	movne	r0, r4
    d6b4:	11a01007 	movne	r1, r7
    d6b8:	1b000d74 	blne	10c90 <__munmap>
    d6bc:	e3a00002 	mov	r0, #2	; 0x2
    d6c0:	e59f13a8 	ldr	r1, [pc, #936]	; da70 <.text+0xcea0>
    d6c4:	e08a1001 	add	r1, sl, r1
    d6c8:	e1a02008 	mov	r2, r8
    d6cc:	e59f3368 	ldr	r3, [pc, #872]	; da3c <.text+0xce6c>
    d6d0:	e79a3003 	ldr	r3, [sl, r3]
    d6d4:	e59330a0 	ldr	r3, [r3, #160]
    d6d8:	ebfffc83 	bl	c8ec <_dl_dprintf>
    d6dc:	ea0000d2 	b	da2c <_dl_start_profile+0x768>
    d6e0:	e58d5000 	str	r5, [sp]
    d6e4:	e3a00000 	mov	r0, #0	; 0x0
    d6e8:	e58d0004 	str	r0, [sp, #4]
    d6ec:	e1a01007 	mov	r1, r7
    d6f0:	e3a02003 	mov	r2, #3	; 0x3
    d6f4:	e3a03001 	mov	r3, #1	; 0x1
    d6f8:	eb000d4c 	bl	10c30 <__mmap>
    d6fc:	e50b0260 	str	r0, [fp, #-608]
    d700:	e3700001 	cmn	r0, #1	; 0x1
    d704:	059f3368 	ldreq	r3, [pc, #872]	; da74 <.text+0xcea4>
    d708:	008a6003 	addeq	r6, sl, r3
    d70c:	0affff8f 	beq	d550 <_dl_start_profile+0x28c>
    d710:	e1a00005 	mov	r0, r5
    d714:	eb000c19 	bl	10780 <__close>
    d718:	e51b1260 	ldr	r1, [fp, #-608]
    d71c:	e2814014 	add	r4, r1, #20	; 0x14
    d720:	e2812038 	add	r2, r1, #56	; 0x38
    d724:	e50b2258 	str	r2, [fp, #-600]
    d728:	e59f3348 	ldr	r3, [pc, #840]	; da78 <.text+0xcea8>
    d72c:	e79a5003 	ldr	r5, [sl, r3]
    d730:	e51b125c 	ldr	r1, [fp, #-604]
    d734:	e0823001 	add	r3, r2, r1
    d738:	e2833004 	add	r3, r3, #4	; 0x4
    d73c:	e5853000 	str	r3, [r5]
    d740:	e2833004 	add	r3, r3, #4	; 0x4
    d744:	e59f2330 	ldr	r2, [pc, #816]	; da7c <.text+0xceac>
    d748:	e79a2002 	ldr	r2, [sl, r2]
    d74c:	e5823000 	str	r3, [r2]
    d750:	e51be05c 	ldr	lr, [fp, #-92]
    d754:	e51b3058 	ldr	r3, [fp, #-88]
    d758:	e19ee003 	orrs	lr, lr, r3
    d75c:	1a00000f 	bne	d7a0 <_dl_start_profile+0x4dc>
    d760:	e24bc09c 	sub	ip, fp, #156	; 0x9c
    d764:	e8bc000f 	ldmia	ip!, {r0, r1, r2, r3}
    d768:	e51b4260 	ldr	r4, [fp, #-608]
    d76c:	e8a4000f 	stmia	r4!, {r0, r1, r2, r3}
    d770:	e59c3000 	ldr	r3, [ip]
    d774:	e51b1260 	ldr	r1, [fp, #-608]
    d778:	e5813010 	str	r3, [r1, #16]
    d77c:	e581e014 	str	lr, [r1, #20]
    d780:	e2810018 	add	r0, r1, #24	; 0x18
    d784:	e24b10bc 	sub	r1, fp, #188	; 0xbc
    d788:	e3a02020 	mov	r2, #32	; 0x20
    d78c:	eb001050 	bl	118d4 <memcpy>
    d790:	e5952000 	ldr	r2, [r5]
    d794:	e3a03001 	mov	r3, #1	; 0x1
    d798:	e5023004 	str	r3, [r2, #-4]
    d79c:	ea000014 	b	d7f4 <_dl_start_profile+0x530>
    d7a0:	e51b0260 	ldr	r0, [fp, #-608]
    d7a4:	e24b109c 	sub	r1, fp, #156	; 0x9c
    d7a8:	e3a02014 	mov	r2, #20	; 0x14
    d7ac:	eb000f7f 	bl	115b0 <bcmp>
    d7b0:	e3500000 	cmp	r0, #0	; 0x0
    d7b4:	1affffbb 	bne	d6a8 <_dl_start_profile+0x3e4>
    d7b8:	e5943000 	ldr	r3, [r4]
    d7bc:	e3530000 	cmp	r3, #0	; 0x0
    d7c0:	1affffb8 	bne	d6a8 <_dl_start_profile+0x3e4>
    d7c4:	e2840004 	add	r0, r4, #4	; 0x4
    d7c8:	e24b10bc 	sub	r1, fp, #188	; 0xbc
    d7cc:	e3a02020 	mov	r2, #32	; 0x20
    d7d0:	eb000f76 	bl	115b0 <bcmp>
    d7d4:	e3500000 	cmp	r0, #0	; 0x0
    d7d8:	1affffb2 	bne	d6a8 <_dl_start_profile+0x3e4>
    d7dc:	e59f3294 	ldr	r3, [pc, #660]	; da78 <.text+0xcea8>
    d7e0:	e79a3003 	ldr	r3, [sl, r3]
    d7e4:	e5933000 	ldr	r3, [r3]
    d7e8:	e5133004 	ldr	r3, [r3, #-4]
    d7ec:	e3530001 	cmp	r3, #1	; 0x1
    d7f0:	1affffac 	bne	d6a8 <_dl_start_profile+0x3e4>
    d7f4:	e51b2250 	ldr	r2, [fp, #-592]
    d7f8:	e51b3254 	ldr	r3, [fp, #-596]
    d7fc:	e0820003 	add	r0, r2, r3
    d800:	e3a01001 	mov	r1, #1	; 0x1
    d804:	ebffcce2 	bl	b94 <GLIBC_2.0+0xb94>
    d808:	e59f3270 	ldr	r3, [pc, #624]	; da80 <.text+0xceb0>
    d80c:	e79a3003 	ldr	r3, [sl, r3]
    d810:	e5830000 	str	r0, [r3]
    d814:	e3500000 	cmp	r0, #0	; 0x0
    d818:	1a000008 	bne	d840 <_dl_start_profile+0x57c>
    d81c:	e51b0260 	ldr	r0, [fp, #-608]
    d820:	e1a01007 	mov	r1, r7
    d824:	eb000d19 	bl	10c90 <__munmap>
    d828:	e3a00002 	mov	r0, #2	; 0x2
    d82c:	e59f1250 	ldr	r1, [pc, #592]	; da84 <.text+0xceb4>
    d830:	e08a1001 	add	r1, sl, r1
    d834:	ebfffc2c 	bl	c8ec <_dl_dprintf>
    d838:	e3a0007f 	mov	r0, #127	; 0x7f
    d83c:	eb000d37 	bl	10d20 <_Exit>
    d840:	e59f3238 	ldr	r3, [pc, #568]	; da80 <.text+0xceb0>
    d844:	e79a3003 	ldr	r3, [sl, r3]
    d848:	e5933000 	ldr	r3, [r3]
    d84c:	e51b4250 	ldr	r4, [fp, #-592]
    d850:	e0843003 	add	r3, r4, r3
    d854:	e59f222c 	ldr	r2, [pc, #556]	; da88 <.text+0xceb8>
    d858:	e79a2002 	ldr	r2, [sl, r2]
    d85c:	e5823000 	str	r3, [r2]
    d860:	e3a02000 	mov	r2, #0	; 0x0
    d864:	e59f3220 	ldr	r3, [pc, #544]	; da8c <.text+0xcebc>
    d868:	e79a3003 	ldr	r3, [sl, r3]
    d86c:	e5832000 	str	r2, [r3]
    d870:	e59f3200 	ldr	r3, [pc, #512]	; da78 <.text+0xcea8>
    d874:	e79a3003 	ldr	r3, [sl, r3]
    d878:	e5931000 	ldr	r1, [r3]
    d87c:	e5912000 	ldr	r2, [r1]
    d880:	e59f31c8 	ldr	r3, [pc, #456]	; da50 <.text+0xce80>
    d884:	e79a3003 	ldr	r3, [sl, r3]
    d888:	e5933000 	ldr	r3, [r3]
    d88c:	e1520003 	cmp	r2, r3
    d890:	35912000 	ldrcc	r2, [r1]
    d894:	259f31b4 	ldrcs	r3, [pc, #436]	; da50 <.text+0xce80>
    d898:	279a3003 	ldrcs	r3, [sl, r3]
    d89c:	25932000 	ldrcs	r2, [r3]
    d8a0:	e59f31e8 	ldr	r3, [pc, #488]	; da90 <.text+0xcec0>
    d8a4:	e79a3003 	ldr	r3, [sl, r3]
    d8a8:	e5832000 	str	r2, [r3]
    d8ac:	e2524000 	subs	r4, r2, #0	; 0x0
    d8b0:	0a00002c 	beq	d968 <_dl_start_profile+0x6a4>
    d8b4:	e59f31c0 	ldr	r3, [pc, #448]	; da7c <.text+0xceac>
    d8b8:	e79a8003 	ldr	r8, [sl, r3]
    d8bc:	e59f31c8 	ldr	r3, [pc, #456]	; da8c <.text+0xcebc>
    d8c0:	e79a6003 	ldr	r6, [sl, r3]
    d8c4:	e59f31bc 	ldr	r3, [pc, #444]	; da88 <.text+0xceb8>
    d8c8:	e79a7003 	ldr	r7, [sl, r3]
    d8cc:	e59f31ac 	ldr	r3, [pc, #428]	; da80 <.text+0xceb0>
    d8d0:	e79a5003 	ldr	r5, [sl, r3]
    d8d4:	e2444001 	sub	r4, r4, #1	; 0x1
    d8d8:	e5982000 	ldr	r2, [r8]
    d8dc:	e0843084 	add	r3, r4, r4, lsl #1
    d8e0:	e0822103 	add	r2, r2, r3, lsl #2
    d8e4:	e5d21004 	ldrb	r1, [r2, #4]
    d8e8:	e5d23005 	ldrb	r3, [r2, #5]
    d8ec:	e1811403 	orr	r1, r1, r3, lsl #8
    d8f0:	e5d23006 	ldrb	r3, [r2, #6]
    d8f4:	e1811803 	orr	r1, r1, r3, lsl #16
    d8f8:	e5d23007 	ldrb	r3, [r2, #7]
    d8fc:	e1811c03 	orr	r1, r1, r3, lsl #24
    d900:	e1a01121 	mov	r1, r1, lsr #2
    d904:	e5963000 	ldr	r3, [r6]
    d908:	e1a0e003 	mov	lr, r3
    d90c:	e2833001 	add	r3, r3, #1	; 0x1
    d910:	e5863000 	str	r3, [r6]
    d914:	e5973000 	ldr	r3, [r7]
    d918:	e1a0018e 	mov	r0, lr, lsl #3
    d91c:	e7802003 	str	r2, [r0, r3]
    d920:	e5973000 	ldr	r3, [r7]
    d924:	e0800003 	add	r0, r0, r3
    d928:	e5953000 	ldr	r3, [r5]
    d92c:	e1a0c081 	mov	ip, r1, lsl #1
    d930:	e08c2003 	add	r2, ip, r3
    d934:	e7dc3003 	ldrb	r3, [ip, r3]
    d938:	e5d22001 	ldrb	r2, [r2, #1]
    d93c:	e1833402 	orr	r3, r3, r2, lsl #8
    d940:	e5c03004 	strb	r3, [r0, #4]
    d944:	e1a03443 	mov	r3, r3, asr #8
    d948:	e5c03005 	strb	r3, [r0, #5]
    d94c:	e5953000 	ldr	r3, [r5]
    d950:	e08cc003 	add	ip, ip, r3
    d954:	e7c3e081 	strb	lr, [r3, r1, lsl #1]
    d958:	e1a0e44e 	mov	lr, lr, asr #8
    d95c:	e5cce001 	strb	lr, [ip, #1]
    d960:	e3540000 	cmp	r4, #0	; 0x0
    d964:	1affffda 	bne	d8d4 <_dl_start_profile+0x610>
    d968:	e59f30d4 	ldr	r3, [pc, #212]	; da44 <.text+0xce74>
    d96c:	e79a3003 	ldr	r3, [sl, r3]
    d970:	e5933000 	ldr	r3, [r3]
    d974:	e0630009 	rsb	r0, r3, r9
    d978:	e51b125c 	ldr	r1, [fp, #-604]
    d97c:	e1500001 	cmp	r0, r1
    d980:	93a0c801 	movls	ip, #65536	; 0x10000
    d984:	9a00001d 	bls	da00 <_dl_start_profile+0x73c>
    d988:	e1a04000 	mov	r4, r0
    d98c:	eb00110f 	bl	11dd0 <__udivsi3>
    d990:	e1a01000 	mov	r1, r0
    d994:	e3500801 	cmp	r0, #65536	; 0x10000
    d998:	23a0c001 	movcs	ip, #1	; 0x1
    d99c:	2a000017 	bcs	da00 <_dl_start_profile+0x73c>
    d9a0:	e35000ff 	cmp	r0, #255	; 0xff
    d9a4:	9a000003 	bls	d9b8 <_dl_start_profile+0x6f4>
    d9a8:	e3a00801 	mov	r0, #65536	; 0x10000
    d9ac:	eb001107 	bl	11dd0 <__udivsi3>
    d9b0:	e1a0c000 	mov	ip, r0
    d9b4:	ea000011 	b	da00 <_dl_start_profile+0x73c>
    d9b8:	e3540401 	cmp	r4, #16777216	; 0x1000000
    d9bc:	3a000008 	bcc	d9e4 <_dl_start_profile+0x720>
    d9c0:	e1a00004 	mov	r0, r4
    d9c4:	e51b225c 	ldr	r2, [fp, #-604]
    d9c8:	e1a01422 	mov	r1, r2, lsr #8
    d9cc:	eb0010ff 	bl	11dd0 <__udivsi3>
    d9d0:	e1a01000 	mov	r1, r0
    d9d4:	e3a00401 	mov	r0, #16777216	; 0x1000000
    d9d8:	eb0010fc 	bl	11dd0 <__udivsi3>
    d9dc:	e1a0c000 	mov	ip, r0
    d9e0:	ea000006 	b	da00 <_dl_start_profile+0x73c>
    d9e4:	e1a00404 	mov	r0, r4, lsl #8
    d9e8:	e51b125c 	ldr	r1, [fp, #-604]
    d9ec:	eb0010f7 	bl	11dd0 <__udivsi3>
    d9f0:	e1a01000 	mov	r1, r0
    d9f4:	e3a00401 	mov	r0, #16777216	; 0x1000000
    d9f8:	eb0010f4 	bl	11dd0 <__udivsi3>
    d9fc:	e1a0c000 	mov	ip, r0
    da00:	e51b0258 	ldr	r0, [fp, #-600]
    da04:	e51b125c 	ldr	r1, [fp, #-604]
    da08:	e59f3034 	ldr	r3, [pc, #52]	; da44 <.text+0xce74>
    da0c:	e79a3003 	ldr	r3, [sl, r3]
    da10:	e5932000 	ldr	r2, [r3]
    da14:	e1a0300c 	mov	r3, ip
    da18:	eb000aeb 	bl	105cc <__profil>
    da1c:	e3a02001 	mov	r2, #1	; 0x1
    da20:	e59f3018 	ldr	r3, [pc, #24]	; da40 <.text+0xce70>
    da24:	e79a3003 	ldr	r3, [sl, r3]
    da28:	e5832000 	str	r2, [r3]
    da2c:	e24bd028 	sub	sp, fp, #40	; 0x28
    da30:	e89daff0 	ldmia	sp, {r4, r5, r6, r7, r8, r9, sl, fp, sp, pc}
    da34:	000102b4 	streqh	r0, [r1], -r4
    da38:	0000023c 	andeq	r0, r0, ip, lsr r2
    da3c:	00000210 	andeq	r0, r0, r0, lsl r2
    da40:	00000130 	andeq	r0, r0, r0, lsr r1
    da44:	00000134 	andeq	r0, r0, r4, lsr r1
    da48:	00000138 	andeq	r0, r0, r8, lsr r1
    da4c:	0000013c 	andeq	r0, r0, ip, lsr r1
    da50:	00000140 	andeq	r0, r0, r0, asr #2
    da54:	6e6f6d67 	cdpvs	13, 6, cr6, cr15, cr7, {3}
    da58:	ffff7460 	swinv	0x00ff7460
    da5c:	ffff7468 	swinv	0x00ff7468
    da60:	ffff7474 	swinv	0x00ff7474
    da64:	00000238 	andeq	r0, r0, r8, lsr r2
    da68:	ffff7490 	swinv	0x00ff7490
    da6c:	ffff74ac 	swinv	0x00ff74ac
    da70:	ffff74c8 	swinv	0x00ff74c8
    da74:	ffff74fc 	swinv	0x00ff74fc
    da78:	00000144 	andeq	r0, r0, r4, asr #2
    da7c:	00000148 	andeq	r0, r0, r8, asr #2
    da80:	0000014c 	andeq	r0, r0, ip, asr #2
    da84:	ffff7518 	swinv	0x00ff7518
    da88:	00000150 	andeq	r0, r0, r0, asr r1
    da8c:	00000154 	andeq	r0, r0, r4, asr r1
    da90:	00000158 	andeq	r0, r0, r8, asr r1

0000da94 <_dl_mcount>:
    da94:	e92d4ff0 	stmdb	sp!, {r4, r5, r6, r7, r8, r9, sl, fp, lr}
    da98:	e24dd00c 	sub	sp, sp, #12	; 0xc
    da9c:	e59fa4cc 	ldr	sl, [pc, #1228]	; df70 <.text+0xd3a0>
    daa0:	e08fa00a 	add	sl, pc, sl
    daa4:	e1a05000 	mov	r5, r0
    daa8:	e1a08001 	mov	r8, r1
    daac:	e59f34c0 	ldr	r3, [pc, #1216]	; df74 <.text+0xd3a4>
    dab0:	e79a3003 	ldr	r3, [sl, r3]
    dab4:	e5933000 	ldr	r3, [r3]
    dab8:	e3530000 	cmp	r3, #0	; 0x0
    dabc:	0a000129 	beq	df68 <_dl_mcount+0x4d4>
    dac0:	e59f34b0 	ldr	r3, [pc, #1200]	; df78 <.text+0xd3a8>
    dac4:	e79a3003 	ldr	r3, [sl, r3]
    dac8:	e5933000 	ldr	r3, [r3]
    dacc:	e0635000 	rsb	r5, r3, r0
    dad0:	e59f34a4 	ldr	r3, [pc, #1188]	; df7c <.text+0xd3ac>
    dad4:	e79a3003 	ldr	r3, [sl, r3]
    dad8:	e5933000 	ldr	r3, [r3]
    dadc:	e1550003 	cmp	r5, r3
    dae0:	23a05000 	movcs	r5, #0	; 0x0
    dae4:	e59f348c 	ldr	r3, [pc, #1164]	; df78 <.text+0xd3a8>
    dae8:	e79a3003 	ldr	r3, [sl, r3]
    daec:	e5933000 	ldr	r3, [r3]
    daf0:	e0638001 	rsb	r8, r3, r1
    daf4:	e59f3480 	ldr	r3, [pc, #1152]	; df7c <.text+0xd3ac>
    daf8:	e79a3003 	ldr	r3, [sl, r3]
    dafc:	e5933000 	ldr	r3, [r3]
    db00:	e1580003 	cmp	r8, r3
    db04:	2a000117 	bcs	df68 <_dl_mcount+0x4d4>
    db08:	e59f3470 	ldr	r3, [pc, #1136]	; df80 <.text+0xd3b0>
    db0c:	e79a3003 	ldr	r3, [sl, r3]
    db10:	e5933000 	ldr	r3, [r3]
    db14:	e1a03338 	mov	r3, r8, lsr r3
    db18:	e1a03083 	mov	r3, r3, lsl #1
    db1c:	e59f2460 	ldr	r2, [pc, #1120]	; df84 <.text+0xd3b4>
    db20:	e79a2002 	ldr	r2, [sl, r2]
    db24:	e5922000 	ldr	r2, [r2]
    db28:	e0837002 	add	r7, r3, r2
    db2c:	e7d32002 	ldrb	r2, [r3, r2]
    db30:	e5d73001 	ldrb	r3, [r7, #1]
    db34:	e1920403 	orrs	r0, r2, r3, lsl #8
    db38:	0a000029 	beq	dbe4 <_dl_mcount+0x150>
    db3c:	e59f3444 	ldr	r3, [pc, #1092]	; df88 <.text+0xd3b8>
    db40:	e79a3003 	ldr	r3, [sl, r3]
    db44:	e5933000 	ldr	r3, [r3]
    db48:	e083e180 	add	lr, r3, r0, lsl #3
    db4c:	ea0000ef 	b	df10 <_dl_mcount+0x47c>
    db50:	e5de2004 	ldrb	r2, [lr, #4]
    db54:	e5de3005 	ldrb	r3, [lr, #5]
    db58:	e1922403 	orrs	r2, r2, r3, lsl #8
    db5c:	0a000015 	beq	dbb8 <_dl_mcount+0x124>
    db60:	e59f3420 	ldr	r3, [pc, #1056]	; df88 <.text+0xd3b8>
    db64:	e79a3003 	ldr	r3, [sl, r3]
    db68:	e593c000 	ldr	ip, [r3]
    db6c:	e5de3004 	ldrb	r3, [lr, #4]
    db70:	e5de2005 	ldrb	r2, [lr, #5]
    db74:	e1833402 	orr	r3, r3, r2, lsl #8
    db78:	e1a00183 	mov	r0, r3, lsl #3
    db7c:	e080e00c 	add	lr, r0, ip
    db80:	e5de2004 	ldrb	r2, [lr, #4]
    db84:	e5de3005 	ldrb	r3, [lr, #5]
    db88:	e1922403 	orrs	r2, r2, r3, lsl #8
    db8c:	0a000009 	beq	dbb8 <_dl_mcount+0x124>
    db90:	e790100c 	ldr	r1, [r0, ip]
    db94:	e5d13000 	ldrb	r3, [r1]
    db98:	e5d12001 	ldrb	r2, [r1, #1]
    db9c:	e1833402 	orr	r3, r3, r2, lsl #8
    dba0:	e5d12002 	ldrb	r2, [r1, #2]
    dba4:	e1833802 	orr	r3, r3, r2, lsl #16
    dba8:	e5d12003 	ldrb	r2, [r1, #3]
    dbac:	e1833c02 	orr	r3, r3, r2, lsl #24
    dbb0:	e1530005 	cmp	r3, r5
    dbb4:	1affffec 	bne	db6c <_dl_mcount+0xd8>
    dbb8:	e59e1000 	ldr	r1, [lr]
    dbbc:	e5d13000 	ldrb	r3, [r1]
    dbc0:	e5d12001 	ldrb	r2, [r1, #1]
    dbc4:	e1833402 	orr	r3, r3, r2, lsl #8
    dbc8:	e5d12002 	ldrb	r2, [r1, #2]
    dbcc:	e1833802 	orr	r3, r3, r2, lsl #16
    dbd0:	e5d12003 	ldrb	r2, [r1, #3]
    dbd4:	e1833c02 	orr	r3, r3, r2, lsl #24
    dbd8:	e1530005 	cmp	r3, r5
    dbdc:	0a0000d5 	beq	df38 <_dl_mcount+0x4a4>
    dbe0:	e28e7004 	add	r7, lr, #4	; 0x4
    dbe4:	e59f33a0 	ldr	r3, [pc, #928]	; df8c <.text+0xd3bc>
    dbe8:	e79a3003 	ldr	r3, [sl, r3]
    dbec:	e5933000 	ldr	r3, [r3]
    dbf0:	e5932000 	ldr	r2, [r3]
    dbf4:	e59f3394 	ldr	r3, [pc, #916]	; df90 <.text+0xd3c0>
    dbf8:	e79a3003 	ldr	r3, [sl, r3]
    dbfc:	e5931000 	ldr	r1, [r3]
    dc00:	e1520001 	cmp	r2, r1
    dc04:	0a000059 	beq	dd70 <_dl_mcount+0x2dc>
    dc08:	e59f3384 	ldr	r3, [pc, #900]	; df94 <.text+0xd3c4>
    dc0c:	e79a3003 	ldr	r3, [sl, r3]
    dc10:	e5933000 	ldr	r3, [r3]
    dc14:	e1510003 	cmp	r1, r3
    dc18:	2a000054 	bcs	dd70 <_dl_mcount+0x2dc>
    dc1c:	e59f336c 	ldr	r3, [pc, #876]	; df90 <.text+0xd3c0>
    dc20:	e79a6003 	ldr	r6, [sl, r3]
    dc24:	e59f336c 	ldr	r3, [pc, #876]	; df98 <.text+0xd3c8>
    dc28:	e79a3003 	ldr	r3, [sl, r3]
    dc2c:	e58d3000 	str	r3, [sp]
    dc30:	e59f3364 	ldr	r3, [pc, #868]	; df9c <.text+0xd3cc>
    dc34:	e79a9003 	ldr	r9, [sl, r3]
    dc38:	e59f3348 	ldr	r3, [pc, #840]	; df88 <.text+0xd3b8>
    dc3c:	e79ab003 	ldr	fp, [sl, r3]
    dc40:	e5963000 	ldr	r3, [r6]
    dc44:	e59d2000 	ldr	r2, [sp]
    dc48:	e5921000 	ldr	r1, [r2]
    dc4c:	e0833083 	add	r3, r3, r3, lsl #1
    dc50:	e0811103 	add	r1, r1, r3, lsl #2
    dc54:	e5d13004 	ldrb	r3, [r1, #4]
    dc58:	e5d12005 	ldrb	r2, [r1, #5]
    dc5c:	e1833402 	orr	r3, r3, r2, lsl #8
    dc60:	e5d12006 	ldrb	r2, [r1, #6]
    dc64:	e1833802 	orr	r3, r3, r2, lsl #16
    dc68:	e5d12007 	ldrb	r2, [r1, #7]
    dc6c:	e1833c02 	orr	r3, r3, r2, lsl #24
    dc70:	e1a04123 	mov	r4, r3, lsr #2
    dc74:	e3a03001 	mov	r3, #1	; 0x1
    dc78:	e58d3004 	str	r3, [sp, #4]
    dc7c:	e5993000 	ldr	r3, [r9]
    dc80:	e58d3008 	str	r3, [sp, #8]
    dc84:	e59d2008 	ldr	r2, [sp, #8]
    dc88:	e59d3004 	ldr	r3, [sp, #4]
    dc8c:	e0821003 	add	r1, r2, r3
    dc90:	e5992000 	ldr	r2, [r9]
    dc94:	e59d3008 	ldr	r3, [sp, #8]
    dc98:	e1520003 	cmp	r2, r3
    dc9c:	05891000 	streq	r1, [r9]
    dca0:	03a03000 	moveq	r3, #0	; 0x0
    dca4:	13a03001 	movne	r3, #1	; 0x1
    dca8:	e3530000 	cmp	r3, #0	; 0x0
    dcac:	1afffff2 	bne	dc7c <_dl_mcount+0x1e8>
    dcb0:	e59d0008 	ldr	r0, [sp, #8]
    dcb4:	e2800001 	add	r0, r0, #1	; 0x1
    dcb8:	e59b1000 	ldr	r1, [fp]
    dcbc:	e1a0c180 	mov	ip, r0, lsl #3
    dcc0:	e5962000 	ldr	r2, [r6]
    dcc4:	e0822082 	add	r2, r2, r2, lsl #1
    dcc8:	e59de000 	ldr	lr, [sp]
    dccc:	e59e3000 	ldr	r3, [lr]
    dcd0:	e0833102 	add	r3, r3, r2, lsl #2
    dcd4:	e78c3001 	str	r3, [ip, r1]
    dcd8:	e59b3000 	ldr	r3, [fp]
    dcdc:	e08cc003 	add	ip, ip, r3
    dce0:	e59f329c 	ldr	r3, [pc, #668]	; df84 <.text+0xd3b4>
    dce4:	e79ae003 	ldr	lr, [sl, r3]
    dce8:	e59e3000 	ldr	r3, [lr]
    dcec:	e1a01084 	mov	r1, r4, lsl #1
    dcf0:	e0812003 	add	r2, r1, r3
    dcf4:	e7d13003 	ldrb	r3, [r1, r3]
    dcf8:	e5d22001 	ldrb	r2, [r2, #1]
    dcfc:	e1833402 	orr	r3, r3, r2, lsl #8
    dd00:	e5cc3004 	strb	r3, [ip, #4]
    dd04:	e1a03443 	mov	r3, r3, asr #8
    dd08:	e5cc3005 	strb	r3, [ip, #5]
    dd0c:	e59e3000 	ldr	r3, [lr]
    dd10:	e0811003 	add	r1, r1, r3
    dd14:	e7c30084 	strb	r0, [r3, r4, lsl #1]
    dd18:	e1a00440 	mov	r0, r0, asr #8
    dd1c:	e5c10001 	strb	r0, [r1, #1]
    dd20:	e1a01006 	mov	r1, r6
    dd24:	e3a00001 	mov	r0, #1	; 0x1
    dd28:	e3a02000 	mov	r2, #0	; 0x0
    dd2c:	e5963000 	ldr	r3, [r6]
    dd30:	e0833000 	add	r3, r3, r0
    dd34:	e3520000 	cmp	r2, #0	; 0x0
    dd38:	1afffffc 	bne	dd30 <_dl_mcount+0x29c>
    dd3c:	e5813000 	str	r3, [r1]
    dd40:	e59f3244 	ldr	r3, [pc, #580]	; df8c <.text+0xd3bc>
    dd44:	e79a3003 	ldr	r3, [sl, r3]
    dd48:	e5933000 	ldr	r3, [r3]
    dd4c:	e5933000 	ldr	r3, [r3]
    dd50:	e5962000 	ldr	r2, [r6]
    dd54:	e1530002 	cmp	r3, r2
    dd58:	0a000004 	beq	dd70 <_dl_mcount+0x2dc>
    dd5c:	e59f3230 	ldr	r3, [pc, #560]	; df94 <.text+0xd3c4>
    dd60:	e79a3003 	ldr	r3, [sl, r3]
    dd64:	e5933000 	ldr	r3, [r3]
    dd68:	e1520003 	cmp	r2, r3
    dd6c:	3affffb3 	bcc	dc40 <_dl_mcount+0x1ac>
    dd70:	e5d72000 	ldrb	r2, [r7]
    dd74:	e5d73001 	ldrb	r3, [r7, #1]
    dd78:	e1923403 	orrs	r3, r2, r3, lsl #8
    dd7c:	1a00005c 	bne	def4 <_dl_mcount+0x460>
    dd80:	e59f3204 	ldr	r3, [pc, #516]	; df8c <.text+0xd3bc>
    dd84:	e79a3003 	ldr	r3, [sl, r3]
    dd88:	e5931000 	ldr	r1, [r3]
    dd8c:	e3a0c001 	mov	ip, #1	; 0x1
    dd90:	e5912000 	ldr	r2, [r1]
    dd94:	e082000c 	add	r0, r2, ip
    dd98:	e5913000 	ldr	r3, [r1]
    dd9c:	e1530002 	cmp	r3, r2
    dda0:	05810000 	streq	r0, [r1]
    dda4:	03a03000 	moveq	r3, #0	; 0x0
    dda8:	13a03001 	movne	r3, #1	; 0x1
    ddac:	e3530000 	cmp	r3, #0	; 0x0
    ddb0:	1afffff6 	bne	dd90 <_dl_mcount+0x2fc>
    ddb4:	e1a01002 	mov	r1, r2
    ddb8:	e59f31d4 	ldr	r3, [pc, #468]	; df94 <.text+0xd3c4>
    ddbc:	e79a3003 	ldr	r3, [sl, r3]
    ddc0:	e5933000 	ldr	r3, [r3]
    ddc4:	e1520003 	cmp	r2, r3
    ddc8:	2a000066 	bcs	df68 <_dl_mcount+0x4d4>
    ddcc:	e59f31c8 	ldr	r3, [pc, #456]	; df9c <.text+0xd3cc>
    ddd0:	e79ac003 	ldr	ip, [sl, r3]
    ddd4:	e3a03001 	mov	r3, #1	; 0x1
    ddd8:	e58d3008 	str	r3, [sp, #8]
    dddc:	e59c3000 	ldr	r3, [ip]
    dde0:	e58d3004 	str	r3, [sp, #4]
    dde4:	e59d2004 	ldr	r2, [sp, #4]
    dde8:	e59d3008 	ldr	r3, [sp, #8]
    ddec:	e0820003 	add	r0, r2, r3
    ddf0:	e59c2000 	ldr	r2, [ip]
    ddf4:	e59d3004 	ldr	r3, [sp, #4]
    ddf8:	e1520003 	cmp	r2, r3
    ddfc:	058c0000 	streq	r0, [ip]
    de00:	03a03000 	moveq	r3, #0	; 0x0
    de04:	13a03001 	movne	r3, #1	; 0x1
    de08:	e3530000 	cmp	r3, #0	; 0x0
    de0c:	1afffff2 	bne	dddc <_dl_mcount+0x348>
    de10:	e59d3004 	ldr	r3, [sp, #4]
    de14:	e2833001 	add	r3, r3, #1	; 0x1
    de18:	e5c73000 	strb	r3, [r7]
    de1c:	e1a03443 	mov	r3, r3, asr #8
    de20:	e5c73001 	strb	r3, [r7, #1]
    de24:	e5d72000 	ldrb	r2, [r7]
    de28:	e5d73001 	ldrb	r3, [r7, #1]
    de2c:	e182e403 	orr	lr, r2, r3, lsl #8
    de30:	e1a0018e 	mov	r0, lr, lsl #3
    de34:	e59f314c 	ldr	r3, [pc, #332]	; df88 <.text+0xd3b8>
    de38:	e79a3003 	ldr	r3, [sl, r3]
    de3c:	e5932000 	ldr	r2, [r3]
    de40:	e080e002 	add	lr, r0, r2
    de44:	e0811081 	add	r1, r1, r1, lsl #1
    de48:	e1a01101 	mov	r1, r1, lsl #2
    de4c:	e59f3144 	ldr	r3, [pc, #324]	; df98 <.text+0xd3c8>
    de50:	e79ac003 	ldr	ip, [sl, r3]
    de54:	e59c3000 	ldr	r3, [ip]
    de58:	e0813003 	add	r3, r1, r3
    de5c:	e7803002 	str	r3, [r0, r2]
    de60:	e59c3000 	ldr	r3, [ip]
    de64:	e0812003 	add	r2, r1, r3
    de68:	e3a00000 	mov	r0, #0	; 0x0
    de6c:	e7c15003 	strb	r5, [r1, r3]
    de70:	e1a03425 	mov	r3, r5, lsr #8
    de74:	e5c23001 	strb	r3, [r2, #1]
    de78:	e1a03825 	mov	r3, r5, lsr #16
    de7c:	e5c23002 	strb	r3, [r2, #2]
    de80:	e1a03c25 	mov	r3, r5, lsr #24
    de84:	e5c23003 	strb	r3, [r2, #3]
    de88:	e59c2000 	ldr	r2, [ip]
    de8c:	e0812002 	add	r2, r1, r2
    de90:	e5c28004 	strb	r8, [r2, #4]
    de94:	e1a03428 	mov	r3, r8, lsr #8
    de98:	e5c23005 	strb	r3, [r2, #5]
    de9c:	e1a03828 	mov	r3, r8, lsr #16
    dea0:	e5c23006 	strb	r3, [r2, #6]
    dea4:	e1a03c28 	mov	r3, r8, lsr #24
    dea8:	e5c23007 	strb	r3, [r2, #7]
    deac:	e59c3000 	ldr	r3, [ip]
    deb0:	e0811003 	add	r1, r1, r3
    deb4:	e5c10008 	strb	r0, [r1, #8]
    deb8:	e5c10009 	strb	r0, [r1, #9]
    debc:	e5c1000a 	strb	r0, [r1, #10]
    dec0:	e5c1000b 	strb	r0, [r1, #11]
    dec4:	e5ce0004 	strb	r0, [lr, #4]
    dec8:	e5ce0005 	strb	r0, [lr, #5]
    decc:	e59f30bc 	ldr	r3, [pc, #188]	; df90 <.text+0xd3c0>
    ded0:	e79a1003 	ldr	r1, [sl, r3]
    ded4:	e2800001 	add	r0, r0, #1	; 0x1
    ded8:	e3a02000 	mov	r2, #0	; 0x0
    dedc:	e5913000 	ldr	r3, [r1]
    dee0:	e0833000 	add	r3, r3, r0
    dee4:	e3520000 	cmp	r2, #0	; 0x0
    dee8:	1afffffc 	bne	dee0 <_dl_mcount+0x44c>
    deec:	e5813000 	str	r3, [r1]
    def0:	ea000010 	b	df38 <_dl_mcount+0x4a4>
    def4:	e5d72000 	ldrb	r2, [r7]
    def8:	e5d73001 	ldrb	r3, [r7, #1]
    defc:	e182e403 	orr	lr, r2, r3, lsl #8
    df00:	e59f3080 	ldr	r3, [pc, #128]	; df88 <.text+0xd3b8>
    df04:	e79a3003 	ldr	r3, [sl, r3]
    df08:	e5933000 	ldr	r3, [r3]
    df0c:	e083e18e 	add	lr, r3, lr, lsl #3
    df10:	e59e1000 	ldr	r1, [lr]
    df14:	e5d13000 	ldrb	r3, [r1]
    df18:	e5d12001 	ldrb	r2, [r1, #1]
    df1c:	e1833402 	orr	r3, r3, r2, lsl #8
    df20:	e5d12002 	ldrb	r2, [r1, #2]
    df24:	e1833802 	orr	r3, r3, r2, lsl #16
    df28:	e5d12003 	ldrb	r2, [r1, #3]
    df2c:	e1833c02 	orr	r3, r3, r2, lsl #24
    df30:	e1530005 	cmp	r3, r5
    df34:	1affff05 	bne	db50 <_dl_mcount+0xbc>
    df38:	e59e3000 	ldr	r3, [lr]
    df3c:	e2830008 	add	r0, r3, #8	; 0x8
    df40:	e3a0c001 	mov	ip, #1	; 0x1
    df44:	e5902000 	ldr	r2, [r0]
    df48:	e082100c 	add	r1, r2, ip
    df4c:	e5903000 	ldr	r3, [r0]
    df50:	e1530002 	cmp	r3, r2
    df54:	05801000 	streq	r1, [r0]
    df58:	03a03000 	moveq	r3, #0	; 0x0
    df5c:	13a03001 	movne	r3, #1	; 0x1
    df60:	e3530000 	cmp	r3, #0	; 0x0
    df64:	1afffff6 	bne	df44 <_dl_mcount+0x4b0>
    df68:	e28dd00c 	add	sp, sp, #12	; 0xc
    df6c:	e8bd8ff0 	ldmia	sp!, {r4, r5, r6, r7, r8, r9, sl, fp, pc}
    df70:	0000faec 	andeq	pc, r0, ip, ror #21
    df74:	00000130 	andeq	r0, r0, r0, lsr r1
    df78:	00000134 	andeq	r0, r0, r4, lsr r1
    df7c:	00000138 	andeq	r0, r0, r8, lsr r1
    df80:	0000013c 	andeq	r0, r0, ip, lsr r1
    df84:	0000014c 	andeq	r0, r0, ip, asr #2
    df88:	00000150 	andeq	r0, r0, r0, asr r1
    df8c:	00000144 	andeq	r0, r0, r4, asr #2
    df90:	00000158 	andeq	r0, r0, r8, asr r1
    df94:	00000140 	andeq	r0, r0, r0, asr #2
    df98:	00000148 	andeq	r0, r0, r8, asr #2
    df9c:	00000154 	andeq	r0, r0, r4, asr r1

0000dfa0 <_dl_resolve_conflicts>:
    dfa0:	e92d4ff0 	stmdb	sp!, {r4, r5, r6, r7, r8, r9, sl, fp, lr}
    dfa4:	e24dd01c 	sub	sp, sp, #28	; 0x1c
    dfa8:	e59fa2ec 	ldr	sl, [pc, #748]	; e29c <.text+0xd6cc>
    dfac:	e08fa00a 	add	sl, pc, sl
    dfb0:	e1a05000 	mov	r5, r0
    dfb4:	e1a04001 	mov	r4, r1
    dfb8:	e1a07002 	mov	r7, r2
    dfbc:	e59f32dc 	ldr	r3, [pc, #732]	; e2a0 <.text+0xd6d0>
    dfc0:	e79a3003 	ldr	r3, [sl, r3]
    dfc4:	e5933000 	ldr	r3, [r3]
    dfc8:	e3130020 	tst	r3, #32	; 0x20
    dfcc:	0a00000a 	beq	dffc <_dl_resolve_conflicts+0x5c>
    dfd0:	e5902004 	ldr	r2, [r0, #4]
    dfd4:	e5d23000 	ldrb	r3, [r2]
    dfd8:	e3530000 	cmp	r3, #0	; 0x0
    dfdc:	059f32c0 	ldreq	r3, [pc, #704]	; e2a4 <.text+0xd6d4>
    dfe0:	079a3003 	ldreq	r3, [sl, r3]
    dfe4:	05933000 	ldreq	r3, [r3]
    dfe8:	05932000 	ldreq	r2, [r3]
    dfec:	e3a00001 	mov	r0, #1	; 0x1
    dff0:	e59f12b0 	ldr	r1, [pc, #688]	; e2a8 <.text+0xd6d8>
    dff4:	e08a1001 	add	r1, sl, r1
    dff8:	ebfffa3b 	bl	c8ec <_dl_dprintf>
    dffc:	e5953018 	ldr	r3, [r5, #24]
    e000:	e3530000 	cmp	r3, #0	; 0x0
    e004:	0a000007 	beq	e028 <_dl_resolve_conflicts+0x88>
    e008:	e59f029c 	ldr	r0, [pc, #668]	; e2ac <.text+0xd6dc>
    e00c:	e08a0000 	add	r0, sl, r0
    e010:	e59f1298 	ldr	r1, [pc, #664]	; e2b0 <.text+0xd6e0>
    e014:	e08a1001 	add	r1, sl, r1
    e018:	e3a0203a 	mov	r2, #58	; 0x3a
    e01c:	e59f3290 	ldr	r3, [pc, #656]	; e2b4 <.text+0xd6e4>
    e020:	e79a3003 	ldr	r3, [sl, r3]
    e024:	eb0005e5 	bl	f7c0 <__GI___assert_fail>
    e028:	e59f3288 	ldr	r3, [pc, #648]	; e2b8 <.text+0xd6e8>
    e02c:	e79a1003 	ldr	r1, [sl, r3]
    e030:	e0642007 	rsb	r2, r4, r7
    e034:	e1a02142 	mov	r2, r2, asr #2
    e038:	e0823102 	add	r3, r2, r2, lsl #2
    e03c:	e0833203 	add	r3, r3, r3, lsl #4
    e040:	e0833403 	add	r3, r3, r3, lsl #8
    e044:	e0833803 	add	r3, r3, r3, lsl #16
    e048:	e0823083 	add	r3, r2, r3, lsl #1
    e04c:	e59121ac 	ldr	r2, [r1, #428]
    e050:	e0833002 	add	r3, r3, r2
    e054:	e58131ac 	str	r3, [r1, #428]
    e058:	e1540007 	cmp	r4, r7
    e05c:	2a00008c 	bcs	e294 <_dl_resolve_conflicts+0x2f4>
    e060:	e1a0b005 	mov	fp, r5
    e064:	e3a09000 	mov	r9, #0	; 0x0
    e068:	e59f324c 	ldr	r3, [pc, #588]	; e2bc <.text+0xd6ec>
    e06c:	e79a3003 	ldr	r3, [sl, r3]
    e070:	e58d3014 	str	r3, [sp, #20]
    e074:	e59f3244 	ldr	r3, [pc, #580]	; e2c0 <.text+0xd6f0>
    e078:	e79a3003 	ldr	r3, [sl, r3]
    e07c:	e58d300c 	str	r3, [sp, #12]
    e080:	e59f3238 	ldr	r3, [pc, #568]	; e2c0 <.text+0xd6f0>
    e084:	e79a3003 	ldr	r3, [sl, r3]
    e088:	e58d3010 	str	r3, [sp, #16]
    e08c:	e59f3228 	ldr	r3, [pc, #552]	; e2bc <.text+0xd6ec>
    e090:	e79a3003 	ldr	r3, [sl, r3]
    e094:	e58d3008 	str	r3, [sp, #8]
    e098:	e1a06004 	mov	r6, r4
    e09c:	e5945000 	ldr	r5, [r4]
    e0a0:	e5d41004 	ldrb	r1, [r4, #4]
    e0a4:	e3510017 	cmp	r1, #23	; 0x17
    e0a8:	059b3000 	ldreq	r3, [fp]
    e0ac:	05942008 	ldreq	r2, [r4, #8]
    e0b0:	00833002 	addeq	r3, r3, r2
    e0b4:	05853000 	streq	r3, [r5]
    e0b8:	0a000072 	beq	e288 <_dl_resolve_conflicts+0x2e8>
    e0bc:	e3510000 	cmp	r1, #0	; 0x0
    e0c0:	0a000070 	beq	e288 <_dl_resolve_conflicts+0x2e8>
    e0c4:	e2413001 	sub	r3, r1, #1	; 0x1
    e0c8:	e3530015 	cmp	r3, #21	; 0x15
    e0cc:	908ff103 	addls	pc, pc, r3, lsl #2
    e0d0:	ea000069 	b	e27c <_dl_resolve_conflicts+0x2dc>
    e0d4:	ea000018 	b	e13c <_dl_resolve_conflicts+0x19c>
    e0d8:	ea000013 	b	e12c <_dl_resolve_conflicts+0x18c>
    e0dc:	ea000066 	b	e27c <_dl_resolve_conflicts+0x2dc>
    e0e0:	ea000065 	b	e27c <_dl_resolve_conflicts+0x2dc>
    e0e4:	ea000064 	b	e27c <_dl_resolve_conflicts+0x2dc>
    e0e8:	ea000063 	b	e27c <_dl_resolve_conflicts+0x2dc>
    e0ec:	ea000062 	b	e27c <_dl_resolve_conflicts+0x2dc>
    e0f0:	ea000061 	b	e27c <_dl_resolve_conflicts+0x2dc>
    e0f4:	ea000060 	b	e27c <_dl_resolve_conflicts+0x2dc>
    e0f8:	ea00005f 	b	e27c <_dl_resolve_conflicts+0x2dc>
    e0fc:	ea00005e 	b	e27c <_dl_resolve_conflicts+0x2dc>
    e100:	ea00005d 	b	e27c <_dl_resolve_conflicts+0x2dc>
    e104:	ea00005c 	b	e27c <_dl_resolve_conflicts+0x2dc>
    e108:	ea00005b 	b	e27c <_dl_resolve_conflicts+0x2dc>
    e10c:	ea00005a 	b	e27c <_dl_resolve_conflicts+0x2dc>
    e110:	ea000059 	b	e27c <_dl_resolve_conflicts+0x2dc>
    e114:	ea000058 	b	e27c <_dl_resolve_conflicts+0x2dc>
    e118:	ea000057 	b	e27c <_dl_resolve_conflicts+0x2dc>
    e11c:	ea000056 	b	e27c <_dl_resolve_conflicts+0x2dc>
    e120:	ea000055 	b	e27c <_dl_resolve_conflicts+0x2dc>
    e124:	ea000000 	b	e12c <_dl_resolve_conflicts+0x18c>
    e128:	eaffffff 	b	e12c <_dl_resolve_conflicts+0x18c>
    e12c:	e5943008 	ldr	r3, [r4, #8]
    e130:	e0893003 	add	r3, r9, r3
    e134:	e5853000 	str	r3, [r5]
    e138:	ea000052 	b	e288 <_dl_resolve_conflicts+0x2e8>
    e13c:	e5943008 	ldr	r3, [r4, #8]
    e140:	e0890003 	add	r0, r9, r3
    e144:	e0650000 	rsb	r0, r5, r0
    e148:	e20034fe 	and	r3, r0, #-33554432	; 0xfe000000
    e14c:	e35304fe 	cmp	r3, #-33554432	; 0xfe000000
    e150:	13530000 	cmpne	r3, #0	; 0x0
    e154:	0a000042 	beq	e264 <_dl_resolve_conflicts+0x2c4>
    e158:	e58d9018 	str	r9, [sp, #24]
    e15c:	e59d1014 	ldr	r1, [sp, #20]
    e160:	e5913000 	ldr	r3, [r1]
    e164:	e3530000 	cmp	r3, #0	; 0x0
    e168:	1a00001d 	bne	e1e4 <_dl_resolve_conflicts+0x244>
    e16c:	e59d800c 	ldr	r8, [sp, #12]
    e170:	e5983000 	ldr	r3, [r8]
    e174:	e3530000 	cmp	r3, #0	; 0x0
    e178:	1a000001 	bne	e184 <_dl_resolve_conflicts+0x1e4>
    e17c:	eb000a9d 	bl	10bf8 <__getpagesize>
    e180:	e5880000 	str	r0, [r8]
    e184:	e3e03000 	mvn	r3, #0	; 0x0
    e188:	e88d0208 	stmia	sp, {r3, r9}
    e18c:	e1a00009 	mov	r0, r9
    e190:	e59d2010 	ldr	r2, [sp, #16]
    e194:	e5921000 	ldr	r1, [r2]
    e198:	e3a02007 	mov	r2, #7	; 0x7
    e19c:	e2833023 	add	r3, r3, #35	; 0x23
    e1a0:	eb000aa2 	bl	10c30 <__mmap>
    e1a4:	e59d3014 	ldr	r3, [sp, #20]
    e1a8:	e5830000 	str	r0, [r3]
    e1ac:	e3500000 	cmp	r0, #0	; 0x0
    e1b0:	1a000008 	bne	e1d8 <_dl_resolve_conflicts+0x238>
    e1b4:	e59f0108 	ldr	r0, [pc, #264]	; e2c4 <.text+0xd6f4>
    e1b8:	e08a0000 	add	r0, sl, r0
    e1bc:	e59f1104 	ldr	r1, [pc, #260]	; e2c8 <.text+0xd6f8>
    e1c0:	e08a1001 	add	r1, sl, r1
    e1c4:	e3a02f5f 	mov	r2, #380	; 0x17c
    e1c8:	e2822002 	add	r2, r2, #2	; 0x2
    e1cc:	e59f30f8 	ldr	r3, [pc, #248]	; e2cc <.text+0xd6fc>
    e1d0:	e79a3003 	ldr	r3, [sl, r3]
    e1d4:	eb000579 	bl	f7c0 <__GI___assert_fail>
    e1d8:	e59f30f0 	ldr	r3, [pc, #240]	; e2d0 <.text+0xd700>
    e1dc:	e79a3003 	ldr	r3, [sl, r3]
    e1e0:	e5839000 	str	r9, [r3]
    e1e4:	e59de008 	ldr	lr, [sp, #8]
    e1e8:	e59f30e0 	ldr	r3, [pc, #224]	; e2d0 <.text+0xd700>
    e1ec:	e79a2003 	ldr	r2, [sl, r3]
    e1f0:	e59e0000 	ldr	r0, [lr]
    e1f4:	e5921000 	ldr	r1, [r2]
    e1f8:	e080c001 	add	ip, r0, r1
    e1fc:	e3a0324e 	mov	r3, #-536870908	; 0xe0000004
    e200:	e2833651 	add	r3, r3, #84934656	; 0x5100000
    e204:	e2833aff 	add	r3, r3, #1044480	; 0xff000
    e208:	e7803001 	str	r3, [r0, r1]
    e20c:	e59d1018 	ldr	r1, [sp, #24]
    e210:	e58c1004 	str	r1, [ip, #4]
    e214:	e5923000 	ldr	r3, [r2]
    e218:	e2833008 	add	r3, r3, #8	; 0x8
    e21c:	e5823000 	str	r3, [r2]
    e220:	e59d1010 	ldr	r1, [sp, #16]
    e224:	e5912000 	ldr	r2, [r1]
    e228:	e1530002 	cmp	r3, r2
    e22c:	258e9000 	strcs	r9, [lr]
    e230:	e065000c 	rsb	r0, r5, ip
    e234:	e5963008 	ldr	r3, [r6, #8]
    e238:	e0800103 	add	r0, r0, r3, lsl #2
    e23c:	e20034fe 	and	r3, r0, #-33554432	; 0xfe000000
    e240:	e35304fe 	cmp	r3, #-33554432	; 0xfe000000
    e244:	13530000 	cmpne	r3, #0	; 0x0
    e248:	0a000005 	beq	e264 <_dl_resolve_conflicts+0x2c4>
    e24c:	e3a00000 	mov	r0, #0	; 0x0
    e250:	e59b1004 	ldr	r1, [fp, #4]
    e254:	e1a02000 	mov	r2, r0
    e258:	e59f3074 	ldr	r3, [pc, #116]	; e2d4 <.text+0xd704>
    e25c:	e08a3003 	add	r3, sl, r3
    e260:	ebfff571 	bl	b82c <_dl_signal_error>
    e264:	e5953000 	ldr	r3, [r5]
    e268:	e20324ff 	and	r2, r3, #-16777216	; 0xff000000
    e26c:	e1a03300 	mov	r3, r0, lsl #6
    e270:	e1822423 	orr	r2, r2, r3, lsr #8
    e274:	e5852000 	str	r2, [r5]
    e278:	ea000002 	b	e288 <_dl_resolve_conflicts+0x2e8>
    e27c:	e1a0000b 	mov	r0, fp
    e280:	e3a02000 	mov	r2, #0	; 0x0
    e284:	ebfff0ac 	bl	a53c <_dl_reloc_bad_type>
    e288:	e284400c 	add	r4, r4, #12	; 0xc
    e28c:	e1540007 	cmp	r4, r7
    e290:	3affff80 	bcc	e098 <_dl_resolve_conflicts+0xf8>
    e294:	e28dd01c 	add	sp, sp, #28	; 0x1c
    e298:	e8bd8ff0 	ldmia	sp!, {r4, r5, r6, r7, r8, r9, sl, fp, pc}
    e29c:	0000f5e0 	andeq	pc, r0, r0, ror #11
    e2a0:	00000210 	andeq	r0, r0, r0, lsl r2
    e2a4:	000001d8 	ldreqd	r0, [r0], -r8
    e2a8:	ffff7544 	swinv	0x00ff7544
    e2ac:	ffff7560 	swinv	0x00ff7560
    e2b0:	ffff7570 	swinv	0x00ff7570
    e2b4:	0000015c 	andeq	r0, r0, ip, asr r1
    e2b8:	0000023c 	andeq	r0, r0, ip, lsr r2
    e2bc:	00000164 	andeq	r0, r0, r4, ror #2
    e2c0:	0000016c 	andeq	r0, r0, ip, ror #2
    e2c4:	ffff5914 	swinv	0x00ff5914
    e2c8:	ffff5938 	swinv	0x00ff5938
    e2cc:	00000160 	andeq	r0, r0, r0, ror #2
    e2d0:	00000168 	andeq	r0, r0, r8, ror #2
    e2d4:	ffff5954 	swinv	0x00ff5954

0000e2d8 <_dl_get_origin>:
    e2d8:	e92d4430 	stmdb	sp!, {r4, r5, sl, lr}
    e2dc:	e24dda01 	sub	sp, sp, #4096	; 0x1000
    e2e0:	e59fa19c 	ldr	sl, [pc, #412]	; e484 <.text+0xd8b4>
    e2e4:	e08fa00a 	add	sl, pc, sl
    e2e8:	e3a02a01 	mov	r2, #4096	; 0x1000
    e2ec:	e1a0100d 	mov	r1, sp
    e2f0:	e59f0190 	ldr	r0, [pc, #400]	; e488 <.text+0xd8b8>
    e2f4:	e08a0000 	add	r0, sl, r0
    e2f8:	ef900055 	swi	0x00900055
    e2fc:	e1a04000 	mov	r4, r0
    e300:	e3500000 	cmp	r0, #0	; 0x0
    e304:	d3a03000 	movle	r3, #0	; 0x0
    e308:	c3a03001 	movgt	r3, #1	; 0x1
    e30c:	e3700a01 	cmn	r0, #4096	; 0x1000
    e310:	83a03000 	movhi	r3, #0	; 0x0
    e314:	e3530000 	cmp	r3, #0	; 0x0
    e318:	0a000034 	beq	e3f0 <_dl_get_origin+0x118>
    e31c:	e3a03102 	mov	r3, #-2147483648	; 0x80000000
    e320:	e1a039c3 	mov	r3, r3, asr #19
    e324:	e08d2002 	add	r2, sp, r2
    e328:	e7d23003 	ldrb	r3, [r2, r3]
    e32c:	e353005b 	cmp	r3, #91	; 0x5b
    e330:	0a00002e 	beq	e3f0 <_dl_get_origin+0x118>
    e334:	e353002f 	cmp	r3, #47	; 0x2f
    e338:	0a000007 	beq	e35c <_dl_get_origin+0x84>
    e33c:	e59f0148 	ldr	r0, [pc, #328]	; e48c <.text+0xd8bc>
    e340:	e08a0000 	add	r0, sl, r0
    e344:	e59f1144 	ldr	r1, [pc, #324]	; e490 <.text+0xd8c0>
    e348:	e08a1001 	add	r1, sl, r1
    e34c:	e3a02030 	mov	r2, #48	; 0x30
    e350:	e59f313c 	ldr	r3, [pc, #316]	; e494 <.text+0xd8c4>
    e354:	e79a3003 	ldr	r3, [sl, r3]
    e358:	eb000518 	bl	f7c0 <__GI___assert_fail>
    e35c:	e3500001 	cmp	r0, #1	; 0x1
    e360:	da00000e 	ble	e3a0 <_dl_get_origin+0xc8>
    e364:	e28d2a01 	add	r2, sp, #4096	; 0x1000
    e368:	e0823000 	add	r3, r2, r0
    e36c:	e2433a01 	sub	r3, r3, #4096	; 0x1000
    e370:	e5533001 	ldrb	r3, [r3, #-1]
    e374:	e353002f 	cmp	r3, #47	; 0x2f
    e378:	0a000008 	beq	e3a0 <_dl_get_origin+0xc8>
    e37c:	e2444001 	sub	r4, r4, #1	; 0x1
    e380:	e3540001 	cmp	r4, #1	; 0x1
    e384:	da000005 	ble	e3a0 <_dl_get_origin+0xc8>
    e388:	e28d2a01 	add	r2, sp, #4096	; 0x1000
    e38c:	e0823004 	add	r3, r2, r4
    e390:	e2433a01 	sub	r3, r3, #4096	; 0x1000
    e394:	e5533001 	ldrb	r3, [r3, #-1]
    e398:	e353002f 	cmp	r3, #47	; 0x2f
    e39c:	1afffff6 	bne	e37c <_dl_get_origin+0xa4>
    e3a0:	e2840001 	add	r0, r4, #1	; 0x1
    e3a4:	ebffca00 	bl	bac <GLIBC_2.0+0xbac>
    e3a8:	e2505000 	subs	r5, r0, #0	; 0x0
    e3ac:	03e05000 	mvneq	r5, #0	; 0x0
    e3b0:	0a000030 	beq	e478 <_dl_get_origin+0x1a0>
    e3b4:	e3540001 	cmp	r4, #1	; 0x1
    e3b8:	1a000005 	bne	e3d4 <_dl_get_origin+0xfc>
    e3bc:	e1a00005 	mov	r0, r5
    e3c0:	e59f10d0 	ldr	r1, [pc, #208]	; e498 <.text+0xd8c8>
    e3c4:	e08a1001 	add	r1, sl, r1
    e3c8:	e3a02002 	mov	r2, #2	; 0x2
    e3cc:	eb000d40 	bl	118d4 <memcpy>
    e3d0:	ea000028 	b	e478 <_dl_get_origin+0x1a0>
    e3d4:	e1a00005 	mov	r0, r5
    e3d8:	e1a0100d 	mov	r1, sp
    e3dc:	e2442001 	sub	r2, r4, #1	; 0x1
    e3e0:	eb000d0e 	bl	11820 <__mempcpy>
    e3e4:	e3a03000 	mov	r3, #0	; 0x0
    e3e8:	e5c03000 	strb	r3, [r0]
    e3ec:	ea000021 	b	e478 <_dl_get_origin+0x1a0>
    e3f0:	e3e05000 	mvn	r5, #0	; 0x0
    e3f4:	e59f30a0 	ldr	r3, [pc, #160]	; e49c <.text+0xd8cc>
    e3f8:	e79a3003 	ldr	r3, [sl, r3]
    e3fc:	e5930098 	ldr	r0, [r3, #152]
    e400:	e3500000 	cmp	r0, #0	; 0x0
    e404:	0a00001b 	beq	e478 <_dl_get_origin+0x1a0>
    e408:	eb000b04 	bl	11020 <strlen>
    e40c:	e1a04000 	mov	r4, r0
    e410:	e2800001 	add	r0, r0, #1	; 0x1
    e414:	ebffc9e4 	bl	bac <GLIBC_2.0+0xbac>
    e418:	e2505000 	subs	r5, r0, #0	; 0x0
    e41c:	03e05000 	mvneq	r5, #0	; 0x0
    e420:	0a000014 	beq	e478 <_dl_get_origin+0x1a0>
    e424:	e1a00005 	mov	r0, r5
    e428:	e59f306c 	ldr	r3, [pc, #108]	; e49c <.text+0xd8cc>
    e42c:	e79a3003 	ldr	r3, [sl, r3]
    e430:	e5931098 	ldr	r1, [r3, #152]
    e434:	e1a02004 	mov	r2, r4
    e438:	eb000cf8 	bl	11820 <__mempcpy>
    e43c:	e2853001 	add	r3, r5, #1	; 0x1
    e440:	e1a02003 	mov	r2, r3
    e444:	e1530000 	cmp	r3, r0
    e448:	2a000008 	bcs	e470 <_dl_get_origin+0x198>
    e44c:	e5503001 	ldrb	r3, [r0, #-1]
    e450:	e353002f 	cmp	r3, #47	; 0x2f
    e454:	1a000005 	bne	e470 <_dl_get_origin+0x198>
    e458:	e2400001 	sub	r0, r0, #1	; 0x1
    e45c:	e1520000 	cmp	r2, r0
    e460:	2a000002 	bcs	e470 <_dl_get_origin+0x198>
    e464:	e5503001 	ldrb	r3, [r0, #-1]
    e468:	e353002f 	cmp	r3, #47	; 0x2f
    e46c:	0afffff9 	beq	e458 <_dl_get_origin+0x180>
    e470:	e3a03000 	mov	r3, #0	; 0x0
    e474:	e5c03000 	strb	r3, [r0]
    e478:	e1a00005 	mov	r0, r5
    e47c:	e28dda01 	add	sp, sp, #4096	; 0x1000
    e480:	e8bd8430 	ldmia	sp!, {r4, r5, sl, pc}
    e484:	0000f2a8 	andeq	pc, r0, r8, lsr #5
    e488:	ffff7580 	swinv	0x00ff7580
    e48c:	ffff7590 	swinv	0x00ff7590
    e490:	ffff75a4 	swinv	0x00ff75a4
    e494:	00000170 	andeq	r0, r0, r0, ror r1
    e498:	ffff75cc 	swinv	0x00ff75cc
    e49c:	00000210 	andeq	r0, r0, r0, lsl r2

0000e4a0 <_dl_make_stack_executable>:
    e4a0:	e92d47f0 	stmdb	sp!, {r4, r5, r6, r7, r8, r9, sl, lr}
    e4a4:	e59fa16c 	ldr	sl, [pc, #364]	; e618 <.text+0xda48>
    e4a8:	e08fa00a 	add	sl, pc, sl
    e4ac:	e1a08000 	mov	r8, r0
    e4b0:	e59f3164 	ldr	r3, [pc, #356]	; e61c <.text+0xda4c>
    e4b4:	e79ac003 	ldr	ip, [sl, r3]
    e4b8:	e59c3004 	ldr	r3, [ip, #4]
    e4bc:	e2633000 	rsb	r3, r3, #0	; 0x0
    e4c0:	e5902000 	ldr	r2, [r0]
    e4c4:	e0035002 	and	r5, r3, r2
    e4c8:	e3a09000 	mov	r9, #0	; 0x0
    e4cc:	e1300000 	teq	r0, r0
    e4d0:	e13f000f 	teq	pc, pc
    e4d4:	03e00000 	mvneq	r0, #0	; 0x0
    e4d8:	13e003ff 	mvnne	r0, #-67108861	; 0xfc000003
    e4dc:	e00e0000 	and	r0, lr, r0
    e4e0:	e3a0100c 	mov	r1, #12	; 0xc
    e4e4:	e1a0e00f 	mov	lr, pc
    e4e8:	e59cf0f4 	ldr	pc, [ip, #244]
    e4ec:	e1500009 	cmp	r0, r9
    e4f0:	1a000005 	bne	e50c <_dl_make_stack_executable+0x6c>
    e4f4:	e5982000 	ldr	r2, [r8]
    e4f8:	e59f3120 	ldr	r3, [pc, #288]	; e620 <.text+0xda50>
    e4fc:	e79a3003 	ldr	r3, [sl, r3]
    e500:	e5933000 	ldr	r3, [r3]
    e504:	e1520003 	cmp	r2, r3
    e508:	0a000001 	beq	e514 <_dl_make_stack_executable+0x74>
    e50c:	e3a00001 	mov	r0, #1	; 0x1
    e510:	e8bd87f0 	ldmia	sp!, {r4, r5, r6, r7, r8, r9, sl, pc}
    e514:	e59f3108 	ldr	r3, [pc, #264]	; e624 <.text+0xda54>
    e518:	e79a4003 	ldr	r4, [sl, r3]
    e51c:	e5d43000 	ldrb	r3, [r4]
    e520:	e3530000 	cmp	r3, #0	; 0x0
    e524:	1a000016 	bne	e584 <_dl_make_stack_executable+0xe4>
    e528:	e1a00005 	mov	r0, r5
    e52c:	e59f30e8 	ldr	r3, [pc, #232]	; e61c <.text+0xda4c>
    e530:	e79a3003 	ldr	r3, [sl, r3]
    e534:	e5931004 	ldr	r1, [r3, #4]
    e538:	e59f30e8 	ldr	r3, [pc, #232]	; e628 <.text+0xda58>
    e53c:	e79a3003 	ldr	r3, [sl, r3]
    e540:	e5932000 	ldr	r2, [r3]
    e544:	eb0009dd 	bl	10cc0 <__mprotect>
    e548:	e3500000 	cmp	r0, #0	; 0x0
    e54c:	0a000028 	beq	e5f4 <_dl_make_stack_executable+0x154>
    e550:	e59f30d4 	ldr	r3, [pc, #212]	; e62c <.text+0xda5c>
    e554:	e79a3003 	ldr	r3, [sl, r3]
    e558:	e5933000 	ldr	r3, [r3]
    e55c:	e3530016 	cmp	r3, #22	; 0x16
    e560:	02433015 	subeq	r3, r3, #21	; 0x15
    e564:	05c43000 	streqb	r3, [r4]
    e568:	0a000005 	beq	e584 <_dl_make_stack_executable+0xe4>
    e56c:	e59f30b8 	ldr	r3, [pc, #184]	; e62c <.text+0xda5c>
    e570:	e79a3003 	ldr	r3, [sl, r3]
    e574:	e5939000 	ldr	r9, [r3]
    e578:	ea000024 	b	e610 <_dl_make_stack_executable+0x170>
    e57c:	e1a09003 	mov	r9, r3
    e580:	ea000022 	b	e610 <_dl_make_stack_executable+0x170>
    e584:	e59f3090 	ldr	r3, [pc, #144]	; e61c <.text+0xda4c>
    e588:	e79a3003 	ldr	r3, [sl, r3]
    e58c:	e5933004 	ldr	r3, [r3, #4]
    e590:	e1a04183 	mov	r4, r3, lsl #3
    e594:	e0855003 	add	r5, r5, r3
    e598:	e0645005 	rsb	r5, r4, r5
    e59c:	e59f3084 	ldr	r3, [pc, #132]	; e628 <.text+0xda58>
    e5a0:	e79a6003 	ldr	r6, [sl, r3]
    e5a4:	e59f3080 	ldr	r3, [pc, #128]	; e62c <.text+0xda5c>
    e5a8:	e79a7003 	ldr	r7, [sl, r3]
    e5ac:	e5962000 	ldr	r2, [r6]
    e5b0:	e1a00005 	mov	r0, r5
    e5b4:	e1a01004 	mov	r1, r4
    e5b8:	e3c22401 	bic	r2, r2, #16777216	; 0x1000000
    e5bc:	eb0009bf 	bl	10cc0 <__mprotect>
    e5c0:	e3500000 	cmp	r0, #0	; 0x0
    e5c4:	00645005 	rsbeq	r5, r4, r5
    e5c8:	0afffff7 	beq	e5ac <_dl_make_stack_executable+0x10c>
    e5cc:	e5973000 	ldr	r3, [r7]
    e5d0:	e353000c 	cmp	r3, #12	; 0xc
    e5d4:	1affffe8 	bne	e57c <_dl_make_stack_executable+0xdc>
    e5d8:	e59f303c 	ldr	r3, [pc, #60]	; e61c <.text+0xda4c>
    e5dc:	e79a3003 	ldr	r3, [sl, r3]
    e5e0:	e5933004 	ldr	r3, [r3, #4]
    e5e4:	e1530004 	cmp	r3, r4
    e5e8:	11a040a4 	movne	r4, r4, lsr #1
    e5ec:	10855004 	addne	r5, r5, r4
    e5f0:	1affffed 	bne	e5ac <_dl_make_stack_executable+0x10c>
    e5f4:	e3a03000 	mov	r3, #0	; 0x0
    e5f8:	e5883000 	str	r3, [r8]
    e5fc:	e59f302c 	ldr	r3, [pc, #44]	; e630 <.text+0xda60>
    e600:	e79a2003 	ldr	r2, [sl, r3]
    e604:	e59233e0 	ldr	r3, [r2, #992]
    e608:	e3833001 	orr	r3, r3, #1	; 0x1
    e60c:	e58233e0 	str	r3, [r2, #992]
    e610:	e1a00009 	mov	r0, r9
    e614:	e8bd87f0 	ldmia	sp!, {r4, r5, r6, r7, r8, r9, sl, pc}
    e618:	0000f0e4 	andeq	pc, r0, r4, ror #1
    e61c:	00000210 	andeq	r0, r0, r0, lsl r2
    e620:	00000230 	andeq	r0, r0, r0, lsr r2
    e624:	00000174 	andeq	r0, r0, r4, ror r1
    e628:	000001dc 	ldreqd	r0, [r0], -ip
    e62c:	00000238 	andeq	r0, r0, r8, lsr r2
    e630:	0000023c 	andeq	r0, r0, ip, lsr r2

0000e634 <_dl_check_caller>:
    e634:	e92d45f0 	stmdb	sp!, {r4, r5, r6, r7, r8, sl, lr}
    e638:	e59fa1a4 	ldr	sl, [pc, #420]	; e7e4 <.text+0xdc14>
    e63c:	e08fa00a 	add	sl, pc, sl
    e640:	e1a05000 	mov	r5, r0
    e644:	e1a06001 	mov	r6, r1
    e648:	e3a07000 	mov	r7, #0	; 0x0
    e64c:	e59f3194 	ldr	r3, [pc, #404]	; e7e8 <.text+0xdc18>
    e650:	e79a8003 	ldr	r8, [sl, r3]
    e654:	e0873087 	add	r3, r7, r7, lsl #1
    e658:	e7984183 	ldr	r4, [r8, r3, lsl #3]
    e65c:	e3540000 	cmp	r4, #0	; 0x0
    e660:	0a00004f 	beq	e7a4 <_dl_check_caller+0x170>
    e664:	e59431a0 	ldr	r3, [r4, #416]
    e668:	e1530005 	cmp	r3, r5
    e66c:	8a000049 	bhi	e798 <_dl_check_caller+0x164>
    e670:	e59431a8 	ldr	r3, [r4, #424]
    e674:	e1530005 	cmp	r3, r5
    e678:	9a000046 	bls	e798 <_dl_check_caller+0x164>
    e67c:	e3160001 	tst	r6, #1	; 0x1
    e680:	0a000005 	beq	e69c <_dl_check_caller+0x68>
    e684:	e59f3160 	ldr	r3, [pc, #352]	; e7ec <.text+0xdc1c>
    e688:	e79a0003 	ldr	r0, [sl, r3]
    e68c:	e5941004 	ldr	r1, [r4, #4]
    e690:	eb000a56 	bl	10ff0 <strcmp>
    e694:	e3500000 	cmp	r0, #0	; 0x0
    e698:	08bd85f0 	ldmeqia	sp!, {r4, r5, r6, r7, r8, sl, pc}
    e69c:	e3160002 	tst	r6, #2	; 0x2
    e6a0:	0a000005 	beq	e6bc <_dl_check_caller+0x88>
    e6a4:	e59f3144 	ldr	r3, [pc, #324]	; e7f0 <.text+0xdc20>
    e6a8:	e79a0003 	ldr	r0, [sl, r3]
    e6ac:	e5941004 	ldr	r1, [r4, #4]
    e6b0:	eb000a4e 	bl	10ff0 <strcmp>
    e6b4:	e3500000 	cmp	r0, #0	; 0x0
    e6b8:	08bd85f0 	ldmeqia	sp!, {r4, r5, r6, r7, r8, sl, pc}
    e6bc:	e3160004 	tst	r6, #4	; 0x4
    e6c0:	0a000005 	beq	e6dc <_dl_check_caller+0xa8>
    e6c4:	e59f3128 	ldr	r3, [pc, #296]	; e7f4 <.text+0xdc24>
    e6c8:	e79a0003 	ldr	r0, [sl, r3]
    e6cc:	e5941004 	ldr	r1, [r4, #4]
    e6d0:	eb000a46 	bl	10ff0 <strcmp>
    e6d4:	e3500000 	cmp	r0, #0	; 0x0
    e6d8:	08bd85f0 	ldmeqia	sp!, {r4, r5, r6, r7, r8, sl, pc}
    e6dc:	e3160008 	tst	r6, #8	; 0x8
    e6e0:	0a000005 	beq	e6fc <_dl_check_caller+0xc8>
    e6e4:	e59f310c 	ldr	r3, [pc, #268]	; e7f8 <.text+0xdc28>
    e6e8:	e79a0003 	ldr	r0, [sl, r3]
    e6ec:	e5941004 	ldr	r1, [r4, #4]
    e6f0:	eb000a3e 	bl	10ff0 <strcmp>
    e6f4:	e3500000 	cmp	r0, #0	; 0x0
    e6f8:	08bd85f0 	ldmeqia	sp!, {r4, r5, r6, r7, r8, sl, pc}
    e6fc:	e594401c 	ldr	r4, [r4, #28]
    e700:	e3540000 	cmp	r4, #0	; 0x0
    e704:	0a000026 	beq	e7a4 <_dl_check_caller+0x170>
    e708:	e3160001 	tst	r6, #1	; 0x1
    e70c:	0a000005 	beq	e728 <_dl_check_caller+0xf4>
    e710:	e59f30d4 	ldr	r3, [pc, #212]	; e7ec <.text+0xdc1c>
    e714:	e79a0003 	ldr	r0, [sl, r3]
    e718:	e5941000 	ldr	r1, [r4]
    e71c:	eb000a33 	bl	10ff0 <strcmp>
    e720:	e3500000 	cmp	r0, #0	; 0x0
    e724:	08bd85f0 	ldmeqia	sp!, {r4, r5, r6, r7, r8, sl, pc}
    e728:	e3160002 	tst	r6, #2	; 0x2
    e72c:	0a000005 	beq	e748 <_dl_check_caller+0x114>
    e730:	e59f30b8 	ldr	r3, [pc, #184]	; e7f0 <.text+0xdc20>
    e734:	e79a0003 	ldr	r0, [sl, r3]
    e738:	e5941000 	ldr	r1, [r4]
    e73c:	eb000a2b 	bl	10ff0 <strcmp>
    e740:	e3500000 	cmp	r0, #0	; 0x0
    e744:	08bd85f0 	ldmeqia	sp!, {r4, r5, r6, r7, r8, sl, pc}
    e748:	e3160004 	tst	r6, #4	; 0x4
    e74c:	0a000005 	beq	e768 <_dl_check_caller+0x134>
    e750:	e59f309c 	ldr	r3, [pc, #156]	; e7f4 <.text+0xdc24>
    e754:	e79a0003 	ldr	r0, [sl, r3]
    e758:	e5941000 	ldr	r1, [r4]
    e75c:	eb000a23 	bl	10ff0 <strcmp>
    e760:	e3500000 	cmp	r0, #0	; 0x0
    e764:	08bd85f0 	ldmeqia	sp!, {r4, r5, r6, r7, r8, sl, pc}
    e768:	e3160008 	tst	r6, #8	; 0x8
    e76c:	0a000005 	beq	e788 <_dl_check_caller+0x154>
    e770:	e59f3080 	ldr	r3, [pc, #128]	; e7f8 <.text+0xdc28>
    e774:	e79a0003 	ldr	r0, [sl, r3]
    e778:	e5941000 	ldr	r1, [r4]
    e77c:	eb000a1b 	bl	10ff0 <strcmp>
    e780:	e3500000 	cmp	r0, #0	; 0x0
    e784:	08bd85f0 	ldmeqia	sp!, {r4, r5, r6, r7, r8, sl, pc}
    e788:	e5944004 	ldr	r4, [r4, #4]
    e78c:	e3540000 	cmp	r4, #0	; 0x0
    e790:	1affffdc 	bne	e708 <_dl_check_caller+0xd4>
    e794:	ea000002 	b	e7a4 <_dl_check_caller+0x170>
    e798:	e594400c 	ldr	r4, [r4, #12]
    e79c:	e3540000 	cmp	r4, #0	; 0x0
    e7a0:	1affffaf 	bne	e664 <_dl_check_caller+0x30>
    e7a4:	e2877001 	add	r7, r7, #1	; 0x1
    e7a8:	e357000f 	cmp	r7, #15	; 0xf
    e7ac:	daffffa8 	ble	e654 <_dl_check_caller+0x20>
    e7b0:	e3160008 	tst	r6, #8	; 0x8
    e7b4:	0a000008 	beq	e7dc <_dl_check_caller+0x1a8>
    e7b8:	e59f3028 	ldr	r3, [pc, #40]	; e7e8 <.text+0xdc18>
    e7bc:	e79a2003 	ldr	r2, [sl, r3]
    e7c0:	e5923358 	ldr	r3, [r2, #856]
    e7c4:	e1530005 	cmp	r3, r5
    e7c8:	8a000003 	bhi	e7dc <_dl_check_caller+0x1a8>
    e7cc:	e5923360 	ldr	r3, [r2, #864]
    e7d0:	e1530005 	cmp	r3, r5
    e7d4:	83a00000 	movhi	r0, #0	; 0x0
    e7d8:	88bd85f0 	ldmhiia	sp!, {r4, r5, r6, r7, r8, sl, pc}
    e7dc:	e3a00001 	mov	r0, #1	; 0x1
    e7e0:	e8bd85f0 	ldmia	sp!, {r4, r5, r6, r7, r8, sl, pc}
    e7e4:	0000ef50 	andeq	lr, r0, r0, asr pc
    e7e8:	0000023c 	andeq	r0, r0, ip, lsr r2
    e7ec:	00000178 	andeq	r0, r0, r8, ror r1
    e7f0:	0000017c 	andeq	r0, r0, ip, ror r1
    e7f4:	00000180 	andeq	r0, r0, r0, lsl #3
    e7f8:	00000184 	andeq	r0, r0, r4, lsl #3

0000e7fc <_dl_sysdep_start>:
    e7fc:	e92d4ff0 	stmdb	sp!, {r4, r5, r6, r7, r8, r9, sl, fp, lr}
    e800:	e24ddf75 	sub	sp, sp, #468	; 0x1d4
    e804:	e59fa3f8 	ldr	sl, [pc, #1016]	; ec04 <.text+0xe034>
    e808:	e08fa00a 	add	sl, pc, sl
    e80c:	e1a0b001 	mov	fp, r1
    e810:	e3a07000 	mov	r7, #0	; 0x0
    e814:	e58d7004 	str	r7, [sp, #4]
    e818:	e1a08007 	mov	r8, r7
    e81c:	e1a09007 	mov	r9, r7
    e820:	e58d7000 	str	r7, [sp]
    e824:	e59f33dc 	ldr	r3, [pc, #988]	; ec08 <.text+0xe038>
    e828:	e79a3003 	ldr	r3, [sl, r3]
    e82c:	e5830000 	str	r0, [r3]
    e830:	e4902004 	ldr	r2, [r0], #4
    e834:	e59f33d0 	ldr	r3, [pc, #976]	; ec0c <.text+0xe03c>
    e838:	e79a3003 	ldr	r3, [sl, r3]
    e83c:	e5832000 	str	r2, [r3]
    e840:	e59f33c8 	ldr	r3, [pc, #968]	; ec10 <.text+0xe040>
    e844:	e79a3003 	ldr	r3, [sl, r3]
    e848:	e5830000 	str	r0, [r3]
    e84c:	e0800102 	add	r0, r0, r2, lsl #2
    e850:	e2802004 	add	r2, r0, #4	; 0x4
    e854:	e59f33b8 	ldr	r3, [pc, #952]	; ec14 <.text+0xe044>
    e858:	e79a3003 	ldr	r3, [sl, r3]
    e85c:	e5832000 	str	r2, [r3]
    e860:	e1a01002 	mov	r1, r2
    e864:	e5903004 	ldr	r3, [r0, #4]
    e868:	e1530007 	cmp	r3, r7
    e86c:	0a000002 	beq	e87c <_dl_sysdep_start+0x80>
    e870:	e5b13004 	ldr	r3, [r1, #4]!
    e874:	e3530000 	cmp	r3, #0	; 0x0
    e878:	1afffffc 	bne	e870 <_dl_sysdep_start+0x74>
    e87c:	e2811004 	add	r1, r1, #4	; 0x4
    e880:	e59f3390 	ldr	r3, [pc, #912]	; ec18 <.text+0xe048>
    e884:	e79a3003 	ldr	r3, [sl, r3]
    e888:	e5831000 	str	r1, [r3]
    e88c:	e59f3388 	ldr	r3, [pc, #904]	; ec1c <.text+0xe04c>
    e890:	e79a3003 	ldr	r3, [sl, r3]
    e894:	e58d3008 	str	r3, [sp, #8]
    e898:	e3a02000 	mov	r2, #0	; 0x0
    e89c:	e59f337c 	ldr	r3, [pc, #892]	; ec20 <.text+0xe050>
    e8a0:	e79a3003 	ldr	r3, [sl, r3]
    e8a4:	e583200c 	str	r2, [r3, #12]
    e8a8:	e1a02001 	mov	r2, r1
    e8ac:	e5913000 	ldr	r3, [r1]
    e8b0:	e3530000 	cmp	r3, #0	; 0x0
    e8b4:	0a000041 	beq	e9c0 <_dl_sysdep_start+0x1c4>
    e8b8:	e59f3360 	ldr	r3, [pc, #864]	; ec20 <.text+0xe050>
    e8bc:	e79a1003 	ldr	r1, [sl, r3]
    e8c0:	e59f335c 	ldr	r3, [pc, #860]	; ec24 <.text+0xe054>
    e8c4:	e79a0003 	ldr	r0, [sl, r3]
    e8c8:	e5923000 	ldr	r3, [r2]
    e8cc:	e2433003 	sub	r3, r3, #3	; 0x3
    e8d0:	e3530014 	cmp	r3, #20	; 0x14
    e8d4:	908ff103 	addls	pc, pc, r3, lsl #2
    e8d8:	ea000035 	b	e9b4 <_dl_sysdep_start+0x1b8>
    e8dc:	ea000013 	b	e930 <_dl_sysdep_start+0x134>
    e8e0:	ea000033 	b	e9b4 <_dl_sysdep_start+0x1b8>
    e8e4:	ea000014 	b	e93c <_dl_sysdep_start+0x140>
    e8e8:	ea000015 	b	e944 <_dl_sysdep_start+0x148>
    e8ec:	ea000030 	b	e9b4 <_dl_sysdep_start+0x1b8>
    e8f0:	ea00002f 	b	e9b4 <_dl_sysdep_start+0x1b8>
    e8f4:	ea000015 	b	e950 <_dl_sysdep_start+0x154>
    e8f8:	ea00002d 	b	e9b4 <_dl_sysdep_start+0x1b8>
    e8fc:	ea000016 	b	e95c <_dl_sysdep_start+0x160>
    e900:	ea000015 	b	e95c <_dl_sysdep_start+0x160>
    e904:	ea000017 	b	e968 <_dl_sysdep_start+0x16c>
    e908:	ea000016 	b	e968 <_dl_sysdep_start+0x16c>
    e90c:	ea00001d 	b	e988 <_dl_sysdep_start+0x18c>
    e910:	ea00001f 	b	e994 <_dl_sysdep_start+0x198>
    e914:	ea000021 	b	e9a0 <_dl_sysdep_start+0x1a4>
    e918:	ea000023 	b	e9ac <_dl_sysdep_start+0x1b0>
    e91c:	ea000024 	b	e9b4 <_dl_sysdep_start+0x1b8>
    e920:	ea000023 	b	e9b4 <_dl_sysdep_start+0x1b8>
    e924:	ea000022 	b	e9b4 <_dl_sysdep_start+0x1b8>
    e928:	ea000021 	b	e9b4 <_dl_sysdep_start+0x1b8>
    e92c:	ea000010 	b	e974 <_dl_sysdep_start+0x178>
    e930:	e5923004 	ldr	r3, [r2, #4]
    e934:	e58d3004 	str	r3, [sp, #4]
    e938:	ea00001d 	b	e9b4 <_dl_sysdep_start+0x1b8>
    e93c:	e5927004 	ldr	r7, [r2, #4]
    e940:	ea00001b 	b	e9b4 <_dl_sysdep_start+0x1b8>
    e944:	e5923004 	ldr	r3, [r2, #4]
    e948:	e5813004 	str	r3, [r1, #4]
    e94c:	ea000018 	b	e9b4 <_dl_sysdep_start+0x1b8>
    e950:	e5923004 	ldr	r3, [r2, #4]
    e954:	e58d3008 	str	r3, [sp, #8]
    e958:	ea000015 	b	e9b4 <_dl_sysdep_start+0x1b8>
    e95c:	e5923004 	ldr	r3, [r2, #4]
    e960:	e0288003 	eor	r8, r8, r3
    e964:	ea000012 	b	e9b4 <_dl_sysdep_start+0x1b8>
    e968:	e5923004 	ldr	r3, [r2, #4]
    e96c:	e0299003 	eor	r9, r9, r3
    e970:	ea00000f 	b	e9b4 <_dl_sysdep_start+0x1b8>
    e974:	e3e03000 	mvn	r3, #0	; 0x0
    e978:	e58d3000 	str	r3, [sp]
    e97c:	e5923004 	ldr	r3, [r2, #4]
    e980:	e5803000 	str	r3, [r0]
    e984:	ea00000a 	b	e9b4 <_dl_sysdep_start+0x1b8>
    e988:	e5923004 	ldr	r3, [r2, #4]
    e98c:	e581300c 	str	r3, [r1, #12]
    e990:	ea000007 	b	e9b4 <_dl_sysdep_start+0x1b8>
    e994:	e5923004 	ldr	r3, [r2, #4]
    e998:	e581303c 	str	r3, [r1, #60]
    e99c:	ea000004 	b	e9b4 <_dl_sysdep_start+0x1b8>
    e9a0:	e5923004 	ldr	r3, [r2, #4]
    e9a4:	e581301c 	str	r3, [r1, #28]
    e9a8:	ea000001 	b	e9b4 <_dl_sysdep_start+0x1b8>
    e9ac:	e5923004 	ldr	r3, [r2, #4]
    e9b0:	e5813034 	str	r3, [r1, #52]
    e9b4:	e5b23008 	ldr	r3, [r2, #8]!
    e9b8:	e3530000 	cmp	r3, #0	; 0x0
    e9bc:	1affffc1 	bne	e8c8 <_dl_sysdep_start+0xcc>
    e9c0:	e28d4f65 	add	r4, sp, #404	; 0x194
    e9c4:	e28d000c 	add	r0, sp, #12	; 0xc
    e9c8:	eb0008c8 	bl	10cf0 <__uname>
    e9cc:	e3500000 	cmp	r0, #0	; 0x0
    e9d0:	028d4090 	addeq	r4, sp, #144	; 0x90
    e9d4:	02444002 	subeq	r4, r4, #2	; 0x2
    e9d8:	0a000018 	beq	ea40 <_dl_sysdep_start+0x244>
    e9dc:	e59f0244 	ldr	r0, [pc, #580]	; ec28 <.text+0xe058>
    e9e0:	e08a0000 	add	r0, sl, r0
    e9e4:	e3a01000 	mov	r1, #0	; 0x0
    e9e8:	eb000758 	bl	10750 <__libc_open>
    e9ec:	e1a06000 	mov	r6, r0
    e9f0:	e3700001 	cmn	r0, #1	; 0x1
    e9f4:	0a000004 	beq	ea0c <_dl_sysdep_start+0x210>
    e9f8:	e1a01004 	mov	r1, r4
    e9fc:	e3a02040 	mov	r2, #64	; 0x40
    ea00:	eb00076a 	bl	107b0 <__libc_read>
    ea04:	e2505000 	subs	r5, r0, #0	; 0x0
    ea08:	ca000005 	bgt	ea24 <_dl_sysdep_start+0x228>
    ea0c:	e3a00002 	mov	r0, #2	; 0x2
    ea10:	e59f1214 	ldr	r1, [pc, #532]	; ec2c <.text+0xe05c>
    ea14:	e08a1001 	add	r1, sl, r1
    ea18:	ebfff7b3 	bl	c8ec <_dl_dprintf>
    ea1c:	e3a00001 	mov	r0, #1	; 0x1
    ea20:	eb0008be 	bl	10d20 <_Exit>
    ea24:	e1a00006 	mov	r0, r6
    ea28:	eb000754 	bl	10780 <__close>
    ea2c:	e355003f 	cmp	r5, #63	; 0x3f
    ea30:	b1a02005 	movlt	r2, r5
    ea34:	a3a0203f 	movge	r2, #63	; 0x3f
    ea38:	e3a03000 	mov	r3, #0	; 0x0
    ea3c:	e7c23004 	strb	r3, [r2, r4]
    ea40:	e3a0c000 	mov	ip, #0	; 0x0
    ea44:	e1a0e00c 	mov	lr, ip
    ea48:	e1a01004 	mov	r1, r4
    ea4c:	e5d43000 	ldrb	r3, [r4]
    ea50:	e1a02003 	mov	r2, r3
    ea54:	e2433030 	sub	r3, r3, #48	; 0x30
    ea58:	e3530009 	cmp	r3, #9	; 0x9
    ea5c:	8a000015 	bhi	eab8 <_dl_sysdep_start+0x2bc>
    ea60:	e2420030 	sub	r0, r2, #48	; 0x30
    ea64:	e5f13001 	ldrb	r3, [r1, #1]!
    ea68:	e1a02003 	mov	r2, r3
    ea6c:	e2433030 	sub	r3, r3, #48	; 0x30
    ea70:	e3530009 	cmp	r3, #9	; 0x9
    ea74:	8a000006 	bhi	ea94 <_dl_sysdep_start+0x298>
    ea78:	e0803100 	add	r3, r0, r0, lsl #2
    ea7c:	e0823083 	add	r3, r2, r3, lsl #1
    ea80:	e2430030 	sub	r0, r3, #48	; 0x30
    ea84:	e5f12001 	ldrb	r2, [r1, #1]!
    ea88:	e2423030 	sub	r3, r2, #48	; 0x30
    ea8c:	e3530009 	cmp	r3, #9	; 0x9
    ea90:	9afffff8 	bls	ea78 <_dl_sysdep_start+0x27c>
    ea94:	e28ee001 	add	lr, lr, #1	; 0x1
    ea98:	e180c40c 	orr	ip, r0, ip, lsl #8
    ea9c:	e4d13001 	ldrb	r3, [r1], #1
    eaa0:	e353002e 	cmp	r3, #46	; 0x2e
    eaa4:	1a000003 	bne	eab8 <_dl_sysdep_start+0x2bc>
    eaa8:	e5d12000 	ldrb	r2, [r1]
    eaac:	e2423030 	sub	r3, r2, #48	; 0x30
    eab0:	e3530009 	cmp	r3, #9	; 0x9
    eab4:	9affffe9 	bls	ea60 <_dl_sysdep_start+0x264>
    eab8:	e35e0002 	cmp	lr, #2	; 0x2
    eabc:	d26e3003 	rsble	r3, lr, #3	; 0x3
    eac0:	d1a03183 	movle	r3, r3, lsl #3
    eac4:	d1a0c31c 	movle	ip, ip, lsl r3
    eac8:	e3a03b81 	mov	r3, #132096	; 0x20400
    eacc:	e2833002 	add	r3, r3, #2	; 0x2
    ead0:	e15c0003 	cmp	ip, r3
    ead4:	8a000005 	bhi	eaf0 <_dl_sysdep_start+0x2f4>
    ead8:	e3a00002 	mov	r0, #2	; 0x2
    eadc:	e59f114c 	ldr	r1, [pc, #332]	; ec30 <.text+0xe060>
    eae0:	e08a1001 	add	r1, sl, r1
    eae4:	ebfff780 	bl	c8ec <_dl_dprintf>
    eae8:	e3a00001 	mov	r0, #1	; 0x1
    eaec:	eb00088b 	bl	10d20 <_Exit>
    eaf0:	e59f3128 	ldr	r3, [pc, #296]	; ec20 <.text+0xe050>
    eaf4:	e79a3003 	ldr	r3, [sl, r3]
    eaf8:	e583c008 	str	ip, [r3, #8]
    eafc:	e59d3000 	ldr	r3, [sp]
    eb00:	e3730001 	cmn	r3, #1	; 0x1
    eb04:	11883009 	orrne	r3, r8, r9
    eb08:	159f2114 	ldrne	r2, [pc, #276]	; ec24 <.text+0xe054>
    eb0c:	179a2002 	ldrne	r2, [sl, r2]
    eb10:	15823000 	strne	r3, [r2]
    eb14:	e3a00000 	mov	r0, #0	; 0x0
    eb18:	eb000425 	bl	fbb4 <__brk>
    eb1c:	e59f30fc 	ldr	r3, [pc, #252]	; ec20 <.text+0xe050>
    eb20:	e79a3003 	ldr	r3, [sl, r3]
    eb24:	e5932004 	ldr	r2, [r3, #4]
    eb28:	e59f3104 	ldr	r3, [pc, #260]	; ec34 <.text+0xe064>
    eb2c:	e79a3003 	ldr	r3, [sl, r3]
    eb30:	e5931000 	ldr	r1, [r3]
    eb34:	e0820001 	add	r0, r2, r1
    eb38:	e2400001 	sub	r0, r0, #1	; 0x1
    eb3c:	e2622000 	rsb	r2, r2, #0	; 0x0
    eb40:	e0000002 	and	r0, r0, r2
    eb44:	e59f30ec 	ldr	r3, [pc, #236]	; ec38 <.text+0xe068>
    eb48:	e79a3003 	ldr	r3, [sl, r3]
    eb4c:	e1510003 	cmp	r1, r3
    eb50:	3a000001 	bcc	eb5c <_dl_sysdep_start+0x360>
    eb54:	e1510000 	cmp	r1, r0
    eb58:	3b000415 	blcc	fbb4 <__brk>
    eb5c:	e59f30bc 	ldr	r3, [pc, #188]	; ec20 <.text+0xe050>
    eb60:	e79a2003 	ldr	r2, [sl, r3]
    eb64:	e592300c 	ldr	r3, [r2, #12]
    eb68:	e3530000 	cmp	r3, #0	; 0x0
    eb6c:	0a000002 	beq	eb7c <_dl_sysdep_start+0x380>
    eb70:	e5d33000 	ldrb	r3, [r3]
    eb74:	e3530000 	cmp	r3, #0	; 0x0
    eb78:	0582300c 	streq	r3, [r2, #12]
    eb7c:	e59f309c 	ldr	r3, [pc, #156]	; ec20 <.text+0xe050>
    eb80:	e79a4003 	ldr	r4, [sl, r3]
    eb84:	e594000c 	ldr	r0, [r4, #12]
    eb88:	e3500000 	cmp	r0, #0	; 0x0
    eb8c:	0a000001 	beq	eb98 <_dl_sysdep_start+0x39c>
    eb90:	eb000922 	bl	11020 <strlen>
    eb94:	e5840010 	str	r0, [r4, #16]
    eb98:	e3a00000 	mov	r0, #0	; 0x0
    eb9c:	eb00041b 	bl	fc10 <__sbrk>
    eba0:	e1a02000 	mov	r2, r0
    eba4:	e59f308c 	ldr	r3, [pc, #140]	; ec38 <.text+0xe068>
    eba8:	e79a3003 	ldr	r3, [sl, r3]
    ebac:	e1500003 	cmp	r0, r3
    ebb0:	1a000006 	bne	ebd0 <_dl_sysdep_start+0x3d4>
    ebb4:	e59f3064 	ldr	r3, [pc, #100]	; ec20 <.text+0xe050>
    ebb8:	e79a3003 	ldr	r3, [sl, r3]
    ebbc:	e5933004 	ldr	r3, [r3, #4]
    ebc0:	e2430001 	sub	r0, r3, #1	; 0x1
    ebc4:	e0000002 	and	r0, r0, r2
    ebc8:	e0600003 	rsb	r0, r0, r3
    ebcc:	eb00040f 	bl	fc10 <__sbrk>
    ebd0:	e59f304c 	ldr	r3, [pc, #76]	; ec24 <.text+0xe054>
    ebd4:	e79a3003 	ldr	r3, [sl, r3]
    ebd8:	e5933000 	ldr	r3, [r3]
    ebdc:	e3530000 	cmp	r3, #0	; 0x0
    ebe0:	1b00046e 	blne	fda0 <__libc_check_standard_fds>
    ebe4:	e59d0004 	ldr	r0, [sp, #4]
    ebe8:	e1a01007 	mov	r1, r7
    ebec:	e28d2008 	add	r2, sp, #8	; 0x8
    ebf0:	e1a0e00f 	mov	lr, pc
    ebf4:	e1a0f00b 	mov	pc, fp
    ebf8:	e59d0008 	ldr	r0, [sp, #8]
    ebfc:	e28ddf75 	add	sp, sp, #468	; 0x1d4
    ec00:	e8bd8ff0 	ldmia	sp!, {r4, r5, r6, r7, r8, r9, sl, fp, pc}
    ec04:	0000ed84 	andeq	lr, r0, r4, lsl #27
    ec08:	00000230 	andeq	r0, r0, r0, lsr r2
    ec0c:	0000020c 	andeq	r0, r0, ip, lsl #4
    ec10:	000001d8 	ldreqd	r0, [r0], -r8
    ec14:	000001e4 	andeq	r0, r0, r4, ror #3
    ec18:	00000188 	andeq	r0, r0, r8, lsl #3
    ec1c:	000001cc 	andeq	r0, r0, ip, asr #3
    ec20:	00000210 	andeq	r0, r0, r0, lsl r2
    ec24:	00000200 	andeq	r0, r0, r0, lsl #4
    ec28:	ffff75d0 	swinv	0x00ff75d0
    ec2c:	ffff75ec 	swinv	0x00ff75ec
    ec30:	ffff7614 	swinv	0x00ff7614
    ec34:	000001f8 	streqd	r0, [r0], -r8
    ec38:	00000228 	andeq	r0, r0, r8, lsr #4

0000ec3c <_dl_sysdep_start_cleanup>:
    ec3c:	e1a0f00e 	mov	pc, lr

0000ec40 <_dl_show_auxv>:
    ec40:	e92d47f0 	stmdb	sp!, {r4, r5, r6, r7, r8, r9, sl, lr}
    ec44:	e24dd058 	sub	sp, sp, #88	; 0x58
    ec48:	e59fa1bc 	ldr	sl, [pc, #444]	; ee0c <.text+0xe23c>
    ec4c:	e08fa00a 	add	sl, pc, sl
    ec50:	e3a03000 	mov	r3, #0	; 0x0
    ec54:	e5cd3057 	strb	r3, [sp, #87]
    ec58:	e59f31b0 	ldr	r3, [pc, #432]	; ee10 <.text+0xe240>
    ec5c:	e79a3003 	ldr	r3, [sl, r3]
    ec60:	e5935000 	ldr	r5, [r3]
    ec64:	e5953000 	ldr	r3, [r5]
    ec68:	e3530000 	cmp	r3, #0	; 0x0
    ec6c:	0a000064 	beq	ee04 <_dl_show_auxv+0x1c4>
    ec70:	e59f319c 	ldr	r3, [pc, #412]	; ee14 <.text+0xe244>
    ec74:	e79a7003 	ldr	r7, [sl, r3]
    ec78:	e3a08000 	mov	r8, #0	; 0x0
    ec7c:	e5952000 	ldr	r2, [r5]
    ec80:	e2424002 	sub	r4, r2, #2	; 0x2
    ec84:	e3520001 	cmp	r2, #1	; 0x1
    ec88:	9a00005a 	bls	edf8 <_dl_show_auxv+0x1b8>
    ec8c:	e0843084 	add	r3, r4, r4, lsl #1
    ec90:	e0873183 	add	r3, r7, r3, lsl #3
    ec94:	e5933014 	ldr	r3, [r3, #20]
    ec98:	e3530004 	cmp	r3, #4	; 0x4
    ec9c:	0a000055 	beq	edf8 <_dl_show_auxv+0x1b8>
    eca0:	e3520010 	cmp	r2, #16	; 0x10
    eca4:	1a000019 	bne	ed10 <_dl_show_auxv+0xd0>
    eca8:	e5956004 	ldr	r6, [r5, #4]
    ecac:	e3a00001 	mov	r0, #1	; 0x1
    ecb0:	e59f1160 	ldr	r1, [pc, #352]	; ee18 <.text+0xe248>
    ecb4:	e08a1001 	add	r1, sl, r1
    ecb8:	ebfff70b 	bl	c8ec <_dl_dprintf>
    ecbc:	e3a04000 	mov	r4, #0	; 0x0
    ecc0:	e59f3154 	ldr	r3, [pc, #340]	; ee1c <.text+0xe24c>
    ecc4:	e79a9003 	ldr	r9, [sl, r3]
    ecc8:	e1a03456 	mov	r3, r6, asr r4
    eccc:	e3130001 	tst	r3, #1	; 0x1
    ecd0:	0a000006 	beq	ecf0 <_dl_show_auxv+0xb0>
    ecd4:	e0843104 	add	r3, r4, r4, lsl #2
    ecd8:	e2892044 	add	r2, r9, #68	; 0x44
    ecdc:	e3a00001 	mov	r0, #1	; 0x1
    ece0:	e59f1138 	ldr	r1, [pc, #312]	; ee20 <.text+0xe250>
    ece4:	e08a1001 	add	r1, sl, r1
    ece8:	e0822083 	add	r2, r2, r3, lsl #1
    ecec:	ebfff6fe 	bl	c8ec <_dl_dprintf>
    ecf0:	e2844001 	add	r4, r4, #1	; 0x1
    ecf4:	e3540007 	cmp	r4, #7	; 0x7
    ecf8:	dafffff2 	ble	ecc8 <_dl_show_auxv+0x88>
    ecfc:	e3a00001 	mov	r0, #1	; 0x1
    ed00:	e59f111c 	ldr	r1, [pc, #284]	; ee24 <.text+0xe254>
    ed04:	e08a1001 	add	r1, sl, r1
    ed08:	ebfff6f7 	bl	c8ec <_dl_dprintf>
    ed0c:	ea000039 	b	edf8 <_dl_show_auxv+0x1b8>
    ed10:	e354001f 	cmp	r4, #31	; 0x1f
    ed14:	8a000023 	bhi	eda8 <_dl_show_auxv+0x168>
    ed18:	e0843084 	add	r3, r4, r4, lsl #1
    ed1c:	e0873183 	add	r3, r7, r3, lsl #3
    ed20:	e5933014 	ldr	r3, [r3, #20]
    ed24:	e3530000 	cmp	r3, #0	; 0x0
    ed28:	0a00001e 	beq	eda8 <_dl_show_auxv+0x168>
    ed2c:	e595c004 	ldr	ip, [r5, #4]
    ed30:	e3530001 	cmp	r3, #1	; 0x1
    ed34:	1a000007 	bne	ed58 <_dl_show_auxv+0x118>
    ed38:	e58d8000 	str	r8, [sp]
    ed3c:	e1a0000c 	mov	r0, ip
    ed40:	e3a01000 	mov	r1, #0	; 0x0
    ed44:	e28d2057 	add	r2, sp, #87	; 0x57
    ed48:	e2833009 	add	r3, r3, #9	; 0x9
    ed4c:	eb000339 	bl	fa38 <_itoa>
    ed50:	e1a0c000 	mov	ip, r0
    ed54:	ea00000b 	b	ed88 <_dl_show_auxv+0x148>
    ed58:	e0843084 	add	r3, r4, r4, lsl #1
    ed5c:	e0873183 	add	r3, r7, r3, lsl #3
    ed60:	e5933014 	ldr	r3, [r3, #20]
    ed64:	e3530002 	cmp	r3, #2	; 0x2
    ed68:	1a000006 	bne	ed88 <_dl_show_auxv+0x148>
    ed6c:	e5950004 	ldr	r0, [r5, #4]
    ed70:	e58d8000 	str	r8, [sp]
    ed74:	e3a01000 	mov	r1, #0	; 0x0
    ed78:	e28d2057 	add	r2, sp, #87	; 0x57
    ed7c:	e283300e 	add	r3, r3, #14	; 0xe
    ed80:	eb00032c 	bl	fa38 <_itoa>
    ed84:	e1a0c000 	mov	ip, r0
    ed88:	e0842084 	add	r2, r4, r4, lsl #1
    ed8c:	e3a00001 	mov	r0, #1	; 0x1
    ed90:	e59f1090 	ldr	r1, [pc, #144]	; ee28 <.text+0xe258>
    ed94:	e08a1001 	add	r1, sl, r1
    ed98:	e0872182 	add	r2, r7, r2, lsl #3
    ed9c:	e1a0300c 	mov	r3, ip
    eda0:	ebfff6d1 	bl	c8ec <_dl_dprintf>
    eda4:	ea000013 	b	edf8 <_dl_show_auxv+0x1b8>
    eda8:	e5cd8028 	strb	r8, [sp, #40]
    edac:	e5950004 	ldr	r0, [r5, #4]
    edb0:	e58d8000 	str	r8, [sp]
    edb4:	e3a01000 	mov	r1, #0	; 0x0
    edb8:	e28d2014 	add	r2, sp, #20	; 0x14
    edbc:	e3a03010 	mov	r3, #16	; 0x10
    edc0:	eb00031c 	bl	fa38 <_itoa>
    edc4:	e1a04000 	mov	r4, r0
    edc8:	e5950000 	ldr	r0, [r5]
    edcc:	e58d8000 	str	r8, [sp]
    edd0:	e3a01000 	mov	r1, #0	; 0x0
    edd4:	e28d2057 	add	r2, sp, #87	; 0x57
    edd8:	e3a03010 	mov	r3, #16	; 0x10
    eddc:	eb000315 	bl	fa38 <_itoa>
    ede0:	e1a02000 	mov	r2, r0
    ede4:	e3a00001 	mov	r0, #1	; 0x1
    ede8:	e59f103c 	ldr	r1, [pc, #60]	; ee2c <.text+0xe25c>
    edec:	e08a1001 	add	r1, sl, r1
    edf0:	e1a03004 	mov	r3, r4
    edf4:	ebfff6bc 	bl	c8ec <_dl_dprintf>
    edf8:	e5b53008 	ldr	r3, [r5, #8]!
    edfc:	e3530000 	cmp	r3, #0	; 0x0
    ee00:	1affff9d 	bne	ec7c <_dl_show_auxv+0x3c>
    ee04:	e28dd058 	add	sp, sp, #88	; 0x58
    ee08:	e8bd87f0 	ldmia	sp!, {r4, r5, r6, r7, r8, r9, sl, pc}
    ee0c:	0000e940 	andeq	lr, r0, r0, asr #18
    ee10:	00000188 	andeq	r0, r0, r8, lsl #3
    ee14:	0000018c 	andeq	r0, r0, ip, lsl #3
    ee18:	ffff762c 	swinv	0x00ff762c
    ee1c:	00000210 	andeq	r0, r0, r0, lsl r2
    ee20:	ffff763c 	swinv	0x00ff763c
    ee24:	ffff6c8c 	swinv	0x00ff6c8c
    ee28:	ffff6e2c 	swinv	0x00ff6e2c
    ee2c:	ffff7640 	swinv	0x00ff7640

0000ee30 <_dl_important_hwcaps>:
    ee30:	e1a0c00d 	mov	ip, sp
    ee34:	e92ddff0 	stmdb	sp!, {r4, r5, r6, r7, r8, r9, sl, fp, ip, lr, pc}
    ee38:	e24cb004 	sub	fp, ip, #4	; 0x4
    ee3c:	e24dd018 	sub	sp, sp, #24	; 0x18
    ee40:	e59fa464 	ldr	sl, [pc, #1124]	; f2ac <.text+0xe6dc>
    ee44:	e08fa00a 	add	sl, pc, sl
    ee48:	e50b1030 	str	r1, [fp, #-48]
    ee4c:	e50b2034 	str	r2, [fp, #-52]
    ee50:	e50b3038 	str	r3, [fp, #-56]
    ee54:	e59f3454 	ldr	r3, [pc, #1108]	; f2b0 <.text+0xe6e0>
    ee58:	e79a3003 	ldr	r3, [sl, r3]
    ee5c:	e283103c 	add	r1, r3, #60	; 0x3c
    ee60:	e8910082 	ldmia	r1, {r1, r7}
    ee64:	e0017007 	and	r7, r1, r7
    ee68:	e50b002c 	str	r0, [fp, #-44]
    ee6c:	e2508000 	subs	r8, r0, #0	; 0x0
    ee70:	13a08001 	movne	r8, #1	; 0x1
    ee74:	e3a06000 	mov	r6, #0	; 0x0
    ee78:	e1570006 	cmp	r7, r6
    ee7c:	0a000008 	beq	eea4 <_dl_important_hwcaps+0x74>
    ee80:	e3a02001 	mov	r2, #1	; 0x1
    ee84:	e1a03637 	mov	r3, r7, lsr r6
    ee88:	e3130001 	tst	r3, #1	; 0x1
    ee8c:	12888001 	addne	r8, r8, #1	; 0x1
    ee90:	e2866001 	add	r6, r6, #1	; 0x1
    ee94:	e1a03612 	mov	r3, r2, lsl r6
    ee98:	e2633000 	rsb	r3, r3, #0	; 0x0
    ee9c:	e1130007 	tst	r3, r7
    eea0:	1afffff7 	bne	ee84 <_dl_important_hwcaps+0x54>
    eea4:	e3580000 	cmp	r8, #0	; 0x0
    eea8:	1a000009 	bne	eed4 <_dl_important_hwcaps+0xa4>
    eeac:	e3a00008 	mov	r0, #8	; 0x8
    eeb0:	ebffc73d 	bl	bac <GLIBC_2.0+0xbac>
    eeb4:	e2507000 	subs	r7, r0, #0	; 0x0
    eeb8:	0a000058 	beq	f020 <_dl_important_hwcaps+0x1f0>
    eebc:	e8870180 	stmia	r7, {r7, r8}
    eec0:	e3a03001 	mov	r3, #1	; 0x1
    eec4:	e51b2034 	ldr	r2, [fp, #-52]
    eec8:	e5823000 	str	r3, [r2]
    eecc:	e1a00007 	mov	r0, r7
    eed0:	ea0000f3 	b	f2a4 <_dl_important_hwcaps+0x474>
    eed4:	e1a03188 	mov	r3, r8, lsl #3
    eed8:	e2833004 	add	r3, r3, #4	; 0x4
    eedc:	e063d00d 	rsb	sp, r3, sp
    eee0:	e1a0900d 	mov	r9, sp
    eee4:	e3a06000 	mov	r6, #0	; 0x0
    eee8:	e1a05006 	mov	r5, r6
    eeec:	e1570006 	cmp	r7, r6
    eef0:	0a000014 	beq	ef48 <_dl_important_hwcaps+0x118>
    eef4:	e59f33b4 	ldr	r3, [pc, #948]	; f2b0 <.text+0xe6e0>
    eef8:	e79a3003 	ldr	r3, [sl, r3]
    eefc:	e50b303c 	str	r3, [fp, #-60]
    ef00:	e1a03637 	mov	r3, r7, lsr r6
    ef04:	e3130001 	tst	r3, #1	; 0x1
    ef08:	0a00000b 	beq	ef3c <_dl_important_hwcaps+0x10c>
    ef0c:	e1a02185 	mov	r2, r5, lsl #3
    ef10:	e0824009 	add	r4, r2, r9
    ef14:	e0863106 	add	r3, r6, r6, lsl #2
    ef18:	e51b103c 	ldr	r1, [fp, #-60]
    ef1c:	e2810044 	add	r0, r1, #68	; 0x44
    ef20:	e0800083 	add	r0, r0, r3, lsl #1
    ef24:	e7820009 	str	r0, [r2, r9]
    ef28:	eb00083c 	bl	11020 <strlen>
    ef2c:	e5840004 	str	r0, [r4, #4]
    ef30:	e3a03001 	mov	r3, #1	; 0x1
    ef34:	e0277613 	eor	r7, r7, r3, lsl r6
    ef38:	e0855003 	add	r5, r5, r3
    ef3c:	e2866001 	add	r6, r6, #1	; 0x1
    ef40:	e3570000 	cmp	r7, #0	; 0x0
    ef44:	1affffed 	bne	ef00 <_dl_important_hwcaps+0xd0>
    ef48:	e51b202c 	ldr	r2, [fp, #-44]
    ef4c:	e3520000 	cmp	r2, #0	; 0x0
    ef50:	0a000006 	beq	ef70 <_dl_important_hwcaps+0x140>
    ef54:	e1a03185 	mov	r3, r5, lsl #3
    ef58:	e0832009 	add	r2, r3, r9
    ef5c:	e51b002c 	ldr	r0, [fp, #-44]
    ef60:	e7830009 	str	r0, [r3, r9]
    ef64:	e51b1030 	ldr	r1, [fp, #-48]
    ef68:	e5821004 	str	r1, [r2, #4]
    ef6c:	e2855001 	add	r5, r5, #1	; 0x1
    ef70:	e1550008 	cmp	r5, r8
    ef74:	0a000008 	beq	ef9c <_dl_important_hwcaps+0x16c>
    ef78:	e59f0334 	ldr	r0, [pc, #820]	; f2b4 <.text+0xe6e4>
    ef7c:	e08a0000 	add	r0, sl, r0
    ef80:	e59f1330 	ldr	r1, [pc, #816]	; f2b8 <.text+0xe6e8>
    ef84:	e08a1001 	add	r1, sl, r1
    ef88:	e3a02e19 	mov	r2, #400	; 0x190
    ef8c:	e2822002 	add	r2, r2, #2	; 0x2
    ef90:	e59f3324 	ldr	r3, [pc, #804]	; f2bc <.text+0xe6ec>
    ef94:	e79a3003 	ldr	r3, [sl, r3]
    ef98:	eb000208 	bl	f7c0 <__GI___assert_fail>
    ef9c:	e3580001 	cmp	r8, #1	; 0x1
    efa0:	05993004 	ldreq	r3, [r9, #4]
    efa4:	02832001 	addeq	r2, r3, #1	; 0x1
    efa8:	0a000014 	beq	f000 <_dl_important_hwcaps+0x1d0>
    efac:	e0893188 	add	r3, r9, r8, lsl #3
    efb0:	e5992004 	ldr	r2, [r9, #4]
    efb4:	e5133004 	ldr	r3, [r3, #-4]
    efb8:	e0822003 	add	r2, r2, r3
    efbc:	e2822002 	add	r2, r2, #2	; 0x2
    efc0:	e2483002 	sub	r3, r8, #2	; 0x2
    efc4:	e1a02312 	mov	r2, r2, lsl r3
    efc8:	e3a06001 	mov	r6, #1	; 0x1
    efcc:	e0863006 	add	r3, r6, r6
    efd0:	e1a01003 	mov	r1, r3
    efd4:	e1530008 	cmp	r3, r8
    efd8:	2a000008 	bcs	f000 <_dl_important_hwcaps+0x1d0>
    efdc:	e2480003 	sub	r0, r8, #3	; 0x3
    efe0:	e0893186 	add	r3, r9, r6, lsl #3
    efe4:	e5933004 	ldr	r3, [r3, #4]
    efe8:	e2833001 	add	r3, r3, #1	; 0x1
    efec:	e0822013 	add	r2, r2, r3, lsl r0
    eff0:	e1a06001 	mov	r6, r1
    eff4:	e2811001 	add	r1, r1, #1	; 0x1
    eff8:	e1510008 	cmp	r1, r8
    effc:	3afffff7 	bcc	efe0 <_dl_important_hwcaps+0x1b0>
    f000:	e3a00001 	mov	r0, #1	; 0x1
    f004:	e1a00810 	mov	r0, r0, lsl r8
    f008:	e51b3034 	ldr	r3, [fp, #-52]
    f00c:	e5830000 	str	r0, [r3]
    f010:	e0820180 	add	r0, r2, r0, lsl #3
    f014:	ebffc6e4 	bl	bac <GLIBC_2.0+0xbac>
    f018:	e2507000 	subs	r7, r0, #0	; 0x0
    f01c:	1a000005 	bne	f038 <_dl_important_hwcaps+0x208>
    f020:	e3a0000c 	mov	r0, #12	; 0xc
    f024:	e3a01000 	mov	r1, #0	; 0x0
    f028:	e1a02001 	mov	r2, r1
    f02c:	e59f328c 	ldr	r3, [pc, #652]	; f2c0 <.text+0xe6f0>
    f030:	e08a3003 	add	r3, sl, r3
    f034:	ebfff1fc 	bl	b82c <_dl_signal_error>
    f038:	e3580001 	cmp	r8, #1	; 0x1
    f03c:	1a00001a 	bne	f0ac <_dl_important_hwcaps+0x27c>
    f040:	e51b0034 	ldr	r0, [fp, #-52]
    f044:	e5903000 	ldr	r3, [r0]
    f048:	e0873183 	add	r3, r7, r3, lsl #3
    f04c:	e5873000 	str	r3, [r7]
    f050:	e5993004 	ldr	r3, [r9, #4]
    f054:	e2833001 	add	r3, r3, #1	; 0x1
    f058:	e5873004 	str	r3, [r7, #4]
    f05c:	e5903000 	ldr	r3, [r0]
    f060:	e0873183 	add	r3, r7, r3, lsl #3
    f064:	e5873008 	str	r3, [r7, #8]
    f068:	e3a03000 	mov	r3, #0	; 0x0
    f06c:	e587300c 	str	r3, [r7, #12]
    f070:	e51b1034 	ldr	r1, [fp, #-52]
    f074:	e5910000 	ldr	r0, [r1]
    f078:	e0870180 	add	r0, r7, r0, lsl #3
    f07c:	e8990006 	ldmia	r9, {r1, r2}
    f080:	eb0009e6 	bl	11820 <__mempcpy>
    f084:	e3a0302f 	mov	r3, #47	; 0x2f
    f088:	e5c03000 	strb	r3, [r0]
    f08c:	e243302d 	sub	r3, r3, #45	; 0x2d
    f090:	e51b2034 	ldr	r2, [fp, #-52]
    f094:	e5823000 	str	r3, [r2]
    f098:	e5973004 	ldr	r3, [r7, #4]
    f09c:	e51b0038 	ldr	r0, [fp, #-56]
    f0a0:	e5803000 	str	r3, [r0]
    f0a4:	e1a00007 	mov	r0, r7
    f0a8:	ea00007d 	b	f2a4 <_dl_important_hwcaps+0x474>
    f0ac:	e51b1034 	ldr	r1, [fp, #-52]
    f0b0:	e5913000 	ldr	r3, [r1]
    f0b4:	e0870183 	add	r0, r7, r3, lsl #3
    f0b8:	e5870000 	str	r0, [r7]
    f0bc:	e5870008 	str	r0, [r7, #8]
    f0c0:	e3580002 	cmp	r8, #2	; 0x2
    f0c4:	1a00000d 	bne	f100 <_dl_important_hwcaps+0x2d0>
    f0c8:	e2891008 	add	r1, r9, #8	; 0x8
    f0cc:	e8910006 	ldmia	r1, {r1, r2}
    f0d0:	eb0009d2 	bl	11820 <__mempcpy>
    f0d4:	e59f31e8 	ldr	r3, [pc, #488]	; f2c4 <.text+0xe6f4>
    f0d8:	e08a4003 	add	r4, sl, r3
    f0dc:	e1a01004 	mov	r1, r4
    f0e0:	e3a02001 	mov	r2, #1	; 0x1
    f0e4:	eb0009cd 	bl	11820 <__mempcpy>
    f0e8:	e8990006 	ldmia	r9, {r1, r2}
    f0ec:	eb0009cb 	bl	11820 <__mempcpy>
    f0f0:	e1a01004 	mov	r1, r4
    f0f4:	e3a02001 	mov	r2, #1	; 0x1
    f0f8:	eb0009c8 	bl	11820 <__mempcpy>
    f0fc:	ea000024 	b	f194 <_dl_important_hwcaps+0x364>
    f100:	e2482001 	sub	r2, r8, #1	; 0x1
    f104:	e3a03001 	mov	r3, #1	; 0x1
    f108:	e1a06213 	mov	r6, r3, lsl r2
    f10c:	e59f21b0 	ldr	r2, [pc, #432]	; f2c4 <.text+0xe6f4>
    f110:	e50b2040 	str	r2, [fp, #-64]
    f114:	e2466002 	sub	r6, r6, #2	; 0x2
    f118:	e0893188 	add	r3, r9, r8, lsl #3
    f11c:	e9130006 	ldmdb	r3, {r1, r2}
    f120:	eb0009be 	bl	11820 <__mempcpy>
    f124:	e51b3040 	ldr	r3, [fp, #-64]
    f128:	e08a1003 	add	r1, sl, r3
    f12c:	e3a02001 	mov	r2, #1	; 0x1
    f130:	eb0009ba 	bl	11820 <__mempcpy>
    f134:	e2585002 	subs	r5, r8, #2	; 0x2
    f138:	0a00000d 	beq	f174 <_dl_important_hwcaps+0x344>
    f13c:	e3a04001 	mov	r4, #1	; 0x1
    f140:	e0161514 	ands	r1, r6, r4, lsl r5
    f144:	0a000008 	beq	f16c <_dl_important_hwcaps+0x33c>
    f148:	e1a03185 	mov	r3, r5, lsl #3
    f14c:	e0832009 	add	r2, r3, r9
    f150:	e7931009 	ldr	r1, [r3, r9]
    f154:	e5922004 	ldr	r2, [r2, #4]
    f158:	eb0009b0 	bl	11820 <__mempcpy>
    f15c:	e59f1160 	ldr	r1, [pc, #352]	; f2c4 <.text+0xe6f4>
    f160:	e08a1001 	add	r1, sl, r1
    f164:	e1a02004 	mov	r2, r4
    f168:	eb0009ac 	bl	11820 <__mempcpy>
    f16c:	e2555001 	subs	r5, r5, #1	; 0x1
    f170:	1afffff2 	bne	f140 <_dl_important_hwcaps+0x310>
    f174:	e8990006 	ldmia	r9, {r1, r2}
    f178:	eb0009a8 	bl	11820 <__mempcpy>
    f17c:	e51b2040 	ldr	r2, [fp, #-64]
    f180:	e08a1002 	add	r1, sl, r2
    f184:	e3a02001 	mov	r2, #1	; 0x1
    f188:	eb0009a4 	bl	11820 <__mempcpy>
    f18c:	e3560000 	cmp	r6, #0	; 0x0
    f190:	1affffdf 	bne	f114 <_dl_important_hwcaps+0x2e4>
    f194:	e3a06000 	mov	r6, #0	; 0x0
    f198:	e3a03001 	mov	r3, #1	; 0x1
    f19c:	e1a02003 	mov	r2, r3
    f1a0:	e1b03813 	movs	r3, r3, lsl r8
    f1a4:	0a000006 	beq	f1c4 <_dl_important_hwcaps+0x394>
    f1a8:	e1a01006 	mov	r1, r6
    f1ac:	e1a02812 	mov	r2, r2, lsl r8
    f1b0:	e0873186 	add	r3, r7, r6, lsl #3
    f1b4:	e5831004 	str	r1, [r3, #4]
    f1b8:	e2866001 	add	r6, r6, #1	; 0x1
    f1bc:	e1520006 	cmp	r2, r6
    f1c0:	8afffffa 	bhi	f1b0 <_dl_important_hwcaps+0x380>
    f1c4:	e1a06008 	mov	r6, r8
    f1c8:	e3a0e001 	mov	lr, #1	; 0x1
    f1cc:	e2466001 	sub	r6, r6, #1	; 0x1
    f1d0:	e1a0061e 	mov	r0, lr, lsl r6
    f1d4:	e1a01007 	mov	r1, r7
    f1d8:	e1b0581e 	movs	r5, lr, lsl r8
    f1dc:	0a00000a 	beq	f20c <_dl_important_hwcaps+0x3dc>
    f1e0:	e089c186 	add	ip, r9, r6, lsl #3
    f1e4:	e2455001 	sub	r5, r5, #1	; 0x1
    f1e8:	e1150000 	tst	r5, r0
    f1ec:	15913004 	ldrne	r3, [r1, #4]
    f1f0:	159c2004 	ldrne	r2, [ip, #4]
    f1f4:	10833002 	addne	r3, r3, r2
    f1f8:	12833001 	addne	r3, r3, #1	; 0x1
    f1fc:	15813004 	strne	r3, [r1, #4]
    f200:	e2811008 	add	r1, r1, #8	; 0x8
    f204:	e3550000 	cmp	r5, #0	; 0x0
    f208:	1afffff5 	bne	f1e4 <_dl_important_hwcaps+0x3b4>
    f20c:	e3560000 	cmp	r6, #0	; 0x0
    f210:	1affffed 	bne	f1cc <_dl_important_hwcaps+0x39c>
    f214:	e3a02001 	mov	r2, #1	; 0x1
    f218:	e1a06812 	mov	r6, r2, lsl r8
    f21c:	e2466002 	sub	r6, r6, #2	; 0x2
    f220:	e2871010 	add	r1, r7, #16	; 0x10
    f224:	e2483001 	sub	r3, r8, #1	; 0x1
    f228:	e1560312 	cmp	r6, r2, lsl r3
    f22c:	0a00000d 	beq	f268 <_dl_important_hwcaps+0x438>
    f230:	e2482001 	sub	r2, r8, #1	; 0x1
    f234:	e3a03001 	mov	r3, #1	; 0x1
    f238:	e1a02213 	mov	r2, r3, lsl r2
    f23c:	e2466001 	sub	r6, r6, #1	; 0x1
    f240:	e3160001 	tst	r6, #1	; 0x1
    f244:	12410010 	subne	r0, r1, #16	; 0x10
    f248:	18900009 	ldmneia	r0, {r0, r3}
    f24c:	10803003 	addne	r3, r0, r3
    f250:	15813000 	strne	r3, [r1]
    f254:	05113008 	ldreq	r3, [r1, #-8]
    f258:	05813000 	streq	r3, [r1]
    f25c:	e2811008 	add	r1, r1, #8	; 0x8
    f260:	e1520006 	cmp	r2, r6
    f264:	1afffff4 	bne	f23c <_dl_important_hwcaps+0x40c>
    f268:	e2482001 	sub	r2, r8, #1	; 0x1
    f26c:	e3e03007 	mvn	r3, #7	; 0x7
    f270:	e1a03213 	mov	r3, r3, lsl r2
    f274:	e0892188 	add	r2, r9, r8, lsl #3
    f278:	e7933001 	ldr	r3, [r3, r1]
    f27c:	e5122004 	ldr	r2, [r2, #-4]
    f280:	e0833002 	add	r3, r3, r2
    f284:	e2833001 	add	r3, r3, #1	; 0x1
    f288:	e4813008 	str	r3, [r1], #8
    f28c:	e2566001 	subs	r6, r6, #1	; 0x1
    f290:	1afffff4 	bne	f268 <_dl_important_hwcaps+0x438>
    f294:	e5973004 	ldr	r3, [r7, #4]
    f298:	e51b1038 	ldr	r1, [fp, #-56]
    f29c:	e5813000 	str	r3, [r1]
    f2a0:	e1a00007 	mov	r0, r7
    f2a4:	e24bd028 	sub	sp, fp, #40	; 0x28
    f2a8:	e89daff0 	ldmia	sp, {r4, r5, r6, r7, r8, r9, sl, fp, sp, pc}
    f2ac:	0000e748 	andeq	lr, r0, r8, asr #14
    f2b0:	00000210 	andeq	r0, r0, r0, lsl r2
    f2b4:	ffff7658 	swinv	0x00ff7658
    f2b8:	ffff7664 	swinv	0x00ff7664
    f2bc:	00000190 	muleq	r0, r0, r1
    f2c0:	ffff7684 	swinv	0x00ff7684
    f2c4:	ffff75cc 	swinv	0x00ff75cc

0000f2c8 <_dl_next_ld_env_entry>:
    f2c8:	e5902000 	ldr	r2, [r0]
    f2cc:	e3a0c000 	mov	ip, #0	; 0x0
    f2d0:	e5923000 	ldr	r3, [r2]
    f2d4:	e153000c 	cmp	r3, ip
    f2d8:	0a00000f 	beq	f31c <_dl_next_ld_env_entry+0x54>
    f2dc:	e5921000 	ldr	r1, [r2]
    f2e0:	e5d13000 	ldrb	r3, [r1]
    f2e4:	e353004c 	cmp	r3, #76	; 0x4c
    f2e8:	1a000008 	bne	f310 <_dl_next_ld_env_entry+0x48>
    f2ec:	e5d13001 	ldrb	r3, [r1, #1]
    f2f0:	e3530044 	cmp	r3, #68	; 0x44
    f2f4:	1a000005 	bne	f310 <_dl_next_ld_env_entry+0x48>
    f2f8:	e5d13002 	ldrb	r3, [r1, #2]
    f2fc:	e353005f 	cmp	r3, #95	; 0x5f
    f300:	0281c003 	addeq	ip, r1, #3	; 0x3
    f304:	02822004 	addeq	r2, r2, #4	; 0x4
    f308:	05802000 	streq	r2, [r0]
    f30c:	0a000002 	beq	f31c <_dl_next_ld_env_entry+0x54>
    f310:	e5b23004 	ldr	r3, [r2, #4]!
    f314:	e3530000 	cmp	r3, #0	; 0x0
    f318:	1affffef 	bne	f2dc <_dl_next_ld_env_entry+0x14>
    f31c:	e1a0000c 	mov	r0, ip
    f320:	e1a0f00e 	mov	pc, lr

0000f324 <unsetenv>:
    f324:	e92d4400 	stmdb	sp!, {sl, lr}
    f328:	e59fa0a4 	ldr	sl, [pc, #164]	; f3d4 <.text+0xe804>
    f32c:	e08fa00a 	add	sl, pc, sl
    f330:	e59f30a0 	ldr	r3, [pc, #160]	; f3d8 <.text+0xe808>
    f334:	e79a3003 	ldr	r3, [sl, r3]
    f338:	e593c000 	ldr	ip, [r3]
    f33c:	e59c3000 	ldr	r3, [ip]
    f340:	e3530000 	cmp	r3, #0	; 0x0
    f344:	0a000020 	beq	f3cc <unsetenv+0xa8>
    f348:	e3a01000 	mov	r1, #0	; 0x0
    f34c:	e59c3000 	ldr	r3, [ip]
    f350:	e1a0e003 	mov	lr, r3
    f354:	e7d32001 	ldrb	r2, [r3, r1]
    f358:	e7d03001 	ldrb	r3, [r0, r1]
    f35c:	e1520003 	cmp	r2, r3
    f360:	1a000008 	bne	f388 <unsetenv+0x64>
    f364:	e1520001 	cmp	r2, r1
    f368:	0a000006 	beq	f388 <unsetenv+0x64>
    f36c:	e2811001 	add	r1, r1, #1	; 0x1
    f370:	e7de2001 	ldrb	r2, [lr, r1]
    f374:	e7d03001 	ldrb	r3, [r0, r1]
    f378:	e1520003 	cmp	r2, r3
    f37c:	1a000001 	bne	f388 <unsetenv+0x64>
    f380:	e3520000 	cmp	r2, #0	; 0x0
    f384:	1afffff8 	bne	f36c <unsetenv+0x48>
    f388:	e7d03001 	ldrb	r3, [r0, r1]
    f38c:	e3530000 	cmp	r3, #0	; 0x0
    f390:	1a000009 	bne	f3bc <unsetenv+0x98>
    f394:	e59c3000 	ldr	r3, [ip]
    f398:	e7d33001 	ldrb	r3, [r3, r1]
    f39c:	e353003d 	cmp	r3, #61	; 0x3d
    f3a0:	1a000005 	bne	f3bc <unsetenv+0x98>
    f3a4:	e1a0200c 	mov	r2, ip
    f3a8:	e5923004 	ldr	r3, [r2, #4]
    f3ac:	e4823004 	str	r3, [r2], #4
    f3b0:	e3530000 	cmp	r3, #0	; 0x0
    f3b4:	1afffffb 	bne	f3a8 <unsetenv+0x84>
    f3b8:	ea000000 	b	f3c0 <unsetenv+0x9c>
    f3bc:	e28cc004 	add	ip, ip, #4	; 0x4
    f3c0:	e59c3000 	ldr	r3, [ip]
    f3c4:	e3530000 	cmp	r3, #0	; 0x0
    f3c8:	1affffde 	bne	f348 <unsetenv+0x24>
    f3cc:	e3a00000 	mov	r0, #0	; 0x0
    f3d0:	e8bd8400 	ldmia	sp!, {sl, pc}
    f3d4:	0000e260 	andeq	lr, r0, r0, ror #4
    f3d8:	00000224 	andeq	r0, r0, r4, lsr #4

0000f3dc <__libc_memalign>:
    f3dc:	e92d4430 	stmdb	sp!, {r4, r5, sl, lr}
    f3e0:	e24dd008 	sub	sp, sp, #8	; 0x8
    f3e4:	e59fa13c 	ldr	sl, [pc, #316]	; f528 <.text+0xe958>
    f3e8:	e08fa00a 	add	sl, pc, sl
    f3ec:	e1a05001 	mov	r5, r1
    f3f0:	e59f3134 	ldr	r3, [pc, #308]	; f52c <.text+0xe95c>
    f3f4:	e79a1003 	ldr	r1, [sl, r3]
    f3f8:	e5913000 	ldr	r3, [r1]
    f3fc:	e3530000 	cmp	r3, #0	; 0x0
    f400:	1a00000c 	bne	f438 <__libc_memalign+0x5c>
    f404:	e59f3124 	ldr	r3, [pc, #292]	; f530 <.text+0xe960>
    f408:	e79a2003 	ldr	r2, [sl, r3]
    f40c:	e59f3120 	ldr	r3, [pc, #288]	; f534 <.text+0xe964>
    f410:	e79a3003 	ldr	r3, [sl, r3]
    f414:	e5832000 	str	r2, [r3]
    f418:	e59f3118 	ldr	r3, [pc, #280]	; f538 <.text+0xe968>
    f41c:	e79a3003 	ldr	r3, [sl, r3]
    f420:	e5933004 	ldr	r3, [r3, #4]
    f424:	e0832002 	add	r2, r3, r2
    f428:	e2422001 	sub	r2, r2, #1	; 0x1
    f42c:	e2633000 	rsb	r3, r3, #0	; 0x0
    f430:	e0022003 	and	r2, r2, r3
    f434:	e5812000 	str	r2, [r1]
    f438:	e59f30f4 	ldr	r3, [pc, #244]	; f534 <.text+0xe964>
    f43c:	e79a1003 	ldr	r1, [sl, r3]
    f440:	e5913000 	ldr	r3, [r1]
    f444:	e0803003 	add	r3, r0, r3
    f448:	e2433001 	sub	r3, r3, #1	; 0x1
    f44c:	e2602000 	rsb	r2, r0, #0	; 0x0
    f450:	e0033002 	and	r3, r3, r2
    f454:	e5813000 	str	r3, [r1]
    f458:	e0853003 	add	r3, r5, r3
    f45c:	e59f20c8 	ldr	r2, [pc, #200]	; f52c <.text+0xe95c>
    f460:	e79a2002 	ldr	r2, [sl, r2]
    f464:	e5922000 	ldr	r2, [r2]
    f468:	e1530002 	cmp	r3, r2
    f46c:	3a000023 	bcc	f500 <__libc_memalign+0x124>
    f470:	e59f30c0 	ldr	r3, [pc, #192]	; f538 <.text+0xe968>
    f474:	e79a3003 	ldr	r3, [sl, r3]
    f478:	e5933004 	ldr	r3, [r3, #4]
    f47c:	e0854003 	add	r4, r5, r3
    f480:	e2444001 	sub	r4, r4, #1	; 0x1
    f484:	e2633000 	rsb	r3, r3, #0	; 0x0
    f488:	e0044003 	and	r4, r4, r3
    f48c:	e3e03000 	mvn	r3, #0	; 0x0
    f490:	e58d3000 	str	r3, [sp]
    f494:	e3a00000 	mov	r0, #0	; 0x0
    f498:	e58d0004 	str	r0, [sp, #4]
    f49c:	e1a01004 	mov	r1, r4
    f4a0:	e3a02003 	mov	r2, #3	; 0x3
    f4a4:	e2833023 	add	r3, r3, #35	; 0x23
    f4a8:	eb0005e0 	bl	10c30 <__mmap>
    f4ac:	e3700001 	cmn	r0, #1	; 0x1
    f4b0:	1a000007 	bne	f4d4 <__libc_memalign+0xf8>
    f4b4:	e59f0080 	ldr	r0, [pc, #128]	; f53c <.text+0xe96c>
    f4b8:	e08a0000 	add	r0, sl, r0
    f4bc:	e59f107c 	ldr	r1, [pc, #124]	; f540 <.text+0xe970>
    f4c0:	e08a1001 	add	r1, sl, r1
    f4c4:	e3a02054 	mov	r2, #84	; 0x54
    f4c8:	e59f3074 	ldr	r3, [pc, #116]	; f544 <.text+0xe974>
    f4cc:	e79a3003 	ldr	r3, [sl, r3]
    f4d0:	eb0000ba 	bl	f7c0 <__GI___assert_fail>
    f4d4:	e59f3050 	ldr	r3, [pc, #80]	; f52c <.text+0xe95c>
    f4d8:	e79a3003 	ldr	r3, [sl, r3]
    f4dc:	e5933000 	ldr	r3, [r3]
    f4e0:	e1500003 	cmp	r0, r3
    f4e4:	159f3048 	ldrne	r3, [pc, #72]	; f534 <.text+0xe964>
    f4e8:	179a3003 	ldrne	r3, [sl, r3]
    f4ec:	15830000 	strne	r0, [r3]
    f4f0:	e0803004 	add	r3, r0, r4
    f4f4:	e59f2030 	ldr	r2, [pc, #48]	; f52c <.text+0xe95c>
    f4f8:	e79a2002 	ldr	r2, [sl, r2]
    f4fc:	e5823000 	str	r3, [r2]
    f500:	e59f302c 	ldr	r3, [pc, #44]	; f534 <.text+0xe964>
    f504:	e79a2003 	ldr	r2, [sl, r3]
    f508:	e5920000 	ldr	r0, [r2]
    f50c:	e59f3034 	ldr	r3, [pc, #52]	; f548 <.text+0xe978>
    f510:	e79a3003 	ldr	r3, [sl, r3]
    f514:	e5830000 	str	r0, [r3]
    f518:	e0853000 	add	r3, r5, r0
    f51c:	e5823000 	str	r3, [r2]
    f520:	e28dd008 	add	sp, sp, #8	; 0x8
    f524:	e8bd8430 	ldmia	sp!, {r4, r5, sl, pc}
    f528:	0000e1a4 	andeq	lr, r0, r4, lsr #3
    f52c:	00000198 	muleq	r0, r8, r1
    f530:	00000228 	andeq	r0, r0, r8, lsr #4
    f534:	0000019c 	muleq	r0, ip, r1
    f538:	00000210 	andeq	r0, r0, r0, lsl r2
    f53c:	ffff76ec 	swinv	0x00ff76ec
    f540:	ffff7704 	swinv	0x00ff7704
    f544:	00000194 	muleq	r0, r4, r1
    f548:	000001a0 	andeq	r0, r0, r0, lsr #3

0000f54c <malloc>:
    f54c:	e92d4400 	stmdb	sp!, {sl, lr}
    f550:	e59fa018 	ldr	sl, [pc, #24]	; f570 <.text+0xe9a0>
    f554:	e08fa00a 	add	sl, pc, sl
    f558:	e1a01000 	mov	r1, r0
    f55c:	e3a00008 	mov	r0, #8	; 0x8
    f560:	e59f300c 	ldr	r3, [pc, #12]	; f574 <.text+0xe9a4>
    f564:	e1a0e00f 	mov	lr, pc
    f568:	e79af003 	ldr	pc, [sl, r3]
    f56c:	e8bd8400 	ldmia	sp!, {sl, pc}
    f570:	0000e038 	andeq	lr, r0, r8, lsr r0
    f574:	000001f4 	streqd	r0, [r0], -r4

0000f578 <calloc>:
    f578:	e52de004 	str	lr, [sp, #-4]!
    f57c:	e0000091 	mul	r0, r1, r0
    f580:	ebffc589 	bl	bac <GLIBC_2.0+0xbac>
    f584:	e49df004 	ldr	pc, [sp], #4

0000f588 <free>:
    f588:	e92d4430 	stmdb	sp!, {r4, r5, sl, lr}
    f58c:	e59fa038 	ldr	sl, [pc, #56]	; f5cc <.text+0xe9fc>
    f590:	e08fa00a 	add	sl, pc, sl
    f594:	e59f3034 	ldr	r3, [pc, #52]	; f5d0 <.text+0xea00>
    f598:	e79a5003 	ldr	r5, [sl, r3]
    f59c:	e5953000 	ldr	r3, [r5]
    f5a0:	e1500003 	cmp	r0, r3
    f5a4:	18bd8430 	ldmneia	sp!, {r4, r5, sl, pc}
    f5a8:	e59f3024 	ldr	r3, [pc, #36]	; f5d4 <.text+0xea04>
    f5ac:	e79a4003 	ldr	r4, [sl, r3]
    f5b0:	e5942000 	ldr	r2, [r4]
    f5b4:	e3a01000 	mov	r1, #0	; 0x0
    f5b8:	e0602002 	rsb	r2, r0, r2
    f5bc:	eb000873 	bl	11790 <memset>
    f5c0:	e5953000 	ldr	r3, [r5]
    f5c4:	e5843000 	str	r3, [r4]
    f5c8:	e8bd8430 	ldmia	sp!, {r4, r5, sl, pc}
    f5cc:	0000dffc 	streqd	sp, [r0], -ip
    f5d0:	000001a0 	andeq	r0, r0, r0, lsr #3
    f5d4:	0000019c 	muleq	r0, ip, r1

0000f5d8 <realloc>:
    f5d8:	e92d4410 	stmdb	sp!, {r4, sl, lr}
    f5dc:	e59fa090 	ldr	sl, [pc, #144]	; f674 <.text+0xeaa4>
    f5e0:	e08fa00a 	add	sl, pc, sl
    f5e4:	e2504000 	subs	r4, r0, #0	; 0x0
    f5e8:	1a000002 	bne	f5f8 <realloc+0x20>
    f5ec:	e1a00001 	mov	r0, r1
    f5f0:	ebffc56d 	bl	bac <GLIBC_2.0+0xbac>
    f5f4:	e8bd8410 	ldmia	sp!, {r4, sl, pc}
    f5f8:	e59f3078 	ldr	r3, [pc, #120]	; f678 <.text+0xeaa8>
    f5fc:	e79a3003 	ldr	r3, [sl, r3]
    f600:	e5933000 	ldr	r3, [r3]
    f604:	e1540003 	cmp	r4, r3
    f608:	0a000007 	beq	f62c <realloc+0x54>
    f60c:	e59f0068 	ldr	r0, [pc, #104]	; f67c <.text+0xeaac>
    f610:	e08a0000 	add	r0, sl, r0
    f614:	e59f1064 	ldr	r1, [pc, #100]	; f680 <.text+0xeab0>
    f618:	e08a1001 	add	r1, sl, r1
    f61c:	e3a02086 	mov	r2, #134	; 0x86
    f620:	e59f305c 	ldr	r3, [pc, #92]	; f684 <.text+0xeab4>
    f624:	e79a3003 	ldr	r3, [sl, r3]
    f628:	eb000064 	bl	f7c0 <__GI___assert_fail>
    f62c:	e59f3044 	ldr	r3, [pc, #68]	; f678 <.text+0xeaa8>
    f630:	e79a3003 	ldr	r3, [sl, r3]
    f634:	e5932000 	ldr	r2, [r3]
    f638:	e59f3048 	ldr	r3, [pc, #72]	; f688 <.text+0xeab8>
    f63c:	e79a3003 	ldr	r3, [sl, r3]
    f640:	e5832000 	str	r2, [r3]
    f644:	e1a00001 	mov	r0, r1
    f648:	ebffc557 	bl	bac <GLIBC_2.0+0xbac>
    f64c:	e1500004 	cmp	r0, r4
    f650:	08bd8410 	ldmeqia	sp!, {r4, sl, pc}
    f654:	e59f0030 	ldr	r0, [pc, #48]	; f68c <.text+0xeabc>
    f658:	e08a0000 	add	r0, sl, r0
    f65c:	e59f101c 	ldr	r1, [pc, #28]	; f680 <.text+0xeab0>
    f660:	e08a1001 	add	r1, sl, r1
    f664:	e3a02089 	mov	r2, #137	; 0x89
    f668:	e59f3014 	ldr	r3, [pc, #20]	; f684 <.text+0xeab4>
    f66c:	e79a3003 	ldr	r3, [sl, r3]
    f670:	eb000052 	bl	f7c0 <__GI___assert_fail>
    f674:	0000dfac 	andeq	sp, r0, ip, lsr #31
    f678:	000001a0 	andeq	r0, r0, r0, lsr #3
    f67c:	ffff7714 	swinv	0x00ff7714
    f680:	ffff7704 	swinv	0x00ff7704
    f684:	000001a4 	andeq	r0, r0, r4, lsr #3
    f688:	0000019c 	muleq	r0, ip, r1
    f68c:	ffff772c 	swinv	0x00ff772c

0000f690 <__sigjmp_save>:
    f690:	e3a03000 	mov	r3, #0	; 0x0
    f694:	e5803028 	str	r3, [r0, #40]
    f698:	e1a00003 	mov	r0, r3
    f69c:	e1a0f00e 	mov	pc, lr

0000f6a0 <longjmp>:
    f6a0:	eb0005ba 	bl	10d90 <__longjmp>

0000f6a4 <__strerror_r>:
    f6a4:	e92d4400 	stmdb	sp!, {sl, lr}
    f6a8:	e24dd004 	sub	sp, sp, #4	; 0x4
    f6ac:	e59fa0ec 	ldr	sl, [pc, #236]	; f7a0 <.text+0xebd0>
    f6b0:	e08fa00a 	add	sl, pc, sl
    f6b4:	e2403001 	sub	r3, r0, #1	; 0x1
    f6b8:	e3530015 	cmp	r3, #21	; 0x15
    f6bc:	908ff103 	addls	pc, pc, r3, lsl #2
    f6c0:	ea000027 	b	f764 <__strerror_r+0xc0>
    f6c4:	ea00001d 	b	f740 <__strerror_r+0x9c>
    f6c8:	ea000019 	b	f734 <__strerror_r+0x90>
    f6cc:	ea000024 	b	f764 <__strerror_r+0xc0>
    f6d0:	ea000023 	b	f764 <__strerror_r+0xc0>
    f6d4:	ea00001c 	b	f74c <__strerror_r+0xa8>
    f6d8:	ea000021 	b	f764 <__strerror_r+0xc0>
    f6dc:	ea000020 	b	f764 <__strerror_r+0xc0>
    f6e0:	ea00001f 	b	f764 <__strerror_r+0xc0>
    f6e4:	ea00001e 	b	f764 <__strerror_r+0xc0>
    f6e8:	ea00001d 	b	f764 <__strerror_r+0xc0>
    f6ec:	ea00001c 	b	f764 <__strerror_r+0xc0>
    f6f0:	ea000009 	b	f71c <__strerror_r+0x78>
    f6f4:	ea000017 	b	f758 <__strerror_r+0xb4>
    f6f8:	ea000019 	b	f764 <__strerror_r+0xc0>
    f6fc:	ea000018 	b	f764 <__strerror_r+0xc0>
    f700:	ea000017 	b	f764 <__strerror_r+0xc0>
    f704:	ea000016 	b	f764 <__strerror_r+0xc0>
    f708:	ea000015 	b	f764 <__strerror_r+0xc0>
    f70c:	ea000014 	b	f764 <__strerror_r+0xc0>
    f710:	ea000013 	b	f764 <__strerror_r+0xc0>
    f714:	ea000012 	b	f764 <__strerror_r+0xc0>
    f718:	ea000002 	b	f728 <__strerror_r+0x84>
    f71c:	e59f3080 	ldr	r3, [pc, #128]	; f7a4 <.text+0xebd4>
    f720:	e08a0003 	add	r0, sl, r3
    f724:	ea00001b 	b	f798 <__strerror_r+0xf4>
    f728:	e59f3078 	ldr	r3, [pc, #120]	; f7a8 <.text+0xebd8>
    f72c:	e08a0003 	add	r0, sl, r3
    f730:	ea000018 	b	f798 <__strerror_r+0xf4>
    f734:	e59f3070 	ldr	r3, [pc, #112]	; f7ac <.text+0xebdc>
    f738:	e08a0003 	add	r0, sl, r3
    f73c:	ea000015 	b	f798 <__strerror_r+0xf4>
    f740:	e59f3068 	ldr	r3, [pc, #104]	; f7b0 <.text+0xebe0>
    f744:	e08a0003 	add	r0, sl, r3
    f748:	ea000012 	b	f798 <__strerror_r+0xf4>
    f74c:	e59f3060 	ldr	r3, [pc, #96]	; f7b4 <.text+0xebe4>
    f750:	e08a0003 	add	r0, sl, r3
    f754:	ea00000f 	b	f798 <__strerror_r+0xf4>
    f758:	e59f3058 	ldr	r3, [pc, #88]	; f7b8 <.text+0xebe8>
    f75c:	e08a0003 	add	r0, sl, r3
    f760:	ea00000c 	b	f798 <__strerror_r+0xf4>
    f764:	e0812002 	add	r2, r1, r2
    f768:	e3a03000 	mov	r3, #0	; 0x0
    f76c:	e5423001 	strb	r3, [r2, #-1]
    f770:	e58d3000 	str	r3, [sp]
    f774:	e1a01fc0 	mov	r1, r0, asr #31
    f778:	e2422001 	sub	r2, r2, #1	; 0x1
    f77c:	e283300a 	add	r3, r3, #10	; 0xa
    f780:	eb0000ac 	bl	fa38 <_itoa>
    f784:	e2400006 	sub	r0, r0, #6	; 0x6
    f788:	e59f102c 	ldr	r1, [pc, #44]	; f7bc <.text+0xebec>
    f78c:	e08a1001 	add	r1, sl, r1
    f790:	e3a02006 	mov	r2, #6	; 0x6
    f794:	eb00084e 	bl	118d4 <memcpy>
    f798:	e28dd004 	add	sp, sp, #4	; 0x4
    f79c:	e8bd8400 	ldmia	sp!, {sl, pc}
    f7a0:	0000dedc 	ldreqd	sp, [r0], -ip
    f7a4:	ffff7738 	swinv	0x00ff7738
    f7a8:	ffff7750 	swinv	0x00ff7750
    f7ac:	ffff7764 	swinv	0x00ff7764
    f7b0:	ffff7780 	swinv	0x00ff7780
    f7b4:	ffff7798 	swinv	0x00ff7798
    f7b8:	ffff77ac 	swinv	0x00ff77ac
    f7bc:	ffff77c0 	swinv	0x00ff77c0

0000f7c0 <__GI___assert_fail>:
    f7c0:	e24dd00c 	sub	sp, sp, #12	; 0xc
    f7c4:	e59fa058 	ldr	sl, [pc, #88]	; f824 <.text+0xec54>
    f7c8:	e08fa00a 	add	sl, pc, sl
    f7cc:	e1a0c001 	mov	ip, r1
    f7d0:	e1a0e002 	mov	lr, r2
    f7d4:	e2532000 	subs	r2, r3, #0	; 0x0
    f7d8:	11a03002 	movne	r3, r2
    f7dc:	059f3044 	ldreq	r3, [pc, #68]	; f828 <.text+0xec58>
    f7e0:	008a3003 	addeq	r3, sl, r3
    f7e4:	e58d3000 	str	r3, [sp]
    f7e8:	e3520000 	cmp	r2, #0	; 0x0
    f7ec:	159f3038 	ldrne	r3, [pc, #56]	; f82c <.text+0xec5c>
    f7f0:	108a3003 	addne	r3, sl, r3
    f7f4:	059f302c 	ldreq	r3, [pc, #44]	; f828 <.text+0xec58>
    f7f8:	008a3003 	addeq	r3, sl, r3
    f7fc:	e58d3004 	str	r3, [sp, #4]
    f800:	e58d0008 	str	r0, [sp, #8]
    f804:	e3a00002 	mov	r0, #2	; 0x2
    f808:	e59f1020 	ldr	r1, [pc, #32]	; f830 <.text+0xec60>
    f80c:	e08a1001 	add	r1, sl, r1
    f810:	e1a0200c 	mov	r2, ip
    f814:	e1a0300e 	mov	r3, lr
    f818:	ebfff433 	bl	c8ec <_dl_dprintf>
    f81c:	e3a0007f 	mov	r0, #127	; 0x7f
    f820:	eb00053e 	bl	10d20 <_Exit>
    f824:	0000ddc4 	andeq	sp, r0, r4, asr #27
    f828:	ffff6010 	swinv	0x00ff6010
    f82c:	ffff7128 	swinv	0x00ff7128
    f830:	ffff76a4 	swinv	0x00ff76a4

0000f834 <__GI___assert_perror_fail>:
    f834:	e24ddf67 	sub	sp, sp, #412	; 0x19c
    f838:	e59fa070 	ldr	sl, [pc, #112]	; f8b0 <.text+0xece0>
    f83c:	e08fa00a 	add	sl, pc, sl
    f840:	e1a05001 	mov	r5, r1
    f844:	e1a06002 	mov	r6, r2
    f848:	e1a04003 	mov	r4, r3
    f84c:	e28d100c 	add	r1, sp, #12	; 0xc
    f850:	e3a02e19 	mov	r2, #400	; 0x190
    f854:	e59f3058 	ldr	r3, [pc, #88]	; f8b4 <.text+0xece4>
    f858:	e1a0e00f 	mov	lr, pc
    f85c:	e79af003 	ldr	pc, [sl, r3]
    f860:	e3540000 	cmp	r4, #0	; 0x0
    f864:	11a03004 	movne	r3, r4
    f868:	059f3048 	ldreq	r3, [pc, #72]	; f8b8 <.text+0xece8>
    f86c:	008a3003 	addeq	r3, sl, r3
    f870:	e58d3000 	str	r3, [sp]
    f874:	e3540000 	cmp	r4, #0	; 0x0
    f878:	159f303c 	ldrne	r3, [pc, #60]	; f8bc <.text+0xecec>
    f87c:	108a3003 	addne	r3, sl, r3
    f880:	059f3030 	ldreq	r3, [pc, #48]	; f8b8 <.text+0xece8>
    f884:	008a3003 	addeq	r3, sl, r3
    f888:	e58d3004 	str	r3, [sp, #4]
    f88c:	e58d0008 	str	r0, [sp, #8]
    f890:	e3a00002 	mov	r0, #2	; 0x2
    f894:	e59f1024 	ldr	r1, [pc, #36]	; f8c0 <.text+0xecf0>
    f898:	e08a1001 	add	r1, sl, r1
    f89c:	e1a02005 	mov	r2, r5
    f8a0:	e1a03006 	mov	r3, r6
    f8a4:	ebfff410 	bl	c8ec <_dl_dprintf>
    f8a8:	e3a0007f 	mov	r0, #127	; 0x7f
    f8ac:	eb00051b 	bl	10d20 <_Exit>
    f8b0:	0000dd50 	andeq	sp, r0, r0, asr sp
    f8b4:	000001d0 	ldreqd	r0, [r0], -r0
    f8b8:	ffff6010 	swinv	0x00ff6010
    f8bc:	ffff7128 	swinv	0x00ff7128
    f8c0:	ffff77c8 	swinv	0x00ff77c8

0000f8c4 <__strtoul_internal>:
    f8c4:	e92d4430 	stmdb	sp!, {r4, r5, sl, lr}
    f8c8:	e59fa150 	ldr	sl, [pc, #336]	; fa20 <.text+0xee50>
    f8cc:	e08fa00a 	add	sl, pc, sl
    f8d0:	e1a04001 	mov	r4, r1
    f8d4:	e3a01000 	mov	r1, #0	; 0x0
    f8d8:	e3a05001 	mov	r5, #1	; 0x1
    f8dc:	e5d03000 	ldrb	r3, [r0]
    f8e0:	e3530009 	cmp	r3, #9	; 0x9
    f8e4:	13530020 	cmpne	r3, #32	; 0x20
    f8e8:	1a000003 	bne	f8fc <__strtoul_internal+0x38>
    f8ec:	e5f03001 	ldrb	r3, [r0, #1]!
    f8f0:	e3530009 	cmp	r3, #9	; 0x9
    f8f4:	13530020 	cmpne	r3, #32	; 0x20
    f8f8:	0afffffb 	beq	f8ec <__strtoul_internal+0x28>
    f8fc:	e5d03000 	ldrb	r3, [r0]
    f900:	e353002d 	cmp	r3, #45	; 0x2d
    f904:	03e05000 	mvneq	r5, #0	; 0x0
    f908:	02800001 	addeq	r0, r0, #1	; 0x1
    f90c:	0a000002 	beq	f91c <__strtoul_internal+0x58>
    f910:	e5d03000 	ldrb	r3, [r0]
    f914:	e353002b 	cmp	r3, #43	; 0x2b
    f918:	02800001 	addeq	r0, r0, #1	; 0x1
    f91c:	e5d03000 	ldrb	r3, [r0]
    f920:	e2433030 	sub	r3, r3, #48	; 0x30
    f924:	e3530009 	cmp	r3, #9	; 0x9
    f928:	9a000003 	bls	f93c <__strtoul_internal+0x78>
    f92c:	e3540000 	cmp	r4, #0	; 0x0
    f930:	15840000 	strne	r0, [r4]
    f934:	e3a00000 	mov	r0, #0	; 0x0
    f938:	e8bd8430 	ldmia	sp!, {r4, r5, sl, pc}
    f93c:	e3520000 	cmp	r2, #0	; 0x0
    f940:	0a000008 	beq	f968 <__strtoul_internal+0xa4>
    f944:	e59f00d8 	ldr	r0, [pc, #216]	; fa24 <.text+0xee54>
    f948:	e08a0000 	add	r0, sl, r0
    f94c:	e59f10d4 	ldr	r1, [pc, #212]	; fa28 <.text+0xee58>
    f950:	e08a1001 	add	r1, sl, r1
    f954:	e3a02c01 	mov	r2, #256	; 0x100
    f958:	e2822001 	add	r2, r2, #1	; 0x1
    f95c:	e59f30c8 	ldr	r3, [pc, #200]	; fa2c <.text+0xee5c>
    f960:	e79a3003 	ldr	r3, [sl, r3]
    f964:	ebffff95 	bl	f7c0 <__GI___assert_fail>
    f968:	e3a0200a 	mov	r2, #10	; 0xa
    f96c:	e5d03000 	ldrb	r3, [r0]
    f970:	e3530030 	cmp	r3, #48	; 0x30
    f974:	1a000005 	bne	f990 <__strtoul_internal+0xcc>
    f978:	e5d03001 	ldrb	r3, [r0, #1]
    f97c:	e3530058 	cmp	r3, #88	; 0x58
    f980:	13530078 	cmpne	r3, #120	; 0x78
    f984:	02822006 	addeq	r2, r2, #6	; 0x6
    f988:	02800002 	addeq	r0, r0, #2	; 0x2
    f98c:	13a02008 	movne	r2, #8	; 0x8
    f990:	e5d03000 	ldrb	r3, [r0]
    f994:	e1a0c003 	mov	ip, r3
    f998:	e2433030 	sub	r3, r3, #48	; 0x30
    f99c:	e3530009 	cmp	r3, #9	; 0x9
    f9a0:	8a00001a 	bhi	fa10 <__strtoul_internal+0x14c>
    f9a4:	e3a0eb33 	mov	lr, #52224	; 0xcc00
    f9a8:	e28ee0cc 	add	lr, lr, #204	; 0xcc
    f9ac:	e18ee60e 	orr	lr, lr, lr, lsl #12
    f9b0:	e24cc030 	sub	ip, ip, #48	; 0x30
    f9b4:	e151000e 	cmp	r1, lr
    f9b8:	8a000007 	bhi	f9dc <__strtoul_internal+0x118>
    f9bc:	e59f306c 	ldr	r3, [pc, #108]	; fa30 <.text+0xee60>
    f9c0:	e1510003 	cmp	r1, r3
    f9c4:	13a03000 	movne	r3, #0	; 0x0
    f9c8:	03a03001 	moveq	r3, #1	; 0x1
    f9cc:	e35c0005 	cmp	ip, #5	; 0x5
    f9d0:	93a03000 	movls	r3, #0	; 0x0
    f9d4:	e3530000 	cmp	r3, #0	; 0x0
    f9d8:	0a000007 	beq	f9fc <__strtoul_internal+0x138>
    f9dc:	e3a03022 	mov	r3, #34	; 0x22
    f9e0:	e59f204c 	ldr	r2, [pc, #76]	; fa34 <.text+0xee64>
    f9e4:	e79a2002 	ldr	r2, [sl, r2]
    f9e8:	e5823000 	str	r3, [r2]
    f9ec:	e3540000 	cmp	r4, #0	; 0x0
    f9f0:	15840000 	strne	r0, [r4]
    f9f4:	e3e00000 	mvn	r0, #0	; 0x0
    f9f8:	e8bd8430 	ldmia	sp!, {r4, r5, sl, pc}
    f9fc:	e021c192 	mla	r1, r2, r1, ip
    fa00:	e5f0c001 	ldrb	ip, [r0, #1]!
    fa04:	e24c3030 	sub	r3, ip, #48	; 0x30
    fa08:	e3530009 	cmp	r3, #9	; 0x9
    fa0c:	9affffe7 	bls	f9b0 <__strtoul_internal+0xec>
    fa10:	e3540000 	cmp	r4, #0	; 0x0
    fa14:	15840000 	strne	r0, [r4]
    fa18:	e0000195 	mul	r0, r5, r1
    fa1c:	e8bd8430 	ldmia	sp!, {r4, r5, sl, pc}
    fa20:	0000dcc0 	andeq	sp, r0, r0, asr #25
    fa24:	ffff780c 	swinv	0x00ff780c
    fa28:	ffff7704 	swinv	0x00ff7704
    fa2c:	000001a8 	andeq	r0, r0, r8, lsr #3
    fa30:	19999999 	ldmneib	r9, {r0, r3, r4, r7, r8, fp, ip, pc}
    fa34:	00000238 	andeq	r0, r0, r8, lsr r2

0000fa38 <_itoa>:
    fa38:	e92d47f0 	stmdb	sp!, {r4, r5, r6, r7, r8, r9, sl, lr}
    fa3c:	e59fa094 	ldr	sl, [pc, #148]	; fad8 <.text+0xef08>
    fa40:	e08fa00a 	add	sl, pc, sl
    fa44:	e1a05001 	mov	r5, r1
    fa48:	e1a04000 	mov	r4, r0
    fa4c:	e1a08002 	mov	r8, r2
    fa50:	e1a02003 	mov	r2, r3
    fa54:	e59d3020 	ldr	r3, [sp, #32]
    fa58:	e3530000 	cmp	r3, #0	; 0x0
    fa5c:	0a000007 	beq	fa80 <_itoa+0x48>
    fa60:	e59f0074 	ldr	r0, [pc, #116]	; fadc <.text+0xef0c>
    fa64:	e08a0000 	add	r0, sl, r0
    fa68:	e59f1070 	ldr	r1, [pc, #112]	; fae0 <.text+0xef10>
    fa6c:	e08a1001 	add	r1, sl, r1
    fa70:	e3a02e13 	mov	r2, #304	; 0x130
    fa74:	e59f3068 	ldr	r3, [pc, #104]	; fae4 <.text+0xef14>
    fa78:	e79a3003 	ldr	r3, [sl, r3]
    fa7c:	ebffff4f 	bl	f7c0 <__GI___assert_fail>
    fa80:	e59f3060 	ldr	r3, [pc, #96]	; fae8 <.text+0xef18>
    fa84:	e79a9003 	ldr	r9, [sl, r3]
    fa88:	e1a06002 	mov	r6, r2
    fa8c:	e3a07000 	mov	r7, #0	; 0x0
    fa90:	e1a01005 	mov	r1, r5
    fa94:	e1a00004 	mov	r0, r4
    fa98:	e1a03007 	mov	r3, r7
    fa9c:	e1a02006 	mov	r2, r6
    faa0:	eb000292 	bl	104f0 <__umoddi3@GLIBC_2.0>
    faa4:	e7d03009 	ldrb	r3, [r0, r9]
    faa8:	e5683001 	strb	r3, [r8, #-1]!
    faac:	e1a01005 	mov	r1, r5
    fab0:	e1a00004 	mov	r0, r4
    fab4:	e1a03007 	mov	r3, r7
    fab8:	e1a02006 	mov	r2, r6
    fabc:	eb000284 	bl	104d4 <__udivdi3@GLIBC_2.0>
    fac0:	e1a05001 	mov	r5, r1
    fac4:	e1a04000 	mov	r4, r0
    fac8:	e1900001 	orrs	r0, r0, r1
    facc:	1affffef 	bne	fa90 <_itoa+0x58>
    fad0:	e1a00008 	mov	r0, r8
    fad4:	e8bd87f0 	ldmia	sp!, {r4, r5, r6, r7, r8, r9, sl, pc}
    fad8:	0000db4c 	andeq	sp, r0, ip, asr #22
    fadc:	ffff7818 	swinv	0x00ff7818
    fae0:	ffff7704 	swinv	0x00ff7704
    fae4:	000001ac 	andeq	r0, r0, ip, lsr #3
    fae8:	000001c8 	andeq	r0, r0, r8, asr #3

0000faec <__strsep>:
    faec:	e92d4410 	stmdb	sp!, {r4, sl, lr}
    faf0:	e59fa0a4 	ldr	sl, [pc, #164]	; fb9c <.text+0xefcc>
    faf4:	e08fa00a 	add	sl, pc, sl
    faf8:	e1a04000 	mov	r4, r0
    fafc:	e5d13000 	ldrb	r3, [r1]
    fb00:	e3530000 	cmp	r3, #0	; 0x0
    fb04:	1a000007 	bne	fb28 <__strsep+0x3c>
    fb08:	e59f0090 	ldr	r0, [pc, #144]	; fba0 <.text+0xefd0>
    fb0c:	e08a0000 	add	r0, sl, r0
    fb10:	e59f108c 	ldr	r1, [pc, #140]	; fba4 <.text+0xefd4>
    fb14:	e08a1001 	add	r1, sl, r1
    fb18:	e3a02f51 	mov	r2, #324	; 0x144
    fb1c:	e59f3084 	ldr	r3, [pc, #132]	; fba8 <.text+0xefd8>
    fb20:	e79a3003 	ldr	r3, [sl, r3]
    fb24:	ebffff25 	bl	f7c0 <__GI___assert_fail>
    fb28:	e5900000 	ldr	r0, [r0]
    fb2c:	e3500000 	cmp	r0, #0	; 0x0
    fb30:	08bd8410 	ldmeqia	sp!, {r4, sl, pc}
    fb34:	e1a0e000 	mov	lr, r0
    fb38:	e5d03000 	ldrb	r3, [r0]
    fb3c:	e3530000 	cmp	r3, #0	; 0x0
    fb40:	01a0e003 	moveq	lr, r3
    fb44:	0a000012 	beq	fb94 <__strsep+0xa8>
    fb48:	ea000002 	b	fb58 <__strsep+0x6c>
    fb4c:	e3a03000 	mov	r3, #0	; 0x0
    fb50:	e4ce3001 	strb	r3, [lr], #1
    fb54:	ea00000e 	b	fb94 <__strsep+0xa8>
    fb58:	e1a02001 	mov	r2, r1
    fb5c:	e5dec000 	ldrb	ip, [lr]
    fb60:	e5d23000 	ldrb	r3, [r2]
    fb64:	e153000c 	cmp	r3, ip
    fb68:	0a000002 	beq	fb78 <__strsep+0x8c>
    fb6c:	e5f23001 	ldrb	r3, [r2, #1]!
    fb70:	e3530000 	cmp	r3, #0	; 0x0
    fb74:	1afffff9 	bne	fb60 <__strsep+0x74>
    fb78:	e5d23000 	ldrb	r3, [r2]
    fb7c:	e3530000 	cmp	r3, #0	; 0x0
    fb80:	1afffff1 	bne	fb4c <__strsep+0x60>
    fb84:	e5fe3001 	ldrb	r3, [lr, #1]!
    fb88:	e3530000 	cmp	r3, #0	; 0x0
    fb8c:	1afffff1 	bne	fb58 <__strsep+0x6c>
    fb90:	e1a0e003 	mov	lr, r3
    fb94:	e584e000 	str	lr, [r4]
    fb98:	e8bd8410 	ldmia	sp!, {r4, sl, pc}
    fb9c:	0000da98 	muleq	r0, r8, sl
    fba0:	ffff7828 	swinv	0x00ff7828
    fba4:	ffff7704 	swinv	0x00ff7704
    fba8:	000001b0 	streqh	r0, [r0], -r0

0000fbac <__GI___chk_fail>:
    fbac:	e3a0007f 	mov	r0, #127	; 0x7f
    fbb0:	eb00045a 	bl	10d20 <_Exit>

0000fbb4 <__brk>:
    fbb4:	e52da004 	str	sl, [sp, #-4]!
    fbb8:	e59fa044 	ldr	sl, [pc, #68]	; fc04 <.text+0xf034>
    fbbc:	e08fa00a 	add	sl, pc, sl
    fbc0:	e1a02000 	mov	r2, r0
    fbc4:	e1a00002 	mov	r0, r2
    fbc8:	ef90002d 	swi	0x0090002d
    fbcc:	e1a01000 	mov	r1, r0
    fbd0:	e59f3030 	ldr	r3, [pc, #48]	; fc08 <.text+0xf038>
    fbd4:	e79a3003 	ldr	r3, [sl, r3]
    fbd8:	e5831000 	str	r1, [r3]
    fbdc:	e1510002 	cmp	r1, r2
    fbe0:	23a00000 	movcs	r0, #0	; 0x0
    fbe4:	2a000004 	bcs	fbfc <__brk+0x48>
    fbe8:	e3a0300c 	mov	r3, #12	; 0xc
    fbec:	e59f2018 	ldr	r2, [pc, #24]	; fc0c <.text+0xf03c>
    fbf0:	e79a2002 	ldr	r2, [sl, r2]
    fbf4:	e5823000 	str	r3, [r2]
    fbf8:	e3e00000 	mvn	r0, #0	; 0x0
    fbfc:	e8bd0400 	ldmia	sp!, {sl}
    fc00:	e1a0f00e 	mov	pc, lr
    fc04:	0000d9d0 	ldreqd	sp, [r0], -r0
    fc08:	000001f8 	streqd	r0, [r0], -r8
    fc0c:	00000238 	andeq	r0, r0, r8, lsr r2

0000fc10 <__sbrk>:
    fc10:	e92d4430 	stmdb	sp!, {r4, r5, sl, lr}
    fc14:	e59fa07c 	ldr	sl, [pc, #124]	; fc98 <.text+0xf0c8>
    fc18:	e08fa00a 	add	sl, pc, sl
    fc1c:	e1a05000 	mov	r5, r0
    fc20:	e59f3074 	ldr	r3, [pc, #116]	; fc9c <.text+0xf0cc>
    fc24:	e79a3003 	ldr	r3, [sl, r3]
    fc28:	e5933000 	ldr	r3, [r3]
    fc2c:	e3530000 	cmp	r3, #0	; 0x0
    fc30:	0a000004 	beq	fc48 <__sbrk+0x38>
    fc34:	e59f3064 	ldr	r3, [pc, #100]	; fca0 <.text+0xf0d0>
    fc38:	e79a3003 	ldr	r3, [sl, r3]
    fc3c:	e5933000 	ldr	r3, [r3]
    fc40:	e3530000 	cmp	r3, #0	; 0x0
    fc44:	0a000004 	beq	fc5c <__sbrk+0x4c>
    fc48:	e3a00000 	mov	r0, #0	; 0x0
    fc4c:	ebffffd8 	bl	fbb4 <__brk>
    fc50:	e3500000 	cmp	r0, #0	; 0x0
    fc54:	b3e00000 	mvnlt	r0, #0	; 0x0
    fc58:	b8bd8430 	ldmltia	sp!, {r4, r5, sl, pc}
    fc5c:	e3550000 	cmp	r5, #0	; 0x0
    fc60:	1a000003 	bne	fc74 <__sbrk+0x64>
    fc64:	e59f3030 	ldr	r3, [pc, #48]	; fc9c <.text+0xf0cc>
    fc68:	e79a3003 	ldr	r3, [sl, r3]
    fc6c:	e5930000 	ldr	r0, [r3]
    fc70:	e8bd8430 	ldmia	sp!, {r4, r5, sl, pc}
    fc74:	e59f3020 	ldr	r3, [pc, #32]	; fc9c <.text+0xf0cc>
    fc78:	e79a3003 	ldr	r3, [sl, r3]
    fc7c:	e5934000 	ldr	r4, [r3]
    fc80:	e0840005 	add	r0, r4, r5
    fc84:	ebffffca 	bl	fbb4 <__brk>
    fc88:	e3500000 	cmp	r0, #0	; 0x0
    fc8c:	a1a00004 	movge	r0, r4
    fc90:	b3e00000 	mvnlt	r0, #0	; 0x0
    fc94:	e8bd8430 	ldmia	sp!, {r4, r5, sl, pc}
    fc98:	0000d974 	andeq	sp, r0, r4, ror r9
    fc9c:	000001f8 	streqd	r0, [r0], -r8
    fca0:	00000234 	andeq	r0, r0, r4, lsr r2

0000fca4 <check_one_fd>:
    fca4:	e92d4430 	stmdb	sp!, {r4, r5, sl, lr}
    fca8:	e24dd060 	sub	sp, sp, #96	; 0x60
    fcac:	e59fa0e0 	ldr	sl, [pc, #224]	; fd94 <.text+0xf1c4>
    fcb0:	e08fa00a 	add	sl, pc, sl
    fcb4:	e1a05000 	mov	r5, r0
    fcb8:	e1a04001 	mov	r4, r1
    fcbc:	e3a01001 	mov	r1, #1	; 0x1
    fcc0:	eb00039e 	bl	10b40 <__fcntl>
    fcc4:	e1a0c000 	mov	ip, r0
    fcc8:	e3700001 	cmn	r0, #1	; 0x1
    fccc:	1a00002c 	bne	fd84 <check_one_fd+0xe0>
    fcd0:	e59f30c0 	ldr	r3, [pc, #192]	; fd98 <.text+0xf1c8>
    fcd4:	e79ae003 	ldr	lr, [sl, r3]
    fcd8:	e59e3000 	ldr	r3, [lr]
    fcdc:	e3530009 	cmp	r3, #9	; 0x9
    fce0:	1a000027 	bne	fd84 <check_one_fd+0xe0>
    fce4:	e3a02000 	mov	r2, #0	; 0x0
    fce8:	e1a01004 	mov	r1, r4
    fcec:	e59f00a8 	ldr	r0, [pc, #168]	; fd9c <.text+0xf1cc>
    fcf0:	e08a0000 	add	r0, sl, r0
    fcf4:	ef900005 	swi	0x00900005
    fcf8:	e3700a01 	cmn	r0, #4096	; 0x1000
    fcfc:	82603000 	rsbhi	r3, r0, #0	; 0x0
    fd00:	858e3000 	strhi	r3, [lr]
    fd04:	81a0000c 	movhi	r0, ip
    fd08:	e1500005 	cmp	r0, r5
    fd0c:	1a00001b 	bne	fd80 <check_one_fd+0xdc>
    fd10:	e3a00003 	mov	r0, #3	; 0x3
    fd14:	e1a01005 	mov	r1, r5
    fd18:	e1a0200d 	mov	r2, sp
    fd1c:	eb00027a 	bl	1070c <__GI___fxstat64>
    fd20:	e250c000 	subs	ip, r0, #0	; 0x0
    fd24:	1a000015 	bne	fd80 <check_one_fd+0xdc>
    fd28:	e59d3010 	ldr	r3, [sp, #16]
    fd2c:	e2033a0f 	and	r3, r3, #61440	; 0xf000
    fd30:	e3530a02 	cmp	r3, #8192	; 0x2000
    fd34:	1a000011 	bne	fd80 <check_one_fd+0xdc>
    fd38:	e28f004c 	add	r0, pc, #76	; 0x4c
    fd3c:	e8900003 	ldmia	r0, {r0, r1}
    fd40:	e3a04000 	mov	r4, #0	; 0x0
    fd44:	e3a03000 	mov	r3, #0	; 0x0
    fd48:	e1a02604 	mov	r2, r4, lsl #12
    fd4c:	e1824a23 	orr	r4, r2, r3, lsr #20
    fd50:	e1a03603 	mov	r3, r3, lsl #12
    fd54:	e1800003 	orr	r0, r0, r3
    fd58:	e1811004 	orr	r1, r1, r4
    fd5c:	e3a04000 	mov	r4, #0	; 0x0
    fd60:	e180000c 	orr	r0, r0, ip
    fd64:	e1811004 	orr	r1, r1, r4
    fd68:	e59d3020 	ldr	r3, [sp, #32]
    fd6c:	e1530000 	cmp	r3, r0
    fd70:	1a000002 	bne	fd80 <check_one_fd+0xdc>
    fd74:	e59d3024 	ldr	r3, [sp, #36]
    fd78:	e1530001 	cmp	r3, r1
    fd7c:	0a000000 	beq	fd84 <check_one_fd+0xe0>
    fd80:	eafffffe 	b	fd80 <check_one_fd+0xdc>
    fd84:	e28dd060 	add	sp, sp, #96	; 0x60
    fd88:	e8bd8430 	ldmia	sp!, {r4, r5, sl, pc}
    fd8c:	00000103 	andeq	r0, r0, r3, lsl #2
    fd90:	00000000 	andeq	r0, r0, r0
    fd94:	0000d8dc 	ldreqd	sp, [r0], -ip
    fd98:	00000238 	andeq	r0, r0, r8, lsr r2
    fd9c:	ffff783c 	swinv	0x00ff783c

0000fda0 <__libc_check_standard_fds>:
    fda0:	e52de004 	str	lr, [sp, #-4]!
    fda4:	e3a00000 	mov	r0, #0	; 0x0
    fda8:	e3a01902 	mov	r1, #32768	; 0x8000
    fdac:	ebffffbc 	bl	fca4 <check_one_fd>
    fdb0:	e3a00001 	mov	r0, #1	; 0x1
    fdb4:	e3a01902 	mov	r1, #32768	; 0x8000
    fdb8:	e2811002 	add	r1, r1, #2	; 0x2
    fdbc:	ebffffb8 	bl	fca4 <check_one_fd>
    fdc0:	e3a00002 	mov	r0, #2	; 0x2
    fdc4:	e3a01902 	mov	r1, #32768	; 0x8000
    fdc8:	e0811000 	add	r1, r1, r0
    fdcc:	ebffffb4 	bl	fca4 <check_one_fd>
    fdd0:	e49df004 	ldr	pc, [sp], #4

0000fdd4 <__udivmoddi4>:
    fdd4:	e92d4ff0 	stmdb	sp!, {r4, r5, r6, r7, r8, r9, sl, fp, lr}
    fdd8:	e24dd034 	sub	sp, sp, #52	; 0x34
    fddc:	e3a05000 	mov	r5, #0	; 0x0
    fde0:	e3a04000 	mov	r4, #0	; 0x0
    fde4:	e28dc030 	add	ip, sp, #48	; 0x30
    fde8:	e80c0030 	stmda	ip, {r4, r5}
    fdec:	e28dc020 	add	ip, sp, #32	; 0x20
    fdf0:	e98c0030 	stmib	ip, {r4, r5}
    fdf4:	e59fa5f8 	ldr	sl, [pc, #1528]	; 103f4 <.text+0xf824>
    fdf8:	e08fa00a 	add	sl, pc, sl
    fdfc:	e1a06002 	mov	r6, r2
    fe00:	e1a09000 	mov	r9, r0
    fe04:	e1a05001 	mov	r5, r1
    fe08:	e2534000 	subs	r4, r3, #0	; 0x0
    fe0c:	1a0000d5 	bne	10168 <__udivmoddi4+0x394>
    fe10:	e1520001 	cmp	r2, r1
    fe14:	9a000046 	bls	ff34 <__udivmoddi4+0x160>
    fe18:	e3520801 	cmp	r2, #65536	; 0x10000
    fe1c:	2a000003 	bcs	fe30 <__udivmoddi4+0x5c>
    fe20:	e35200ff 	cmp	r2, #255	; 0xff
    fe24:	91a01004 	movls	r1, r4
    fe28:	83a01008 	movhi	r1, #8	; 0x8
    fe2c:	ea000002 	b	fe3c <__udivmoddi4+0x68>
    fe30:	e3520401 	cmp	r2, #16777216	; 0x1000000
    fe34:	23a01018 	movcs	r1, #24	; 0x18
    fe38:	33a01010 	movcc	r1, #16	; 0x10
    fe3c:	e1a02132 	mov	r2, r2, lsr r1
    fe40:	e59f35b0 	ldr	r3, [pc, #1456]	; 103f8 <.text+0xf828>
    fe44:	e79a3003 	ldr	r3, [sl, r3]
    fe48:	e7d33002 	ldrb	r3, [r3, r2]
    fe4c:	e0833001 	add	r3, r3, r1
    fe50:	e273b020 	rsbs	fp, r3, #32	; 0x20
    fe54:	11a06b16 	movne	r6, r6, lsl fp
    fe58:	126b3020 	rsbne	r3, fp, #32	; 0x20
    fe5c:	11a03339 	movne	r3, r9, lsr r3
    fe60:	11835b15 	orrne	r5, r3, r5, lsl fp
    fe64:	11a09b19 	movne	r9, r9, lsl fp
    fe68:	e1a07826 	mov	r7, r6, lsr #16
    fe6c:	e3a03cff 	mov	r3, #65280	; 0xff00
    fe70:	e28330ff 	add	r3, r3, #255	; 0xff
    fe74:	e0063003 	and	r3, r6, r3
    fe78:	e58d3018 	str	r3, [sp, #24]
    fe7c:	e1a00005 	mov	r0, r5
    fe80:	e1a01007 	mov	r1, r7
    fe84:	eb00080f 	bl	11ec8 <__umodsi3>
    fe88:	e1a04000 	mov	r4, r0
    fe8c:	e1a00005 	mov	r0, r5
    fe90:	e1a01007 	mov	r1, r7
    fe94:	eb0007cd 	bl	11dd0 <__udivsi3>
    fe98:	e1a08000 	mov	r8, r0
    fe9c:	e59d2018 	ldr	r2, [sp, #24]
    fea0:	e0020290 	mul	r2, r0, r2
    fea4:	e1a03829 	mov	r3, r9, lsr #16
    fea8:	e1834804 	orr	r4, r3, r4, lsl #16
    feac:	e1540002 	cmp	r4, r2
    feb0:	2a000005 	bcs	fecc <__udivmoddi4+0xf8>
    feb4:	e2408001 	sub	r8, r0, #1	; 0x1
    feb8:	e0944006 	adds	r4, r4, r6
    febc:	2a000002 	bcs	fecc <__udivmoddi4+0xf8>
    fec0:	e1540002 	cmp	r4, r2
    fec4:	32488001 	subcc	r8, r8, #1	; 0x1
    fec8:	30844006 	addcc	r4, r4, r6
    fecc:	e0624004 	rsb	r4, r2, r4
    fed0:	e1a00004 	mov	r0, r4
    fed4:	e1a01007 	mov	r1, r7
    fed8:	eb0007fa 	bl	11ec8 <__umodsi3>
    fedc:	e1a05000 	mov	r5, r0
    fee0:	e1a00004 	mov	r0, r4
    fee4:	e1a01007 	mov	r1, r7
    fee8:	eb0007b8 	bl	11dd0 <__udivsi3>
    feec:	e59d2018 	ldr	r2, [sp, #24]
    fef0:	e0020290 	mul	r2, r0, r2
    fef4:	e1a03809 	mov	r3, r9, lsl #16
    fef8:	e1a03823 	mov	r3, r3, lsr #16
    fefc:	e1835805 	orr	r5, r3, r5, lsl #16
    ff00:	e1550002 	cmp	r5, r2
    ff04:	2a000005 	bcs	ff20 <__udivmoddi4+0x14c>
    ff08:	e2400001 	sub	r0, r0, #1	; 0x1
    ff0c:	e0955006 	adds	r5, r5, r6
    ff10:	2a000002 	bcs	ff20 <__udivmoddi4+0x14c>
    ff14:	e1550002 	cmp	r5, r2
    ff18:	32400001 	subcc	r0, r0, #1	; 0x1
    ff1c:	30855006 	addcc	r5, r5, r6
    ff20:	e1800808 	orr	r0, r0, r8, lsl #16
    ff24:	e0629005 	rsb	r9, r2, r5
    ff28:	e3a02000 	mov	r2, #0	; 0x0
    ff2c:	e58d2020 	str	r2, [sp, #32]
    ff30:	ea000081 	b	1013c <__udivmoddi4+0x368>
    ff34:	e3520000 	cmp	r2, #0	; 0x0
    ff38:	1a000003 	bne	ff4c <__udivmoddi4+0x178>
    ff3c:	e3a00001 	mov	r0, #1	; 0x1
    ff40:	e1a01002 	mov	r1, r2
    ff44:	eb0007a1 	bl	11dd0 <__udivsi3>
    ff48:	e1a06000 	mov	r6, r0
    ff4c:	e1a02006 	mov	r2, r6
    ff50:	e3560801 	cmp	r6, #65536	; 0x10000
    ff54:	2a000003 	bcs	ff68 <__udivmoddi4+0x194>
    ff58:	e35600ff 	cmp	r6, #255	; 0xff
    ff5c:	83a01008 	movhi	r1, #8	; 0x8
    ff60:	93a01000 	movls	r1, #0	; 0x0
    ff64:	ea000002 	b	ff74 <__udivmoddi4+0x1a0>
    ff68:	e3560401 	cmp	r6, #16777216	; 0x1000000
    ff6c:	23a01018 	movcs	r1, #24	; 0x18
    ff70:	33a01010 	movcc	r1, #16	; 0x10
    ff74:	e1a02132 	mov	r2, r2, lsr r1
    ff78:	e59f3478 	ldr	r3, [pc, #1144]	; 103f8 <.text+0xf828>
    ff7c:	e79a3003 	ldr	r3, [sl, r3]
    ff80:	e7d33002 	ldrb	r3, [r3, r2]
    ff84:	e0833001 	add	r3, r3, r1
    ff88:	e273b020 	rsbs	fp, r3, #32	; 0x20
    ff8c:	00665005 	rsbeq	r5, r6, r5
    ff90:	03a03001 	moveq	r3, #1	; 0x1
    ff94:	058d3020 	streq	r3, [sp, #32]
    ff98:	0a000037 	beq	1007c <__udivmoddi4+0x2a8>
    ff9c:	e26b4020 	rsb	r4, fp, #32	; 0x20
    ffa0:	e1a06b16 	mov	r6, r6, lsl fp
    ffa4:	e1a08435 	mov	r8, r5, lsr r4
    ffa8:	e1a03439 	mov	r3, r9, lsr r4
    ffac:	e1835b15 	orr	r5, r3, r5, lsl fp
    ffb0:	e1a09b19 	mov	r9, r9, lsl fp
    ffb4:	e1a0c826 	mov	ip, r6, lsr #16
    ffb8:	e58dc014 	str	ip, [sp, #20]
    ffbc:	e3a03cff 	mov	r3, #65280	; 0xff00
    ffc0:	e28330ff 	add	r3, r3, #255	; 0xff
    ffc4:	e0063003 	and	r3, r6, r3
    ffc8:	e58d3010 	str	r3, [sp, #16]
    ffcc:	e1a00008 	mov	r0, r8
    ffd0:	e1a0100c 	mov	r1, ip
    ffd4:	eb0007bb 	bl	11ec8 <__umodsi3>
    ffd8:	e1a04000 	mov	r4, r0
    ffdc:	e1a00008 	mov	r0, r8
    ffe0:	e59d1014 	ldr	r1, [sp, #20]
    ffe4:	eb000779 	bl	11dd0 <__udivsi3>
    ffe8:	e1a08000 	mov	r8, r0
    ffec:	e59d2010 	ldr	r2, [sp, #16]
    fff0:	e0020290 	mul	r2, r0, r2
    fff4:	e1a03825 	mov	r3, r5, lsr #16
    fff8:	e1834804 	orr	r4, r3, r4, lsl #16
    fffc:	e1540002 	cmp	r4, r2
   10000:	2a000005 	bcs	1001c <__udivmoddi4+0x248>
   10004:	e2408001 	sub	r8, r0, #1	; 0x1
   10008:	e0944006 	adds	r4, r4, r6
   1000c:	2a000002 	bcs	1001c <__udivmoddi4+0x248>
   10010:	e1540002 	cmp	r4, r2
   10014:	32488001 	subcc	r8, r8, #1	; 0x1
   10018:	30844006 	addcc	r4, r4, r6
   1001c:	e0624004 	rsb	r4, r2, r4
   10020:	e1a00004 	mov	r0, r4
   10024:	e59d1014 	ldr	r1, [sp, #20]
   10028:	eb0007a6 	bl	11ec8 <__umodsi3>
   1002c:	e1a07000 	mov	r7, r0
   10030:	e1a00004 	mov	r0, r4
   10034:	e59d1014 	ldr	r1, [sp, #20]
   10038:	eb000764 	bl	11dd0 <__udivsi3>
   1003c:	e59d2010 	ldr	r2, [sp, #16]
   10040:	e0020290 	mul	r2, r0, r2
   10044:	e1a03805 	mov	r3, r5, lsl #16
   10048:	e1a03823 	mov	r3, r3, lsr #16
   1004c:	e1837807 	orr	r7, r3, r7, lsl #16
   10050:	e1570002 	cmp	r7, r2
   10054:	2a000005 	bcs	10070 <__udivmoddi4+0x29c>
   10058:	e2400001 	sub	r0, r0, #1	; 0x1
   1005c:	e0977006 	adds	r7, r7, r6
   10060:	2a000002 	bcs	10070 <__udivmoddi4+0x29c>
   10064:	e1570002 	cmp	r7, r2
   10068:	32400001 	subcc	r0, r0, #1	; 0x1
   1006c:	30877006 	addcc	r7, r7, r6
   10070:	e1808808 	orr	r8, r0, r8, lsl #16
   10074:	e58d8020 	str	r8, [sp, #32]
   10078:	e0625007 	rsb	r5, r2, r7
   1007c:	e1a07826 	mov	r7, r6, lsr #16
   10080:	e3a03cff 	mov	r3, #65280	; 0xff00
   10084:	e28330ff 	add	r3, r3, #255	; 0xff
   10088:	e0063003 	and	r3, r6, r3
   1008c:	e58d300c 	str	r3, [sp, #12]
   10090:	e1a00005 	mov	r0, r5
   10094:	e1a01007 	mov	r1, r7
   10098:	eb00078a 	bl	11ec8 <__umodsi3>
   1009c:	e1a04000 	mov	r4, r0
   100a0:	e1a00005 	mov	r0, r5
   100a4:	e1a01007 	mov	r1, r7
   100a8:	eb000748 	bl	11dd0 <__udivsi3>
   100ac:	e1a08000 	mov	r8, r0
   100b0:	e59d200c 	ldr	r2, [sp, #12]
   100b4:	e0020290 	mul	r2, r0, r2
   100b8:	e1a03829 	mov	r3, r9, lsr #16
   100bc:	e1834804 	orr	r4, r3, r4, lsl #16
   100c0:	e1540002 	cmp	r4, r2
   100c4:	2a000005 	bcs	100e0 <__udivmoddi4+0x30c>
   100c8:	e2408001 	sub	r8, r0, #1	; 0x1
   100cc:	e0944006 	adds	r4, r4, r6
   100d0:	2a000002 	bcs	100e0 <__udivmoddi4+0x30c>
   100d4:	e1540002 	cmp	r4, r2
   100d8:	32488001 	subcc	r8, r8, #1	; 0x1
   100dc:	30844006 	addcc	r4, r4, r6
   100e0:	e0624004 	rsb	r4, r2, r4
   100e4:	e1a00004 	mov	r0, r4
   100e8:	e1a01007 	mov	r1, r7
   100ec:	eb000775 	bl	11ec8 <__umodsi3>
   100f0:	e1a05000 	mov	r5, r0
   100f4:	e1a00004 	mov	r0, r4
   100f8:	e1a01007 	mov	r1, r7
   100fc:	eb000733 	bl	11dd0 <__udivsi3>
   10100:	e59d200c 	ldr	r2, [sp, #12]
   10104:	e0020290 	mul	r2, r0, r2
   10108:	e1a03809 	mov	r3, r9, lsl #16
   1010c:	e1a03823 	mov	r3, r3, lsr #16
   10110:	e1835805 	orr	r5, r3, r5, lsl #16
   10114:	e1550002 	cmp	r5, r2
   10118:	2a000005 	bcs	10134 <__udivmoddi4+0x360>
   1011c:	e2400001 	sub	r0, r0, #1	; 0x1
   10120:	e0955006 	adds	r5, r5, r6
   10124:	2a000002 	bcs	10134 <__udivmoddi4+0x360>
   10128:	e1550002 	cmp	r5, r2
   1012c:	32400001 	subcc	r0, r0, #1	; 0x1
   10130:	30855006 	addcc	r5, r5, r6
   10134:	e1800808 	orr	r0, r0, r8, lsl #16
   10138:	e0629005 	rsb	r9, r2, r5
   1013c:	e59d2058 	ldr	r2, [sp, #88]
   10140:	e3520000 	cmp	r2, #0	; 0x0
   10144:	0a0000a3 	beq	103d8 <__udivmoddi4+0x604>
   10148:	e1a0bb39 	mov	fp, r9, lsr fp
   1014c:	e58db024 	str	fp, [sp, #36]
   10150:	e3a03000 	mov	r3, #0	; 0x0
   10154:	e58d3028 	str	r3, [sp, #40]
   10158:	e28d4020 	add	r4, sp, #32	; 0x20
   1015c:	e9940030 	ldmib	r4, {r4, r5}
   10160:	e8820030 	stmia	r2, {r4, r5}
   10164:	ea00009b 	b	103d8 <__udivmoddi4+0x604>
   10168:	e1540001 	cmp	r4, r1
   1016c:	9a00000c 	bls	101a4 <__udivmoddi4+0x3d0>
   10170:	e3a0c000 	mov	ip, #0	; 0x0
   10174:	e58dc020 	str	ip, [sp, #32]
   10178:	e1a0000c 	mov	r0, ip
   1017c:	e59d2058 	ldr	r2, [sp, #88]
   10180:	e152000c 	cmp	r2, ip
   10184:	0a000093 	beq	103d8 <__udivmoddi4+0x604>
   10188:	e58d9024 	str	r9, [sp, #36]
   1018c:	e58d1028 	str	r1, [sp, #40]
   10190:	e28d3020 	add	r3, sp, #32	; 0x20
   10194:	e9930018 	ldmib	r3, {r3, r4}
   10198:	e1a05002 	mov	r5, r2
   1019c:	e8820018 	stmia	r2, {r3, r4}
   101a0:	ea00008c 	b	103d8 <__udivmoddi4+0x604>
   101a4:	e1a02004 	mov	r2, r4
   101a8:	e3540801 	cmp	r4, #65536	; 0x10000
   101ac:	2a000003 	bcs	101c0 <__udivmoddi4+0x3ec>
   101b0:	e35400ff 	cmp	r4, #255	; 0xff
   101b4:	83a01008 	movhi	r1, #8	; 0x8
   101b8:	93a01000 	movls	r1, #0	; 0x0
   101bc:	ea000002 	b	101cc <__udivmoddi4+0x3f8>
   101c0:	e3540401 	cmp	r4, #16777216	; 0x1000000
   101c4:	23a01018 	movcs	r1, #24	; 0x18
   101c8:	33a01010 	movcc	r1, #16	; 0x10
   101cc:	e1a02132 	mov	r2, r2, lsr r1
   101d0:	e59f3220 	ldr	r3, [pc, #544]	; 103f8 <.text+0xf828>
   101d4:	e79a3003 	ldr	r3, [sl, r3]
   101d8:	e7d33002 	ldrb	r3, [r3, r2]
   101dc:	e0833001 	add	r3, r3, r1
   101e0:	e273b020 	rsbs	fp, r3, #32	; 0x20
   101e4:	1a000012 	bne	10234 <__udivmoddi4+0x460>
   101e8:	e1550004 	cmp	r5, r4
   101ec:	91590006 	cmpls	r9, r6
   101f0:	33a00000 	movcc	r0, #0	; 0x0
   101f4:	3a000003 	bcc	10208 <__udivmoddi4+0x434>
   101f8:	e3a00001 	mov	r0, #1	; 0x1
   101fc:	e059c006 	subs	ip, r9, r6
   10200:	e0c55004 	sbc	r5, r5, r4
   10204:	e1a0900c 	mov	r9, ip
   10208:	e3a02000 	mov	r2, #0	; 0x0
   1020c:	e58d2020 	str	r2, [sp, #32]
   10210:	e59d3058 	ldr	r3, [sp, #88]
   10214:	e1530002 	cmp	r3, r2
   10218:	0a00006e 	beq	103d8 <__udivmoddi4+0x604>
   1021c:	e58d9024 	str	r9, [sp, #36]
   10220:	e58d5028 	str	r5, [sp, #40]
   10224:	e28d4020 	add	r4, sp, #32	; 0x20
   10228:	e9940030 	ldmib	r4, {r4, r5}
   1022c:	e8830030 	stmia	r3, {r4, r5}
   10230:	ea000068 	b	103d8 <__udivmoddi4+0x604>
   10234:	e26bc020 	rsb	ip, fp, #32	; 0x20
   10238:	e58dc01c 	str	ip, [sp, #28]
   1023c:	e1a03c36 	mov	r3, r6, lsr ip
   10240:	e1834b14 	orr	r4, r3, r4, lsl fp
   10244:	e1a06b16 	mov	r6, r6, lsl fp
   10248:	e1a08c35 	mov	r8, r5, lsr ip
   1024c:	e1a03c39 	mov	r3, r9, lsr ip
   10250:	e1835b15 	orr	r5, r3, r5, lsl fp
   10254:	e1a09b19 	mov	r9, r9, lsl fp
   10258:	e1a02824 	mov	r2, r4, lsr #16
   1025c:	e58d2008 	str	r2, [sp, #8]
   10260:	e3a03cff 	mov	r3, #65280	; 0xff00
   10264:	e28330ff 	add	r3, r3, #255	; 0xff
   10268:	e0043003 	and	r3, r4, r3
   1026c:	e58d3004 	str	r3, [sp, #4]
   10270:	e1a00008 	mov	r0, r8
   10274:	e1a01002 	mov	r1, r2
   10278:	eb000712 	bl	11ec8 <__umodsi3>
   1027c:	e1a07000 	mov	r7, r0
   10280:	e1a00008 	mov	r0, r8
   10284:	e59d1008 	ldr	r1, [sp, #8]
   10288:	eb0006d0 	bl	11dd0 <__udivsi3>
   1028c:	e58d0000 	str	r0, [sp]
   10290:	e1a02000 	mov	r2, r0
   10294:	e59d3004 	ldr	r3, [sp, #4]
   10298:	e0020293 	mul	r2, r3, r2
   1029c:	e1a03825 	mov	r3, r5, lsr #16
   102a0:	e1837807 	orr	r7, r3, r7, lsl #16
   102a4:	e1570002 	cmp	r7, r2
   102a8:	2a000007 	bcs	102cc <__udivmoddi4+0x4f8>
   102ac:	e240c001 	sub	ip, r0, #1	; 0x1
   102b0:	e58dc000 	str	ip, [sp]
   102b4:	e0977004 	adds	r7, r7, r4
   102b8:	2a000003 	bcs	102cc <__udivmoddi4+0x4f8>
   102bc:	e1570002 	cmp	r7, r2
   102c0:	324cc001 	subcc	ip, ip, #1	; 0x1
   102c4:	358dc000 	strcc	ip, [sp]
   102c8:	30877004 	addcc	r7, r7, r4
   102cc:	e0627007 	rsb	r7, r2, r7
   102d0:	e1a00007 	mov	r0, r7
   102d4:	e59d1008 	ldr	r1, [sp, #8]
   102d8:	eb0006fa 	bl	11ec8 <__umodsi3>
   102dc:	e1a08000 	mov	r8, r0
   102e0:	e1a00007 	mov	r0, r7
   102e4:	e59d1008 	ldr	r1, [sp, #8]
   102e8:	eb0006b8 	bl	11dd0 <__udivsi3>
   102ec:	e59d2004 	ldr	r2, [sp, #4]
   102f0:	e0020290 	mul	r2, r0, r2
   102f4:	e1a03805 	mov	r3, r5, lsl #16
   102f8:	e1a03823 	mov	r3, r3, lsr #16
   102fc:	e1838808 	orr	r8, r3, r8, lsl #16
   10300:	e1580002 	cmp	r8, r2
   10304:	2a000005 	bcs	10320 <__udivmoddi4+0x54c>
   10308:	e2400001 	sub	r0, r0, #1	; 0x1
   1030c:	e0988004 	adds	r8, r8, r4
   10310:	2a000002 	bcs	10320 <__udivmoddi4+0x54c>
   10314:	e1580002 	cmp	r8, r2
   10318:	32400001 	subcc	r0, r0, #1	; 0x1
   1031c:	30888004 	addcc	r8, r8, r4
   10320:	e59d3000 	ldr	r3, [sp]
   10324:	e1800803 	orr	r0, r0, r3, lsl #16
   10328:	e0625008 	rsb	r5, r2, r8
   1032c:	e1a01820 	mov	r1, r0, lsr #16
   10330:	e1a0c826 	mov	ip, r6, lsr #16
   10334:	e1c02801 	bic	r2, r0, r1, lsl #16
   10338:	e1c6380c 	bic	r3, r6, ip, lsl #16
   1033c:	e00e0392 	mul	lr, r2, r3
   10340:	e0030391 	mul	r3, r1, r3
   10344:	e002029c 	mul	r2, ip, r2
   10348:	e00c0c91 	mul	ip, r1, ip
   1034c:	e0932002 	adds	r2, r3, r2
   10350:	228cc801 	addcs	ip, ip, #65536	; 0x10000
   10354:	e09ee802 	adds	lr, lr, r2, lsl #16
   10358:	e0acc822 	adc	ip, ip, r2, lsr #16
   1035c:	e15c0005 	cmp	ip, r5
   10360:	8a000006 	bhi	10380 <__udivmoddi4+0x5ac>
   10364:	13a03000 	movne	r3, #0	; 0x0
   10368:	03a03001 	moveq	r3, #1	; 0x1
   1036c:	e15e0009 	cmp	lr, r9
   10370:	93a03000 	movls	r3, #0	; 0x0
   10374:	82033001 	andhi	r3, r3, #1	; 0x1
   10378:	e3530000 	cmp	r3, #0	; 0x0
   1037c:	0a000003 	beq	10390 <__udivmoddi4+0x5bc>
   10380:	e2400001 	sub	r0, r0, #1	; 0x1
   10384:	e05e2006 	subs	r2, lr, r6
   10388:	e0ccc004 	sbc	ip, ip, r4
   1038c:	e1a0e002 	mov	lr, r2
   10390:	e3a03000 	mov	r3, #0	; 0x0
   10394:	e58d3020 	str	r3, [sp, #32]
   10398:	e59d4058 	ldr	r4, [sp, #88]
   1039c:	e1540003 	cmp	r4, r3
   103a0:	0a00000c 	beq	103d8 <__udivmoddi4+0x604>
   103a4:	e059200e 	subs	r2, r9, lr
   103a8:	e0c5500c 	sbc	r5, r5, ip
   103ac:	e1a09002 	mov	r9, r2
   103b0:	e1a03b32 	mov	r3, r2, lsr fp
   103b4:	e59d401c 	ldr	r4, [sp, #28]
   103b8:	e1833415 	orr	r3, r3, r5, lsl r4
   103bc:	e58d3024 	str	r3, [sp, #36]
   103c0:	e1a0bb35 	mov	fp, r5, lsr fp
   103c4:	e58db028 	str	fp, [sp, #40]
   103c8:	e28d2020 	add	r2, sp, #32	; 0x20
   103cc:	e992000c 	ldmib	r2, {r2, r3}
   103d0:	e59d4058 	ldr	r4, [sp, #88]
   103d4:	e884000c 	stmia	r4, {r2, r3}
   103d8:	e58d002c 	str	r0, [sp, #44]
   103dc:	e59d3020 	ldr	r3, [sp, #32]
   103e0:	e58d3030 	str	r3, [sp, #48]
   103e4:	e28d4030 	add	r4, sp, #48	; 0x30
   103e8:	e8140003 	ldmda	r4, {r0, r1}
   103ec:	e28dd034 	add	sp, sp, #52	; 0x34
   103f0:	e8bd8ff0 	ldmia	sp!, {r4, r5, r6, r7, r8, r9, sl, fp, pc}
   103f4:	0000d794 	muleq	r0, r4, r7
   103f8:	000001e0 	andeq	r0, r0, r0, ror #3

000103fc <__divdi3@GLIBC_2.0>:
   103fc:	e92d4070 	stmdb	sp!, {r4, r5, r6, lr}
   10400:	e24dd004 	sub	sp, sp, #4	; 0x4
   10404:	e1a05003 	mov	r5, r3
   10408:	e1a04002 	mov	r4, r2
   1040c:	e3a06000 	mov	r6, #0	; 0x0
   10410:	e1510006 	cmp	r1, r6
   10414:	aa000002 	bge	10424 <__divdi3@GLIBC_2.0+0x28>
   10418:	e1e06006 	mvn	r6, r6
   1041c:	e2700000 	rsbs	r0, r0, #0	; 0x0
   10420:	e2e11000 	rsc	r1, r1, #0	; 0x0
   10424:	e3550000 	cmp	r5, #0	; 0x0
   10428:	aa000002 	bge	10438 <__divdi3@GLIBC_2.0+0x3c>
   1042c:	e1e06006 	mvn	r6, r6
   10430:	e2744000 	rsbs	r4, r4, #0	; 0x0
   10434:	e2e55000 	rsc	r5, r5, #0	; 0x0
   10438:	e3a03000 	mov	r3, #0	; 0x0
   1043c:	e58d3000 	str	r3, [sp]
   10440:	e1a03005 	mov	r3, r5
   10444:	e1a02004 	mov	r2, r4
   10448:	ebfffe61 	bl	fdd4 <__udivmoddi4>
   1044c:	e3560000 	cmp	r6, #0	; 0x0
   10450:	0a000001 	beq	1045c <__divdi3@GLIBC_2.0+0x60>
   10454:	e2700000 	rsbs	r0, r0, #0	; 0x0
   10458:	e2e11000 	rsc	r1, r1, #0	; 0x0
   1045c:	e28dd004 	add	sp, sp, #4	; 0x4
   10460:	e8bd8070 	ldmia	sp!, {r4, r5, r6, pc}

00010464 <__moddi3@GLIBC_2.0>:
   10464:	e92d4070 	stmdb	sp!, {r4, r5, r6, lr}
   10468:	e24dd00c 	sub	sp, sp, #12	; 0xc
   1046c:	e1a05003 	mov	r5, r3
   10470:	e1a04002 	mov	r4, r2
   10474:	e3a06000 	mov	r6, #0	; 0x0
   10478:	e1510006 	cmp	r1, r6
   1047c:	aa000002 	bge	1048c <__moddi3@GLIBC_2.0+0x28>
   10480:	e1e06006 	mvn	r6, r6
   10484:	e2700000 	rsbs	r0, r0, #0	; 0x0
   10488:	e2e11000 	rsc	r1, r1, #0	; 0x0
   1048c:	e3550000 	cmp	r5, #0	; 0x0
   10490:	aa000001 	bge	1049c <__moddi3@GLIBC_2.0+0x38>
   10494:	e2744000 	rsbs	r4, r4, #0	; 0x0
   10498:	e2e55000 	rsc	r5, r5, #0	; 0x0
   1049c:	e28d3004 	add	r3, sp, #4	; 0x4
   104a0:	e58d3000 	str	r3, [sp]
   104a4:	e1a03005 	mov	r3, r5
   104a8:	e1a02004 	mov	r2, r4
   104ac:	ebfffe48 	bl	fdd4 <__udivmoddi4>
   104b0:	e3560000 	cmp	r6, #0	; 0x0
   104b4:	0a000003 	beq	104c8 <__moddi3@GLIBC_2.0+0x64>
   104b8:	e99d0018 	ldmib	sp, {r3, r4}
   104bc:	e2733000 	rsbs	r3, r3, #0	; 0x0
   104c0:	e2e44000 	rsc	r4, r4, #0	; 0x0
   104c4:	e98d0018 	stmib	sp, {r3, r4}
   104c8:	e99d0003 	ldmib	sp, {r0, r1}
   104cc:	e28dd00c 	add	sp, sp, #12	; 0xc
   104d0:	e8bd8070 	ldmia	sp!, {r4, r5, r6, pc}

000104d4 <__udivdi3@GLIBC_2.0>:
   104d4:	e52de004 	str	lr, [sp, #-4]!
   104d8:	e24dd004 	sub	sp, sp, #4	; 0x4
   104dc:	e3a0c000 	mov	ip, #0	; 0x0
   104e0:	e58dc000 	str	ip, [sp]
   104e4:	ebfffe3a 	bl	fdd4 <__udivmoddi4>
   104e8:	e28dd004 	add	sp, sp, #4	; 0x4
   104ec:	e8bd8000 	ldmia	sp!, {pc}

000104f0 <__umoddi3@GLIBC_2.0>:
   104f0:	e52de004 	str	lr, [sp, #-4]!
   104f4:	e24dd00c 	sub	sp, sp, #12	; 0xc
   104f8:	e28dc004 	add	ip, sp, #4	; 0x4
   104fc:	e58dc000 	str	ip, [sp]
   10500:	ebfffe33 	bl	fdd4 <__udivmoddi4>
   10504:	e99d0003 	ldmib	sp, {r0, r1}
   10508:	e28dd00c 	add	sp, sp, #12	; 0xc
   1050c:	e8bd8000 	ldmia	sp!, {pc}

00010510 <profil_counter>:
   10510:	e92d4400 	stmdb	sp!, {sl, lr}
   10514:	e59fa098 	ldr	sl, [pc, #152]	; 105b4 <.text+0xf9e4>
   10518:	e08fa00a 	add	sl, pc, sl
   1051c:	e59d2008 	ldr	r2, [sp, #8]
   10520:	e59f3090 	ldr	r3, [pc, #144]	; 105b8 <.text+0xf9e8>
   10524:	e1520003 	cmp	r2, r3
   10528:	059d0048 	ldreq	r0, [sp, #72]
   1052c:	159d0050 	ldrne	r0, [sp, #80]
   10530:	e59f3084 	ldr	r3, [pc, #132]	; 105bc <.text+0xf9ec>
   10534:	e79a3003 	ldr	r3, [sl, r3]
   10538:	e5933000 	ldr	r3, [r3]
   1053c:	e063c000 	rsb	ip, r3, r0
   10540:	e08c0fac 	add	r0, ip, ip, lsr #31
   10544:	e1a000c0 	mov	r0, r0, asr #1
   10548:	e59f3070 	ldr	r3, [pc, #112]	; 105c0 <.text+0xf9f0>
   1054c:	e79a3003 	ldr	r3, [sl, r3]
   10550:	e5932000 	ldr	r2, [r3]
   10554:	e3a01000 	mov	r1, #0	; 0x0
   10558:	e3a03000 	mov	r3, #0	; 0x0
   1055c:	eb000693 	bl	11fb0 <__muldi3>
   10560:	e1a03820 	mov	r3, r0, lsr #16
   10564:	e1830801 	orr	r0, r3, r1, lsl #16
   10568:	e1a0c000 	mov	ip, r0
   1056c:	e59f3050 	ldr	r3, [pc, #80]	; 105c4 <.text+0xf9f4>
   10570:	e79a3003 	ldr	r3, [sl, r3]
   10574:	e5933000 	ldr	r3, [r3]
   10578:	e1500003 	cmp	r0, r3
   1057c:	2a00000b 	bcs	105b0 <profil_counter+0xa0>
   10580:	e59f3040 	ldr	r3, [pc, #64]	; 105c8 <.text+0xf9f8>
   10584:	e79a3003 	ldr	r3, [sl, r3]
   10588:	e5931000 	ldr	r1, [r3]
   1058c:	e1a03080 	mov	r3, r0, lsl #1
   10590:	e0830001 	add	r0, r3, r1
   10594:	e7d33001 	ldrb	r3, [r3, r1]
   10598:	e5d02001 	ldrb	r2, [r0, #1]
   1059c:	e1833402 	orr	r3, r3, r2, lsl #8
   105a0:	e2833001 	add	r3, r3, #1	; 0x1
   105a4:	e7c1308c 	strb	r3, [r1, ip, lsl #1]
   105a8:	e1a03443 	mov	r3, r3, asr #8
   105ac:	e5c03001 	strb	r3, [r0, #1]
   105b0:	e8bd8400 	ldmia	sp!, {sl, pc}
   105b4:	0000d074 	andeq	sp, r0, r4, ror r0
   105b8:	4b534154 	blmi	14e0b10 <__bss_end__+0x14c3220>
   105bc:	000001b4 	streqh	r0, [r0], -r4
   105c0:	000001b8 	streqh	r0, [r0], -r8
   105c4:	000001bc 	streqh	r0, [r0], -ip
   105c8:	000001c0 	andeq	r0, r0, r0, asr #3

000105cc <__profil>:
   105cc:	e92d4430 	stmdb	sp!, {r4, r5, sl, lr}
   105d0:	e24dd09c 	sub	sp, sp, #156	; 0x9c
   105d4:	e59fa0ac 	ldr	sl, [pc, #172]	; 10688 <.text+0xfab8>
   105d8:	e08fa00a 	add	sl, pc, sl
   105dc:	e59fc0a8 	ldr	ip, [pc, #168]	; 1068c <.text+0xfabc>
   105e0:	e79ac00c 	ldr	ip, [sl, ip]
   105e4:	e58c0000 	str	r0, [ip]
   105e8:	e1a010a1 	mov	r1, r1, lsr #1
   105ec:	e59f009c 	ldr	r0, [pc, #156]	; 10690 <.text+0xfac0>
   105f0:	e79a0000 	ldr	r0, [sl, r0]
   105f4:	e5801000 	str	r1, [r0]
   105f8:	e59f1094 	ldr	r1, [pc, #148]	; 10694 <.text+0xfac4>
   105fc:	e79a1001 	ldr	r1, [sl, r1]
   10600:	e5812000 	str	r2, [r1]
   10604:	e59f208c 	ldr	r2, [pc, #140]	; 10698 <.text+0xfac8>
   10608:	e79a2002 	ldr	r2, [sl, r2]
   1060c:	e5823000 	str	r3, [r2]
   10610:	e59f3084 	ldr	r3, [pc, #132]	; 1069c <.text+0xfacc>
   10614:	e79a3003 	ldr	r3, [sl, r3]
   10618:	e58d3010 	str	r3, [sp, #16]
   1061c:	e3a03201 	mov	r3, #268435456	; 0x10000000
   10620:	e58d3094 	str	r3, [sp, #148]
   10624:	e28d1014 	add	r1, sp, #20	; 0x14
   10628:	e3a0301f 	mov	r3, #31	; 0x1f
   1062c:	e3e02000 	mvn	r2, #0	; 0x0
   10630:	e7812103 	str	r2, [r1, r3, lsl #2]
   10634:	e2533001 	subs	r3, r3, #1	; 0x1
   10638:	5afffffc 	bpl	10630 <__profil+0x64>
   1063c:	e3a0001b 	mov	r0, #27	; 0x1b
   10640:	e28d1010 	add	r1, sp, #16	; 0x10
   10644:	e3a02000 	mov	r2, #0	; 0x0
   10648:	eb0001d8 	bl	10db0 <__libc_sigaction>
   1064c:	e3500000 	cmp	r0, #0	; 0x0
   10650:	b3e00000 	mvnlt	r0, #0	; 0x0
   10654:	ba000009 	blt	10680 <__profil+0xb4>
   10658:	e3a02000 	mov	r2, #0	; 0x0
   1065c:	e58d2008 	str	r2, [sp, #8]
   10660:	e3a03001 	mov	r3, #1	; 0x1
   10664:	e58d300c 	str	r3, [sp, #12]
   10668:	e1a0100d 	mov	r1, sp
   1066c:	e28d3008 	add	r3, sp, #8	; 0x8
   10670:	e8930030 	ldmia	r3, {r4, r5}
   10674:	e88d0030 	stmia	sp, {r4, r5}
   10678:	e3a00002 	mov	r0, #2	; 0x2
   1067c:	eb0005b3 	bl	11d50 <__setitimer>
   10680:	e28dd09c 	add	sp, sp, #156	; 0x9c
   10684:	e8bd8430 	ldmia	sp!, {r4, r5, sl, pc}
   10688:	0000cfb4 	streqh	ip, [r0], -r4
   1068c:	000001c0 	andeq	r0, r0, r0, asr #3
   10690:	000001bc 	streqh	r0, [r0], -ip
   10694:	000001b4 	streqh	r0, [r0], -r4
   10698:	000001b8 	streqh	r0, [r0], -r8
   1069c:	00000208 	andeq	r0, r0, r8, lsl #4

000106a0 <__profile_frequency>:
   106a0:	e52da004 	str	sl, [sp, #-4]!
   106a4:	e59fa014 	ldr	sl, [pc, #20]	; 106c0 <.text+0xfaf0>
   106a8:	e08fa00a 	add	sl, pc, sl
   106ac:	e59f3010 	ldr	r3, [pc, #16]	; 106c4 <.text+0xfaf4>
   106b0:	e79a3003 	ldr	r3, [sl, r3]
   106b4:	e593001c 	ldr	r0, [r3, #28]
   106b8:	e8bd0400 	ldmia	sp!, {sl}
   106bc:	e1a0f00e 	mov	pc, lr
   106c0:	0000cee4 	andeq	ip, r0, r4, ror #29
   106c4:	00000210 	andeq	r0, r0, r0, lsl r2

000106c8 <__GI___xstat64>:
   106c8:	e52da004 	str	sl, [sp, #-4]!
   106cc:	e59fa030 	ldr	sl, [pc, #48]	; 10704 <.text+0xfb34>
   106d0:	e08fa00a 	add	sl, pc, sl
   106d4:	e1a00001 	mov	r0, r1
   106d8:	e1a01002 	mov	r1, r2
   106dc:	ef9000c3 	swi	0x009000c3
   106e0:	e3700a01 	cmn	r0, #4096	; 0x1000
   106e4:	9a000004 	bls	106fc <__GI___xstat64+0x34>
   106e8:	e2603000 	rsb	r3, r0, #0	; 0x0
   106ec:	e59f2014 	ldr	r2, [pc, #20]	; 10708 <.text+0xfb38>
   106f0:	e79a2002 	ldr	r2, [sl, r2]
   106f4:	e5823000 	str	r3, [r2]
   106f8:	e3e00000 	mvn	r0, #0	; 0x0
   106fc:	e8bd0400 	ldmia	sp!, {sl}
   10700:	e1a0f00e 	mov	pc, lr
   10704:	0000cebc 	streqh	ip, [r0], -ip
   10708:	00000238 	andeq	r0, r0, r8, lsr r2

0001070c <__GI___fxstat64>:
   1070c:	e52da004 	str	sl, [sp, #-4]!
   10710:	e59fa030 	ldr	sl, [pc, #48]	; 10748 <.text+0xfb78>
   10714:	e08fa00a 	add	sl, pc, sl
   10718:	e1a00001 	mov	r0, r1
   1071c:	e1a01002 	mov	r1, r2
   10720:	ef9000c5 	swi	0x009000c5
   10724:	e3700a01 	cmn	r0, #4096	; 0x1000
   10728:	9a000004 	bls	10740 <__GI___fxstat64+0x34>
   1072c:	e2603000 	rsb	r3, r0, #0	; 0x0
   10730:	e59f2014 	ldr	r2, [pc, #20]	; 1074c <.text+0xfb7c>
   10734:	e79a2002 	ldr	r2, [sl, r2]
   10738:	e5823000 	str	r3, [r2]
   1073c:	e3e00000 	mvn	r0, #0	; 0x0
   10740:	e8bd0400 	ldmia	sp!, {sl}
   10744:	e1a0f00e 	mov	pc, lr
   10748:	0000ce78 	andeq	ip, r0, r8, ror lr
   1074c:	00000238 	andeq	r0, r0, r8, lsr r2

00010750 <__libc_open>:
   10750:	ef900005 	swi	0x00900005
   10754:	e3700a01 	cmn	r0, #4096	; 0x1000
   10758:	31a0f00e 	movcc	pc, lr
   1075c:	eaffffff 	b	10760 <__local_syscall_error>

00010760 <__local_syscall_error>:
   10760:	e52de004 	str	lr, [sp, #-4]!
   10764:	e52d0004 	str	r0, [sp, #-4]!
   10768:	eb000584 	bl	11d80 <__errno_location>
   1076c:	e49d1004 	ldr	r1, [sp], #4
   10770:	e2611000 	rsb	r1, r1, #0	; 0x0
   10774:	e5801000 	str	r1, [r0]
   10778:	e3e00000 	mvn	r0, #0	; 0x0
   1077c:	e49df004 	ldr	pc, [sp], #4

00010780 <__close>:
   10780:	ef900006 	swi	0x00900006
   10784:	e3700a01 	cmn	r0, #4096	; 0x1000
   10788:	31a0f00e 	movcc	pc, lr
   1078c:	eaffffff 	b	10790 <__local_syscall_error>

00010790 <__local_syscall_error>:
   10790:	e52de004 	str	lr, [sp, #-4]!
   10794:	e52d0004 	str	r0, [sp, #-4]!
   10798:	eb000578 	bl	11d80 <__errno_location>
   1079c:	e49d1004 	ldr	r1, [sp], #4
   107a0:	e2611000 	rsb	r1, r1, #0	; 0x0
   107a4:	e5801000 	str	r1, [r0]
   107a8:	e3e00000 	mvn	r0, #0	; 0x0
   107ac:	e49df004 	ldr	pc, [sp], #4

000107b0 <__libc_read>:
   107b0:	ef900003 	swi	0x00900003
   107b4:	e3700a01 	cmn	r0, #4096	; 0x1000
   107b8:	31a0f00e 	movcc	pc, lr
   107bc:	eaffffff 	b	107c0 <__local_syscall_error>

000107c0 <__local_syscall_error>:
   107c0:	e52de004 	str	lr, [sp, #-4]!
   107c4:	e52d0004 	str	r0, [sp, #-4]!
   107c8:	eb00056c 	bl	11d80 <__errno_location>
   107cc:	e49d1004 	ldr	r1, [sp], #4
   107d0:	e2611000 	rsb	r1, r1, #0	; 0x0
   107d4:	e5801000 	str	r1, [r0]
   107d8:	e3e00000 	mvn	r0, #0	; 0x0
   107dc:	e49df004 	ldr	pc, [sp], #4

000107e0 <__libc_write>:
   107e0:	ef900004 	swi	0x00900004
   107e4:	e3700a01 	cmn	r0, #4096	; 0x1000
   107e8:	31a0f00e 	movcc	pc, lr
   107ec:	eaffffff 	b	107f0 <__local_syscall_error>

000107f0 <__local_syscall_error>:
   107f0:	e52de004 	str	lr, [sp, #-4]!
   107f4:	e52d0004 	str	r0, [sp, #-4]!
   107f8:	eb000560 	bl	11d80 <__errno_location>
   107fc:	e49d1004 	ldr	r1, [sp], #4
   10800:	e2611000 	rsb	r1, r1, #0	; 0x0
   10804:	e5801000 	str	r1, [r0]
   10808:	e3e00000 	mvn	r0, #0	; 0x0
   1080c:	e49df004 	ldr	pc, [sp], #4

00010810 <__libc_lseek>:
   10810:	ef900013 	swi	0x00900013
   10814:	e3700a01 	cmn	r0, #4096	; 0x1000
   10818:	31a0f00e 	movcc	pc, lr
   1081c:	eaffffff 	b	10820 <__local_syscall_error>

00010820 <__local_syscall_error>:
   10820:	e52de004 	str	lr, [sp, #-4]!
   10824:	e52d0004 	str	r0, [sp, #-4]!
   10828:	eb000554 	bl	11d80 <__errno_location>
   1082c:	e49d1004 	ldr	r1, [sp], #4
   10830:	e2611000 	rsb	r1, r1, #0	; 0x0
   10834:	e5801000 	str	r1, [r0]
   10838:	e3e00000 	mvn	r0, #0	; 0x0
   1083c:	e49df004 	ldr	pc, [sp], #4

00010840 <__access>:
   10840:	ef900021 	swi	0x00900021
   10844:	e3700a01 	cmn	r0, #4096	; 0x1000
   10848:	31a0f00e 	movcc	pc, lr
   1084c:	eaffffff 	b	10850 <__local_syscall_error>

00010850 <__local_syscall_error>:
   10850:	e52de004 	str	lr, [sp, #-4]!
   10854:	e52d0004 	str	r0, [sp, #-4]!
   10858:	eb000548 	bl	11d80 <__errno_location>
   1085c:	e49d1004 	ldr	r1, [sp], #4
   10860:	e2611000 	rsb	r1, r1, #0	; 0x0
   10864:	e5801000 	str	r1, [r0]
   10868:	e3e00000 	mvn	r0, #0	; 0x0
   1086c:	e49df004 	ldr	pc, [sp], #4

00010870 <__fcntl_nocancel>:
   10870:	e92d000e 	stmdb	sp!, {r1, r2, r3}
   10874:	e92d4430 	stmdb	sp!, {r4, r5, sl, lr}
   10878:	e24dd020 	sub	sp, sp, #32	; 0x20
   1087c:	e59fa2b0 	ldr	sl, [pc, #688]	; 10b34 <.text+0xff64>
   10880:	e08fa00a 	add	sl, pc, sl
   10884:	e1a04000 	mov	r4, r0
   10888:	e59de030 	ldr	lr, [sp, #48]
   1088c:	e59dc034 	ldr	ip, [sp, #52]
   10890:	e59f32a0 	ldr	r3, [pc, #672]	; 10b38 <.text+0xff68>
   10894:	e79a3003 	ldr	r3, [sl, r3]
   10898:	e5933000 	ldr	r3, [r3]
   1089c:	e3530000 	cmp	r3, #0	; 0x0
   108a0:	1a000014 	bne	108f8 <__fcntl_nocancel+0x88>
   108a4:	e1a0200c 	mov	r2, ip
   108a8:	e1a0100e 	mov	r1, lr
   108ac:	ef9000dd 	swi	0x009000dd
   108b0:	e3700a01 	cmn	r0, #4096	; 0x1000
   108b4:	9a000004 	bls	108cc <__fcntl_nocancel+0x5c>
   108b8:	e2603000 	rsb	r3, r0, #0	; 0x0
   108bc:	e59f2278 	ldr	r2, [pc, #632]	; 10b3c <.text+0xff6c>
   108c0:	e79a2002 	ldr	r2, [sl, r2]
   108c4:	e5823000 	str	r3, [r2]
   108c8:	e3e00000 	mvn	r0, #0	; 0x0
   108cc:	e3500000 	cmp	r0, #0	; 0x0
   108d0:	aa000093 	bge	10b24 <__fcntl_nocancel+0x2b4>
   108d4:	e59f3260 	ldr	r3, [pc, #608]	; 10b3c <.text+0xff6c>
   108d8:	e79a3003 	ldr	r3, [sl, r3]
   108dc:	e5933000 	ldr	r3, [r3]
   108e0:	e3530026 	cmp	r3, #38	; 0x26
   108e4:	1a00008e 	bne	10b24 <__fcntl_nocancel+0x2b4>
   108e8:	e3a03001 	mov	r3, #1	; 0x1
   108ec:	e59f2244 	ldr	r2, [pc, #580]	; 10b38 <.text+0xff68>
   108f0:	e79a2002 	ldr	r2, [sl, r2]
   108f4:	e5823000 	str	r3, [r2]
   108f8:	e35e000c 	cmp	lr, #12	; 0xc
   108fc:	0a000003 	beq	10910 <__fcntl_nocancel+0xa0>
   10900:	ba00007c 	blt	10af8 <__fcntl_nocancel+0x288>
   10904:	e35e000e 	cmp	lr, #14	; 0xe
   10908:	ca00007a 	bgt	10af8 <__fcntl_nocancel+0x288>
   1090c:	ea000047 	b	10a30 <__fcntl_nocancel+0x1c0>
   10910:	e1a0e00c 	mov	lr, ip
   10914:	e59c3004 	ldr	r3, [ip, #4]
   10918:	e58d3014 	str	r3, [sp, #20]
   1091c:	e1a00003 	mov	r0, r3
   10920:	e1a01fc0 	mov	r1, r0, asr #31
   10924:	e59c3004 	ldr	r3, [ip, #4]
   10928:	e1530000 	cmp	r3, r0
   1092c:	1a000002 	bne	1093c <__fcntl_nocancel+0xcc>
   10930:	e59c3008 	ldr	r3, [ip, #8]
   10934:	e1530001 	cmp	r3, r1
   10938:	0a000005 	beq	10954 <__fcntl_nocancel+0xe4>
   1093c:	e3a0304b 	mov	r3, #75	; 0x4b
   10940:	e59f21f4 	ldr	r2, [pc, #500]	; 10b3c <.text+0xff6c>
   10944:	e79a2002 	ldr	r2, [sl, r2]
   10948:	e5823000 	str	r3, [r2]
   1094c:	e3e00000 	mvn	r0, #0	; 0x0
   10950:	ea000073 	b	10b24 <__fcntl_nocancel+0x2b4>
   10954:	e28c000c 	add	r0, ip, #12	; 0xc
   10958:	e59c300c 	ldr	r3, [ip, #12]
   1095c:	e58d3018 	str	r3, [sp, #24]
   10960:	e1a01003 	mov	r1, r3
   10964:	e1a02fc1 	mov	r2, r1, asr #31
   10968:	e59c300c 	ldr	r3, [ip, #12]
   1096c:	e1530001 	cmp	r3, r1
   10970:	1afffff1 	bne	1093c <__fcntl_nocancel+0xcc>
   10974:	e5903004 	ldr	r3, [r0, #4]
   10978:	e1530002 	cmp	r3, r2
   1097c:	1affffee 	bne	1093c <__fcntl_nocancel+0xcc>
   10980:	e59c3000 	ldr	r3, [ip]
   10984:	e5cd3010 	strb	r3, [sp, #16]
   10988:	e1a03443 	mov	r3, r3, asr #8
   1098c:	e5cd3011 	strb	r3, [sp, #17]
   10990:	e59c3000 	ldr	r3, [ip]
   10994:	e1a03823 	mov	r3, r3, lsr #16
   10998:	e5cd3012 	strb	r3, [sp, #18]
   1099c:	e1a03443 	mov	r3, r3, asr #8
   109a0:	e5cd3013 	strb	r3, [sp, #19]
   109a4:	e59c3014 	ldr	r3, [ip, #20]
   109a8:	e58d301c 	str	r3, [sp, #28]
   109ac:	e28d2010 	add	r2, sp, #16	; 0x10
   109b0:	e3a01005 	mov	r1, #5	; 0x5
   109b4:	e1a00004 	mov	r0, r4
   109b8:	ef900037 	swi	0x00900037
   109bc:	e3700a01 	cmn	r0, #4096	; 0x1000
   109c0:	9a000004 	bls	109d8 <__fcntl_nocancel+0x168>
   109c4:	e2603000 	rsb	r3, r0, #0	; 0x0
   109c8:	e59f216c 	ldr	r2, [pc, #364]	; 10b3c <.text+0xff6c>
   109cc:	e79a2002 	ldr	r2, [sl, r2]
   109d0:	e5823000 	str	r3, [r2]
   109d4:	e3e00000 	mvn	r0, #0	; 0x0
   109d8:	e3500000 	cmp	r0, #0	; 0x0
   109dc:	1a000050 	bne	10b24 <__fcntl_nocancel+0x2b4>
   109e0:	e59d3010 	ldr	r3, [sp, #16]
   109e4:	e5ce3000 	strb	r3, [lr]
   109e8:	e1a03443 	mov	r3, r3, asr #8
   109ec:	e5ce3001 	strb	r3, [lr, #1]
   109f0:	e59d3010 	ldr	r3, [sp, #16]
   109f4:	e1a03823 	mov	r3, r3, lsr #16
   109f8:	e5ce3002 	strb	r3, [lr, #2]
   109fc:	e1a03443 	mov	r3, r3, asr #8
   10a00:	e5ce3003 	strb	r3, [lr, #3]
   10a04:	e59d3014 	ldr	r3, [sp, #20]
   10a08:	e1a04fc3 	mov	r4, r3, asr #31
   10a0c:	e98e0018 	stmib	lr, {r3, r4}
   10a10:	e28e200c 	add	r2, lr, #12	; 0xc
   10a14:	e59d3018 	ldr	r3, [sp, #24]
   10a18:	e1a04fc3 	mov	r4, r3, asr #31
   10a1c:	e8820018 	stmia	r2, {r3, r4}
   10a20:	e59d301c 	ldr	r3, [sp, #28]
   10a24:	e58e3014 	str	r3, [lr, #20]
   10a28:	e3a00000 	mov	r0, #0	; 0x0
   10a2c:	ea00003c 	b	10b24 <__fcntl_nocancel+0x2b4>
   10a30:	e59c3004 	ldr	r3, [ip, #4]
   10a34:	e58d3004 	str	r3, [sp, #4]
   10a38:	e1a01003 	mov	r1, r3
   10a3c:	e1a02fc1 	mov	r2, r1, asr #31
   10a40:	e59c3004 	ldr	r3, [ip, #4]
   10a44:	e1530001 	cmp	r3, r1
   10a48:	1affffbb 	bne	1093c <__fcntl_nocancel+0xcc>
   10a4c:	e59c3008 	ldr	r3, [ip, #8]
   10a50:	e1530002 	cmp	r3, r2
   10a54:	1affffb8 	bne	1093c <__fcntl_nocancel+0xcc>
   10a58:	e28c500c 	add	r5, ip, #12	; 0xc
   10a5c:	e59c300c 	ldr	r3, [ip, #12]
   10a60:	e58d3008 	str	r3, [sp, #8]
   10a64:	e1a01003 	mov	r1, r3
   10a68:	e1a02fc1 	mov	r2, r1, asr #31
   10a6c:	e59c300c 	ldr	r3, [ip, #12]
   10a70:	e1530001 	cmp	r3, r1
   10a74:	1a000002 	bne	10a84 <__fcntl_nocancel+0x214>
   10a78:	e5953004 	ldr	r3, [r5, #4]
   10a7c:	e1530002 	cmp	r3, r2
   10a80:	0a000005 	beq	10a9c <__fcntl_nocancel+0x22c>
   10a84:	e3a0304b 	mov	r3, #75	; 0x4b
   10a88:	e59f20ac 	ldr	r2, [pc, #172]	; 10b3c <.text+0xff6c>
   10a8c:	e79a2002 	ldr	r2, [sl, r2]
   10a90:	e5823000 	str	r3, [r2]
   10a94:	e3e00000 	mvn	r0, #0	; 0x0
   10a98:	ea000021 	b	10b24 <__fcntl_nocancel+0x2b4>
   10a9c:	e59c3000 	ldr	r3, [ip]
   10aa0:	e5cd3000 	strb	r3, [sp]
   10aa4:	e1a03443 	mov	r3, r3, asr #8
   10aa8:	e5cd3001 	strb	r3, [sp, #1]
   10aac:	e59c3000 	ldr	r3, [ip]
   10ab0:	e1a03823 	mov	r3, r3, lsr #16
   10ab4:	e5cd3002 	strb	r3, [sp, #2]
   10ab8:	e1a03443 	mov	r3, r3, asr #8
   10abc:	e5cd3003 	strb	r3, [sp, #3]
   10ac0:	e59c3014 	ldr	r3, [ip, #20]
   10ac4:	e58d300c 	str	r3, [sp, #12]
   10ac8:	e1a0200d 	mov	r2, sp
   10acc:	e24e1007 	sub	r1, lr, #7	; 0x7
   10ad0:	e1a00004 	mov	r0, r4
   10ad4:	ef900037 	swi	0x00900037
   10ad8:	e3700a01 	cmn	r0, #4096	; 0x1000
   10adc:	9a000010 	bls	10b24 <__fcntl_nocancel+0x2b4>
   10ae0:	e2603000 	rsb	r3, r0, #0	; 0x0
   10ae4:	e59f2050 	ldr	r2, [pc, #80]	; 10b3c <.text+0xff6c>
   10ae8:	e79a2002 	ldr	r2, [sl, r2]
   10aec:	e5823000 	str	r3, [r2]
   10af0:	e3e00000 	mvn	r0, #0	; 0x0
   10af4:	ea00000a 	b	10b24 <__fcntl_nocancel+0x2b4>
   10af8:	e1a0200c 	mov	r2, ip
   10afc:	e1a0100e 	mov	r1, lr
   10b00:	e1a00004 	mov	r0, r4
   10b04:	ef900037 	swi	0x00900037
   10b08:	e3700a01 	cmn	r0, #4096	; 0x1000
   10b0c:	9a000004 	bls	10b24 <__fcntl_nocancel+0x2b4>
   10b10:	e2603000 	rsb	r3, r0, #0	; 0x0
   10b14:	e59f2020 	ldr	r2, [pc, #32]	; 10b3c <.text+0xff6c>
   10b18:	e79a2002 	ldr	r2, [sl, r2]
   10b1c:	e5823000 	str	r3, [r2]
   10b20:	e3e00000 	mvn	r0, #0	; 0x0
   10b24:	e28dd020 	add	sp, sp, #32	; 0x20
   10b28:	e8bd4430 	ldmia	sp!, {r4, r5, sl, lr}
   10b2c:	e28dd00c 	add	sp, sp, #12	; 0xc
   10b30:	e1a0f00e 	mov	pc, lr
   10b34:	0000cd0c 	andeq	ip, r0, ip, lsl #26
   10b38:	0000021c 	andeq	r0, r0, ip, lsl r2
   10b3c:	00000238 	andeq	r0, r0, r8, lsr r2

00010b40 <__fcntl>:
   10b40:	e92d000e 	stmdb	sp!, {r1, r2, r3}
   10b44:	e52de004 	str	lr, [sp, #-4]!
   10b48:	e99d0006 	ldmib	sp, {r1, r2}
   10b4c:	ebffff47 	bl	10870 <__fcntl_nocancel>
   10b50:	e49de004 	ldr	lr, [sp], #4
   10b54:	e28dd00c 	add	sp, sp, #12	; 0xc
   10b58:	e1a0f00e 	mov	pc, lr

00010b5c <__getcwd>:
   10b5c:	e92d4400 	stmdb	sp!, {sl, lr}
   10b60:	e59fa07c 	ldr	sl, [pc, #124]	; 10be4 <.text+0x10014>
   10b64:	e08fa00a 	add	sl, pc, sl
   10b68:	e1a0c000 	mov	ip, r0
   10b6c:	e1a0e001 	mov	lr, r1
   10b70:	ef9000b7 	swi	0x009000b7
   10b74:	e3700a01 	cmn	r0, #4096	; 0x1000
   10b78:	9a000004 	bls	10b90 <__getcwd+0x34>
   10b7c:	e2603000 	rsb	r3, r0, #0	; 0x0
   10b80:	e59f2060 	ldr	r2, [pc, #96]	; 10be8 <.text+0x10018>
   10b84:	e79a2002 	ldr	r2, [sl, r2]
   10b88:	e5823000 	str	r3, [r2]
   10b8c:	e3e00000 	mvn	r0, #0	; 0x0
   10b90:	e3500000 	cmp	r0, #0	; 0x0
   10b94:	a1a0000c 	movge	r0, ip
   10b98:	a8bd8400 	ldmgeia	sp!, {sl, pc}
   10b9c:	e59f3044 	ldr	r3, [pc, #68]	; 10be8 <.text+0x10018>
   10ba0:	e79a3003 	ldr	r3, [sl, r3]
   10ba4:	e5933000 	ldr	r3, [r3]
   10ba8:	e3530022 	cmp	r3, #34	; 0x22
   10bac:	035c0000 	cmpeq	ip, #0	; 0x0
   10bb0:	1a000009 	bne	10bdc <__getcwd+0x80>
   10bb4:	e35e0000 	cmp	lr, #0	; 0x0
   10bb8:	1a000007 	bne	10bdc <__getcwd+0x80>
   10bbc:	e59f0028 	ldr	r0, [pc, #40]	; 10bec <.text+0x1001c>
   10bc0:	e08a0000 	add	r0, sl, r0
   10bc4:	e59f1024 	ldr	r1, [pc, #36]	; 10bf0 <.text+0x10020>
   10bc8:	e08a1001 	add	r1, sl, r1
   10bcc:	e3a02082 	mov	r2, #130	; 0x82
   10bd0:	e59f301c 	ldr	r3, [pc, #28]	; 10bf4 <.text+0x10024>
   10bd4:	e79a3003 	ldr	r3, [sl, r3]
   10bd8:	ebfffaf8 	bl	f7c0 <__GI___assert_fail>
   10bdc:	e3a00000 	mov	r0, #0	; 0x0
   10be0:	e8bd8400 	ldmia	sp!, {sl, pc}
   10be4:	0000ca28 	andeq	ip, r0, r8, lsr #20
   10be8:	00000238 	andeq	r0, r0, r8, lsr r2
   10bec:	ffff7848 	swinv	0x00ff7848
   10bf0:	ffff787c 	swinv	0x00ff787c
   10bf4:	000001c4 	andeq	r0, r0, r4, asr #3

00010bf8 <__getpagesize>:
   10bf8:	e52da004 	str	sl, [sp, #-4]!
   10bfc:	e59fa01c 	ldr	sl, [pc, #28]	; 10c20 <.text+0x10050>
   10c00:	e08fa00a 	add	sl, pc, sl
   10c04:	e59f3018 	ldr	r3, [pc, #24]	; 10c24 <.text+0x10054>
   10c08:	e79a3003 	ldr	r3, [sl, r3]
   10c0c:	e5930004 	ldr	r0, [r3, #4]
   10c10:	e3500000 	cmp	r0, #0	; 0x0
   10c14:	03a00a01 	moveq	r0, #4096	; 0x1000
   10c18:	e8bd0400 	ldmia	sp!, {sl}
   10c1c:	e1a0f00e 	mov	pc, lr
   10c20:	0000c98c 	andeq	ip, r0, ip, lsl #19
   10c24:	00000210 	andeq	r0, r0, r0, lsl r2
	...

00010c30 <__mmap>:
   10c30:	e52d5004 	str	r5, [sp, #-4]!
   10c34:	e59d5008 	ldr	r5, [sp, #8]
   10c38:	e52d4004 	str	r4, [sp, #-4]!
   10c3c:	e59d4008 	ldr	r4, [sp, #8]
   10c40:	e1b0ca05 	movs	ip, r5, lsl #20
   10c44:	1a000006 	bne	10c64 <__mmap+0x34>
   10c48:	e1a05625 	mov	r5, r5, lsr #12
   10c4c:	ef9000c0 	swi	0x009000c0
   10c50:	e49d4004 	ldr	r4, [sp], #4
   10c54:	e49d5004 	ldr	r5, [sp], #4
   10c58:	e3700a01 	cmn	r0, #4096	; 0x1000
   10c5c:	31a0f00e 	movcc	pc, lr
   10c60:	ea000452 	b	11db0 <__syscall_error>
   10c64:	e3e00015 	mvn	r0, #21	; 0x15
   10c68:	eafffff8 	b	10c50 <__mmap+0x20>

00010c6c <__local_syscall_error>:
   10c6c:	e52de004 	str	lr, [sp, #-4]!
   10c70:	e52d0004 	str	r0, [sp, #-4]!
   10c74:	eb000441 	bl	11d80 <__errno_location>
   10c78:	e49d1004 	ldr	r1, [sp], #4
   10c7c:	e2611000 	rsb	r1, r1, #0	; 0x0
   10c80:	e5801000 	str	r1, [r0]
   10c84:	e3e00000 	mvn	r0, #0	; 0x0
   10c88:	e49df004 	ldr	pc, [sp], #4
   10c8c:	e1a00000 	nop			(mov r0,r0)

00010c90 <__munmap>:
   10c90:	ef90005b 	swi	0x0090005b
   10c94:	e3700a01 	cmn	r0, #4096	; 0x1000
   10c98:	31a0f00e 	movcc	pc, lr
   10c9c:	eaffffff 	b	10ca0 <__local_syscall_error>

00010ca0 <__local_syscall_error>:
   10ca0:	e52de004 	str	lr, [sp, #-4]!
   10ca4:	e52d0004 	str	r0, [sp, #-4]!
   10ca8:	eb000434 	bl	11d80 <__errno_location>
   10cac:	e49d1004 	ldr	r1, [sp], #4
   10cb0:	e2611000 	rsb	r1, r1, #0	; 0x0
   10cb4:	e5801000 	str	r1, [r0]
   10cb8:	e3e00000 	mvn	r0, #0	; 0x0
   10cbc:	e49df004 	ldr	pc, [sp], #4

00010cc0 <__mprotect>:
   10cc0:	ef90007d 	swi	0x0090007d
   10cc4:	e3700a01 	cmn	r0, #4096	; 0x1000
   10cc8:	31a0f00e 	movcc	pc, lr
   10ccc:	eaffffff 	b	10cd0 <__local_syscall_error>

00010cd0 <__local_syscall_error>:
   10cd0:	e52de004 	str	lr, [sp, #-4]!
   10cd4:	e52d0004 	str	r0, [sp, #-4]!
   10cd8:	eb000428 	bl	11d80 <__errno_location>
   10cdc:	e49d1004 	ldr	r1, [sp], #4
   10ce0:	e2611000 	rsb	r1, r1, #0	; 0x0
   10ce4:	e5801000 	str	r1, [r0]
   10ce8:	e3e00000 	mvn	r0, #0	; 0x0
   10cec:	e49df004 	ldr	pc, [sp], #4

00010cf0 <__uname>:
   10cf0:	ef90007a 	swi	0x0090007a
   10cf4:	e3700a01 	cmn	r0, #4096	; 0x1000
   10cf8:	31a0f00e 	movcc	pc, lr
   10cfc:	eaffffff 	b	10d00 <__local_syscall_error>

00010d00 <__local_syscall_error>:
   10d00:	e52de004 	str	lr, [sp, #-4]!
   10d04:	e52d0004 	str	r0, [sp, #-4]!
   10d08:	eb00041c 	bl	11d80 <__errno_location>
   10d0c:	e49d1004 	ldr	r1, [sp], #4
   10d10:	e2611000 	rsb	r1, r1, #0	; 0x0
   10d14:	e5801000 	str	r1, [r0]
   10d18:	e3e00000 	mvn	r0, #0	; 0x0
   10d1c:	e49df004 	ldr	pc, [sp], #4

00010d20 <_Exit>:
   10d20:	e52da004 	str	sl, [sp, #-4]!
   10d24:	e59fa038 	ldr	sl, [pc, #56]	; 10d64 <.text+0x10194>
   10d28:	e08fa00a 	add	sl, pc, sl
   10d2c:	e1a02000 	mov	r2, r0
   10d30:	e59f3030 	ldr	r3, [pc, #48]	; 10d68 <.text+0x10198>
   10d34:	e79a1003 	ldr	r1, [sl, r3]
   10d38:	e1a00002 	mov	r0, r2
   10d3c:	ef9000f8 	swi	0x009000f8
   10d40:	e3700a01 	cmn	r0, #4096	; 0x1000
   10d44:	82603000 	rsbhi	r3, r0, #0	; 0x0
   10d48:	85813000 	strhi	r3, [r1]
   10d4c:	e1a00002 	mov	r0, r2
   10d50:	ef900001 	swi	0x00900001
   10d54:	e3700a01 	cmn	r0, #4096	; 0x1000
   10d58:	82603000 	rsbhi	r3, r0, #0	; 0x0
   10d5c:	85813000 	strhi	r3, [r1]
   10d60:	eafffff4 	b	10d38 <_Exit+0x18>
   10d64:	0000c864 	andeq	ip, r0, r4, ror #16
   10d68:	00000238 	andeq	r0, r0, r8, lsr r2
   10d6c:	00000000 	andeq	r0, r0, r0

00010d70 <__getpid>:
   10d70:	ef900014 	swi	0x00900014
   10d74:	e1a0f00e 	mov	pc, lr
   10d78:	e1a00000 	nop			(mov r0,r0)
   10d7c:	e1a00000 	nop			(mov r0,r0)

00010d80 <_setjmp>:
   10d80:	e3a01000 	mov	r1, #0	; 0x0
   10d84:	ea000005 	b	10da0 <__sigsetjmp>
   10d88:	e1a00000 	nop			(mov r0,r0)
   10d8c:	e1a00000 	nop			(mov r0,r0)

00010d90 <__longjmp>:
   10d90:	e1a0c000 	mov	ip, r0
   10d94:	e1b00001 	movs	r0, r1
   10d98:	03a00001 	moveq	r0, #1	; 0x1
   10d9c:	e89caff0 	ldmia	ip, {r4, r5, r6, r7, r8, r9, sl, fp, sp, pc}

00010da0 <__sigsetjmp>:
   10da0:	e8806ff0 	stmia	r0, {r4, r5, r6, r7, r8, r9, sl, fp, sp, lr}
   10da4:	eafffa39 	b	f690 <__sigjmp_save>
   10da8:	e1a00000 	nop			(mov r0,r0)
   10dac:	e1a00000 	nop			(mov r0,r0)

00010db0 <__libc_sigaction>:
   10db0:	e92d4470 	stmdb	sp!, {r4, r5, r6, sl, lr}
   10db4:	e24ddf46 	sub	sp, sp, #280	; 0x118
   10db8:	e59fa0f8 	ldr	sl, [pc, #248]	; 10eb8 <.text+0x102e8>
   10dbc:	e08fa00a 	add	sl, pc, sl
   10dc0:	e1a06000 	mov	r6, r0
   10dc4:	e1a05002 	mov	r5, r2
   10dc8:	e2514000 	subs	r4, r1, #0	; 0x0
   10dcc:	0a000015 	beq	10e28 <__libc_sigaction+0x78>
   10dd0:	e1a01004 	mov	r1, r4
   10dd4:	e4913004 	ldr	r3, [r1], #4
   10dd8:	e58d308c 	str	r3, [sp, #140]
   10ddc:	e28d0098 	add	r0, sp, #152	; 0x98
   10de0:	e3a02080 	mov	r2, #128	; 0x80
   10de4:	eb0002ba 	bl	118d4 <memcpy>
   10de8:	e5943084 	ldr	r3, [r4, #132]
   10dec:	e58d3090 	str	r3, [sp, #144]
   10df0:	e3130303 	tst	r3, #201326592	; 0xc000000
   10df4:	15943088 	ldrne	r3, [r4, #136]
   10df8:	158d3094 	strne	r3, [sp, #148]
   10dfc:	1a000009 	bne	10e28 <__libc_sigaction+0x78>
   10e00:	e59d3090 	ldr	r3, [sp, #144]
   10e04:	e3130004 	tst	r3, #4	; 0x4
   10e08:	159f30ac 	ldrne	r3, [pc, #172]	; 10ebc <.text+0x102ec>
   10e0c:	179a3003 	ldrne	r3, [sl, r3]
   10e10:	059f30a8 	ldreq	r3, [pc, #168]	; 10ec0 <.text+0x102f0>
   10e14:	079a3003 	ldreq	r3, [sl, r3]
   10e18:	e58d3094 	str	r3, [sp, #148]
   10e1c:	e59d3090 	ldr	r3, [sp, #144]
   10e20:	e3833301 	orr	r3, r3, #67108864	; 0x4000000
   10e24:	e58d3090 	str	r3, [sp, #144]
   10e28:	e3a03008 	mov	r3, #8	; 0x8
   10e2c:	e3550000 	cmp	r5, #0	; 0x0
   10e30:	11a0200d 	movne	r2, sp
   10e34:	03a02000 	moveq	r2, #0	; 0x0
   10e38:	e3540000 	cmp	r4, #0	; 0x0
   10e3c:	128d108c 	addne	r1, sp, #140	; 0x8c
   10e40:	03a01000 	moveq	r1, #0	; 0x0
   10e44:	e1a00006 	mov	r0, r6
   10e48:	ef9000ae 	swi	0x009000ae
   10e4c:	e3700a01 	cmn	r0, #4096	; 0x1000
   10e50:	9a000004 	bls	10e68 <__libc_sigaction+0xb8>
   10e54:	e2603000 	rsb	r3, r0, #0	; 0x0
   10e58:	e59f2064 	ldr	r2, [pc, #100]	; 10ec4 <.text+0x102f4>
   10e5c:	e79a2002 	ldr	r2, [sl, r2]
   10e60:	e5823000 	str	r3, [r2]
   10e64:	e3e00000 	mvn	r0, #0	; 0x0
   10e68:	e1a04000 	mov	r4, r0
   10e6c:	e2553000 	subs	r3, r5, #0	; 0x0
   10e70:	13a03001 	movne	r3, #1	; 0x1
   10e74:	e3500000 	cmp	r0, #0	; 0x0
   10e78:	b3a03000 	movlt	r3, #0	; 0x0
   10e7c:	e3530000 	cmp	r3, #0	; 0x0
   10e80:	0a000009 	beq	10eac <__libc_sigaction+0xfc>
   10e84:	e1a00005 	mov	r0, r5
   10e88:	e59d3000 	ldr	r3, [sp]
   10e8c:	e4803004 	str	r3, [r0], #4
   10e90:	e28d100c 	add	r1, sp, #12	; 0xc
   10e94:	e3a02080 	mov	r2, #128	; 0x80
   10e98:	eb00028d 	bl	118d4 <memcpy>
   10e9c:	e59d3004 	ldr	r3, [sp, #4]
   10ea0:	e5853084 	str	r3, [r5, #132]
   10ea4:	e59d3008 	ldr	r3, [sp, #8]
   10ea8:	e5853088 	str	r3, [r5, #136]
   10eac:	e1a00004 	mov	r0, r4
   10eb0:	e28ddf46 	add	sp, sp, #280	; 0x118
   10eb4:	e8bd8470 	ldmia	sp!, {r4, r5, r6, sl, pc}
   10eb8:	0000c7d0 	ldreqd	ip, [r0], -r0
   10ebc:	0000022c 	andeq	r0, r0, ip, lsr #4
   10ec0:	00000248 	andeq	r0, r0, r8, asr #4
   10ec4:	00000238 	andeq	r0, r0, r8, lsr r2
	...

00010ed0 <__default_sa_restorer>:
   10ed0:	ef900077 	swi	0x00900077
	...

00010ee0 <__default_rt_sa_restorer>:
   10ee0:	ef9000ad 	swi	0x009000ad
   10ee4:	e1a00000 	nop			(mov r0,r0)
   10ee8:	e1a00000 	nop			(mov r0,r0)
   10eec:	e1a00000 	nop			(mov r0,r0)

00010ef0 <index>:
   10ef0:	e92d4030 	stmdb	sp!, {r4, r5, lr}
   10ef4:	e20110ff 	and	r1, r1, #255	; 0xff
   10ef8:	e3100003 	tst	r0, #3	; 0x3
   10efc:	0a00000a 	beq	10f2c <index+0x3c>
   10f00:	e5d03000 	ldrb	r3, [r0]
   10f04:	e1530001 	cmp	r3, r1
   10f08:	08bd8030 	ldmeqia	sp!, {r4, r5, pc}
   10f0c:	e5d03000 	ldrb	r3, [r0]
   10f10:	e3530000 	cmp	r3, #0	; 0x0
   10f14:	1a000001 	bne	10f20 <index+0x30>
   10f18:	e1a00003 	mov	r0, r3
   10f1c:	e8bd8030 	ldmia	sp!, {r4, r5, pc}
   10f20:	e2800001 	add	r0, r0, #1	; 0x1
   10f24:	e3100003 	tst	r0, #3	; 0x3
   10f28:	1afffff4 	bne	10f00 <index+0x10>
   10f2c:	e1a0c000 	mov	ip, r0
   10f30:	e3e0e481 	mvn	lr, #-2130706432	; 0x81000000
   10f34:	e24ee801 	sub	lr, lr, #65536	; 0x10000
   10f38:	e24eec01 	sub	lr, lr, #256	; 0x100
   10f3c:	e1815401 	orr	r5, r1, r1, lsl #8
   10f40:	e1855805 	orr	r5, r5, r5, lsl #16
   10f44:	e1e0400e 	mvn	r4, lr
   10f48:	e49c2004 	ldr	r2, [ip], #4
   10f4c:	e082300e 	add	r3, r2, lr
   10f50:	e0223003 	eor	r3, r2, r3
   10f54:	e1d43003 	bics	r3, r4, r3
   10f58:	1a000004 	bne	10f70 <index+0x80>
   10f5c:	e0223005 	eor	r3, r2, r5
   10f60:	e083200e 	add	r2, r3, lr
   10f64:	e0233002 	eor	r3, r3, r2
   10f68:	e1d43003 	bics	r3, r4, r3
   10f6c:	0afffff5 	beq	10f48 <index+0x58>
   10f70:	e24c0004 	sub	r0, ip, #4	; 0x4
   10f74:	e55c3004 	ldrb	r3, [ip, #-4]
   10f78:	e1530001 	cmp	r3, r1
   10f7c:	08bd8030 	ldmeqia	sp!, {r4, r5, pc}
   10f80:	e5d03000 	ldrb	r3, [r0]
   10f84:	e3530000 	cmp	r3, #0	; 0x0
   10f88:	1a000001 	bne	10f94 <index+0xa4>
   10f8c:	e1a00003 	mov	r0, r3
   10f90:	e8bd8030 	ldmia	sp!, {r4, r5, pc}
   10f94:	e5f03001 	ldrb	r3, [r0, #1]!
   10f98:	e1530001 	cmp	r3, r1
   10f9c:	08bd8030 	ldmeqia	sp!, {r4, r5, pc}
   10fa0:	e5d03000 	ldrb	r3, [r0]
   10fa4:	e3530000 	cmp	r3, #0	; 0x0
   10fa8:	1a000001 	bne	10fb4 <index+0xc4>
   10fac:	e1a00003 	mov	r0, r3
   10fb0:	e8bd8030 	ldmia	sp!, {r4, r5, pc}
   10fb4:	e5f03001 	ldrb	r3, [r0, #1]!
   10fb8:	e1530001 	cmp	r3, r1
   10fbc:	08bd8030 	ldmeqia	sp!, {r4, r5, pc}
   10fc0:	e5d03000 	ldrb	r3, [r0]
   10fc4:	e3530000 	cmp	r3, #0	; 0x0
   10fc8:	1a000001 	bne	10fd4 <index+0xe4>
   10fcc:	e1a00003 	mov	r0, r3
   10fd0:	e8bd8030 	ldmia	sp!, {r4, r5, pc}
   10fd4:	e5f03001 	ldrb	r3, [r0, #1]!
   10fd8:	e1530001 	cmp	r3, r1
   10fdc:	08bd8030 	ldmeqia	sp!, {r4, r5, pc}
   10fe0:	e5d00000 	ldrb	r0, [r0]
   10fe4:	e3500000 	cmp	r0, #0	; 0x0
   10fe8:	1affffd6 	bne	10f48 <index+0x58>
   10fec:	e8bd8030 	ldmia	sp!, {r4, r5, pc}

00010ff0 <strcmp>:
   10ff0:	e1a02000 	mov	r2, r0
   10ff4:	e4d20001 	ldrb	r0, [r2], #1
   10ff8:	e4d13001 	ldrb	r3, [r1], #1
   10ffc:	e3500000 	cmp	r0, #0	; 0x0
   11000:	1a000001 	bne	1100c <strcmp+0x1c>
   11004:	e2630000 	rsb	r0, r3, #0	; 0x0
   11008:	e1a0f00e 	mov	pc, lr
   1100c:	e1500003 	cmp	r0, r3
   11010:	0afffff7 	beq	10ff4 <strcmp+0x4>
   11014:	e0630000 	rsb	r0, r3, r0
   11018:	e1a0f00e 	mov	pc, lr
   1101c:	00000000 	andeq	r0, r0, r0

00011020 <strlen>:
   11020:	e3c01003 	bic	r1, r0, #3	; 0x3
   11024:	e4912004 	ldr	r2, [r1], #4
   11028:	e2103003 	ands	r3, r0, #3	; 0x3
   1102c:	e2630000 	rsb	r0, r3, #0	; 0x0
   11030:	0a000004 	beq	11048 <Laligned>
   11034:	e38220ff 	orr	r2, r2, #255	; 0xff
   11038:	e2533001 	subs	r3, r3, #1	; 0x1
   1103c:	c3822cff 	orrgt	r2, r2, #65280	; 0xff00
   11040:	e2533001 	subs	r3, r3, #1	; 0x1
   11044:	c38228ff 	orrgt	r2, r2, #16711680	; 0xff0000

00011048 <Laligned>:
   11048:	e31200ff 	tst	r2, #255	; 0xff
   1104c:	13120cff 	tstne	r2, #65280	; 0xff00
   11050:	131208ff 	tstne	r2, #16711680	; 0xff0000
   11054:	131204ff 	tstne	r2, #-16777216	; 0xff000000
   11058:	12800004 	addne	r0, r0, #4	; 0x4
   1105c:	14912004 	ldrne	r2, [r1], #4
   11060:	1afffff8 	bne	11048 <Laligned>

00011064 <Llastword>:
   11064:	e31200ff 	tst	r2, #255	; 0xff
   11068:	12800001 	addne	r0, r0, #1	; 0x1
   1106c:	13120cff 	tstne	r2, #65280	; 0xff00
   11070:	12800001 	addne	r0, r0, #1	; 0x1
   11074:	131208ff 	tstne	r2, #16711680	; 0xff0000
   11078:	12800001 	addne	r0, r0, #1	; 0x1
   1107c:	e1a0f00e 	mov	pc, lr

00011080 <__strnlen>:
   11080:	e92d4030 	stmdb	sp!, {r4, r5, lr}
   11084:	e1a0e000 	mov	lr, r0
   11088:	e1a00001 	mov	r0, r1
   1108c:	e08e1001 	add	r1, lr, r1
   11090:	e3500000 	cmp	r0, #0	; 0x0
   11094:	08bd8030 	ldmeqia	sp!, {r4, r5, pc}
   11098:	e151000e 	cmp	r1, lr
   1109c:	33e01000 	mvncc	r1, #0	; 0x0
   110a0:	e1a0000e 	mov	r0, lr
   110a4:	e31e0003 	tst	lr, #3	; 0x3
   110a8:	0a000009 	beq	110d4 <__strnlen+0x54>
   110ac:	e5d03000 	ldrb	r3, [r0]
   110b0:	e3530000 	cmp	r3, #0	; 0x0
   110b4:	1a000003 	bne	110c8 <__strnlen+0x48>
   110b8:	e1500001 	cmp	r0, r1
   110bc:	906e0000 	rsbls	r0, lr, r0
   110c0:	806e0001 	rsbhi	r0, lr, r1
   110c4:	e8bd8030 	ldmia	sp!, {r4, r5, pc}
   110c8:	e2800001 	add	r0, r0, #1	; 0x1
   110cc:	e3100003 	tst	r0, #3	; 0x3
   110d0:	1afffff5 	bne	110ac <__strnlen+0x2c>
   110d4:	e1a02000 	mov	r2, r0
   110d8:	e3a05902 	mov	r5, #32768	; 0x8000
   110dc:	e2855080 	add	r5, r5, #128	; 0x80
   110e0:	e1855805 	orr	r5, r5, r5, lsl #16
   110e4:	e3a04c01 	mov	r4, #256	; 0x100
   110e8:	e2844001 	add	r4, r4, #1	; 0x1
   110ec:	e1844804 	orr	r4, r4, r4, lsl #16
   110f0:	e1500001 	cmp	r0, r1
   110f4:	2a000017 	bcs	11158 <__strnlen+0xd8>
   110f8:	e4923004 	ldr	r3, [r2], #4
   110fc:	e0643003 	rsb	r3, r4, r3
   11100:	e1130005 	tst	r3, r5
   11104:	0a000010 	beq	1114c <__strnlen+0xcc>
   11108:	e2420004 	sub	r0, r2, #4	; 0x4
   1110c:	e1a0c000 	mov	ip, r0
   11110:	e5523004 	ldrb	r3, [r2, #-4]
   11114:	e3530000 	cmp	r3, #0	; 0x0
   11118:	0a00000e 	beq	11158 <__strnlen+0xd8>
   1111c:	e2420003 	sub	r0, r2, #3	; 0x3
   11120:	e5dc3001 	ldrb	r3, [ip, #1]
   11124:	e3530000 	cmp	r3, #0	; 0x0
   11128:	0a00000a 	beq	11158 <__strnlen+0xd8>
   1112c:	e2420002 	sub	r0, r2, #2	; 0x2
   11130:	e5dc3002 	ldrb	r3, [ip, #2]
   11134:	e3530000 	cmp	r3, #0	; 0x0
   11138:	0a000006 	beq	11158 <__strnlen+0xd8>
   1113c:	e2420001 	sub	r0, r2, #1	; 0x1
   11140:	e5dc3003 	ldrb	r3, [ip, #3]
   11144:	e3530000 	cmp	r3, #0	; 0x0
   11148:	0a000002 	beq	11158 <__strnlen+0xd8>
   1114c:	e1a00001 	mov	r0, r1
   11150:	e1520001 	cmp	r2, r1
   11154:	3affffe7 	bcc	110f8 <__strnlen+0x78>
   11158:	e1500001 	cmp	r0, r1
   1115c:	906e0000 	rsbls	r0, lr, r0
   11160:	806e0001 	rsbhi	r0, lr, r1
   11164:	e8bd8030 	ldmia	sp!, {r4, r5, pc}

00011168 <__memchr>:
   11168:	e92d4030 	stmdb	sp!, {r4, r5, lr}
   1116c:	e20110ff 	and	r1, r1, #255	; 0xff
   11170:	e252c000 	subs	ip, r2, #0	; 0x0
   11174:	0a000009 	beq	111a0 <__memchr+0x38>
   11178:	e3100003 	tst	r0, #3	; 0x3
   1117c:	0a000007 	beq	111a0 <__memchr+0x38>
   11180:	e5d03000 	ldrb	r3, [r0]
   11184:	e1530001 	cmp	r3, r1
   11188:	08bd8030 	ldmeqia	sp!, {r4, r5, pc}
   1118c:	e2800001 	add	r0, r0, #1	; 0x1
   11190:	e25cc001 	subs	ip, ip, #1	; 0x1
   11194:	0a000001 	beq	111a0 <__memchr+0x38>
   11198:	e3100003 	tst	r0, #3	; 0x3
   1119c:	1afffff7 	bne	11180 <__memchr+0x18>
   111a0:	e1a0e000 	mov	lr, r0
   111a4:	e3e05481 	mvn	r5, #-2130706432	; 0x81000000
   111a8:	e2455801 	sub	r5, r5, #65536	; 0x10000
   111ac:	e2455c01 	sub	r5, r5, #256	; 0x100
   111b0:	e1814401 	orr	r4, r1, r1, lsl #8
   111b4:	e1844804 	orr	r4, r4, r4, lsl #16
   111b8:	e35c0003 	cmp	ip, #3	; 0x3
   111bc:	9a00001c 	bls	11234 <__memchr+0xcc>
   111c0:	e49e3004 	ldr	r3, [lr], #4
   111c4:	e0243003 	eor	r3, r4, r3
   111c8:	e0832005 	add	r2, r3, r5
   111cc:	e1e03003 	mvn	r3, r3
   111d0:	e0222003 	eor	r2, r2, r3
   111d4:	e1d22005 	bics	r2, r2, r5
   111d8:	0a000012 	beq	11228 <__memchr+0xc0>
   111dc:	e24e0004 	sub	r0, lr, #4	; 0x4
   111e0:	e55e3004 	ldrb	r3, [lr, #-4]
   111e4:	e1530001 	cmp	r3, r1
   111e8:	08bd8030 	ldmeqia	sp!, {r4, r5, pc}
   111ec:	e5d03001 	ldrb	r3, [r0, #1]
   111f0:	e1530001 	cmp	r3, r1
   111f4:	1a000001 	bne	11200 <__memchr+0x98>
   111f8:	e2800001 	add	r0, r0, #1	; 0x1
   111fc:	e8bd8030 	ldmia	sp!, {r4, r5, pc}
   11200:	e5d03002 	ldrb	r3, [r0, #2]
   11204:	e1530001 	cmp	r3, r1
   11208:	1a000001 	bne	11214 <__memchr+0xac>
   1120c:	e2800002 	add	r0, r0, #2	; 0x2
   11210:	e8bd8030 	ldmia	sp!, {r4, r5, pc}
   11214:	e5d03003 	ldrb	r3, [r0, #3]
   11218:	e1530001 	cmp	r3, r1
   1121c:	1a000001 	bne	11228 <__memchr+0xc0>
   11220:	e2800003 	add	r0, r0, #3	; 0x3
   11224:	e8bd8030 	ldmia	sp!, {r4, r5, pc}
   11228:	e24cc004 	sub	ip, ip, #4	; 0x4
   1122c:	e35c0003 	cmp	ip, #3	; 0x3
   11230:	8affffe2 	bhi	111c0 <__memchr+0x58>
   11234:	e1a0000e 	mov	r0, lr
   11238:	e24cc001 	sub	ip, ip, #1	; 0x1
   1123c:	e37c0001 	cmn	ip, #1	; 0x1
   11240:	0a000006 	beq	11260 <__memchr+0xf8>
   11244:	e5d03000 	ldrb	r3, [r0]
   11248:	e1530001 	cmp	r3, r1
   1124c:	08bd8030 	ldmeqia	sp!, {r4, r5, pc}
   11250:	e2800001 	add	r0, r0, #1	; 0x1
   11254:	e24cc001 	sub	ip, ip, #1	; 0x1
   11258:	e37c0001 	cmn	ip, #1	; 0x1
   1125c:	1afffff8 	bne	11244 <__memchr+0xdc>
   11260:	e3a00000 	mov	r0, #0	; 0x0
   11264:	e8bd8030 	ldmia	sp!, {r4, r5, pc}

00011268 <memcmp_common_alignment>:
   11268:	e92d4010 	stmdb	sp!, {r4, lr}
   1126c:	e24dd028 	sub	sp, sp, #40	; 0x28
   11270:	e2023003 	and	r3, r2, #3	; 0x3
   11274:	e3530001 	cmp	r3, #1	; 0x1
   11278:	0a00000c 	beq	112b0 <memcmp_common_alignment+0x48>
   1127c:	3a000008 	bcc	112a4 <memcmp_common_alignment+0x3c>
   11280:	e3530003 	cmp	r3, #3	; 0x3
   11284:	1410c008 	ldrne	ip, [r0], #-8
   11288:	14113008 	ldrne	r3, [r1], #-8
   1128c:	12822002 	addne	r2, r2, #2	; 0x2
   11290:	1a000033 	bne	11364 <memcmp_common_alignment+0xfc>
   11294:	e4104004 	ldr	r4, [r0], #-4
   11298:	e411e004 	ldr	lr, [r1], #-4
   1129c:	e2822001 	add	r2, r2, #1	; 0x1
   112a0:	ea000021 	b	1132c <memcmp_common_alignment+0xc4>
   112a4:	e590c000 	ldr	ip, [r0]
   112a8:	e5913000 	ldr	r3, [r1]
   112ac:	ea000010 	b	112f4 <memcmp_common_alignment+0x8c>
   112b0:	e4904004 	ldr	r4, [r0], #4
   112b4:	e491e004 	ldr	lr, [r1], #4
   112b8:	e2422001 	sub	r2, r2, #1	; 0x1
   112bc:	e590c000 	ldr	ip, [r0]
   112c0:	e5913000 	ldr	r3, [r1]
   112c4:	e154000e 	cmp	r4, lr
   112c8:	0a000009 	beq	112f4 <memcmp_common_alignment+0x8c>
   112cc:	e58d4024 	str	r4, [sp, #36]
   112d0:	e58de020 	str	lr, [sp, #32]
   112d4:	e28d1024 	add	r1, sp, #36	; 0x24
   112d8:	e28d2020 	add	r2, sp, #32	; 0x20
   112dc:	e4d13001 	ldrb	r3, [r1], #1
   112e0:	e4d20001 	ldrb	r0, [r2], #1
   112e4:	e1530000 	cmp	r3, r0
   112e8:	0afffffb 	beq	112dc <memcmp_common_alignment+0x74>
   112ec:	e0600003 	rsb	r0, r0, r3
   112f0:	ea000039 	b	113dc <memcmp_common_alignment+0x174>
   112f4:	e5904004 	ldr	r4, [r0, #4]
   112f8:	e591e004 	ldr	lr, [r1, #4]
   112fc:	e15c0003 	cmp	ip, r3
   11300:	0a000009 	beq	1132c <memcmp_common_alignment+0xc4>
   11304:	e58dc01c 	str	ip, [sp, #28]
   11308:	e58d3018 	str	r3, [sp, #24]
   1130c:	e28d101c 	add	r1, sp, #28	; 0x1c
   11310:	e28d2018 	add	r2, sp, #24	; 0x18
   11314:	e4d13001 	ldrb	r3, [r1], #1
   11318:	e4d20001 	ldrb	r0, [r2], #1
   1131c:	e1530000 	cmp	r3, r0
   11320:	0afffffb 	beq	11314 <memcmp_common_alignment+0xac>
   11324:	e0600003 	rsb	r0, r0, r3
   11328:	ea00002b 	b	113dc <memcmp_common_alignment+0x174>
   1132c:	e590c008 	ldr	ip, [r0, #8]
   11330:	e5913008 	ldr	r3, [r1, #8]
   11334:	e154000e 	cmp	r4, lr
   11338:	0a000009 	beq	11364 <memcmp_common_alignment+0xfc>
   1133c:	e58d4014 	str	r4, [sp, #20]
   11340:	e58de010 	str	lr, [sp, #16]
   11344:	e28d1014 	add	r1, sp, #20	; 0x14
   11348:	e28d2010 	add	r2, sp, #16	; 0x10
   1134c:	e4d13001 	ldrb	r3, [r1], #1
   11350:	e4d20001 	ldrb	r0, [r2], #1
   11354:	e1530000 	cmp	r3, r0
   11358:	0afffffb 	beq	1134c <memcmp_common_alignment+0xe4>
   1135c:	e0600003 	rsb	r0, r0, r3
   11360:	ea00001d 	b	113dc <memcmp_common_alignment+0x174>
   11364:	e590400c 	ldr	r4, [r0, #12]
   11368:	e591e00c 	ldr	lr, [r1, #12]
   1136c:	e15c0003 	cmp	ip, r3
   11370:	0a000009 	beq	1139c <memcmp_common_alignment+0x134>
   11374:	e58dc00c 	str	ip, [sp, #12]
   11378:	e58d3008 	str	r3, [sp, #8]
   1137c:	e28d100c 	add	r1, sp, #12	; 0xc
   11380:	e28d2008 	add	r2, sp, #8	; 0x8
   11384:	e4d13001 	ldrb	r3, [r1], #1
   11388:	e4d20001 	ldrb	r0, [r2], #1
   1138c:	e1530000 	cmp	r3, r0
   11390:	0afffffb 	beq	11384 <memcmp_common_alignment+0x11c>
   11394:	e0600003 	rsb	r0, r0, r3
   11398:	ea00000f 	b	113dc <memcmp_common_alignment+0x174>
   1139c:	e2800010 	add	r0, r0, #16	; 0x10
   113a0:	e2811010 	add	r1, r1, #16	; 0x10
   113a4:	e2522004 	subs	r2, r2, #4	; 0x4
   113a8:	1affffc3 	bne	112bc <memcmp_common_alignment+0x54>
   113ac:	e154000e 	cmp	r4, lr
   113b0:	03a00000 	moveq	r0, #0	; 0x0
   113b4:	0a000008 	beq	113dc <memcmp_common_alignment+0x174>
   113b8:	e58d4004 	str	r4, [sp, #4]
   113bc:	e58de000 	str	lr, [sp]
   113c0:	e28d1004 	add	r1, sp, #4	; 0x4
   113c4:	e1a0200d 	mov	r2, sp
   113c8:	e4d13001 	ldrb	r3, [r1], #1
   113cc:	e4d20001 	ldrb	r0, [r2], #1
   113d0:	e1530000 	cmp	r3, r0
   113d4:	0afffffb 	beq	113c8 <memcmp_common_alignment+0x160>
   113d8:	e0600003 	rsb	r0, r0, r3
   113dc:	e28dd028 	add	sp, sp, #40	; 0x28
   113e0:	e8bd8010 	ldmia	sp!, {r4, pc}

000113e4 <memcmp_not_common_alignment>:
   113e4:	e92d43f0 	stmdb	sp!, {r4, r5, r6, r7, r8, r9, lr}
   113e8:	e24dd028 	sub	sp, sp, #40	; 0x28
   113ec:	e2003003 	and	r3, r0, #3	; 0x3
   113f0:	e1a0e183 	mov	lr, r3, lsl #3
   113f4:	e26e9020 	rsb	r9, lr, #32	; 0x20
   113f8:	e3c00003 	bic	r0, r0, #3	; 0x3
   113fc:	e2023003 	and	r3, r2, #3	; 0x3
   11400:	e3530001 	cmp	r3, #1	; 0x1
   11404:	0a000010 	beq	1144c <memcmp_not_common_alignment+0x68>
   11408:	3a00000b 	bcc	1143c <memcmp_not_common_alignment+0x58>
   1140c:	e3530003 	cmp	r3, #3	; 0x3
   11410:	0a000004 	beq	11428 <memcmp_not_common_alignment+0x44>
   11414:	e8900110 	ldmia	r0, {r4, r8}
   11418:	e411c008 	ldr	ip, [r1], #-8
   1141c:	e2400004 	sub	r0, r0, #4	; 0x4
   11420:	e2822002 	add	r2, r2, #2	; 0x2
   11424:	ea00003d 	b	11520 <memcmp_not_common_alignment+0x13c>
   11428:	e5907000 	ldr	r7, [r0]
   1142c:	e5904004 	ldr	r4, [r0, #4]
   11430:	e4116004 	ldr	r6, [r1], #-4
   11434:	e2822001 	add	r2, r2, #1	; 0x1
   11438:	ea000028 	b	114e0 <memcmp_not_common_alignment+0xfc>
   1143c:	e5905000 	ldr	r5, [r0]
   11440:	e5b07004 	ldr	r7, [r0, #4]!
   11444:	e591c000 	ldr	ip, [r1]
   11448:	ea000014 	b	114a0 <memcmp_not_common_alignment+0xbc>
   1144c:	e5908000 	ldr	r8, [r0]
   11450:	e5905004 	ldr	r5, [r0, #4]
   11454:	e4916004 	ldr	r6, [r1], #4
   11458:	e2800008 	add	r0, r0, #8	; 0x8
   1145c:	e2422001 	sub	r2, r2, #1	; 0x1
   11460:	e5907000 	ldr	r7, [r0]
   11464:	e591c000 	ldr	ip, [r1]
   11468:	e1a03915 	mov	r3, r5, lsl r9
   1146c:	e1833e38 	orr	r3, r3, r8, lsr lr
   11470:	e1530006 	cmp	r3, r6
   11474:	0a000009 	beq	114a0 <memcmp_not_common_alignment+0xbc>
   11478:	e58d3024 	str	r3, [sp, #36]
   1147c:	e58d6020 	str	r6, [sp, #32]
   11480:	e28d1024 	add	r1, sp, #36	; 0x24
   11484:	e28d2020 	add	r2, sp, #32	; 0x20
   11488:	e4d13001 	ldrb	r3, [r1], #1
   1148c:	e4d20001 	ldrb	r0, [r2], #1
   11490:	e1530000 	cmp	r3, r0
   11494:	0afffffb 	beq	11488 <memcmp_not_common_alignment+0xa4>
   11498:	e0600003 	rsb	r0, r0, r3
   1149c:	ea000041 	b	115a8 <memcmp_not_common_alignment+0x1c4>
   114a0:	e5904004 	ldr	r4, [r0, #4]
   114a4:	e5916004 	ldr	r6, [r1, #4]
   114a8:	e1a03917 	mov	r3, r7, lsl r9
   114ac:	e1833e35 	orr	r3, r3, r5, lsr lr
   114b0:	e153000c 	cmp	r3, ip
   114b4:	0a000009 	beq	114e0 <memcmp_not_common_alignment+0xfc>
   114b8:	e58d301c 	str	r3, [sp, #28]
   114bc:	e58dc018 	str	ip, [sp, #24]
   114c0:	e28d101c 	add	r1, sp, #28	; 0x1c
   114c4:	e28d2018 	add	r2, sp, #24	; 0x18
   114c8:	e4d13001 	ldrb	r3, [r1], #1
   114cc:	e4d20001 	ldrb	r0, [r2], #1
   114d0:	e1530000 	cmp	r3, r0
   114d4:	0afffffb 	beq	114c8 <memcmp_not_common_alignment+0xe4>
   114d8:	e0600003 	rsb	r0, r0, r3
   114dc:	ea000031 	b	115a8 <memcmp_not_common_alignment+0x1c4>
   114e0:	e5908008 	ldr	r8, [r0, #8]
   114e4:	e591c008 	ldr	ip, [r1, #8]
   114e8:	e1a03914 	mov	r3, r4, lsl r9
   114ec:	e1833e37 	orr	r3, r3, r7, lsr lr
   114f0:	e1530006 	cmp	r3, r6
   114f4:	0a000009 	beq	11520 <memcmp_not_common_alignment+0x13c>
   114f8:	e58d3014 	str	r3, [sp, #20]
   114fc:	e58d6010 	str	r6, [sp, #16]
   11500:	e28d1014 	add	r1, sp, #20	; 0x14
   11504:	e28d2010 	add	r2, sp, #16	; 0x10
   11508:	e4d13001 	ldrb	r3, [r1], #1
   1150c:	e4d20001 	ldrb	r0, [r2], #1
   11510:	e1530000 	cmp	r3, r0
   11514:	0afffffb 	beq	11508 <memcmp_not_common_alignment+0x124>
   11518:	e0600003 	rsb	r0, r0, r3
   1151c:	ea000021 	b	115a8 <memcmp_not_common_alignment+0x1c4>
   11520:	e590500c 	ldr	r5, [r0, #12]
   11524:	e591600c 	ldr	r6, [r1, #12]
   11528:	e1a03918 	mov	r3, r8, lsl r9
   1152c:	e1833e34 	orr	r3, r3, r4, lsr lr
   11530:	e153000c 	cmp	r3, ip
   11534:	0a000009 	beq	11560 <memcmp_not_common_alignment+0x17c>
   11538:	e58d300c 	str	r3, [sp, #12]
   1153c:	e58dc008 	str	ip, [sp, #8]
   11540:	e28d100c 	add	r1, sp, #12	; 0xc
   11544:	e28d2008 	add	r2, sp, #8	; 0x8
   11548:	e4d13001 	ldrb	r3, [r1], #1
   1154c:	e4d20001 	ldrb	r0, [r2], #1
   11550:	e1530000 	cmp	r3, r0
   11554:	0afffffb 	beq	11548 <memcmp_not_common_alignment+0x164>
   11558:	e0600003 	rsb	r0, r0, r3
   1155c:	ea000011 	b	115a8 <memcmp_not_common_alignment+0x1c4>
   11560:	e2800010 	add	r0, r0, #16	; 0x10
   11564:	e2811010 	add	r1, r1, #16	; 0x10
   11568:	e2522004 	subs	r2, r2, #4	; 0x4
   1156c:	1affffbb 	bne	11460 <memcmp_not_common_alignment+0x7c>
   11570:	e1a03915 	mov	r3, r5, lsl r9
   11574:	e1833e38 	orr	r3, r3, r8, lsr lr
   11578:	e1530006 	cmp	r3, r6
   1157c:	03a00000 	moveq	r0, #0	; 0x0
   11580:	0a000008 	beq	115a8 <memcmp_not_common_alignment+0x1c4>
   11584:	e58d3004 	str	r3, [sp, #4]
   11588:	e58d6000 	str	r6, [sp]
   1158c:	e28d1004 	add	r1, sp, #4	; 0x4
   11590:	e1a0200d 	mov	r2, sp
   11594:	e4d13001 	ldrb	r3, [r1], #1
   11598:	e4d20001 	ldrb	r0, [r2], #1
   1159c:	e1530000 	cmp	r3, r0
   115a0:	0afffffb 	beq	11594 <memcmp_not_common_alignment+0x1b0>
   115a4:	e0600003 	rsb	r0, r0, r3
   115a8:	e28dd028 	add	sp, sp, #40	; 0x28
   115ac:	e8bd83f0 	ldmia	sp!, {r4, r5, r6, r7, r8, r9, pc}

000115b0 <bcmp>:
   115b0:	e92d4070 	stmdb	sp!, {r4, r5, r6, lr}
   115b4:	e1a04002 	mov	r4, r2
   115b8:	e1a06000 	mov	r6, r0
   115bc:	e1a05001 	mov	r5, r1
   115c0:	e352000f 	cmp	r2, #15	; 0xf
   115c4:	9a000019 	bls	11630 <bcmp+0x80>
   115c8:	e3110003 	tst	r1, #3	; 0x3
   115cc:	0a000006 	beq	115ec <bcmp+0x3c>
   115d0:	e4d62001 	ldrb	r2, [r6], #1
   115d4:	e4d53001 	ldrb	r3, [r5], #1
   115d8:	e0520003 	subs	r0, r2, r3
   115dc:	18bd8070 	ldmneia	sp!, {r4, r5, r6, pc}
   115e0:	e2444001 	sub	r4, r4, #1	; 0x1
   115e4:	e3150003 	tst	r5, #3	; 0x3
   115e8:	1afffff8 	bne	115d0 <bcmp+0x20>
   115ec:	e3160003 	tst	r6, #3	; 0x3
   115f0:	1a000004 	bne	11608 <bcmp+0x58>
   115f4:	e1a00006 	mov	r0, r6
   115f8:	e1a01005 	mov	r1, r5
   115fc:	e1a02124 	mov	r2, r4, lsr #2
   11600:	ebffff18 	bl	11268 <memcmp_common_alignment>
   11604:	ea000003 	b	11618 <bcmp+0x68>
   11608:	e1a00006 	mov	r0, r6
   1160c:	e1a01005 	mov	r1, r5
   11610:	e1a02124 	mov	r2, r4, lsr #2
   11614:	ebffff72 	bl	113e4 <memcmp_not_common_alignment>
   11618:	e3500000 	cmp	r0, #0	; 0x0
   1161c:	18bd8070 	ldmneia	sp!, {r4, r5, r6, pc}
   11620:	e3c43003 	bic	r3, r4, #3	; 0x3
   11624:	e0866003 	add	r6, r6, r3
   11628:	e0855003 	add	r5, r5, r3
   1162c:	e2044003 	and	r4, r4, #3	; 0x3
   11630:	e3540000 	cmp	r4, #0	; 0x0
   11634:	0a000005 	beq	11650 <bcmp+0xa0>
   11638:	e4d62001 	ldrb	r2, [r6], #1
   1163c:	e4d53001 	ldrb	r3, [r5], #1
   11640:	e0520003 	subs	r0, r2, r3
   11644:	18bd8070 	ldmneia	sp!, {r4, r5, r6, pc}
   11648:	e2544001 	subs	r4, r4, #1	; 0x1
   1164c:	1afffff9 	bne	11638 <bcmp+0x88>
   11650:	e3a00000 	mov	r0, #0	; 0x0
   11654:	e8bd8070 	ldmia	sp!, {r4, r5, r6, pc}

00011658 <memmove>:
   11658:	e92d40f0 	stmdb	sp!, {r4, r5, r6, r7, lr}
   1165c:	e1a07000 	mov	r7, r0
   11660:	e1a06002 	mov	r6, r2
   11664:	e1a05000 	mov	r5, r0
   11668:	e1a04001 	mov	r4, r1
   1166c:	e0613000 	rsb	r3, r1, r0
   11670:	e1530002 	cmp	r3, r2
   11674:	3a000021 	bcc	11700 <memmove+0xa8>
   11678:	e352000f 	cmp	r2, #15	; 0xf
   1167c:	9a000017 	bls	116e0 <memmove+0x88>
   11680:	e2603000 	rsb	r3, r0, #0	; 0x0
   11684:	e2033003 	and	r3, r3, #3	; 0x3
   11688:	e0636002 	rsb	r6, r3, r2
   1168c:	e2532000 	subs	r2, r3, #0	; 0x0
   11690:	0a000003 	beq	116a4 <memmove+0x4c>
   11694:	e4d43001 	ldrb	r3, [r4], #1
   11698:	e4c53001 	strb	r3, [r5], #1
   1169c:	e2522001 	subs	r2, r2, #1	; 0x1
   116a0:	1afffffb 	bne	11694 <memmove+0x3c>
   116a4:	e3140003 	tst	r4, #3	; 0x3
   116a8:	1a000004 	bne	116c0 <memmove+0x68>
   116ac:	e1a00005 	mov	r0, r5
   116b0:	e1a01004 	mov	r1, r4
   116b4:	e1a02126 	mov	r2, r6, lsr #2
   116b8:	eb0000ac 	bl	11970 <_wordcopy_fwd_aligned>
   116bc:	ea000003 	b	116d0 <memmove+0x78>
   116c0:	e1a00005 	mov	r0, r5
   116c4:	e1a01004 	mov	r1, r4
   116c8:	e1a02126 	mov	r2, r6, lsr #2
   116cc:	eb0000e6 	bl	11a6c <_wordcopy_fwd_dest_aligned>
   116d0:	e3c63003 	bic	r3, r6, #3	; 0x3
   116d4:	e0844003 	add	r4, r4, r3
   116d8:	e0855003 	add	r5, r5, r3
   116dc:	e2066003 	and	r6, r6, #3	; 0x3
   116e0:	e1a02006 	mov	r2, r6
   116e4:	e3560000 	cmp	r6, #0	; 0x0
   116e8:	0a000025 	beq	11784 <memmove+0x12c>
   116ec:	e4d43001 	ldrb	r3, [r4], #1
   116f0:	e4c53001 	strb	r3, [r5], #1
   116f4:	e2522001 	subs	r2, r2, #1	; 0x1
   116f8:	1afffffb 	bne	116ec <memmove+0x94>
   116fc:	ea000020 	b	11784 <memmove+0x12c>
   11700:	e0814002 	add	r4, r1, r2
   11704:	e0805002 	add	r5, r0, r2
   11708:	e352000f 	cmp	r2, #15	; 0xf
   1170c:	9a000016 	bls	1176c <memmove+0x114>
   11710:	e2053003 	and	r3, r5, #3	; 0x3
   11714:	e0636002 	rsb	r6, r3, r2
   11718:	e2532000 	subs	r2, r3, #0	; 0x0
   1171c:	0a000003 	beq	11730 <memmove+0xd8>
   11720:	e5743001 	ldrb	r3, [r4, #-1]!
   11724:	e5653001 	strb	r3, [r5, #-1]!
   11728:	e2522001 	subs	r2, r2, #1	; 0x1
   1172c:	1afffffb 	bne	11720 <memmove+0xc8>
   11730:	e3140003 	tst	r4, #3	; 0x3
   11734:	1a000004 	bne	1174c <memmove+0xf4>
   11738:	e1a00005 	mov	r0, r5
   1173c:	e1a01004 	mov	r1, r4
   11740:	e1a02126 	mov	r2, r6, lsr #2
   11744:	eb000100 	bl	11b4c <_wordcopy_bwd_aligned>
   11748:	ea000003 	b	1175c <memmove+0x104>
   1174c:	e1a00005 	mov	r0, r5
   11750:	e1a01004 	mov	r1, r4
   11754:	e1a02126 	mov	r2, r6, lsr #2
   11758:	eb000141 	bl	11c64 <_wordcopy_bwd_dest_aligned>
   1175c:	e3c63003 	bic	r3, r6, #3	; 0x3
   11760:	e0634004 	rsb	r4, r3, r4
   11764:	e0635005 	rsb	r5, r3, r5
   11768:	e2066003 	and	r6, r6, #3	; 0x3
   1176c:	e2562000 	subs	r2, r6, #0	; 0x0
   11770:	0a000003 	beq	11784 <memmove+0x12c>
   11774:	e5743001 	ldrb	r3, [r4, #-1]!
   11778:	e5653001 	strb	r3, [r5, #-1]!
   1177c:	e2522001 	subs	r2, r2, #1	; 0x1
   11780:	1afffffb 	bne	11774 <memmove+0x11c>
   11784:	e1a00007 	mov	r0, r7
   11788:	e8bd80f0 	ldmia	sp!, {r4, r5, r6, r7, pc}
   1178c:	00000000 	andeq	r0, r0, r0

00011790 <memset>:
   11790:	e1a03000 	mov	r3, r0
   11794:	e3520008 	cmp	r2, #8	; 0x8
   11798:	3a000013 	bcc	117ec <memset+0x5c>
   1179c:	e3130003 	tst	r3, #3	; 0x3
   117a0:	14c31001 	strneb	r1, [r3], #1
   117a4:	12422001 	subne	r2, r2, #1	; 0x1
   117a8:	1afffffb 	bne	1179c <memset+0xc>
   117ac:	e1811401 	orr	r1, r1, r1, lsl #8
   117b0:	e1811801 	orr	r1, r1, r1, lsl #16
   117b4:	e2522008 	subs	r2, r2, #8	; 0x8
   117b8:	24831004 	strcs	r1, [r3], #4
   117bc:	24831004 	strcs	r1, [r3], #4
   117c0:	22522008 	subcss	r2, r2, #8	; 0x8
   117c4:	24831004 	strcs	r1, [r3], #4
   117c8:	24831004 	strcs	r1, [r3], #4
   117cc:	22522008 	subcss	r2, r2, #8	; 0x8
   117d0:	24831004 	strcs	r1, [r3], #4
   117d4:	24831004 	strcs	r1, [r3], #4
   117d8:	22522008 	subcss	r2, r2, #8	; 0x8
   117dc:	24831004 	strcs	r1, [r3], #4
   117e0:	24831004 	strcs	r1, [r3], #4
   117e4:	2afffff2 	bcs	117b4 <memset+0x24>
   117e8:	e2022007 	and	r2, r2, #7	; 0x7
   117ec:	e2522001 	subs	r2, r2, #1	; 0x1
   117f0:	24c31001 	strcsb	r1, [r3], #1
   117f4:	22522001 	subcss	r2, r2, #1	; 0x1
   117f8:	24c31001 	strcsb	r1, [r3], #1
   117fc:	22522001 	subcss	r2, r2, #1	; 0x1
   11800:	24c31001 	strcsb	r1, [r3], #1
   11804:	22522001 	subcss	r2, r2, #1	; 0x1
   11808:	24c31001 	strcsb	r1, [r3], #1
   1180c:	2afffff6 	bcs	117ec <memset+0x5c>
   11810:	e1a0f00e 	mov	pc, lr
   11814:	e1a00000 	nop			(mov r0,r0)
   11818:	e1a00000 	nop			(mov r0,r0)
   1181c:	e1a00000 	nop			(mov r0,r0)

00011820 <__mempcpy>:
   11820:	e92d4070 	stmdb	sp!, {r4, r5, r6, lr}
   11824:	e1a06002 	mov	r6, r2
   11828:	e1a05000 	mov	r5, r0
   1182c:	e1a04001 	mov	r4, r1
   11830:	e352000f 	cmp	r2, #15	; 0xf
   11834:	9a000017 	bls	11898 <__mempcpy+0x78>
   11838:	e2603000 	rsb	r3, r0, #0	; 0x0
   1183c:	e2033003 	and	r3, r3, #3	; 0x3
   11840:	e0636002 	rsb	r6, r3, r2
   11844:	e2532000 	subs	r2, r3, #0	; 0x0
   11848:	0a000003 	beq	1185c <__mempcpy+0x3c>
   1184c:	e4d43001 	ldrb	r3, [r4], #1
   11850:	e4c53001 	strb	r3, [r5], #1
   11854:	e2522001 	subs	r2, r2, #1	; 0x1
   11858:	1afffffb 	bne	1184c <__mempcpy+0x2c>
   1185c:	e3140003 	tst	r4, #3	; 0x3
   11860:	1a000004 	bne	11878 <__mempcpy+0x58>
   11864:	e1a00005 	mov	r0, r5
   11868:	e1a01004 	mov	r1, r4
   1186c:	e1a02126 	mov	r2, r6, lsr #2
   11870:	eb00003e 	bl	11970 <_wordcopy_fwd_aligned>
   11874:	ea000003 	b	11888 <__mempcpy+0x68>
   11878:	e1a00005 	mov	r0, r5
   1187c:	e1a01004 	mov	r1, r4
   11880:	e1a02126 	mov	r2, r6, lsr #2
   11884:	eb000078 	bl	11a6c <_wordcopy_fwd_dest_aligned>
   11888:	e3c63003 	bic	r3, r6, #3	; 0x3
   1188c:	e0844003 	add	r4, r4, r3
   11890:	e0855003 	add	r5, r5, r3
   11894:	e2066003 	and	r6, r6, #3	; 0x3
   11898:	e2562000 	subs	r2, r6, #0	; 0x0
   1189c:	0a000003 	beq	118b0 <__mempcpy+0x90>
   118a0:	e4d43001 	ldrb	r3, [r4], #1
   118a4:	e4c53001 	strb	r3, [r5], #1
   118a8:	e2522001 	subs	r2, r2, #1	; 0x1
   118ac:	1afffffb 	bne	118a0 <__mempcpy+0x80>
   118b0:	e1a00005 	mov	r0, r5
   118b4:	e8bd8070 	ldmia	sp!, {r4, r5, r6, pc}

000118b8 <__stpcpy>:
   118b8:	e5d13000 	ldrb	r3, [r1]
   118bc:	e4c03001 	strb	r3, [r0], #1
   118c0:	e4d13001 	ldrb	r3, [r1], #1
   118c4:	e3530000 	cmp	r3, #0	; 0x0
   118c8:	1afffffa 	bne	118b8 <__stpcpy>
   118cc:	e2400001 	sub	r0, r0, #1	; 0x1
   118d0:	e1a0f00e 	mov	pc, lr

000118d4 <memcpy>:
   118d4:	e92d40f0 	stmdb	sp!, {r4, r5, r6, r7, lr}
   118d8:	e1a07000 	mov	r7, r0
   118dc:	e1a06002 	mov	r6, r2
   118e0:	e1a05000 	mov	r5, r0
   118e4:	e1a04001 	mov	r4, r1
   118e8:	e352000f 	cmp	r2, #15	; 0xf
   118ec:	9a000017 	bls	11950 <memcpy+0x7c>
   118f0:	e2603000 	rsb	r3, r0, #0	; 0x0
   118f4:	e2033003 	and	r3, r3, #3	; 0x3
   118f8:	e0636002 	rsb	r6, r3, r2
   118fc:	e2532000 	subs	r2, r3, #0	; 0x0
   11900:	0a000003 	beq	11914 <memcpy+0x40>
   11904:	e4d43001 	ldrb	r3, [r4], #1
   11908:	e4c53001 	strb	r3, [r5], #1
   1190c:	e2522001 	subs	r2, r2, #1	; 0x1
   11910:	1afffffb 	bne	11904 <memcpy+0x30>
   11914:	e3140003 	tst	r4, #3	; 0x3
   11918:	1a000004 	bne	11930 <memcpy+0x5c>
   1191c:	e1a00005 	mov	r0, r5
   11920:	e1a01004 	mov	r1, r4
   11924:	e1a02126 	mov	r2, r6, lsr #2
   11928:	eb000010 	bl	11970 <_wordcopy_fwd_aligned>
   1192c:	ea000003 	b	11940 <memcpy+0x6c>
   11930:	e1a00005 	mov	r0, r5
   11934:	e1a01004 	mov	r1, r4
   11938:	e1a02126 	mov	r2, r6, lsr #2
   1193c:	eb00004a 	bl	11a6c <_wordcopy_fwd_dest_aligned>
   11940:	e3c63003 	bic	r3, r6, #3	; 0x3
   11944:	e0844003 	add	r4, r4, r3
   11948:	e0855003 	add	r5, r5, r3
   1194c:	e2066003 	and	r6, r6, #3	; 0x3
   11950:	e2562000 	subs	r2, r6, #0	; 0x0
   11954:	0a000003 	beq	11968 <memcpy+0x94>
   11958:	e4d43001 	ldrb	r3, [r4], #1
   1195c:	e4c53001 	strb	r3, [r5], #1
   11960:	e2522001 	subs	r2, r2, #1	; 0x1
   11964:	1afffffb 	bne	11958 <memcpy+0x84>
   11968:	e1a00007 	mov	r0, r7
   1196c:	e8bd80f0 	ldmia	sp!, {r4, r5, r6, r7, pc}

00011970 <_wordcopy_fwd_aligned>:
   11970:	e2023007 	and	r3, r2, #7	; 0x7
   11974:	e3530007 	cmp	r3, #7	; 0x7
   11978:	908ff103 	addls	pc, pc, r3, lsl #2
   1197c:	ea000024 	b	11a14 <_wordcopy_fwd_aligned+0xa4>
   11980:	ea00001e 	b	11a00 <_wordcopy_fwd_aligned+0x90>
   11984:	ea000020 	b	11a0c <_wordcopy_fwd_aligned+0x9c>
   11988:	ea000004 	b	119a0 <_wordcopy_fwd_aligned+0x30>
   1198c:	ea000007 	b	119b0 <_wordcopy_fwd_aligned+0x40>
   11990:	ea00000a 	b	119c0 <_wordcopy_fwd_aligned+0x50>
   11994:	ea00000d 	b	119d0 <_wordcopy_fwd_aligned+0x60>
   11998:	ea000010 	b	119e0 <_wordcopy_fwd_aligned+0x70>
   1199c:	ea000013 	b	119f0 <_wordcopy_fwd_aligned+0x80>
   119a0:	e4113018 	ldr	r3, [r1], #-24
   119a4:	e240001c 	sub	r0, r0, #28	; 0x1c
   119a8:	e2822006 	add	r2, r2, #6	; 0x6
   119ac:	ea000026 	b	11a4c <_wordcopy_fwd_aligned+0xdc>
   119b0:	e411c014 	ldr	ip, [r1], #-20
   119b4:	e2400018 	sub	r0, r0, #24	; 0x18
   119b8:	e2822005 	add	r2, r2, #5	; 0x5
   119bc:	ea000020 	b	11a44 <_wordcopy_fwd_aligned+0xd4>
   119c0:	e4113010 	ldr	r3, [r1], #-16
   119c4:	e2400014 	sub	r0, r0, #20	; 0x14
   119c8:	e2822004 	add	r2, r2, #4	; 0x4
   119cc:	ea00001a 	b	11a3c <_wordcopy_fwd_aligned+0xcc>
   119d0:	e411c00c 	ldr	ip, [r1], #-12
   119d4:	e2400010 	sub	r0, r0, #16	; 0x10
   119d8:	e2822003 	add	r2, r2, #3	; 0x3
   119dc:	ea000014 	b	11a34 <_wordcopy_fwd_aligned+0xc4>
   119e0:	e4113008 	ldr	r3, [r1], #-8
   119e4:	e240000c 	sub	r0, r0, #12	; 0xc
   119e8:	e2822002 	add	r2, r2, #2	; 0x2
   119ec:	ea00000e 	b	11a2c <_wordcopy_fwd_aligned+0xbc>
   119f0:	e411c004 	ldr	ip, [r1], #-4
   119f4:	e2400008 	sub	r0, r0, #8	; 0x8
   119f8:	e2822001 	add	r2, r2, #1	; 0x1
   119fc:	ea000008 	b	11a24 <_wordcopy_fwd_aligned+0xb4>
   11a00:	e5913000 	ldr	r3, [r1]
   11a04:	e2400004 	sub	r0, r0, #4	; 0x4
   11a08:	ea000003 	b	11a1c <_wordcopy_fwd_aligned+0xac>
   11a0c:	e491c004 	ldr	ip, [r1], #4
   11a10:	e2422001 	sub	r2, r2, #1	; 0x1
   11a14:	e5913000 	ldr	r3, [r1]
   11a18:	e580c000 	str	ip, [r0]
   11a1c:	e591c004 	ldr	ip, [r1, #4]
   11a20:	e5803004 	str	r3, [r0, #4]
   11a24:	e5913008 	ldr	r3, [r1, #8]
   11a28:	e580c008 	str	ip, [r0, #8]
   11a2c:	e591c00c 	ldr	ip, [r1, #12]
   11a30:	e580300c 	str	r3, [r0, #12]
   11a34:	e5913010 	ldr	r3, [r1, #16]
   11a38:	e580c010 	str	ip, [r0, #16]
   11a3c:	e591c014 	ldr	ip, [r1, #20]
   11a40:	e5803014 	str	r3, [r0, #20]
   11a44:	e5913018 	ldr	r3, [r1, #24]
   11a48:	e580c018 	str	ip, [r0, #24]
   11a4c:	e591c01c 	ldr	ip, [r1, #28]
   11a50:	e580301c 	str	r3, [r0, #28]
   11a54:	e2811020 	add	r1, r1, #32	; 0x20
   11a58:	e2800020 	add	r0, r0, #32	; 0x20
   11a5c:	e2522008 	subs	r2, r2, #8	; 0x8
   11a60:	0580c000 	streq	ip, [r0]
   11a64:	01a0f00e 	moveq	pc, lr
   11a68:	eaffffe9 	b	11a14 <_wordcopy_fwd_aligned+0xa4>

00011a6c <_wordcopy_fwd_dest_aligned>:
   11a6c:	e92d40f0 	stmdb	sp!, {r4, r5, r6, r7, lr}
   11a70:	e2013003 	and	r3, r1, #3	; 0x3
   11a74:	e1a04183 	mov	r4, r3, lsl #3
   11a78:	e2645020 	rsb	r5, r4, #32	; 0x20
   11a7c:	e3c11003 	bic	r1, r1, #3	; 0x3
   11a80:	e2023003 	and	r3, r2, #3	; 0x3
   11a84:	e3530003 	cmp	r3, #3	; 0x3
   11a88:	908ff103 	addls	pc, pc, r3, lsl #2
   11a8c:	ea000016 	b	11aec <_wordcopy_fwd_dest_aligned+0x80>
   11a90:	ea00000d 	b	11acc <_wordcopy_fwd_dest_aligned+0x60>
   11a94:	ea000010 	b	11adc <_wordcopy_fwd_dest_aligned+0x70>
   11a98:	ea000000 	b	11aa0 <_wordcopy_fwd_dest_aligned+0x34>
   11a9c:	ea000005 	b	11ab8 <_wordcopy_fwd_dest_aligned+0x4c>
   11aa0:	e591c000 	ldr	ip, [r1]
   11aa4:	e5917004 	ldr	r7, [r1, #4]
   11aa8:	e2411004 	sub	r1, r1, #4	; 0x4
   11aac:	e240000c 	sub	r0, r0, #12	; 0xc
   11ab0:	e2822002 	add	r2, r2, #2	; 0x2
   11ab4:	ea000018 	b	11b1c <_wordcopy_fwd_dest_aligned+0xb0>
   11ab8:	e591e000 	ldr	lr, [r1]
   11abc:	e591c004 	ldr	ip, [r1, #4]
   11ac0:	e2400008 	sub	r0, r0, #8	; 0x8
   11ac4:	e2822001 	add	r2, r2, #1	; 0x1
   11ac8:	ea00000f 	b	11b0c <_wordcopy_fwd_dest_aligned+0xa0>
   11acc:	e5916000 	ldr	r6, [r1]
   11ad0:	e5b1e004 	ldr	lr, [r1, #4]!
   11ad4:	e2400004 	sub	r0, r0, #4	; 0x4
   11ad8:	ea000007 	b	11afc <_wordcopy_fwd_dest_aligned+0x90>
   11adc:	e5917000 	ldr	r7, [r1]
   11ae0:	e5916004 	ldr	r6, [r1, #4]
   11ae4:	e2811008 	add	r1, r1, #8	; 0x8
   11ae8:	e2422001 	sub	r2, r2, #1	; 0x1
   11aec:	e591e000 	ldr	lr, [r1]
   11af0:	e1a03516 	mov	r3, r6, lsl r5
   11af4:	e1833437 	orr	r3, r3, r7, lsr r4
   11af8:	e5803000 	str	r3, [r0]
   11afc:	e591c004 	ldr	ip, [r1, #4]
   11b00:	e1a0351e 	mov	r3, lr, lsl r5
   11b04:	e1833436 	orr	r3, r3, r6, lsr r4
   11b08:	e5803004 	str	r3, [r0, #4]
   11b0c:	e5917008 	ldr	r7, [r1, #8]
   11b10:	e1a0351c 	mov	r3, ip, lsl r5
   11b14:	e183343e 	orr	r3, r3, lr, lsr r4
   11b18:	e5803008 	str	r3, [r0, #8]
   11b1c:	e591600c 	ldr	r6, [r1, #12]
   11b20:	e1a03517 	mov	r3, r7, lsl r5
   11b24:	e183343c 	orr	r3, r3, ip, lsr r4
   11b28:	e580300c 	str	r3, [r0, #12]
   11b2c:	e2811010 	add	r1, r1, #16	; 0x10
   11b30:	e2800010 	add	r0, r0, #16	; 0x10
   11b34:	e2522004 	subs	r2, r2, #4	; 0x4
   11b38:	01a03516 	moveq	r3, r6, lsl r5
   11b3c:	01833437 	orreq	r3, r3, r7, lsr r4
   11b40:	05803000 	streq	r3, [r0]
   11b44:	08bd80f0 	ldmeqia	sp!, {r4, r5, r6, r7, pc}
   11b48:	eaffffe7 	b	11aec <_wordcopy_fwd_dest_aligned+0x80>

00011b4c <_wordcopy_bwd_aligned>:
   11b4c:	e2023007 	and	r3, r2, #7	; 0x7
   11b50:	e3530007 	cmp	r3, #7	; 0x7
   11b54:	908ff103 	addls	pc, pc, r3, lsl #2
   11b58:	ea00002d 	b	11c14 <_wordcopy_bwd_aligned+0xc8>
   11b5c:	ea000024 	b	11bf4 <_wordcopy_bwd_aligned+0xa8>
   11b60:	ea000027 	b	11c04 <_wordcopy_bwd_aligned+0xb8>
   11b64:	ea000004 	b	11b7c <_wordcopy_bwd_aligned+0x30>
   11b68:	ea000008 	b	11b90 <_wordcopy_bwd_aligned+0x44>
   11b6c:	ea00000c 	b	11ba4 <_wordcopy_bwd_aligned+0x58>
   11b70:	ea000010 	b	11bb8 <_wordcopy_bwd_aligned+0x6c>
   11b74:	ea000014 	b	11bcc <_wordcopy_bwd_aligned+0x80>
   11b78:	ea000018 	b	11be0 <_wordcopy_bwd_aligned+0x94>
   11b7c:	e2411008 	sub	r1, r1, #8	; 0x8
   11b80:	e2400004 	sub	r0, r0, #4	; 0x4
   11b84:	e5913004 	ldr	r3, [r1, #4]
   11b88:	e2822006 	add	r2, r2, #6	; 0x6
   11b8c:	ea00002e 	b	11c4c <_wordcopy_bwd_aligned+0x100>
   11b90:	e241100c 	sub	r1, r1, #12	; 0xc
   11b94:	e2400008 	sub	r0, r0, #8	; 0x8
   11b98:	e591c008 	ldr	ip, [r1, #8]
   11b9c:	e2822005 	add	r2, r2, #5	; 0x5
   11ba0:	ea000027 	b	11c44 <_wordcopy_bwd_aligned+0xf8>
   11ba4:	e2411010 	sub	r1, r1, #16	; 0x10
   11ba8:	e240000c 	sub	r0, r0, #12	; 0xc
   11bac:	e591300c 	ldr	r3, [r1, #12]
   11bb0:	e2822004 	add	r2, r2, #4	; 0x4
   11bb4:	ea000020 	b	11c3c <_wordcopy_bwd_aligned+0xf0>
   11bb8:	e2411014 	sub	r1, r1, #20	; 0x14
   11bbc:	e2400010 	sub	r0, r0, #16	; 0x10
   11bc0:	e591c010 	ldr	ip, [r1, #16]
   11bc4:	e2822003 	add	r2, r2, #3	; 0x3
   11bc8:	ea000019 	b	11c34 <_wordcopy_bwd_aligned+0xe8>
   11bcc:	e2411018 	sub	r1, r1, #24	; 0x18
   11bd0:	e2400014 	sub	r0, r0, #20	; 0x14
   11bd4:	e5913014 	ldr	r3, [r1, #20]
   11bd8:	e2822002 	add	r2, r2, #2	; 0x2
   11bdc:	ea000012 	b	11c2c <_wordcopy_bwd_aligned+0xe0>
   11be0:	e241101c 	sub	r1, r1, #28	; 0x1c
   11be4:	e2400018 	sub	r0, r0, #24	; 0x18
   11be8:	e591c018 	ldr	ip, [r1, #24]
   11bec:	e2822001 	add	r2, r2, #1	; 0x1
   11bf0:	ea00000b 	b	11c24 <_wordcopy_bwd_aligned+0xd8>
   11bf4:	e2411020 	sub	r1, r1, #32	; 0x20
   11bf8:	e240001c 	sub	r0, r0, #28	; 0x1c
   11bfc:	e591301c 	ldr	r3, [r1, #28]
   11c00:	ea000005 	b	11c1c <_wordcopy_bwd_aligned+0xd0>
   11c04:	e2411024 	sub	r1, r1, #36	; 0x24
   11c08:	e2400020 	sub	r0, r0, #32	; 0x20
   11c0c:	e591c020 	ldr	ip, [r1, #32]
   11c10:	e2422001 	sub	r2, r2, #1	; 0x1
   11c14:	e591301c 	ldr	r3, [r1, #28]
   11c18:	e580c01c 	str	ip, [r0, #28]
   11c1c:	e591c018 	ldr	ip, [r1, #24]
   11c20:	e5803018 	str	r3, [r0, #24]
   11c24:	e5913014 	ldr	r3, [r1, #20]
   11c28:	e580c014 	str	ip, [r0, #20]
   11c2c:	e591c010 	ldr	ip, [r1, #16]
   11c30:	e5803010 	str	r3, [r0, #16]
   11c34:	e591300c 	ldr	r3, [r1, #12]
   11c38:	e580c00c 	str	ip, [r0, #12]
   11c3c:	e591c008 	ldr	ip, [r1, #8]
   11c40:	e5803008 	str	r3, [r0, #8]
   11c44:	e5913004 	ldr	r3, [r1, #4]
   11c48:	e580c004 	str	ip, [r0, #4]
   11c4c:	e411c020 	ldr	ip, [r1], #-32
   11c50:	e4003020 	str	r3, [r0], #-32
   11c54:	e2522008 	subs	r2, r2, #8	; 0x8
   11c58:	0580c01c 	streq	ip, [r0, #28]
   11c5c:	01a0f00e 	moveq	pc, lr
   11c60:	eaffffeb 	b	11c14 <_wordcopy_bwd_aligned+0xc8>

00011c64 <_wordcopy_bwd_dest_aligned>:
   11c64:	e92d40f0 	stmdb	sp!, {r4, r5, r6, r7, lr}
   11c68:	e2013003 	and	r3, r1, #3	; 0x3
   11c6c:	e1a04183 	mov	r4, r3, lsl #3
   11c70:	e2647020 	rsb	r7, r4, #32	; 0x20
   11c74:	e3c11003 	bic	r1, r1, #3	; 0x3
   11c78:	e2811004 	add	r1, r1, #4	; 0x4
   11c7c:	e2023003 	and	r3, r2, #3	; 0x3
   11c80:	e3530003 	cmp	r3, #3	; 0x3
   11c84:	908ff103 	addls	pc, pc, r3, lsl #2
   11c88:	ea000018 	b	11cf0 <_wordcopy_bwd_dest_aligned+0x8c>
   11c8c:	ea00000d 	b	11cc8 <_wordcopy_bwd_dest_aligned+0x64>
   11c90:	ea000011 	b	11cdc <_wordcopy_bwd_dest_aligned+0x78>
   11c94:	ea000000 	b	11c9c <_wordcopy_bwd_dest_aligned+0x38>
   11c98:	ea000004 	b	11cb0 <_wordcopy_bwd_dest_aligned+0x4c>
   11c9c:	e241100c 	sub	r1, r1, #12	; 0xc
   11ca0:	e2400004 	sub	r0, r0, #4	; 0x4
   11ca4:	e9911020 	ldmib	r1, {r5, ip}
   11ca8:	e2822002 	add	r2, r2, #2	; 0x2
   11cac:	ea00001b 	b	11d20 <_wordcopy_bwd_dest_aligned+0xbc>
   11cb0:	e2411010 	sub	r1, r1, #16	; 0x10
   11cb4:	e2400008 	sub	r0, r0, #8	; 0x8
   11cb8:	e281c008 	add	ip, r1, #8	; 0x8
   11cbc:	e89c5000 	ldmia	ip, {ip, lr}
   11cc0:	e2822001 	add	r2, r2, #1	; 0x1
   11cc4:	ea000011 	b	11d10 <_wordcopy_bwd_dest_aligned+0xac>
   11cc8:	e2411014 	sub	r1, r1, #20	; 0x14
   11ccc:	e240000c 	sub	r0, r0, #12	; 0xc
   11cd0:	e5916010 	ldr	r6, [r1, #16]
   11cd4:	e591e00c 	ldr	lr, [r1, #12]
   11cd8:	ea000008 	b	11d00 <_wordcopy_bwd_dest_aligned+0x9c>
   11cdc:	e2411018 	sub	r1, r1, #24	; 0x18
   11ce0:	e2400010 	sub	r0, r0, #16	; 0x10
   11ce4:	e5915014 	ldr	r5, [r1, #20]
   11ce8:	e5916010 	ldr	r6, [r1, #16]
   11cec:	e2422001 	sub	r2, r2, #1	; 0x1
   11cf0:	e591e00c 	ldr	lr, [r1, #12]
   11cf4:	e1a03715 	mov	r3, r5, lsl r7
   11cf8:	e1833436 	orr	r3, r3, r6, lsr r4
   11cfc:	e580300c 	str	r3, [r0, #12]
   11d00:	e591c008 	ldr	ip, [r1, #8]
   11d04:	e1a03716 	mov	r3, r6, lsl r7
   11d08:	e183343e 	orr	r3, r3, lr, lsr r4
   11d0c:	e5803008 	str	r3, [r0, #8]
   11d10:	e5915004 	ldr	r5, [r1, #4]
   11d14:	e1a0371e 	mov	r3, lr, lsl r7
   11d18:	e183343c 	orr	r3, r3, ip, lsr r4
   11d1c:	e5803004 	str	r3, [r0, #4]
   11d20:	e4116010 	ldr	r6, [r1], #-16
   11d24:	e1a0371c 	mov	r3, ip, lsl r7
   11d28:	e1833435 	orr	r3, r3, r5, lsr r4
   11d2c:	e4003010 	str	r3, [r0], #-16
   11d30:	e2522004 	subs	r2, r2, #4	; 0x4
   11d34:	01a03715 	moveq	r3, r5, lsl r7
   11d38:	01833436 	orreq	r3, r3, r6, lsr r4
   11d3c:	0580300c 	streq	r3, [r0, #12]
   11d40:	08bd80f0 	ldmeqia	sp!, {r4, r5, r6, r7, pc}
   11d44:	eaffffe9 	b	11cf0 <_wordcopy_bwd_dest_aligned+0x8c>
	...

00011d50 <__setitimer>:
   11d50:	ef900068 	swi	0x00900068
   11d54:	e3700a01 	cmn	r0, #4096	; 0x1000
   11d58:	31a0f00e 	movcc	pc, lr
   11d5c:	eaffffff 	b	11d60 <__local_syscall_error>

00011d60 <__local_syscall_error>:
   11d60:	e52de004 	str	lr, [sp, #-4]!
   11d64:	e52d0004 	str	r0, [sp, #-4]!
   11d68:	eb000004 	bl	11d80 <__errno_location>
   11d6c:	e49d1004 	ldr	r1, [sp], #4
   11d70:	e2611000 	rsb	r1, r1, #0	; 0x0
   11d74:	e5801000 	str	r1, [r0]
   11d78:	e3e00000 	mvn	r0, #0	; 0x0
   11d7c:	e49df004 	ldr	pc, [sp], #4

00011d80 <__errno_location>:
   11d80:	e52da004 	str	sl, [sp, #-4]!
   11d84:	e59fa010 	ldr	sl, [pc, #16]	; 11d9c <.text+0x111cc>
   11d88:	e08fa00a 	add	sl, pc, sl
   11d8c:	e59f300c 	ldr	r3, [pc, #12]	; 11da0 <.text+0x111d0>
   11d90:	e79a0003 	ldr	r0, [sl, r3]
   11d94:	e8bd0400 	ldmia	sp!, {sl}
   11d98:	e1a0f00e 	mov	pc, lr
   11d9c:	0000b804 	andeq	fp, r0, r4, lsl #16
   11da0:	00000238 	andeq	r0, r0, r8, lsr r2
	...

00011db0 <__syscall_error>:
   11db0:	e2600000 	rsb	r0, r0, #0	; 0x0

00011db4 <__syscall_error_1>:
   11db4:	e52de004 	str	lr, [sp, #-4]!
   11db8:	e52d0004 	str	r0, [sp, #-4]!
   11dbc:	ebffffef 	bl	11d80 <__errno_location>
   11dc0:	e49d1004 	ldr	r1, [sp], #4
   11dc4:	e5801000 	str	r1, [r0]
   11dc8:	e3e00000 	mvn	r0, #0	; 0x0
   11dcc:	e49df004 	ldr	pc, [sp], #4

00011dd0 <__udivsi3>:
   11dd0:	e2512001 	subs	r2, r1, #1	; 0x1
   11dd4:	01a0f00e 	moveq	pc, lr
   11dd8:	3a000036 	bcc	11eb8 <__udivsi3+0xe8>
   11ddc:	e1500001 	cmp	r0, r1
   11de0:	9a000022 	bls	11e70 <__udivsi3+0xa0>
   11de4:	e1110002 	tst	r1, r2
   11de8:	0a000023 	beq	11e7c <__udivsi3+0xac>
   11dec:	e311020e 	tst	r1, #-536870912	; 0xe0000000
   11df0:	01a01181 	moveq	r1, r1, lsl #3
   11df4:	03a03008 	moveq	r3, #8	; 0x8
   11df8:	13a03001 	movne	r3, #1	; 0x1
   11dfc:	e3510201 	cmp	r1, #268435456	; 0x10000000
   11e00:	31510000 	cmpcc	r1, r0
   11e04:	31a01201 	movcc	r1, r1, lsl #4
   11e08:	31a03203 	movcc	r3, r3, lsl #4
   11e0c:	3afffffa 	bcc	11dfc <__udivsi3+0x2c>
   11e10:	e3510102 	cmp	r1, #-2147483648	; 0x80000000
   11e14:	31510000 	cmpcc	r1, r0
   11e18:	31a01081 	movcc	r1, r1, lsl #1
   11e1c:	31a03083 	movcc	r3, r3, lsl #1
   11e20:	3afffffa 	bcc	11e10 <__udivsi3+0x40>
   11e24:	e3a02000 	mov	r2, #0	; 0x0
   11e28:	e1500001 	cmp	r0, r1
   11e2c:	20400001 	subcs	r0, r0, r1
   11e30:	21822003 	orrcs	r2, r2, r3
   11e34:	e15000a1 	cmp	r0, r1, lsr #1
   11e38:	204000a1 	subcs	r0, r0, r1, lsr #1
   11e3c:	218220a3 	orrcs	r2, r2, r3, lsr #1
   11e40:	e1500121 	cmp	r0, r1, lsr #2
   11e44:	20400121 	subcs	r0, r0, r1, lsr #2
   11e48:	21822123 	orrcs	r2, r2, r3, lsr #2
   11e4c:	e15001a1 	cmp	r0, r1, lsr #3
   11e50:	204001a1 	subcs	r0, r0, r1, lsr #3
   11e54:	218221a3 	orrcs	r2, r2, r3, lsr #3
   11e58:	e3500000 	cmp	r0, #0	; 0x0
   11e5c:	11b03223 	movnes	r3, r3, lsr #4
   11e60:	11a01221 	movne	r1, r1, lsr #4
   11e64:	1affffef 	bne	11e28 <__udivsi3+0x58>
   11e68:	e1a00002 	mov	r0, r2
   11e6c:	e1a0f00e 	mov	pc, lr
   11e70:	03a00001 	moveq	r0, #1	; 0x1
   11e74:	13a00000 	movne	r0, #0	; 0x0
   11e78:	e1a0f00e 	mov	pc, lr
   11e7c:	e3510801 	cmp	r1, #65536	; 0x10000
   11e80:	21a01821 	movcs	r1, r1, lsr #16
   11e84:	23a02010 	movcs	r2, #16	; 0x10
   11e88:	33a02000 	movcc	r2, #0	; 0x0
   11e8c:	e3510c01 	cmp	r1, #256	; 0x100
   11e90:	21a01421 	movcs	r1, r1, lsr #8
   11e94:	22822008 	addcs	r2, r2, #8	; 0x8
   11e98:	e3510010 	cmp	r1, #16	; 0x10
   11e9c:	21a01221 	movcs	r1, r1, lsr #4
   11ea0:	22822004 	addcs	r2, r2, #4	; 0x4
   11ea4:	e3510004 	cmp	r1, #4	; 0x4
   11ea8:	82822003 	addhi	r2, r2, #3	; 0x3
   11eac:	908220a1 	addls	r2, r2, r1, lsr #1
   11eb0:	e1a00230 	mov	r0, r0, lsr r2
   11eb4:	e1a0f00e 	mov	pc, lr
   11eb8:	e52de004 	str	lr, [sp, #-4]!
   11ebc:	eb000034 	bl	11f94 <__div0>
   11ec0:	e3a00000 	mov	r0, #0	; 0x0
   11ec4:	e49df004 	ldr	pc, [sp], #4

00011ec8 <__umodsi3>:
   11ec8:	e2512001 	subs	r2, r1, #1	; 0x1
   11ecc:	3a00002c 	bcc	11f84 <__umodsi3+0xbc>
   11ed0:	11500001 	cmpne	r0, r1
   11ed4:	03a00000 	moveq	r0, #0	; 0x0
   11ed8:	81110002 	tsthi	r1, r2
   11edc:	00000002 	andeq	r0, r0, r2
   11ee0:	91a0f00e 	movls	pc, lr
   11ee4:	e3a02000 	mov	r2, #0	; 0x0
   11ee8:	e3510201 	cmp	r1, #268435456	; 0x10000000
   11eec:	31510000 	cmpcc	r1, r0
   11ef0:	31a01201 	movcc	r1, r1, lsl #4
   11ef4:	32822004 	addcc	r2, r2, #4	; 0x4
   11ef8:	3afffffa 	bcc	11ee8 <__umodsi3+0x20>
   11efc:	e3510102 	cmp	r1, #-2147483648	; 0x80000000
   11f00:	31510000 	cmpcc	r1, r0
   11f04:	31a01081 	movcc	r1, r1, lsl #1
   11f08:	32822001 	addcc	r2, r2, #1	; 0x1
   11f0c:	3afffffa 	bcc	11efc <__umodsi3+0x34>
   11f10:	e2522003 	subs	r2, r2, #3	; 0x3
   11f14:	ba00000e 	blt	11f54 <__umodsi3+0x8c>
   11f18:	e1500001 	cmp	r0, r1
   11f1c:	20400001 	subcs	r0, r0, r1
   11f20:	e15000a1 	cmp	r0, r1, lsr #1
   11f24:	204000a1 	subcs	r0, r0, r1, lsr #1
   11f28:	e1500121 	cmp	r0, r1, lsr #2
   11f2c:	20400121 	subcs	r0, r0, r1, lsr #2
   11f30:	e15001a1 	cmp	r0, r1, lsr #3
   11f34:	204001a1 	subcs	r0, r0, r1, lsr #3
   11f38:	e3500001 	cmp	r0, #1	; 0x1
   11f3c:	e1a01221 	mov	r1, r1, lsr #4
   11f40:	a2522004 	subges	r2, r2, #4	; 0x4
   11f44:	aafffff3 	bge	11f18 <__umodsi3+0x50>
   11f48:	e3120003 	tst	r2, #3	; 0x3
   11f4c:	13300000 	teqne	r0, #0	; 0x0
   11f50:	0a00000a 	beq	11f80 <__umodsi3+0xb8>
   11f54:	e3720002 	cmn	r2, #2	; 0x2
   11f58:	ba000006 	blt	11f78 <__umodsi3+0xb0>
   11f5c:	0a000002 	beq	11f6c <__umodsi3+0xa4>
   11f60:	e1500001 	cmp	r0, r1
   11f64:	20400001 	subcs	r0, r0, r1
   11f68:	e1a010a1 	mov	r1, r1, lsr #1
   11f6c:	e1500001 	cmp	r0, r1
   11f70:	20400001 	subcs	r0, r0, r1
   11f74:	e1a010a1 	mov	r1, r1, lsr #1
   11f78:	e1500001 	cmp	r0, r1
   11f7c:	20400001 	subcs	r0, r0, r1
   11f80:	e1a0f00e 	mov	pc, lr
   11f84:	e52de004 	str	lr, [sp, #-4]!
   11f88:	eb000001 	bl	11f94 <__div0>
   11f8c:	e3a00000 	mov	r0, #0	; 0x0
   11f90:	e49df004 	ldr	pc, [sp], #4

00011f94 <__div0>:
   11f94:	e92d4002 	stmdb	sp!, {r1, lr}
   11f98:	ef900014 	swi	0x00900014
   11f9c:	e3700ffa 	cmn	r0, #1000	; 0x3e8
   11fa0:	28bd8002 	ldmcsia	sp!, {r1, pc}
   11fa4:	e3a01008 	mov	r1, #8	; 0x8
   11fa8:	ef900025 	swi	0x00900025
   11fac:	e8bd8002 	ldmia	sp!, {r1, pc}

00011fb0 <__muldi3>:
   11fb0:	e00c0192 	mul	ip, r2, r1
   11fb4:	e92d41f0 	stmdb	sp!, {r4, r5, r6, r7, r8, lr}
   11fb8:	e02ec093 	mla	lr, r3, r0, ip
   11fbc:	e1a08820 	mov	r8, r0, lsr #16
   11fc0:	e1a05822 	mov	r5, r2, lsr #16
   11fc4:	e1c07808 	bic	r7, r0, r8, lsl #16
   11fc8:	e1c26805 	bic	r6, r2, r5, lsl #16
   11fcc:	e00c0697 	mul	ip, r7, r6
   11fd0:	e0060698 	mul	r6, r8, r6
   11fd4:	e0070795 	mul	r7, r5, r7
   11fd8:	e0050598 	mul	r5, r8, r5
   11fdc:	e0967007 	adds	r7, r6, r7
   11fe0:	22855801 	addcs	r5, r5, #65536	; 0x10000
   11fe4:	e09cc807 	adds	ip, ip, r7, lsl #16
   11fe8:	e0a55827 	adc	r5, r5, r7, lsr #16
   11fec:	e1a0400c 	mov	r4, ip
   11ff0:	e1a01005 	mov	r1, r5
   11ff4:	e1a00004 	mov	r0, r4
   11ff8:	e08e1005 	add	r1, lr, r5
   11ffc:	e8bd81f0 	ldmia	sp!, {r4, r5, r6, r7, r8, pc}

00012000 <__ashldi3>:
   12000:	e3520000 	cmp	r2, #0	; 0x0
   12004:	e92d4070 	stmdb	sp!, {r4, r5, r6, lr}
   12008:	e262c020 	rsb	ip, r2, #32	; 0x20
   1200c:	e1a04001 	mov	r4, r1
   12010:	e1a03000 	mov	r3, r0
   12014:	e3a06000 	mov	r6, #0	; 0x0
   12018:	e3a05000 	mov	r5, #0	; 0x0
   1201c:	0a000008 	beq	12044 <__ashldi3+0x44>
   12020:	e35c0000 	cmp	ip, #0	; 0x0
   12024:	e1a03211 	mov	r3, r1, lsl r2
   12028:	e26ce000 	rsb	lr, ip, #0	; 0x0
   1202c:	d3a05000 	movle	r5, #0	; 0x0
   12030:	d1a06e10 	movle	r6, r0, lsl lr
   12034:	c1a05210 	movgt	r5, r0, lsl r2
   12038:	c1836c30 	orrgt	r6, r3, r0, lsr ip
   1203c:	e1a04006 	mov	r4, r6
   12040:	e1a03005 	mov	r3, r5
   12044:	e1a01004 	mov	r1, r4
   12048:	e1a00003 	mov	r0, r3
   1204c:	e8bd8070 	ldmia	sp!, {r4, r5, r6, pc}
Disassembly of section .rodata:

00012050 <__PRETTY_FUNCTION__.13>:
   12050:	5f6c645f 	swipl	0x006c645f
   12054:	72617473 	rsbvc	r7, r1, #1929379840	; 0x73000000
   12058:	00000074 	andeq	r0, r0, r4, ror r0

0001205c <__PRETTY_FUNCTION__.2>:
   1205c:	5f786966 	swipl	0x00786966
   12060:	5f646162 	swipl	0x00646162
   12064:	34326370 	ldrcct	r6, [r2], #-880
   12068:	00000000 	andeq	r0, r0, r0

0001206c <__PRETTY_FUNCTION__.10>:
   1206c:	5f666c65 	swipl	0x00666c65
   12070:	5f746567 	swipl	0x00746567
   12074:	616e7964 	cmnvs	lr, r4, ror #18
   12078:	5f63696d 	swipl	0x0063696d
   1207c:	6f666e69 	swivs	0x00666e69
   12080:	00000000 	andeq	r0, r0, r0

00012084 <__PRETTY_FUNCTION__.12>:
   12084:	5f666c65 	swipl	0x00666c65
   12088:	616e7964 	cmnvs	lr, r4, ror #18
   1208c:	5f63696d 	swipl	0x0063696d
   12090:	725f6f64 	subvcs	r6, pc, #400	; 0x190
   12094:	00006c65 	andeq	r6, r0, r5, ror #24

00012098 <__PRETTY_FUNCTION__.15>:
   12098:	6d5f6c64 	ldcvsl	12, cr6, [pc, #-400]
   1209c:	006e6961 	rsbeq	r6, lr, r1, ror #18

000120a0 <__PRETTY_FUNCTION__.0>:
   120a0:	5f666c65 	swipl	0x00666c65
   120a4:	5f746567 	swipl	0x00746567
   120a8:	616e7964 	cmnvs	lr, r4, ror #18
   120ac:	5f63696d 	swipl	0x0063696d
   120b0:	6f666e69 	swivs	0x00666e69
   120b4:	00000000 	andeq	r0, r0, r0

000120b8 <preload_file.16>:
   120b8:	6374652f 	cmnvs	r4, #197132288	; 0xbc00000
   120bc:	2e646c2f 	cdpcs	12, 6, cr6, cr4, cr15, {1}
   120c0:	702e6f73 	eorvc	r6, lr, r3, ror pc
   120c4:	6f6c6572 	swivs	0x006c6572
   120c8:	00006461 	andeq	r6, r0, r1, ror #8

000120cc <debopts.17>:
   120cc:	62696c04 	rsbvs	r6, r9, #1024	; 0x400
   120d0:	00000073 	andeq	r0, r0, r3, ror r0
   120d4:	64000000 	strvs	r0, [r0]
   120d8:	6c707369 	ldcvsl	3, cr7, [r0], #-420
   120dc:	6c207961 	stcvs	9, cr7, [r0], #-388
   120e0:	61726269 	cmnvs	r2, r9, ror #4
   120e4:	73207972 	teqvc	r0, #1867776	; 0x1c8000
   120e8:	63726165 	cmnvs	r2, #1073741849	; 0x40000019
   120ec:	61702068 	cmnvs	r0, r8, rrx
   120f0:	00736874 	rsbeqs	r6, r3, r4, ror r8
	...
   12100:	00000003 	andeq	r0, r0, r3
   12104:	6c657205 	sfmvs	f7, 2, [r5], #-20
   12108:	0000636f 	andeq	r6, r0, pc, ror #6
   1210c:	64000000 	strvs	r0, [r0]
   12110:	6c707369 	ldcvsl	3, cr7, [r0], #-420
   12114:	72207961 	eorvc	r7, r0, #1589248	; 0x184000
   12118:	636f6c65 	cmnvs	pc, #25856	; 0x6500
   1211c:	6f697461 	swivs	0x00697461
   12120:	7270206e 	rsbvcs	r2, r0, #110	; 0x6e
   12124:	7365636f 	cmnvc	r5, #-1140850687	; 0xbc000001
   12128:	676e6973 	undefined
	...
   12138:	00000022 	andeq	r0, r0, r2, lsr #32
   1213c:	6c696605 	stcvsl	6, cr6, [r9], #-20
   12140:	00007365 	andeq	r7, r0, r5, ror #6
   12144:	64000000 	strvs	r0, [r0]
   12148:	6c707369 	ldcvsl	3, cr7, [r0], #-420
   1214c:	70207961 	eorvc	r7, r0, r1, ror #18
   12150:	72676f72 	rsbvc	r6, r7, #456	; 0x1c8
   12154:	20737365 	rsbcss	r7, r3, r5, ror #6
   12158:	20726f66 	rsbcss	r6, r2, r6, ror #30
   1215c:	75706e69 	ldrvcb	r6, [r0, #-3689]!
   12160:	69662074 	stmvsdb	r6!, {r2, r4, r5, r6, sp}^
   12164:	0000656c 	andeq	r6, r0, ip, ror #10
	...
   12170:	00000042 	andeq	r0, r0, r2, asr #32
   12174:	6d797307 	ldcvsl	3, cr7, [r9, #-28]!
   12178:	736c6f62 	cmnvc	ip, #392	; 0x188
   1217c:	64000000 	strvs	r0, [r0]
   12180:	6c707369 	ldcvsl	3, cr7, [r0], #-420
   12184:	73207961 	teqvc	r0, #1589248	; 0x184000
   12188:	6f626d79 	swivs	0x00626d79
   1218c:	6174206c 	cmnvs	r4, ip, rrx
   12190:	20656c62 	rsbcs	r6, r5, r2, ror #24
   12194:	636f7270 	cmnvs	pc, #7	; 0x7
   12198:	69737365 	ldmvsdb	r3!, {r0, r2, r5, r6, r8, r9, ip, sp, lr}^
   1219c:	0000676e 	andeq	r6, r0, lr, ror #14
	...
   121a8:	0000000a 	andeq	r0, r0, sl
   121ac:	6e696208 	cdpvs	2, 6, cr6, cr9, cr8, {0}
   121b0:	676e6964 	strvsb	r6, [lr, -r4, ror #18]!
   121b4:	64000073 	strvs	r0, [r0], #-115
   121b8:	6c707369 	ldcvsl	3, cr7, [r0], #-420
   121bc:	69207961 	stmvsdb	r0!, {r0, r5, r6, r8, fp, ip, sp, lr}
   121c0:	726f666e 	rsbvc	r6, pc, #115343360	; 0x6e00000
   121c4:	6974616d 	ldmvsdb	r4!, {r0, r2, r3, r5, r6, r8, sp, lr}^
   121c8:	61206e6f 	teqvs	r0, pc, ror #28
   121cc:	74756f62 	ldrvcbt	r6, [r5], #-3938
   121d0:	6d797320 	ldcvsl	3, cr7, [r9, #-128]!
   121d4:	206c6f62 	rsbcs	r6, ip, r2, ror #30
   121d8:	646e6962 	strvsbt	r6, [lr], #-2402
   121dc:	00676e69 	rsbeq	r6, r7, r9, ror #28
   121e0:	00000006 	andeq	r0, r0, r6
   121e4:	72657608 	rsbvc	r7, r5, #8388608	; 0x800000
   121e8:	6e6f6973 	mcrvs	9, 3, r6, cr15, cr3, {3}
   121ec:	64000073 	strvs	r0, [r0], #-115
   121f0:	6c707369 	ldcvsl	3, cr7, [r0], #-420
   121f4:	76207961 	strvct	r7, [r0], -r1, ror #18
   121f8:	69737265 	ldmvsdb	r3!, {r0, r2, r5, r6, r9, ip, sp, lr}^
   121fc:	64206e6f 	strvst	r6, [r0], #-3695
   12200:	6e657065 	cdpvs	0, 6, cr7, cr5, cr5, {3}
   12204:	636e6564 	cmnvs	lr, #419430400	; 0x19000000
   12208:	00736569 	rsbeqs	r6, r3, r9, ror #10
	...
   12218:	00000012 	andeq	r0, r0, r2, lsl r0
   1221c:	6c6c6103 	stfvse	f6, [ip], #-12
   12220:	00000000 	andeq	r0, r0, r0
   12224:	61000000 	tstvs	r0, r0
   12228:	70206c6c 	eorvc	r6, r0, ip, ror #24
   1222c:	69766572 	ldmvsdb	r6!, {r1, r4, r5, r6, r8, sl, sp, lr}^
   12230:	2073756f 	rsbcss	r7, r3, pc, ror #10
   12234:	6974706f 	ldmvsdb	r4!, {r0, r1, r2, r3, r5, r6, ip, sp, lr}^
   12238:	20736e6f 	rsbcss	r6, r3, pc, ror #28
   1223c:	626d6f63 	rsbvs	r6, sp, #396	; 0x18c
   12240:	64656e69 	strvsbt	r6, [r5], #-3689
	...
   12250:	0000007f 	andeq	r0, r0, pc, ror r0
   12254:	6174730a 	cmnvs	r4, sl, lsl #6
   12258:	74736974 	ldrvcbt	r6, [r3], #-2420
   1225c:	64736369 	ldrvsbt	r6, [r3], #-873
   12260:	6c707369 	ldcvsl	3, cr7, [r0], #-420
   12264:	72207961 	eorvc	r7, r0, #1589248	; 0x184000
   12268:	636f6c65 	cmnvs	pc, #25856	; 0x6500
   1226c:	6f697461 	swivs	0x00697461
   12270:	7473206e 	ldrvcbt	r2, [r3], #-110
   12274:	73697461 	cmnvc	r9, #1627389952	; 0x61000000
   12278:	73636974 	cmnvc	r3, #1900544	; 0x1d0000
	...
   12288:	00000080 	andeq	r0, r0, r0, lsl #1
   1228c:	756e7506 	strvcb	r7, [lr, #-1286]!
   12290:	00646573 	rsbeq	r6, r4, r3, ror r5
   12294:	64000000 	strvs	r0, [r0]
   12298:	72657465 	rsbvc	r7, r5, #1694498816	; 0x65000000
   1229c:	656e696d 	strvsb	r6, [lr, #-2413]!
   122a0:	6e752064 	cdpvs	0, 7, cr2, cr5, cr4, {3}
   122a4:	64657375 	strvsbt	r7, [r5], #-885
   122a8:	4f534420 	swimi	0x00534420
   122ac:	00000073 	andeq	r0, r0, r3, ror r0
	...
   122c0:	00000100 	andeq	r0, r0, r0, lsl #2
   122c4:	6c656804 	stcvsl	8, cr6, [r5], #-16
   122c8:	00000070 	andeq	r0, r0, r0, ror r0
   122cc:	64000000 	strvs	r0, [r0]
   122d0:	6c707369 	ldcvsl	3, cr7, [r0], #-420
   122d4:	74207961 	strvct	r7, [r0], #-2401
   122d8:	20736968 	rsbcss	r6, r3, r8, ror #18
   122dc:	706c6568 	rsbvc	r6, ip, r8, ror #10
   122e0:	73656d20 	cmnvc	r5, #2048	; 0x800
   122e4:	65676173 	strvsb	r6, [r7, #-371]!
   122e8:	646e6120 	strvsbt	r6, [lr], #-288
   122ec:	69786520 	ldmvsdb	r8!, {r5, r8, sl, sp, lr}^
   122f0:	00000074 	andeq	r0, r0, r4, ror r0
   122f4:	00000000 	andeq	r0, r0, r0
   122f8:	00000200 	andeq	r0, r0, r0, lsl #4

000122fc <unsecure_envvars.18>:
   122fc:	505f444c 	subpls	r4, pc, ip, asr #8
   12300:	4f4c4552 	swimi	0x004c4552
   12304:	4c004441 	cfstrsmi	mvf4, [r0], {65}
   12308:	494c5f44 	stmmidb	ip, {r2, r6, r8, r9, sl, fp, ip, lr}^
   1230c:	52415242 	subpl	r5, r1, #536870916	; 0x20000004
   12310:	41505f59 	cmpmi	r0, r9, asr pc
   12314:	4c004854 	stcmi	8, cr4, [r0], {84}
   12318:	524f5f44 	subpl	r5, pc, #272	; 0x110
   1231c:	4e494749 	cdpmi	7, 4, cr4, cr9, cr9, {2}
   12320:	5441505f 	strplb	r5, [r1], #-95
   12324:	444c0048 	strmib	r0, [ip], #-72
   12328:	4245445f 	submi	r4, r5, #1593835520	; 0x5f000000
   1232c:	4c004755 	stcmi	7, cr4, [r0], {85}
   12330:	45445f44 	strmib	r5, [r4, #-3908]
   12334:	5f475542 	swipl	0x00475542
   12338:	5054554f 	subpls	r5, r4, pc, asr #10
   1233c:	4c005455 	cfstrsmi	mvf5, [r0], {85}
   12340:	52505f44 	subpls	r5, r0, #272	; 0x110
   12344:	4c49464f 	mcrrmi	6, 4, r4, r9, cr15
   12348:	444c0045 	strmib	r0, [ip], #-69
   1234c:	4553555f 	ldrmib	r5, [r3, #-1375]
   12350:	414f4c5f 	cmpmi	pc, pc, asr ip
   12354:	49425f44 	stmmidb	r2, {r2, r6, r8, r9, sl, fp, ip, lr}^
   12358:	4c005341 	stcmi	3, cr5, [r0], {65}
   1235c:	59445f44 	stmpldb	r4, {r2, r6, r8, r9, sl, fp, ip, lr}^
   12360:	494d414e 	stmmidb	sp, {r1, r2, r3, r6, r8, lr}^
   12364:	45575f43 	ldrmib	r5, [r7, #-3907]
   12368:	4c004b41 	stcmi	11, cr4, [r0], {65}
   1236c:	48535f44 	ldmmida	r3, {r2, r6, r8, r9, sl, fp, ip, lr}^
   12370:	415f574f 	cmpmi	pc, pc, asr #14
   12374:	00565855 	subeqs	r5, r6, r5, asr r8
   12378:	4e4f4347 	cdpmi	3, 4, cr4, cr15, cr7, {2}
   1237c:	41505f56 	cmpmi	r0, r6, asr pc
   12380:	47004854 	smlsdmi	r0, r4, r8, r4
   12384:	4f435445 	swimi	0x00435445
   12388:	445f464e 	ldrmib	r4, [pc], #1614	; 12390 <unsecure_envvars.18+0x94>
   1238c:	48005249 	stmmida	r0, {r0, r3, r6, r9, ip, lr}
   12390:	4154534f 	cmpmi	r4, pc, asr #6
   12394:	5341494c 	cmppl	r1, #1245184	; 0x130000
   12398:	4c005345 	stcmi	3, cr5, [r0], {69}
   1239c:	4c41434f 	mcrrmi	3, 4, r4, r1, cr15
   123a0:	414d4f44 	cmpmi	sp, r4, asr #30
   123a4:	4c004e49 	stcmi	14, cr4, [r0], {73}
   123a8:	4150434f 	cmpmi	r0, pc, asr #6
   123ac:	4d004854 	stcmi	8, cr4, [r0, #-336]
   123b0:	4f4c4c41 	swimi	0x004c4c41
   123b4:	52545f43 	subpls	r5, r4, #268	; 0x10c
   123b8:	00454341 	subeq	r4, r5, r1, asr #6
   123bc:	50534c4e 	subpls	r4, r3, lr, asr #24
   123c0:	00485441 	subeq	r5, r8, r1, asr #8
   123c4:	4f534552 	swimi	0x00534552
   123c8:	485f564c 	ldmmida	pc, {r2, r3, r6, r9, sl, ip, lr}^
   123cc:	5f54534f 	swipl	0x0054534f
   123d0:	464e4f43 	strmib	r4, [lr], -r3, asr #30
   123d4:	53455200 	cmppl	r5, #0	; 0x0
   123d8:	54504f5f 	ldrplb	r4, [r0], #-3935
   123dc:	534e4f49 	cmppl	lr, #292	; 0x124
   123e0:	504d5400 	subpl	r5, sp, r0, lsl #8
   123e4:	00524944 	subeqs	r4, r2, r4, asr #18
   123e8:	49445a54 	stmmidb	r4, {r2, r4, r6, r9, fp, ip, lr}^
   123ec:	00000052 	andeq	r0, r0, r2, asr r0
   123f0:	7261762f 	rsbvc	r7, r1, #49283072	; 0x2f00000
   123f4:	706d742f 	rsbvc	r7, sp, pc, lsr #8
   123f8:	61762f00 	cmnvs	r6, r0, lsl #30
   123fc:	72702f72 	rsbvcs	r2, r0, #456	; 0x1c8
   12400:	6c69666f 	stcvsl	6, cr6, [r9], #-444
   12404:	00000065 	andeq	r0, r0, r5, rrx

00012408 <system_dirs>:
   12408:	62696c2f 	rsbvs	r6, r9, #12032	; 0x2f00
   1240c:	752f002f 	strvc	r0, [pc, #-47]!	; 123e5 <unsecure_envvars.18+0xe9>
   12410:	6c2f7273 	sfmvs	f7, 4, [pc], #-460
   12414:	002f6269 	eoreq	r6, pc, r9, ror #4

00012418 <system_dirs_len>:
   12418:	00000005 	andeq	r0, r0, r5
   1241c:	00000009 	andeq	r0, r0, r9

00012420 <__PRETTY_FUNCTION__.1>:
   12420:	61707865 	cmnvs	r0, r5, ror #16
   12424:	645f646e 	ldrvsb	r6, [pc], #1134	; 1242c <__PRETTY_FUNCTION__.1+0xc>
   12428:	6d616e79 	stcvsl	14, cr6, [r1, #-484]!
   1242c:	735f6369 	cmpvc	pc, #-1543503871	; 0xa4000001
   12430:	6e697274 	mcrvs	2, 3, r7, cr9, cr4, {3}
   12434:	6f745f67 	swivs	0x00745f67
   12438:	006e656b 	rsbeq	r6, lr, fp, ror #10

0001243c <__PRETTY_FUNCTION__.2>:
   1243c:	5f646461 	swipl	0x00646461
   12440:	656d616e 	strvsb	r6, [sp, #-366]!
   12444:	5f6f745f 	swipl	0x006f745f
   12448:	656a626f 	strvsb	r6, [sl, #-623]!
   1244c:	00007463 	andeq	r7, r0, r3, ror #8

00012450 <curwd.3>:
   12450:	00002f2e 	andeq	r2, r0, lr, lsr #30

00012454 <__PRETTY_FUNCTION__.4>:
   12454:	5f6c645f 	swipl	0x006c645f
   12458:	74696e69 	strvcbt	r6, [r9], #-3689
   1245c:	7461705f 	strvcbt	r7, [r1], #-95
   12460:	00007368 	andeq	r7, r0, r8, ror #6

00012464 <__PRETTY_FUNCTION__.5>:
   12464:	65736f6c 	ldrvsb	r6, [r3, #-3948]!
   12468:	00000000 	andeq	r0, r0, r0

0001246c <__PRETTY_FUNCTION__.0>:
   1246c:	5f666c65 	swipl	0x00666c65
   12470:	5f746567 	swipl	0x00746567
   12474:	616e7964 	cmnvs	lr, r4, ror #18
   12478:	5f63696d 	swipl	0x0063696d
   1247c:	6f666e69 	swivs	0x00666e69
   12480:	00000000 	andeq	r0, r0, r0

00012484 <__PRETTY_FUNCTION__.6>:
   12484:	6e65706f 	cdpvs	0, 6, cr7, cr5, cr15, {3}
   12488:	7265765f 	rsbvc	r7, r5, #99614720	; 0x5f00000
   1248c:	00796669 	rsbeqs	r6, r9, r9, ror #12

00012490 <expected.7>:
   12490:	464c457f 	undefined
   12494:	00010101 	andeq	r0, r1, r1, lsl #2
   12498:	00000000 	andeq	r0, r0, r0

0001249c <expected_note.8>:
   1249c:	00000004 	andeq	r0, r0, r4
   124a0:	00000010 	andeq	r0, r0, r0, lsl r0
   124a4:	00000001 	andeq	r0, r0, r1
   124a8:	00554e47 	subeqs	r4, r5, r7, asr #28

000124ac <__PRETTY_FUNCTION__.9>:
   124ac:	5f6c645f 	swipl	0x006c645f
   124b0:	5f70616d 	swipl	0x0070616d
   124b4:	656a626f 	strvsb	r6, [sl, #-623]!
   124b8:	00007463 	andeq	r7, r0, r3, ror #8

000124bc <dummy_bucket.10>:
   124bc:	00000000 	andeq	r0, r0, r0

000124c0 <__PRETTY_FUNCTION__.0>:
   124c0:	5f6c645f 	swipl	0x006c645f
   124c4:	64616f6c 	strvsbt	r6, [r1], #-3948
   124c8:	6361635f 	cmnvs	r1, #2080374785	; 0x7c000001
   124cc:	6c5f6568 	cfldr64vs	mvdx6, [pc], {104}
   124d0:	756b6f6f 	strvcb	r6, [fp, #-3951]!
   124d4:	00000070 	andeq	r0, r0, r0, ror r0

000124d8 <undefined_msg>:
   124d8:	65646e75 	strvsb	r6, [r4, #-3701]!
   124dc:	656e6966 	strvsb	r6, [lr, #-2406]!
   124e0:	79732064 	ldmvcdb	r3!, {r2, r5, r6, sp}^
   124e4:	6c6f626d 	sfmvs	f6, 2, [pc], #-436
   124e8:	0000203a 	andeq	r2, r0, sl, lsr r0

000124ec <__PRETTY_FUNCTION__.0>:
   124ec:	6c5f6f64 	mrrcvs	15, 6, r6, pc, cr4
   124f0:	756b6f6f 	strvcb	r6, [fp, #-3951]!
   124f4:	00785f70 	rsbeqs	r5, r8, r0, ror pc

000124f8 <__PRETTY_FUNCTION__.1>:
   124f8:	5f6c645f 	swipl	0x006c645f
   124fc:	6b6f6f6c 	blvs	1bee2b4 <__bss_end__+0x1bd09c4>
   12500:	735f7075 	cmpvc	pc, #117	; 0x75
   12504:	6f626d79 	swivs	0x00626d79
   12508:	00785f6c 	rsbeqs	r5, r8, ip, ror #30

0001250c <__PRETTY_FUNCTION__.15>:
   1250c:	5f6c645f 	swipl	0x006c645f
   12510:	6f6c6572 	swivs	0x006c6572
   12514:	65746163 	ldrvsb	r6, [r4, #-355]!
   12518:	6a626f5f 	bvs	18ae29c <__bss_end__+0x18909ac>
   1251c:	00746365 	rsbeqs	r6, r4, r5, ror #6

00012520 <__PRETTY_FUNCTION__.2>:
   12520:	5f786966 	swipl	0x00786966
   12524:	5f646162 	swipl	0x00646162
   12528:	34326370 	ldrcct	r6, [r2], #-880
   1252c:	00000000 	andeq	r0, r0, r0

00012530 <__PRETTY_FUNCTION__.12>:
   12530:	5f666c65 	swipl	0x00666c65
   12534:	5f746567 	swipl	0x00746567
   12538:	616e7964 	cmnvs	lr, r4, ror #18
   1253c:	5f63696d 	swipl	0x0063696d
   12540:	6f666e69 	swivs	0x00666e69
   12544:	00000000 	andeq	r0, r0, r0

00012548 <errstring.16>:
   12548:	6e6e6163 	powvsez	f6, f6, f3
   1254c:	6120746f 	teqvs	r0, pc, ror #8
   12550:	796c7070 	stmvcdb	ip!, {r4, r5, r6, ip, sp, lr}^
   12554:	64646120 	strvsbt	r6, [r4], #-288
   12558:	6f697469 	swivs	0x00697469
   1255c:	206c616e 	rsbcs	r6, ip, lr, ror #2
   12560:	6f6d656d 	swivs	0x006d656d
   12564:	70207972 	eorvc	r7, r0, r2, ror r9
   12568:	65746f72 	ldrvsb	r6, [r4, #-3954]!
   1256c:	6f697463 	swivs	0x00697463
   12570:	6661206e 	strvsbt	r2, [r1], -lr, rrx
   12574:	20726574 	rsbcss	r6, r2, r4, ror r5
   12578:	6f6c6572 	swivs	0x006c6572
   1257c:	69746163 	ldmvsdb	r4!, {r0, r1, r5, r6, r8, sp, lr}^
   12580:	75006e6f 	strvc	r6, [r0, #-3695]

00012583 <msg.17>:
   12583:	78656e75 	stmvcda	r5!, {r0, r2, r4, r5, r6, r9, sl, fp, sp, lr}^
   12587:	74636570 	strvcbt	r6, [r3], #-1392
   1258b:	72206465 	eorvc	r6, r0, #1694498816	; 0x65000000
   1258f:	636f6c65 	cmnvs	pc, #25856	; 0x6500
   12593:	70797420 	rsbvcs	r7, r9, r0, lsr #8
   12597:	78302065 	ldmvcda	r0!, {r0, r2, r5, r6, sp}
	...
   125a3:	78656e75 	stmvcda	r5!, {r0, r2, r4, r5, r6, r9, sl, fp, sp, lr}^
   125a7:	74636570 	strvcbt	r6, [r3], #-1392
   125ab:	50206465 	eorpl	r6, r0, r5, ror #8
   125af:	7220544c 	eorvc	r5, r0, #1275068416	; 0x4c000000
   125b3:	636f6c65 	cmnvs	pc, #25856	; 0x6500
   125b7:	70797420 	rsbvcs	r7, r9, r0, lsr #8
   125bb:	78302065 	ldmvcda	r0!, {r0, r2, r5, r6, sp}
   125bf:	00000000 	andeq	r0, r0, r0
	...

000125c4 <__PRETTY_FUNCTION__.1>:
   125c4:	5f6c645f 	swipl	0x006c645f
   125c8:	5f70616d 	swipl	0x0070616d
   125cc:	656a626f 	strvsb	r6, [sl, #-623]!
   125d0:	645f7463 	ldrvsb	r7, [pc], #1123	; 125d8 <__PRETTY_FUNCTION__.1>
   125d4:	00737065 	rsbeqs	r7, r3, r5, rrx

000125d8 <__PRETTY_FUNCTION__.1>:
   125d8:	75786966 	ldrvcb	r6, [r8, #-2406]!
   125dc:	00000070 	andeq	r0, r0, r0, ror r0

000125e0 <__PRETTY_FUNCTION__.2>:
   125e0:	666f7270 	undefined
   125e4:	5f656c69 	swipl	0x00656c69
   125e8:	75786966 	ldrvcb	r6, [r8, #-2406]!
   125ec:	00000070 	andeq	r0, r0, r0, ror r0

000125f0 <_dl_out_of_memory>:
   125f0:	2074756f 	rsbcss	r7, r4, pc, ror #10
   125f4:	6d20666f 	stcvs	6, cr6, [r0, #-444]!
   125f8:	726f6d65 	rsbvc	r6, pc, #6464	; 0x1940
   125fc:	00000079 	andeq	r0, r0, r9, ror r0

00012600 <__PRETTY_FUNCTION__.0>:
   12600:	5f6c645f 	swipl	0x006c645f
   12604:	74726f73 	ldrvcbt	r6, [r2], #-3955
   12608:	6e69665f 	mcrvs	6, 3, r6, cr9, cr15, {2}
   1260c:	00000069 	andeq	r0, r0, r9, rrx

00012610 <__PRETTY_FUNCTION__.1>:
   12610:	5f6c645f 	swipl	0x006c645f
   12614:	696e6966 	stmvsdb	lr!, {r1, r2, r5, r6, r8, fp, sp, lr}^
   12618:	00000000 	andeq	r0, r0, r0

0001261c <__PRETTY_FUNCTION__.0>:
   1261c:	5f6c645f 	swipl	0x006c645f
   12620:	75626564 	strvcb	r6, [r2, #-1380]!
   12624:	64765f67 	ldrvsbt	r5, [r6], #-3943
   12628:	6e697270 	mcrvs	2, 3, r7, cr9, cr0, {3}
   1262c:	00006674 	andeq	r6, r0, r4, ror r6

00012630 <__PRETTY_FUNCTION__.0>:
   12630:	6374616d 	cmnvs	r4, #1073741851	; 0x4000001b
   12634:	79735f68 	ldmvcdb	r3!, {r3, r5, r6, r8, r9, sl, fp, ip, lr}^
   12638:	6c6f626d 	sfmvs	f6, 2, [pc], #-436
   1263c:	00000000 	andeq	r0, r0, r0

00012640 <__PRETTY_FUNCTION__.1>:
   12640:	5f6c645f 	swipl	0x006c645f
   12644:	63656863 	cmnvs	r5, #6488064	; 0x630000
   12648:	616d5f6b 	cmnvs	sp, fp, ror #30
   1264c:	65765f70 	ldrvsb	r5, [r6, #-3952]!
   12650:	6f697372 	swivs	0x00697372
   12654:	0000736e 	andeq	r7, r0, lr, ror #6

00012658 <__PRETTY_FUNCTION__.0>:
   12658:	5f6c645f 	swipl	0x006c645f
   1265c:	72617473 	rsbvc	r7, r1, #1929379840	; 0x73000000
   12660:	72705f74 	rsbvcs	r5, r0, #464	; 0x1d0
   12664:	6c69666f 	stcvsl	6, cr6, [r9], #-444
   12668:	00000065 	andeq	r0, r0, r5, rrx

0001266c <__PRETTY_FUNCTION__.15>:
   1266c:	5f6c645f 	swipl	0x006c645f
   12670:	6f736572 	swivs	0x00736572
   12674:	5f65766c 	swipl	0x0065766c
   12678:	666e6f63 	strvsbt	r6, [lr], -r3, ror #30
   1267c:	7463696c 	strvcbt	r6, [r3], #-2412
   12680:	00000073 	andeq	r0, r0, r3, ror r0

00012684 <__PRETTY_FUNCTION__.2>:
   12684:	5f786966 	swipl	0x00786966
   12688:	5f646162 	swipl	0x00646162
   1268c:	34326370 	ldrcct	r6, [r2], #-880
   12690:	00000000 	andeq	r0, r0, r0

00012694 <__PRETTY_FUNCTION__.12>:
   12694:	5f666c65 	swipl	0x00666c65
   12698:	5f746567 	swipl	0x00746567
   1269c:	616e7964 	cmnvs	lr, r4, ror #18
   126a0:	5f63696d 	swipl	0x0063696d
   126a4:	6f666e69 	swivs	0x00666e69
   126a8:	00000000 	andeq	r0, r0, r0

000126ac <__PRETTY_FUNCTION__.0>:
   126ac:	5f6c645f 	swipl	0x006c645f
   126b0:	5f746567 	swipl	0x00746567
   126b4:	6769726f 	strvsb	r7, [r9, -pc, ror #4]!
   126b8:	00006e69 	andeq	r6, r0, r9, ror #28

000126bc <expected1.0>:
   126bc:	6362696c 	cmnvs	r2, #1769472	; 0x1b0000
   126c0:	2e6f732e 	cdpcs	3, 6, cr7, cr15, cr14, {1}
   126c4:	00000036 	andeq	r0, r0, r6, lsr r0

000126c8 <expected2.1>:
   126c8:	6462696c 	strvsbt	r6, [r2], #-2412
   126cc:	6f732e6c 	swivs	0x00732e6c
   126d0:	0000322e 	andeq	r3, r0, lr, lsr #4

000126d4 <expected3.2>:
   126d4:	7062696c 	rsbvc	r6, r2, ip, ror #18
   126d8:	65726874 	ldrvsb	r6, [r2, #-2164]!
   126dc:	732e6461 	teqvc	lr, #1627389952	; 0x61000000
   126e0:	00302e6f 	eoreqs	r2, r0, pc, ror #28

000126e4 <expected4.3>:
   126e4:	6c2d646c 	cfstrsvs	mvf6, [sp], #-432
   126e8:	78756e69 	ldmvcda	r5!, {r0, r3, r5, r6, r9, sl, fp, sp, lr}^
   126ec:	2e6f732e 	cdpcs	3, 6, cr7, cr15, cr14, {1}
   126f0:	00000032 	andeq	r0, r0, r2, lsr r0

000126f4 <__PRETTY_FUNCTION__.0>:
   126f4:	5f6c645f 	swipl	0x006c645f
   126f8:	776f6873 	undefined
   126fc:	7875615f 	ldmvcda	r5!, {r0, r1, r2, r3, r4, r6, r8, sp, lr}^
   12700:	00000076 	andeq	r0, r0, r6, ror r0

00012704 <auxvars.1>:
   12704:	455f5441 	ldrmib	r5, [pc, #-1089]	; 122cb <debopts.17+0x1ff>
   12708:	46434558 	undefined
   1270c:	20203a44 	eorcs	r3, r0, r4, asr #20
   12710:	20202020 	eorcs	r2, r0, r0, lsr #32
   12714:	00000020 	andeq	r0, r0, r0, lsr #32
   12718:	00000001 	andeq	r0, r0, r1
   1271c:	505f5441 	subpls	r5, pc, r1, asr #8
   12720:	3a524448 	bcc	14a3848 <__bss_end__+0x1485f58>
   12724:	20202020 	eorcs	r2, r0, r0, lsr #32
   12728:	20202020 	eorcs	r2, r0, r0, lsr #32
   1272c:	00783020 	rsbeqs	r3, r8, r0, lsr #32
   12730:	00000002 	andeq	r0, r0, r2
   12734:	505f5441 	subpls	r5, pc, r1, asr #8
   12738:	544e4548 	strplb	r4, [lr], #-1352
   1273c:	2020203a 	eorcs	r2, r0, sl, lsr r0
   12740:	20202020 	eorcs	r2, r0, r0, lsr #32
   12744:	00000020 	andeq	r0, r0, r0, lsr #32
   12748:	00000001 	andeq	r0, r0, r1
   1274c:	505f5441 	subpls	r5, pc, r1, asr #8
   12750:	4d554e48 	ldcmil	14, cr4, [r5, #-288]
   12754:	2020203a 	eorcs	r2, r0, sl, lsr r0
   12758:	20202020 	eorcs	r2, r0, r0, lsr #32
   1275c:	00000020 	andeq	r0, r0, r0, lsr #32
   12760:	00000001 	andeq	r0, r0, r1
   12764:	505f5441 	subpls	r5, pc, r1, asr #8
   12768:	53454741 	cmppl	r5, #17039360	; 0x1040000
   1276c:	20203a5a 	eorcs	r3, r0, sl, asr sl
   12770:	20202020 	eorcs	r2, r0, r0, lsr #32
   12774:	00000020 	andeq	r0, r0, r0, lsr #32
   12778:	00000001 	andeq	r0, r0, r1
   1277c:	425f5441 	submis	r5, pc, #1090519040	; 0x41000000
   12780:	3a455341 	bcc	116748c <__bss_end__+0x1149b9c>
   12784:	20202020 	eorcs	r2, r0, r0, lsr #32
   12788:	20202020 	eorcs	r2, r0, r0, lsr #32
   1278c:	00783020 	rsbeqs	r3, r8, r0, lsr #32
   12790:	00000002 	andeq	r0, r0, r2
   12794:	465f5441 	ldrmib	r5, [pc], -r1, asr #8
   12798:	5347414c 	cmppl	r7, #19	; 0x13
   1279c:	2020203a 	eorcs	r2, r0, sl, lsr r0
   127a0:	20202020 	eorcs	r2, r0, r0, lsr #32
   127a4:	00783020 	rsbeqs	r3, r8, r0, lsr #32
   127a8:	00000002 	andeq	r0, r0, r2
   127ac:	455f5441 	ldrmib	r5, [pc, #-1089]	; 12373 <unsecure_envvars.18+0x77>
   127b0:	5952544e 	ldmpldb	r2, {r1, r2, r3, r6, sl, ip, lr}^
   127b4:	2020203a 	eorcs	r2, r0, sl, lsr r0
   127b8:	20202020 	eorcs	r2, r0, r0, lsr #32
   127bc:	00783020 	rsbeqs	r3, r8, r0, lsr #32
   127c0:	00000002 	andeq	r0, r0, r2
   127c4:	4e5f5441 	cdpmi	4, 5, cr5, cr15, cr1, {2}
   127c8:	4c45544f 	cfstrdmi	mvd5, [r5], {79}
   127cc:	20203a46 	eorcs	r3, r0, r6, asr #20
   127d0:	20202020 	eorcs	r2, r0, r0, lsr #32
   127d4:	00000020 	andeq	r0, r0, r0, lsr #32
   127d8:	00000002 	andeq	r0, r0, r2
   127dc:	555f5441 	ldrplb	r5, [pc, #-1089]	; 123a3 <unsecure_envvars.18+0xa7>
   127e0:	203a4449 	eorcss	r4, sl, r9, asr #8
   127e4:	20202020 	eorcs	r2, r0, r0, lsr #32
   127e8:	20202020 	eorcs	r2, r0, r0, lsr #32
   127ec:	00000020 	andeq	r0, r0, r0, lsr #32
   127f0:	00000001 	andeq	r0, r0, r1
   127f4:	455f5441 	ldrmib	r5, [pc, #-1089]	; 123bb <unsecure_envvars.18+0xbf>
   127f8:	3a444955 	bcc	1124d54 <__bss_end__+0x1107464>
   127fc:	20202020 	eorcs	r2, r0, r0, lsr #32
   12800:	20202020 	eorcs	r2, r0, r0, lsr #32
   12804:	00000020 	andeq	r0, r0, r0, lsr #32
   12808:	00000001 	andeq	r0, r0, r1
   1280c:	475f5441 	ldrmib	r5, [pc, -r1, asr #8]
   12810:	203a4449 	eorcss	r4, sl, r9, asr #8
   12814:	20202020 	eorcs	r2, r0, r0, lsr #32
   12818:	20202020 	eorcs	r2, r0, r0, lsr #32
   1281c:	00000020 	andeq	r0, r0, r0, lsr #32
   12820:	00000001 	andeq	r0, r0, r1
   12824:	455f5441 	ldrmib	r5, [pc, #-1089]	; 123eb <unsecure_envvars.18+0xef>
   12828:	3a444947 	bcc	1124d4c <__bss_end__+0x110745c>
   1282c:	20202020 	eorcs	r2, r0, r0, lsr #32
   12830:	20202020 	eorcs	r2, r0, r0, lsr #32
   12834:	00000020 	andeq	r0, r0, r0, lsr #32
   12838:	00000001 	andeq	r0, r0, r1
   1283c:	505f5441 	subpls	r5, pc, r1, asr #8
   12840:	4654414c 	ldrmib	r4, [r4], -ip, asr #2
   12844:	3a4d524f 	bcc	1367188 <__bss_end__+0x1349898>
   12848:	20202020 	eorcs	r2, r0, r0, lsr #32
   1284c:	00000020 	andeq	r0, r0, r0, lsr #32
   12850:	00000003 	andeq	r0, r0, r3
   12854:	485f5441 	ldmmida	pc, {r0, r6, sl, ip, lr}^
   12858:	50414357 	subpl	r4, r1, r7, asr r3
   1285c:	2020203a 	eorcs	r2, r0, sl, lsr r0
   12860:	20202020 	eorcs	r2, r0, r0, lsr #32
   12864:	00000020 	andeq	r0, r0, r0, lsr #32
   12868:	00000002 	andeq	r0, r0, r2
   1286c:	435f5441 	cmpmi	pc, #1090519040	; 0x41000000
   12870:	43544b4c 	cmpmi	r4, #77824	; 0x13000
   12874:	20203a4b 	eorcs	r3, r0, fp, asr #20
   12878:	20202020 	eorcs	r2, r0, r0, lsr #32
   1287c:	00000020 	andeq	r0, r0, r0, lsr #32
   12880:	00000001 	andeq	r0, r0, r1
   12884:	465f5441 	ldrmib	r5, [pc], -r1, asr #8
   12888:	57435550 	smlsldpl	r5, r3, r0, r5
   1288c:	2020203a 	eorcs	r2, r0, sl, lsr r0
   12890:	20202020 	eorcs	r2, r0, r0, lsr #32
   12894:	00000020 	andeq	r0, r0, r0, lsr #32
   12898:	00000002 	andeq	r0, r0, r2
   1289c:	445f5441 	ldrmib	r5, [pc], #1089	; 128a4 <.rodata+0x854>
   128a0:	48434143 	stmmida	r3, {r0, r1, r6, r8, lr}^
   128a4:	49534245 	ldmmidb	r3, {r0, r2, r6, r9, lr}^
   128a8:	203a455a 	eorcss	r4, sl, sl, asr r5
   128ac:	00783020 	rsbeqs	r3, r8, r0, lsr #32
   128b0:	00000002 	andeq	r0, r0, r2
   128b4:	495f5441 	ldmmidb	pc, {r0, r6, sl, ip, lr}^
   128b8:	48434143 	stmmida	r3, {r0, r1, r6, r8, lr}^
   128bc:	49534245 	ldmmidb	r3, {r0, r2, r6, r9, lr}^
   128c0:	203a455a 	eorcss	r4, sl, sl, asr r5
   128c4:	00783020 	rsbeqs	r3, r8, r0, lsr #32
   128c8:	00000002 	andeq	r0, r0, r2
   128cc:	555f5441 	ldrplb	r5, [pc, #-1089]	; 12493 <expected.7+0x3>
   128d0:	48434143 	stmmida	r3, {r0, r1, r6, r8, lr}^
   128d4:	49534245 	ldmmidb	r3, {r0, r2, r6, r9, lr}^
   128d8:	203a455a 	eorcss	r4, sl, sl, asr r5
   128dc:	00783020 	rsbeqs	r3, r8, r0, lsr #32
   128e0:	00000002 	andeq	r0, r0, r2
   128e4:	495f5441 	ldmmidb	pc, {r0, r6, sl, ip, lr}^
   128e8:	524f4e47 	subpl	r4, pc, #1136	; 0x470
   128ec:	43505045 	cmpmi	r0, #69	; 0x45
	...
   128f8:	00000004 	andeq	r0, r0, r4
   128fc:	535f5441 	cmppl	pc, #1090519040	; 0x41000000
   12900:	52554345 	subpls	r4, r5, #335544321	; 0x14000001
   12904:	20203a45 	eorcs	r3, r0, r5, asr #20
   12908:	20202020 	eorcs	r2, r0, r0, lsr #32
   1290c:	00000020 	andeq	r0, r0, r0, lsr #32
   12910:	00000001 	andeq	r0, r0, r1
	...
   129d4:	535f5441 	cmppl	pc, #1090519040	; 0x41000000
   129d8:	4e495359 	mcrmi	3, 2, r5, cr9, cr9, {2}
   129dc:	203a4f46 	eorcss	r4, sl, r6, asr #30
   129e0:	20202020 	eorcs	r2, r0, r0, lsr #32
   129e4:	00783020 	rsbeqs	r3, r8, r0, lsr #32
   129e8:	00000002 	andeq	r0, r0, r2
   129ec:	535f5441 	cmppl	pc, #1090519040	; 0x41000000
   129f0:	4e495359 	mcrmi	3, 2, r5, cr9, cr9, {2}
   129f4:	455f4f46 	ldrmib	r4, [pc, #-3910]	; 11ab6 <_wordcopy_fwd_dest_aligned+0x4a>
   129f8:	3a524448 	bcc	14a3b20 <__bss_end__+0x1486230>
   129fc:	00783020 	rsbeqs	r3, r8, r0, lsr #32
   12a00:	00000002 	andeq	r0, r0, r2

00012a04 <__PRETTY_FUNCTION__.2>:
   12a04:	5f6c645f 	swipl	0x006c645f
   12a08:	6f706d69 	swivs	0x00706d69
   12a0c:	6e617472 	mcrvs	4, 3, r7, cr1, cr2, {3}
   12a10:	77685f74 	undefined
   12a14:	73706163 	cmnvc	r0, #-1073741800	; 0xc0000018
   12a18:	00000000 	andeq	r0, r0, r0

00012a1c <__PRETTY_FUNCTION__.0>:
   12a1c:	696c5f5f 	stmvsdb	ip!, {r0, r1, r2, r3, r4, r6, r8, r9, sl, fp, ip, lr}^
   12a20:	6d5f6362 	ldcvsl	3, cr6, [pc, #-392]
   12a24:	6c616d65 	stcvsl	13, cr6, [r1], #-404
   12a28:	006e6769 	rsbeq	r6, lr, r9, ror #14

00012a2c <__PRETTY_FUNCTION__.1>:
   12a2c:	6c616572 	cfstr64vs	mvdx6, [r1], #-456
   12a30:	00636f6c 	rsbeq	r6, r3, ip, ror #30

00012a34 <__PRETTY_FUNCTION__.2>:
   12a34:	74735f5f 	ldrvcbt	r5, [r3], #-3935
   12a38:	756f7472 	strvcb	r7, [pc, #-1138]!	; 125ce <__PRETTY_FUNCTION__.1+0xa>
   12a3c:	6e695f6c 	cdpvs	15, 6, cr5, cr9, cr12, {3}
   12a40:	6e726574 	mrcvs	5, 3, r6, cr2, cr4, {3}
   12a44:	00006c61 	andeq	r6, r0, r1, ror #24

00012a48 <__PRETTY_FUNCTION__.3>:
   12a48:	6f74695f 	swivs	0x0074695f
   12a4c:	00000061 	andeq	r0, r0, r1, rrx

00012a50 <__PRETTY_FUNCTION__.4>:
   12a50:	74735f5f 	ldrvcbt	r5, [r3], #-3935
   12a54:	70657372 	rsbvc	r7, r5, r2, ror r3
   12a58:	00000000 	andeq	r0, r0, r0

00012a5c <_itoa_lower_digits_internal>:
   12a5c:	33323130 	teqcc	r2, #12	; 0xc
   12a60:	37363534 	undefined
   12a64:	62613938 	rsbvs	r3, r1, #917504	; 0xe0000
   12a68:	66656463 	strvsbt	r6, [r5], -r3, ror #8

00012a6c <__PRETTY_FUNCTION__.0>:
   12a6c:	63665f5f 	cmnvs	r6, #380	; 0x17c
   12a70:	5f6c746e 	swipl	0x006c746e
   12a74:	61636f6e 	cmnvs	r3, lr, ror #30
   12a78:	6c65636e 	stcvsl	3, cr6, [r5], #-440
   12a7c:	00000000 	andeq	r0, r0, r0

00012a80 <__PRETTY_FUNCTION__.0>:
   12a80:	65675f5f 	strvsb	r5, [r7, #-3935]!
   12a84:	64776374 	ldrvsbt	r6, [r7], #-884
   12a88:	00000000 	andeq	r0, r0, r0

00012a8c <__clz_tab>:
   12a8c:	02020100 	andeq	r0, r2, #0	; 0x0
   12a90:	03030303 	tsteq	r3, #201326592	; 0xc000000
   12a94:	04040404 	streq	r0, [r4], #-1028
   12a98:	04040404 	streq	r0, [r4], #-1028
   12a9c:	05050505 	streq	r0, [r5, #-1285]
   12aa0:	05050505 	streq	r0, [r5, #-1285]
   12aa4:	05050505 	streq	r0, [r5, #-1285]
   12aa8:	05050505 	streq	r0, [r5, #-1285]
   12aac:	06060606 	streq	r0, [r6], -r6, lsl #12
   12ab0:	06060606 	streq	r0, [r6], -r6, lsl #12
   12ab4:	06060606 	streq	r0, [r6], -r6, lsl #12
   12ab8:	06060606 	streq	r0, [r6], -r6, lsl #12
   12abc:	06060606 	streq	r0, [r6], -r6, lsl #12
   12ac0:	06060606 	streq	r0, [r6], -r6, lsl #12
   12ac4:	06060606 	streq	r0, [r6], -r6, lsl #12
   12ac8:	06060606 	streq	r0, [r6], -r6, lsl #12
   12acc:	07070707 	streq	r0, [r7, -r7, lsl #14]
   12ad0:	07070707 	streq	r0, [r7, -r7, lsl #14]
   12ad4:	07070707 	streq	r0, [r7, -r7, lsl #14]
   12ad8:	07070707 	streq	r0, [r7, -r7, lsl #14]
   12adc:	07070707 	streq	r0, [r7, -r7, lsl #14]
   12ae0:	07070707 	streq	r0, [r7, -r7, lsl #14]
   12ae4:	07070707 	streq	r0, [r7, -r7, lsl #14]
   12ae8:	07070707 	streq	r0, [r7, -r7, lsl #14]
   12aec:	07070707 	streq	r0, [r7, -r7, lsl #14]
   12af0:	07070707 	streq	r0, [r7, -r7, lsl #14]
   12af4:	07070707 	streq	r0, [r7, -r7, lsl #14]
   12af8:	07070707 	streq	r0, [r7, -r7, lsl #14]
   12afc:	07070707 	streq	r0, [r7, -r7, lsl #14]
   12b00:	07070707 	streq	r0, [r7, -r7, lsl #14]
   12b04:	07070707 	streq	r0, [r7, -r7, lsl #14]
   12b08:	07070707 	streq	r0, [r7, -r7, lsl #14]
   12b0c:	08080808 	stmeqda	r8, {r3, fp}
   12b10:	08080808 	stmeqda	r8, {r3, fp}
   12b14:	08080808 	stmeqda	r8, {r3, fp}
   12b18:	08080808 	stmeqda	r8, {r3, fp}
   12b1c:	08080808 	stmeqda	r8, {r3, fp}
   12b20:	08080808 	stmeqda	r8, {r3, fp}
   12b24:	08080808 	stmeqda	r8, {r3, fp}
   12b28:	08080808 	stmeqda	r8, {r3, fp}
   12b2c:	08080808 	stmeqda	r8, {r3, fp}
   12b30:	08080808 	stmeqda	r8, {r3, fp}
   12b34:	08080808 	stmeqda	r8, {r3, fp}
   12b38:	08080808 	stmeqda	r8, {r3, fp}
   12b3c:	08080808 	stmeqda	r8, {r3, fp}
   12b40:	08080808 	stmeqda	r8, {r3, fp}
   12b44:	08080808 	stmeqda	r8, {r3, fp}
   12b48:	08080808 	stmeqda	r8, {r3, fp}
   12b4c:	08080808 	stmeqda	r8, {r3, fp}
   12b50:	08080808 	stmeqda	r8, {r3, fp}
   12b54:	08080808 	stmeqda	r8, {r3, fp}
   12b58:	08080808 	stmeqda	r8, {r3, fp}
   12b5c:	08080808 	stmeqda	r8, {r3, fp}
   12b60:	08080808 	stmeqda	r8, {r3, fp}
   12b64:	08080808 	stmeqda	r8, {r3, fp}
   12b68:	08080808 	stmeqda	r8, {r3, fp}
   12b6c:	08080808 	stmeqda	r8, {r3, fp}
   12b70:	08080808 	stmeqda	r8, {r3, fp}
   12b74:	08080808 	stmeqda	r8, {r3, fp}
   12b78:	08080808 	stmeqda	r8, {r3, fp}
   12b7c:	08080808 	stmeqda	r8, {r3, fp}
   12b80:	08080808 	stmeqda	r8, {r3, fp}
   12b84:	08080808 	stmeqda	r8, {r3, fp}
   12b88:	08080808 	stmeqda	r8, {r3, fp}
   12b8c:	20746f6e 	rsbcss	r6, r4, lr, ror #30
   12b90:	6e756f66 	cdpvs	15, 7, cr6, cr5, cr6, {3}
   12b94:	00000064 	andeq	r0, r0, r4, rrx
   12b98:	6e69616d 	powvsez	f6, f1, #5.0
   12b9c:	70616d5f 	rsbvc	r6, r1, pc, asr sp
   12ba0:	5f6c3e2d 	swipl	0x006c3e2d
   12ba4:	6f666e69 	swivs	0x00666e69
   12ba8:	3433285b 	ldrcct	r2, [r3], #-2139
   12bac:	30202b20 	eorcc	r2, r0, r0, lsr #22
   12bb0:	31202b20 	teqcc	r0, r0, lsr #22
   12bb4:	202b2036 	eorcs	r2, fp, r6, lsr r0
   12bb8:	202b2033 	eorcs	r2, fp, r3, lsr r0
   12bbc:	36783028 	ldrccbt	r3, [r8], -r8, lsr #32
   12bc0:	66666666 	strvsbt	r6, [r6], -r6, ror #12
   12bc4:	20666664 	rsbcs	r6, r6, r4, ror #12
   12bc8:	3028202d 	eorcc	r2, r8, sp, lsr #32
   12bcc:	66663678 	undefined
   12bd0:	66646666 	strvsbt	r6, [r4], -r6, ror #12
   12bd4:	29292937 	stmcsdb	r9!, {r0, r1, r2, r4, r5, r8, fp, sp}
   12bd8:	3d21205d 	stccc	0, cr2, [r1, #-372]!
   12bdc:	76282820 	strvct	r2, [r8], -r0, lsr #16
   12be0:	2064696f 	rsbcs	r6, r4, pc, ror #18
   12be4:	2930292a 	ldmcsdb	r0!, {r1, r3, r5, r8, fp, sp}
   12be8:	00000000 	andeq	r0, r0, r0
   12bec:	00006b6f 	andeq	r6, r0, pc, ror #22
   12bf0:	6c696166 	stfvse	f6, [r9], #-408
   12bf4:	00006465 	andeq	r6, r0, r5, ror #8
   12bf8:	6572700a 	ldrvsb	r7, [r2, #-10]!
   12bfc:	6b6e696c 	blvs	1bad1b4 <__bss_end__+0x1b8f8c4>
   12c00:	65686320 	strvsb	r6, [r8, #-800]!
   12c04:	6e696b63 	cdpvs	11, 6, cr6, cr9, cr3, {3}
   12c08:	25203a67 	strcs	r3, [r0, #-2663]!
   12c0c:	00000a73 	andeq	r0, r0, r3, ror sl
   12c10:	6e69616d 	powvsez	f6, f1, #5.0
   12c14:	70616d5f 	rsbvc	r6, r1, pc, asr sp
   12c18:	5f6c3e2d 	swipl	0x006c3e2d
   12c1c:	6f666e69 	swivs	0x00666e69
   12c20:	33285b20 	teqcc	r8, #32768	; 0x8000
   12c24:	202b2034 	eorcs	r2, fp, r4, lsr r0
   12c28:	202b2030 	eorcs	r2, fp, r0, lsr r0
   12c2c:	2b203631 	blcs	8204f8 <__bss_end__+0x802c08>
   12c30:	2b203320 	blcs	81f8b8 <__bss_end__+0x801fc8>
   12c34:	78302820 	ldmvcda	r0!, {r5, fp, sp}
   12c38:	66666636 	undefined
   12c3c:	66666466 	strvsbt	r6, [r6], -r6, ror #8
   12c40:	28202d20 	stmcsda	r0!, {r5, r8, sl, fp, sp}
   12c44:	66367830 	undefined
   12c48:	64666666 	strvsbt	r6, [r6], #-1638
   12c4c:	29293666 	stmcsdb	r9!, {r1, r2, r5, r6, r9, sl, ip, sp}
   12c50:	21205d29 	teqcs	r0, r9, lsr #26
   12c54:	2828203d 	stmcsda	r8!, {r0, r2, r3, r4, r5, sp}
   12c58:	64696f76 	strvsbt	r6, [r9], #-3958
   12c5c:	30292a20 	eorcc	r2, r9, r0, lsr #20
   12c60:	00000029 	andeq	r0, r0, r9, lsr #32
   12c64:	20746e63 	rsbcss	r6, r4, r3, ror #28
   12c68:	38203d3c 	stmccda	r0!, {r2, r3, r4, r5, r8, sl, fp, ip, sp}
   12c6c:	00000000 	andeq	r0, r0, r0
   12c70:	616e7964 	cmnvs	lr, r4, ror #18
   12c74:	2d63696d 	stccsl	9, cr6, [r3, #-436]!
   12c78:	6b6e696c 	blvs	1bad230 <__bss_end__+0x1b8f940>
   12c7c:	0000682e 	andeq	r6, r0, lr, lsr #16
   12c80:	6f666e69 	swivs	0x00666e69
   12c84:	5d30325b 	lfmpl	f3, 4, [r0, #-364]!
   12c88:	5f643e2d 	swipl	0x00643e2d
   12c8c:	642e6e75 	strvst	r6, [lr], #-3701
   12c90:	6c61765f 	stcvsl	6, cr7, [r1], #-380
   12c94:	203d3d20 	eorcss	r3, sp, r0, lsr #26
   12c98:	00003731 	andeq	r3, r0, r1, lsr r7
   12c9c:	6f666e69 	swivs	0x00666e69
   12ca0:	5d39315b 	ldfpls	f3, [r9, #-364]!
   12ca4:	5f643e2d 	swipl	0x00643e2d
   12ca8:	642e6e75 	strvst	r6, [lr], #-3701
   12cac:	6c61765f 	stcvsl	6, cr7, [r1], #-380
   12cb0:	203d3d20 	eorcss	r3, sp, r0, lsr #26
   12cb4:	657a6973 	ldrvsb	r6, [sl, #-2419]!
   12cb8:	2820666f 	stmcsda	r0!, {r0, r1, r2, r3, r5, r6, r9, sl, sp, lr}
   12cbc:	33666c45 	cmncc	r6, #17664	; 0x4500
   12cc0:	65525f32 	ldrvsb	r5, [r2, #-3890]
   12cc4:	0000296c 	andeq	r2, r0, ip, ror #18
   12cc8:	6f666e69 	swivs	0x00666e69
   12ccc:	3433285b 	ldrcct	r2, [r3], #-2139
   12cd0:	30202b20 	eorcc	r2, r0, r0, lsr #22
   12cd4:	28202b20 	stmcsda	r0!, {r5, r8, r9, fp, sp}
   12cd8:	66367830 	undefined
   12cdc:	66666666 	strvsbt	r6, [r6], -r6, ror #12
   12ce0:	2d206666 	stccs	6, cr6, [r0, #-408]!
   12ce4:	78302820 	ldmvcda	r0!, {r5, fp, sp}
   12ce8:	66666636 	undefined
   12cec:	62666666 	rsbvs	r6, r6, #106954752	; 0x6600000
   12cf0:	5d292929 	stcpl	9, cr2, [r9, #-164]!
   12cf4:	203d3d20 	eorcss	r3, sp, r0, lsr #26
   12cf8:	6f762828 	swivs	0x00762828
   12cfc:	2a206469 	bcs	82bea8 <__bss_end__+0x80e5b8>
   12d00:	20293029 	eorcs	r3, r9, r9, lsr #32
   12d04:	69207c7c 	stmvsdb	r0!, {r2, r3, r4, r5, r6, sl, fp, ip, sp, lr}
   12d08:	5b6f666e 	blpl	1bec6c8 <__bss_end__+0x1bcedd8>
   12d0c:	20343328 	eorcss	r3, r4, r8, lsr #6
   12d10:	2030202b 	eorcss	r2, r0, fp, lsr #32
   12d14:	3028202b 	eorcc	r2, r8, fp, lsr #32
   12d18:	66663678 	undefined
   12d1c:	66666666 	strvsbt	r6, [r6], -r6, ror #12
   12d20:	202d2066 	eorcs	r2, sp, r6, rrx
   12d24:	36783028 	ldrccbt	r3, [r8], -r8, lsr #32
   12d28:	66666666 	strvsbt	r6, [r6], -r6, ror #12
   12d2c:	29626666 	stmcsdb	r2!, {r1, r2, r5, r6, r9, sl, sp, lr}^
   12d30:	2d5d2929 	ldccsl	9, cr2, [sp, #-164]
   12d34:	755f643e 	ldrvcb	r6, [pc, #-1086]	; 128fe <.rodata+0x8ae>
   12d38:	5f642e6e 	swipl	0x00642e6e
   12d3c:	206c6176 	rsbcs	r6, ip, r6, ror r1
   12d40:	30203d3d 	eorcc	r3, r0, sp, lsr sp
   12d44:	30303078 	eorccs	r3, r0, r8, ror r0
   12d48:	30303030 	eorccs	r3, r0, r0, lsr r0
   12d4c:	00000031 	andeq	r0, r0, r1, lsr r0
   12d50:	6f666e69 	swivs	0x00666e69
   12d54:	5d30335b 	ldcpl	3, cr3, [r0, #-364]!
   12d58:	203d3d20 	eorcss	r3, sp, r0, lsr #26
   12d5c:	6f762828 	swivs	0x00762828
   12d60:	2a206469 	bcs	82bf0c <__bss_end__+0x80e61c>
   12d64:	20293029 	eorcs	r3, r9, r9, lsr #32
   12d68:	69207c7c 	stmvsdb	r0!, {r2, r3, r4, r5, r6, sl, fp, ip, sp, lr}
   12d6c:	5b6f666e 	blpl	1bec72c <__bss_end__+0x1bcee3c>
   12d70:	2d5d3033 	ldccsl	0, cr3, [sp, #-204]
   12d74:	755f643e 	ldrvcb	r6, [pc, #-1086]	; 1293e <.rodata+0x8ee>
   12d78:	5f642e6e 	swipl	0x00642e6e
   12d7c:	206c6176 	rsbcs	r6, ip, r6, ror r1
   12d80:	30203d3d 	eorcc	r3, r0, sp, lsr sp
   12d84:	30303078 	eorccs	r3, r0, r8, ror r0
   12d88:	30303030 	eorccs	r3, r0, r0, lsr r0
   12d8c:	00000038 	andeq	r0, r0, r8, lsr r0
   12d90:	6f666e69 	swivs	0x00666e69
   12d94:	5d39325b 	lfmpl	f3, 4, [r9, #-364]!
   12d98:	203d3d20 	eorcss	r3, sp, r0, lsr #26
   12d9c:	6f762828 	swivs	0x00762828
   12da0:	2a206469 	bcs	82bf4c <__bss_end__+0x80e65c>
   12da4:	00293029 	eoreq	r3, r9, r9, lsr #32
   12da8:	6f666e69 	swivs	0x00666e69
   12dac:	5d35315b 	ldfpls	f3, [r5, #-364]!
   12db0:	203d3d20 	eorcss	r3, sp, r0, lsr #26
   12db4:	6f762828 	swivs	0x00762828
   12db8:	2a206469 	bcs	82bf64 <__bss_end__+0x80e674>
   12dbc:	00293029 	eoreq	r3, r9, r9, lsr #32
   12dc0:	676e6172 	undefined
   12dc4:	305b7365 	subccs	r7, fp, r5, ror #6
   12dc8:	74732e5d 	ldrvcbt	r2, [r3], #-3677
   12dcc:	20747261 	rsbcss	r7, r4, r1, ror #4
   12dd0:	6172202b 	cmnvs	r2, fp, lsr #32
   12dd4:	7365676e 	cmnvc	r5, #28835840	; 0x1b80000
   12dd8:	2e5d305b 	mrccs	0, 2, r3, cr13, cr11, {2}
   12ddc:	657a6973 	ldrvsb	r6, [sl, #-2419]!
   12de0:	203d3d20 	eorcss	r3, sp, r0, lsr #26
   12de4:	72617473 	rsbvc	r7, r1, #1929379840	; 0x73000000
   12de8:	00000074 	andeq	r0, r0, r4, ror r0
   12dec:	646c7472 	strvsbt	r7, [ip], #-1138
   12df0:	0000632e 	andeq	r6, r0, lr, lsr #6
   12df4:	2d70616d 	ldfcse	f6, [r0, #-436]!
   12df8:	695f6c3e 	ldmvsdb	pc, {r1, r2, r3, r4, r5, sl, fp, sp, lr}^
   12dfc:	5b6f666e 	blpl	1bec7bc <__bss_end__+0x1bceecc>
   12e00:	20343328 	eorcss	r3, r4, r8, lsr #6
   12e04:	2030202b 	eorcss	r2, r0, fp, lsr #32
   12e08:	3028202b 	eorcc	r2, r8, fp, lsr #32
   12e0c:	66663678 	undefined
   12e10:	66666666 	strvsbt	r6, [r6], -r6, ror #12
   12e14:	202d2066 	eorcs	r2, sp, r6, rrx
   12e18:	36783028 	ldrccbt	r3, [r8], -r8, lsr #32
   12e1c:	66666666 	strvsbt	r6, [r6], -r6, ror #12
   12e20:	29306666 	ldmcsdb	r0!, {r1, r2, r5, r6, r9, sl, sp, lr}
   12e24:	205d2929 	subcss	r2, sp, r9, lsr #18
   12e28:	28203d21 	stmcsda	r0!, {r0, r5, r8, sl, fp, ip, sp}
   12e2c:	696f7628 	stmvsdb	pc!, {r3, r5, r9, sl, ip, sp, lr}^
   12e30:	292a2064 	stmcsdb	sl!, {r2, r5, r6, sp}
   12e34:	00002930 	andeq	r2, r0, r0, lsr r9
   12e38:	722d6f64 	eorvc	r6, sp, #400	; 0x190
   12e3c:	682e6c65 	stmvsda	lr!, {r0, r2, r5, r6, sl, fp, sp, lr}
   12e40:	00000000 	andeq	r0, r0, r0
   12e44:	6f72703c 	swivs	0x0072703c
   12e48:	6d617267 	sfmvs	f7, 2, [r1, #-412]!
   12e4c:	6d616e20 	stcvsl	14, cr6, [r1, #-128]!
   12e50:	6e752065 	cdpvs	0, 7, cr2, cr5, cr5, {3}
   12e54:	776f6e6b 	strvcb	r6, [pc, -fp, ror #28]!
   12e58:	00003e6e 	andeq	r3, r0, lr, ror #28
   12e5c:	203a7325 	eorcss	r7, sl, r5, lsr #6
   12e60:	626d7953 	rsbvs	r7, sp, #1359872	; 0x14c000
   12e64:	60206c6f 	eorvs	r6, r0, pc, ror #24
   12e68:	20277325 	eorcs	r7, r7, r5, lsr #6
   12e6c:	20736168 	rsbcss	r6, r3, r8, ror #2
   12e70:	66666964 	strvsbt	r6, [r6], -r4, ror #18
   12e74:	6e657265 	cdpvs	2, 6, cr7, cr5, cr5, {3}
   12e78:	69732074 	ldmvsdb	r3!, {r2, r4, r5, r6, sp}^
   12e7c:	6920657a 	stmvsdb	r0!, {r1, r3, r4, r5, r6, r8, sl, sp, lr}
   12e80:	6873206e 	ldmvsda	r3!, {r1, r2, r3, r5, r6, sp}^
   12e84:	64657261 	strvsbt	r7, [r5], #-609
   12e88:	6a626f20 	bvs	18aeb10 <__bss_end__+0x1891220>
   12e8c:	2c746365 	ldccsl	3, cr6, [r4], #-404
   12e90:	6e6f6320 	cdpvs	3, 6, cr6, cr15, cr0, {1}
   12e94:	65646973 	strvsb	r6, [r4, #-2419]!
   12e98:	65722072 	ldrvsb	r2, [r2, #-114]!
   12e9c:	6e696c2d 	cdpvs	12, 6, cr6, cr9, cr13, {1}
   12ea0:	676e696b 	strvsb	r6, [lr, -fp, ror #18]!
   12ea4:	0000000a 	andeq	r0, r0, sl
   12ea8:	63222021 	teqvs	r2, #33	; 0x21
   12eac:	646c756f 	strvsbt	r7, [ip], #-1391
   12eb0:	746f6e20 	strvcbt	r6, [pc], #3616	; 12eb8 <__clz_tab+0x42c>
   12eb4:	70616d20 	rsbvc	r6, r1, r0, lsr #26
   12eb8:	67617020 	strvsb	r7, [r1, -r0, lsr #32]!
   12ebc:	6f662065 	swivs	0x00662065
   12ec0:	69662072 	stmvsdb	r6!, {r1, r4, r5, r6, sp}^
   12ec4:	22707578 	rsbcss	r7, r0, #503316480	; 0x1e000000
   12ec8:	00000000 	andeq	r0, r0, r0
   12ecc:	732f2e2e 	teqvc	pc, #736	; 0x2e0
   12ed0:	65647379 	strvsb	r7, [r4, #-889]!
   12ed4:	612f7370 	teqvs	pc, r0, ror r3
   12ed8:	642f6d72 	strvst	r6, [pc], #3442	; 12ee0 <__clz_tab+0x454>
   12edc:	616d2d6c 	cmnvs	sp, ip, ror #26
   12ee0:	6e696863 	cdpvs	8, 6, cr6, cr9, cr3, {3}
   12ee4:	00682e65 	rsbeq	r2, r8, r5, ror #28
   12ee8:	52415f52 	subpl	r5, r1, #328	; 0x148
   12eec:	43505f4d 	cmpmi	r0, #308	; 0x134
   12ef0:	72203432 	eorvc	r3, r0, #838860800	; 0x32000000
   12ef4:	636f6c65 	cmnvs	pc, #25856	; 0x6500
   12ef8:	6f697461 	swivs	0x00697461
   12efc:	756f206e 	strvcb	r2, [pc, #-110]!	; 12e96 <__clz_tab+0x40a>
   12f00:	666f2074 	undefined
   12f04:	6e617220 	cdpvs	2, 6, cr7, cr1, cr0, {1}
   12f08:	00006567 	andeq	r6, r0, r7, ror #10
   12f0c:	4f525245 	swimi	0x00525245
   12f10:	6c203a52 	stcvs	10, cr3, [r0], #-328
   12f14:	6f732e64 	swivs	0x00732e64
   12f18:	626f203a 	rsbvs	r2, pc, #58	; 0x3a
   12f1c:	7463656a 	strvcbt	r6, [r3], #-1386
   12f20:	73252720 	teqvc	r5, #8388608	; 0x800000
   12f24:	72662027 	rsbvc	r2, r6, #39	; 0x27
   12f28:	25206d6f 	strcs	r6, [r0, #-3439]!
   12f2c:	61632073 	cmnvs	r3, r3, ror r0
   12f30:	746f6e6e 	strvcbt	r6, [pc], #3694	; 12f38 <__clz_tab+0x4ac>
   12f34:	20656220 	rsbcs	r6, r5, r0, lsr #4
   12f38:	6c657270 	sfmvs	f7, 2, [r5], #-448
   12f3c:	6564616f 	strvsb	r6, [r4, #-367]!
   12f40:	69203a64 	stmvsdb	r0!, {r2, r5, r6, r9, fp, ip, sp}
   12f44:	726f6e67 	rsbvc	r6, pc, #1648	; 0x670
   12f48:	0a2e6465 	beq	bac0e4 <__bss_end__+0xb8e7f4>
   12f4c:	00000000 	andeq	r0, r0, r0
   12f50:	696c2d2d 	stmvsdb	ip!, {r0, r2, r3, r5, r8, sl, fp, sp}^
   12f54:	00007473 	andeq	r7, r0, r3, ror r4
   12f58:	65762d2d 	ldrvsb	r2, [r6, #-3373]!
   12f5c:	79666972 	stmvcdb	r6!, {r1, r4, r5, r6, r8, fp, sp, lr}^
   12f60:	00000000 	andeq	r0, r0, r0
   12f64:	696c2d2d 	stmvsdb	ip!, {r0, r2, r3, r5, r8, sl, fp, sp}^
   12f68:	72617262 	rsbvc	r7, r1, #536870918	; 0x20000006
   12f6c:	61702d79 	cmnvs	r0, r9, ror sp
   12f70:	00006874 	andeq	r6, r0, r4, ror r8
   12f74:	6e692d2d 	cdpvs	13, 6, cr2, cr9, cr13, {1}
   12f78:	69626968 	stmvsdb	r2!, {r3, r5, r6, r8, fp, sp, lr}^
   12f7c:	70722d74 	rsbvcs	r2, r2, r4, ror sp
   12f80:	00687461 	rsbeq	r7, r8, r1, ror #8
   12f84:	67617355 	undefined
   12f88:	6c203a65 	stcvs	10, cr3, [r0], #-404
   12f8c:	6f732e64 	swivs	0x00732e64
   12f90:	504f5b20 	subpl	r5, pc, r0, lsr #22
   12f94:	4e4f4954 	mcrmi	9, 2, r4, cr15, cr4, {2}
   12f98:	2e2e2e5d 	mcrcs	14, 1, r2, cr14, cr13, {2}
   12f9c:	45584520 	ldrmib	r4, [r8, #-1312]
   12fa0:	41545543 	cmpmi	r4, r3, asr #10
   12fa4:	2d454c42 	stccsl	12, cr4, [r5, #-264]
   12fa8:	454c4946 	strmib	r4, [ip, #-2374]
   12fac:	52415b20 	subpl	r5, r1, #32768	; 0x8000
   12fb0:	462d5347 	strmit	r5, [sp], -r7, asr #6
   12fb4:	502d524f 	eorpl	r5, sp, pc, asr #4
   12fb8:	52474f52 	subpl	r4, r7, #328	; 0x148
   12fbc:	2e2e4d41 	cdpcs	13, 2, cr4, cr14, cr1, {2}
   12fc0:	590a5d2e 	stmpldb	sl, {r1, r2, r3, r5, r8, sl, fp, ip, lr}
   12fc4:	6820756f 	stmvsda	r0!, {r0, r1, r2, r3, r5, r6, r8, sl, ip, sp, lr}
   12fc8:	20657661 	rsbcs	r7, r5, r1, ror #12
   12fcc:	6f766e69 	swivs	0x00766e69
   12fd0:	2064656b 	rsbcs	r6, r4, fp, ror #10
   12fd4:	2e646c60 	cdpcs	12, 6, cr6, cr4, cr0, {3}
   12fd8:	2c276f73 	stccs	15, cr6, [r7], #-460
   12fdc:	65687420 	strvsb	r7, [r8, #-1056]!
   12fe0:	6c656820 	stcvsl	8, cr6, [r5], #-128
   12fe4:	20726570 	rsbcss	r6, r2, r0, ror r5
   12fe8:	676f7270 	undefined
   12fec:	206d6172 	rsbcs	r6, sp, r2, ror r1
   12ff0:	20726f66 	rsbcss	r6, r2, r6, ror #30
   12ff4:	72616873 	rsbvc	r6, r1, #7536640	; 0x730000
   12ff8:	6c206465 	cfstrsvs	mvf6, [r0], #-404
   12ffc:	61726269 	cmnvs	r2, r9, ror #4
   13000:	65207972 	strvs	r7, [r0, #-2418]!
   13004:	75636578 	strvcb	r6, [r3, #-1400]!
   13008:	6c626174 	stfvse	f6, [r2], #-464
   1300c:	0a2e7365 	beq	bafda8 <__bss_end__+0xb924b8>
   13010:	73696854 	cmnvc	r9, #5505024	; 0x540000
   13014:	6f727020 	swivs	0x00727020
   13018:	6d617267 	sfmvs	f7, 2, [r1, #-412]!
   1301c:	75737520 	ldrvcb	r7, [r3, #-1312]!
   13020:	796c6c61 	stmvcdb	ip!, {r0, r5, r6, sl, fp, sp, lr}^
   13024:	76696c20 	strvcbt	r6, [r9], -r0, lsr #24
   13028:	69207365 	stmvsdb	r0!, {r0, r2, r5, r6, r8, r9, ip, sp, lr}
   1302c:	6874206e 	ldmvsda	r4!, {r1, r2, r3, r5, r6, sp}^
   13030:	69662065 	stmvsdb	r6!, {r0, r2, r5, r6, sp}^
   13034:	6020656c 	eorvs	r6, r0, ip, ror #10
   13038:	62696c2f 	rsbvs	r6, r9, #12032	; 0x2f00
   1303c:	2e646c2f 	cdpcs	12, 6, cr6, cr4, cr15, {1}
   13040:	2c276f73 	stccs	15, cr6, [r7], #-460
   13044:	646e6120 	strvsbt	r6, [lr], #-288
   13048:	65707320 	ldrvsb	r7, [r0, #-800]!
   1304c:	6c616963 	stcvsl	9, cr6, [r1], #-396
   13050:	72696420 	rsbvc	r6, r9, #536870912	; 0x20000000
   13054:	69746365 	ldmvsdb	r4!, {r0, r2, r5, r6, r8, r9, sp, lr}^
   13058:	0a736576 	beq	1cec638 <__bss_end__+0x1cced48>
   1305c:	65206e69 	strvs	r6, [r0, #-3689]!
   13060:	75636578 	strvcb	r6, [r3, #-1400]!
   13064:	6c626174 	stfvse	f6, [r2], #-464
   13068:	69662065 	stmvsdb	r6!, {r0, r2, r5, r6, sp}^
   1306c:	2073656c 	rsbcss	r6, r3, ip, ror #10
   13070:	6e697375 	mcrvs	3, 3, r7, cr9, cr5, {3}
   13074:	4c452067 	mcrrmi	0, 6, r2, r5, cr7
   13078:	68732046 	ldmvsda	r3!, {r1, r2, r6, sp}^
   1307c:	64657261 	strvsbt	r7, [r5], #-609
   13080:	62696c20 	rsbvs	r6, r9, #8192	; 0x2000
   13084:	69726172 	ldmvsdb	r2!, {r1, r4, r5, r6, r8, sp, lr}^
   13088:	74207365 	strvct	r7, [r0], #-869
   1308c:	206c6c65 	rsbcs	r6, ip, r5, ror #24
   13090:	20656874 	rsbcs	r6, r5, r4, ror r8
   13094:	74737973 	ldrvcbt	r7, [r3], #-2419
   13098:	73276d65 	teqvc	r7, #6464	; 0x1940
   1309c:	6f727020 	swivs	0x00727020
   130a0:	6d617267 	sfmvs	f7, 2, [r1, #-412]!
   130a4:	616f6c0a 	cmnvs	pc, sl, lsl #24
   130a8:	20726564 	rsbcss	r6, r2, r4, ror #10
   130ac:	6c206f74 	stcvs	15, cr6, [r0], #-464
   130b0:	2064616f 	rsbcs	r6, r4, pc, ror #2
   130b4:	20656874 	rsbcs	r6, r5, r4, ror r8
   130b8:	706c6568 	rsbvc	r6, ip, r8, ror #10
   130bc:	70207265 	eorvc	r7, r0, r5, ror #4
   130c0:	72676f72 	rsbvc	r6, r7, #456	; 0x1c8
   130c4:	66206d61 	strvst	r6, [r0], -r1, ror #26
   130c8:	206d6f72 	rsbcs	r6, sp, r2, ror pc
   130cc:	73696874 	cmnvc	r9, #7602176	; 0x740000
   130d0:	6c696620 	stcvsl	6, cr6, [r9], #-128
   130d4:	20202e65 	eorcs	r2, r0, r5, ror #28
   130d8:	73696854 	cmnvc	r9, #5505024	; 0x540000
   130dc:	6c656820 	stcvsl	8, cr6, [r5], #-128
   130e0:	20726570 	rsbcss	r6, r2, r0, ror r5
   130e4:	676f7270 	undefined
   130e8:	206d6172 	rsbcs	r6, sp, r2, ror r1
   130ec:	64616f6c 	strvsbt	r6, [r1], #-3948
   130f0:	68740a73 	ldmvsda	r4!, {r0, r1, r4, r5, r6, r9, fp}^
   130f4:	68732065 	ldmvsda	r3!, {r0, r2, r5, r6, sp}^
   130f8:	64657261 	strvsbt	r7, [r5], #-609
   130fc:	62696c20 	rsbvs	r6, r9, #8192	; 0x2000
   13100:	69726172 	ldmvsdb	r2!, {r1, r4, r5, r6, r8, sp, lr}^
   13104:	6e207365 	cdpvs	3, 2, cr7, cr0, cr5, {3}
   13108:	65646565 	strvsb	r6, [r4, #-1381]!
   1310c:	79622064 	stmvcdb	r2!, {r2, r5, r6, sp}^
   13110:	65687420 	strvsb	r7, [r8, #-1056]!
   13114:	6f727020 	swivs	0x00727020
   13118:	6d617267 	sfmvs	f7, 2, [r1, #-412]!
   1311c:	65786520 	ldrvsb	r6, [r8, #-1312]!
   13120:	61747563 	cmnvs	r4, r3, ror #10
   13124:	2c656c62 	stccsl	12, cr6, [r5], #-392
   13128:	65727020 	ldrvsb	r7, [r2, #-32]!
   1312c:	65726170 	ldrvsb	r6, [r2, #-368]!
   13130:	68742073 	ldmvsda	r4!, {r0, r1, r4, r5, r6, sp}^
   13134:	72702065 	rsbvcs	r2, r0, #101	; 0x65
   13138:	6172676f 	cmnvs	r2, pc, ror #14
   1313c:	6f740a6d 	swivs	0x00740a6d
   13140:	6e757220 	cdpvs	2, 7, cr7, cr5, cr0, {1}
   13144:	6e61202c 	cdpvs	0, 6, cr2, cr1, cr12, {1}
   13148:	75722064 	ldrvcb	r2, [r2, #-100]!
   1314c:	6920736e 	stmvsdb	r0!, {r1, r2, r3, r5, r6, r8, r9, ip, sp, lr}
   13150:	20202e74 	eorcs	r2, r0, r4, ror lr
   13154:	20756f59 	rsbcss	r6, r5, r9, asr pc
   13158:	2079616d 	rsbcss	r6, r9, sp, ror #2
   1315c:	6f766e69 	swivs	0x00766e69
   13160:	7420656b 	strvct	r6, [r0], #-1387
   13164:	20736968 	rsbcss	r6, r3, r8, ror #18
   13168:	706c6568 	rsbvc	r6, ip, r8, ror #10
   1316c:	70207265 	eorvc	r7, r0, r5, ror #4
   13170:	72676f72 	rsbvc	r6, r7, #456	; 0x1c8
   13174:	64206d61 	strvst	r6, [r0], #-3425
   13178:	63657269 	cmnvs	r5, #-1879048186	; 0x90000006
   1317c:	20796c74 	rsbcss	r6, r9, r4, ror ip
   13180:	6d6f7266 	sfmvs	f7, 2, [pc, #-408]!
   13184:	65687420 	strvsb	r7, [r8, #-1056]!
   13188:	6d6f630a 	stcvsl	3, cr6, [pc, #-40]!
   1318c:	646e616d 	strvsbt	r6, [lr], #-365
   13190:	6e696c20 	cdpvs	12, 6, cr6, cr9, cr0, {1}
   13194:	6f742065 	swivs	0x00742065
   13198:	616f6c20 	cmnvs	pc, r0, lsr #24
   1319c:	6e612064 	cdpvs	0, 6, cr2, cr1, cr4, {3}
   131a0:	75722064 	ldrvcb	r2, [r2, #-100]!
   131a4:	6e61206e 	cdpvs	0, 6, cr2, cr1, cr14, {3}
   131a8:	464c4520 	strmib	r4, [ip], -r0, lsr #10
   131ac:	65786520 	ldrvsb	r6, [r8, #-1312]!
   131b0:	61747563 	cmnvs	r4, r3, ror #10
   131b4:	20656c62 	rsbcs	r6, r5, r2, ror #24
   131b8:	656c6966 	strvsb	r6, [ip, #-2406]!
   131bc:	6874203b 	ldmvsda	r4!, {r0, r1, r3, r4, r5, sp}^
   131c0:	69207369 	stmvsdb	r0!, {r0, r3, r5, r6, r8, r9, ip, sp, lr}
   131c4:	696c2073 	stmvsdb	ip!, {r0, r1, r4, r5, r6, sp}^
   131c8:	6520656b 	strvs	r6, [r0, #-1387]!
   131cc:	75636578 	strvcb	r6, [r3, #-1400]!
   131d0:	676e6974 	undefined
   131d4:	6168740a 	cmnvs	r8, sl, lsl #8
   131d8:	69662074 	stmvsdb	r6!, {r2, r4, r5, r6, sp}^
   131dc:	6920656c 	stmvsdb	r0!, {r2, r3, r5, r6, r8, sl, sp, lr}
   131e0:	6c657374 	stcvsl	3, cr7, [r5], #-464
   131e4:	62202c66 	eorvs	r2, r0, #26112	; 0x6600
   131e8:	61207475 	teqvs	r0, r5, ror r4
   131ec:	7961776c 	stmvcdb	r1!, {r2, r3, r5, r6, r8, r9, sl, ip, sp, lr}^
   131f0:	73752073 	cmnvc	r5, #115	; 0x73
   131f4:	74207365 	strvct	r7, [r0], #-869
   131f8:	20736968 	rsbcss	r6, r3, r8, ror #18
   131fc:	706c6568 	rsbvc	r6, ip, r8, ror #10
   13200:	70207265 	eorvc	r7, r0, r5, ror #4
   13204:	72676f72 	rsbvc	r6, r7, #456	; 0x1c8
   13208:	66206d61 	strvst	r6, [r0], -r1, ror #26
   1320c:	206d6f72 	rsbcs	r6, sp, r2, ror pc
   13210:	20656874 	rsbcs	r6, r5, r4, ror r8
   13214:	656c6966 	strvsb	r6, [ip, #-2406]!
   13218:	756f7920 	strvcb	r7, [pc, #-2336]!	; 12900 <.rodata+0x8b0>
   1321c:	6570730a 	ldrvsb	r7, [r0, #-778]!
   13220:	69666963 	stmvsdb	r6!, {r0, r1, r5, r6, r8, fp, sp, lr}^
   13224:	202c6465 	eorcs	r6, ip, r5, ror #8
   13228:	74736e69 	ldrvcbt	r6, [r3], #-3689
   1322c:	20646165 	rsbcs	r6, r4, r5, ror #2
   13230:	7420666f 	strvct	r6, [r0], #-1647
   13234:	68206568 	stmvsda	r0!, {r3, r5, r6, r8, sl, sp, lr}
   13238:	65706c65 	ldrvsb	r6, [r0, #-3173]!
   1323c:	72702072 	rsbvcs	r2, r0, #114	; 0x72
   13240:	6172676f 	cmnvs	r2, pc, ror #14
   13244:	6966206d 	stmvsdb	r6!, {r0, r2, r3, r5, r6, sp}^
   13248:	7320656c 	teqvc	r0, #452984832	; 0x1b000000
   1324c:	69636570 	stmvsdb	r3!, {r4, r5, r6, r8, sl, sp, lr}^
   13250:	64656966 	strvsbt	r6, [r5], #-2406
   13254:	206e6920 	rsbcs	r6, lr, r0, lsr #18
   13258:	20656874 	rsbcs	r6, r5, r4, ror r8
   1325c:	63657865 	cmnvs	r5, #6619136	; 0x650000
   13260:	62617475 	rsbvs	r7, r1, #1962934272	; 0x75000000
   13264:	660a656c 	strvs	r6, [sl], -ip, ror #10
   13268:	20656c69 	rsbcs	r6, r5, r9, ror #24
   1326c:	20756f79 	rsbcss	r6, r5, r9, ror pc
   13270:	2e6e7572 	mcrcs	5, 3, r7, cr14, cr2, {3}
   13274:	68542020 	ldmvsda	r4, {r5, sp}^
   13278:	69207369 	stmvsdb	r0!, {r0, r3, r5, r6, r8, r9, ip, sp, lr}
   1327c:	6f6d2073 	swivs	0x006d2073
   13280:	796c7473 	stmvcdb	ip!, {r0, r1, r4, r5, r6, sl, ip, sp, lr}^
   13284:	20666f20 	rsbcs	r6, r6, r0, lsr #30
   13288:	20657375 	rsbcs	r7, r5, r5, ror r3
   1328c:	20726f66 	rsbcss	r6, r2, r6, ror #30
   13290:	6e69616d 	powvsez	f6, f1, #5.0
   13294:	6e696174 	mcrvs	1, 3, r6, cr9, cr4, {3}
   13298:	20737265 	rsbcss	r7, r3, r5, ror #4
   1329c:	74206f74 	strvct	r6, [r0], #-3956
   132a0:	20747365 	rsbcss	r7, r4, r5, ror #6
   132a4:	2077656e 	rsbcss	r6, r7, lr, ror #10
   132a8:	73726576 	cmnvc	r2, #494927872	; 0x1d800000
   132ac:	736e6f69 	cmnvc	lr, #420	; 0x1a4
   132b0:	20666f0a 	rsbcs	r6, r6, sl, lsl #30
   132b4:	73696874 	cmnvc	r9, #7602176	; 0x740000
   132b8:	6c656820 	stcvsl	8, cr6, [r5], #-128
   132bc:	20726570 	rsbcss	r6, r2, r0, ror r5
   132c0:	676f7270 	undefined
   132c4:	3b6d6172 	blcc	1b6b894 <__bss_end__+0x1b4dfa4>
   132c8:	61686320 	cmnvs	r8, r0, lsr #6
   132cc:	7365636e 	cmnvc	r5, #-1207959551	; 0xb8000001
   132d0:	65726120 	ldrvsb	r6, [r2, #-288]!
   132d4:	756f7920 	strvcb	r7, [pc, #-2336]!	; 129bc <.rodata+0x96c>
   132d8:	64696420 	strvsbt	r6, [r9], #-1056
   132dc:	746f6e20 	strvcbt	r6, [pc], #3616	; 132e4 <__clz_tab+0x858>
   132e0:	746e6920 	strvcbt	r6, [lr], #-2336
   132e4:	20646e65 	rsbcs	r6, r4, r5, ror #28
   132e8:	72206f74 	eorvc	r6, r0, #464	; 0x1d0
   132ec:	74206e75 	strvct	r6, [r0], #-3701
   132f0:	20736968 	rsbcss	r6, r3, r8, ror #18
   132f4:	676f7270 	undefined
   132f8:	2e6d6172 	mcrcs	1, 3, r6, cr13, cr2, {3}
   132fc:	20200a0a 	eorcs	r0, r0, sl, lsl #20
   13300:	696c2d2d 	stmvsdb	ip!, {r0, r2, r3, r5, r8, sl, fp, sp}^
   13304:	20207473 	eorcs	r7, r0, r3, ror r4
   13308:	20202020 	eorcs	r2, r0, r0, lsr #32
   1330c:	20202020 	eorcs	r2, r0, r0, lsr #32
   13310:	20202020 	eorcs	r2, r0, r0, lsr #32
   13314:	696c2020 	stmvsdb	ip!, {r5, sp}^
   13318:	61207473 	teqvs	r0, r3, ror r4
   1331c:	64206c6c 	strvst	r6, [r0], #-3180
   13320:	6e657065 	cdpvs	0, 6, cr7, cr5, cr5, {3}
   13324:	636e6564 	cmnvs	lr, #419430400	; 0x19000000
   13328:	20736569 	rsbcss	r6, r3, r9, ror #10
   1332c:	20646e61 	rsbcs	r6, r4, r1, ror #28
   13330:	20776f68 	rsbcss	r6, r7, r8, ror #30
   13334:	79656874 	stmvcdb	r5!, {r2, r4, r5, r6, fp, sp, lr}^
   13338:	65726120 	ldrvsb	r6, [r2, #-288]!
   1333c:	73657220 	cmnvc	r5, #2	; 0x2
   13340:	65766c6f 	ldrvsb	r6, [r6, #-3183]!
   13344:	20200a64 	eorcs	r0, r0, r4, ror #20
   13348:	65762d2d 	ldrvsb	r2, [r6, #-3373]!
   1334c:	79666972 	stmvcdb	r6!, {r1, r4, r5, r6, r8, fp, sp, lr}^
   13350:	20202020 	eorcs	r2, r0, r0, lsr #32
   13354:	20202020 	eorcs	r2, r0, r0, lsr #32
   13358:	20202020 	eorcs	r2, r0, r0, lsr #32
   1335c:	65762020 	ldrvsb	r2, [r6, #-32]!
   13360:	79666972 	stmvcdb	r6!, {r1, r4, r5, r6, r8, fp, sp, lr}^
   13364:	61687420 	cmnvs	r8, r0, lsr #8
   13368:	69672074 	stmvsdb	r7!, {r2, r4, r5, r6, sp}^
   1336c:	206e6576 	rsbcs	r6, lr, r6, ror r5
   13370:	656a626f 	strvsb	r6, [sl, #-623]!
   13374:	72207463 	eorvc	r7, r0, #1660944384	; 0x63000000
   13378:	6c6c6165 	stfvse	f6, [ip], #-404
   1337c:	73692079 	cmnvc	r9, #121	; 0x79
   13380:	64206120 	strvst	r6, [r0], #-288
   13384:	6d616e79 	stcvsl	14, cr6, [r1, #-484]!
   13388:	6c616369 	stcvsl	3, cr6, [r1], #-420
   1338c:	6c20796c 	stcvs	9, cr7, [r0], #-432
   13390:	656b6e69 	strvsb	r6, [fp, #-3689]!
   13394:	20200a64 	eorcs	r0, r0, r4, ror #20
   13398:	20202020 	eorcs	r2, r0, r0, lsr #32
   1339c:	20202020 	eorcs	r2, r0, r0, lsr #32
   133a0:	20202020 	eorcs	r2, r0, r0, lsr #32
   133a4:	20202020 	eorcs	r2, r0, r0, lsr #32
   133a8:	20202020 	eorcs	r2, r0, r0, lsr #32
   133ac:	626f2020 	rsbvs	r2, pc, #32	; 0x20
   133b0:	7463656a 	strvcbt	r6, [r3], #-1386
   133b4:	20657720 	rsbcs	r7, r5, r0, lsr #14
   133b8:	206e6163 	rsbcs	r6, lr, r3, ror #2
   133bc:	646e6168 	strvsbt	r6, [lr], #-360
   133c0:	200a656c 	andcs	r6, sl, ip, ror #10
   133c4:	6c2d2d20 	stcvs	13, cr2, [sp], #-128
   133c8:	61726269 	cmnvs	r2, r9, ror #4
   133cc:	702d7972 	eorvc	r7, sp, r2, ror r9
   133d0:	20687461 	rsbcs	r7, r8, r1, ror #8
   133d4:	48544150 	ldmmida	r4, {r4, r6, r8, lr}^
   133d8:	75202020 	strvc	r2, [r0, #-32]!
   133dc:	67206573 	undefined
   133e0:	6e657669 	cdpvs	6, 6, cr7, cr5, cr9, {3}
   133e4:	54415020 	strplb	r5, [r1], #-32
   133e8:	6e692048 	cdpvs	0, 6, cr2, cr9, cr8, {2}
   133ec:	61657473 	cmnvs	r5, r3, ror r4
   133f0:	666f2064 	strvsbt	r2, [pc], -r4, rrx
   133f4:	6e6f6320 	cdpvs	3, 6, cr6, cr15, cr0, {1}
   133f8:	746e6574 	strvcbt	r6, [lr], #-1396
   133fc:	20666f20 	rsbcs	r6, r6, r0, lsr #30
   13400:	20656874 	rsbcs	r6, r5, r4, ror r8
   13404:	69766e65 	ldmvsdb	r6!, {r0, r2, r5, r6, r9, sl, fp, sp, lr}^
   13408:	6d6e6f72 	stcvsl	15, cr6, [lr, #-456]!
   1340c:	0a746e65 	beq	1d2eda8 <__bss_end__+0x1d114b8>
   13410:	20202020 	eorcs	r2, r0, r0, lsr #32
   13414:	20202020 	eorcs	r2, r0, r0, lsr #32
   13418:	20202020 	eorcs	r2, r0, r0, lsr #32
   1341c:	20202020 	eorcs	r2, r0, r0, lsr #32
   13420:	20202020 	eorcs	r2, r0, r0, lsr #32
   13424:	20202020 	eorcs	r2, r0, r0, lsr #32
   13428:	69726176 	ldmvsdb	r2!, {r1, r2, r4, r5, r6, r8, sp, lr}^
   1342c:	656c6261 	strvsb	r6, [ip, #-609]!
   13430:	5f444c20 	swipl	0x00444c20
   13434:	5242494c 	subpl	r4, r2, #1245184	; 0x130000
   13438:	5f595241 	swipl	0x00595241
   1343c:	48544150 	ldmmida	r4, {r4, r6, r8, lr}^
   13440:	2d20200a 	stccs	0, cr2, [r0, #-40]!
   13444:	686e692d 	stmvsda	lr!, {r0, r2, r3, r5, r8, fp, sp, lr}^
   13448:	74696269 	strvcbt	r6, [r9], #-617
   1344c:	6170722d 	cmnvs	r0, sp, lsr #4
   13450:	4c206874 	stcmi	8, cr6, [r0], #-464
   13454:	20545349 	subcss	r5, r4, r9, asr #6
   13458:	6e676920 	cdpvs	9, 6, cr6, cr7, cr0, {1}
   1345c:	2065726f 	rsbcs	r7, r5, pc, ror #4
   13460:	504e5552 	subpl	r5, lr, r2, asr r5
   13464:	20485441 	subcs	r5, r8, r1, asr #8
   13468:	20646e61 	rsbcs	r6, r4, r1, ror #28
   1346c:	54415052 	strplb	r5, [r1], #-82
   13470:	6e692048 	cdpvs	0, 6, cr2, cr9, cr8, {2}
   13474:	6d726f66 	ldcvsl	15, cr6, [r2, #-408]!
   13478:	6f697461 	swivs	0x00697461
   1347c:	6e69206e 	cdpvs	0, 6, cr2, cr9, cr14, {3}
   13480:	6a626f20 	bvs	18af108 <__bss_end__+0x1891818>
   13484:	20746365 	rsbcss	r6, r4, r5, ror #6
   13488:	656d616e 	strvsb	r6, [sp, #-366]!
   1348c:	20200a73 	eorcs	r0, r0, r3, ror sl
   13490:	20202020 	eorcs	r2, r0, r0, lsr #32
   13494:	20202020 	eorcs	r2, r0, r0, lsr #32
   13498:	20202020 	eorcs	r2, r0, r0, lsr #32
   1349c:	20202020 	eorcs	r2, r0, r0, lsr #32
   134a0:	20202020 	eorcs	r2, r0, r0, lsr #32
   134a4:	6e692020 	cdpvs	0, 6, cr2, cr9, cr0, {1}
   134a8:	53494c20 	cmppl	r9, #8192	; 0x2000
   134ac:	00000a54 	andeq	r0, r0, r4, asr sl
   134b0:	6e6e6163 	powvsez	f6, f6, f3
   134b4:	6120746f 	teqvs	r0, pc, ror #8
   134b8:	636f6c6c 	cmnvs	pc, #27648	; 0x6c00
   134bc:	20657461 	rsbcs	r7, r5, r1, ror #8
   134c0:	6f6d656d 	swivs	0x006d656d
   134c4:	66207972 	undefined
   134c8:	6c20726f 	sfmvs	f7, 4, [r0], #-444
   134cc:	206b6e69 	rsbcs	r6, fp, r9, ror #28
   134d0:	0a70616d 	beq	1c2ba8c <__bss_end__+0x1c0e19c>
   134d4:	00000000 	andeq	r0, r0, r0
   134d8:	6c74725f 	lfmvs	f7, 2, [r4], #-380
   134dc:	6f6c5f64 	swivs	0x006c5f64
   134e0:	2e6c6163 	powcsez	f6, f4, f3
   134e4:	5f6c645f 	swipl	0x006c645f
   134e8:	646c7472 	strvsbt	r7, [ip], #-1138
   134ec:	70616d5f 	rsbvc	r6, r1, pc, asr sp
   134f0:	6c5f6c2e 	mrrcvs	12, 2, r6, pc, cr14
   134f4:	616e6269 	cmnvs	lr, r9, ror #4
   134f8:	0000656d 	andeq	r6, r0, sp, ror #10
   134fc:	6f666e69 	swivs	0x00666e69
   13500:	5d30325b 	lfmpl	f3, 4, [r0, #-364]!
   13504:	5f643e2d 	swipl	0x00643e2d
   13508:	642e6e75 	strvst	r6, [lr], #-3701
   1350c:	6c61765f 	stcvsl	6, cr7, [r1], #-380
   13510:	203d3d20 	eorcss	r3, sp, r0, lsr #26
   13514:	7c203731 	stcvc	7, cr3, [r0], #-196
   13518:	6e69207c 	mcrvs	0, 3, r2, cr9, cr12, {3}
   1351c:	325b6f66 	subccs	r6, fp, #408	; 0x198
   13520:	3e2d5d30 	mcrcc	13, 1, r5, cr13, cr0, {1}
   13524:	6e755f64 	cdpvs	15, 7, cr5, cr5, cr4, {3}
   13528:	765f642e 	ldrvcb	r6, [pc], -lr, lsr #8
   1352c:	3d206c61 	stccc	12, cr6, [r0, #-388]!
   13530:	0037203d 	eoreqs	r2, r7, sp, lsr r0
   13534:	6f666e69 	swivs	0x00666e69
   13538:	2d5d395b 	ldccsl	9, cr3, [sp, #-364]
   1353c:	755f643e 	ldrvcb	r6, [pc, #-1086]	; 13106 <__clz_tab+0x67a>
   13540:	5f642e6e 	swipl	0x00642e6e
   13544:	206c6176 	rsbcs	r6, ip, r6, ror r1
   13548:	73203d3d 	teqvc	r0, #3904	; 0xf40
   1354c:	6f657a69 	swivs	0x00657a69
   13550:	45282066 	strmi	r2, [r8, #-102]!
   13554:	3233666c 	eorccs	r6, r3, #113246208	; 0x6c00000
   13558:	6c65525f 	sfmvs	f5, 2, [r5], #-380
   1355c:	00002961 	andeq	r2, r0, r1, ror #18
   13560:	6c74725f 	lfmvs	f7, 2, [r4], #-380
   13564:	6f6c5f64 	swivs	0x006c5f64
   13568:	2e6c6163 	powcsez	f6, f4, f3
   1356c:	5f6c645f 	swipl	0x006c645f
   13570:	646c7472 	strvsbt	r7, [ip], #-1138
   13574:	70616d5f 	rsbvc	r6, r1, pc, asr sp
   13578:	6e5f6c2e 	cdpvs	12, 5, cr6, cr15, cr14, {1}
   1357c:	20747865 	rsbcss	r7, r4, r5, ror #16
   13580:	28203d3d 	stmcsda	r0!, {r0, r2, r3, r4, r5, r8, sl, fp, ip, sp}
   13584:	696f7628 	stmvsdb	pc!, {r3, r5, r9, sl, ip, sp, lr}^
   13588:	292a2064 	stmcsdb	sl!, {r2, r5, r6, sp}
   1358c:	00002930 	andeq	r2, r0, r0, lsr r9
   13590:	505f444c 	subpls	r4, pc, ip, asr #8
   13594:	4f4c4552 	swimi	0x004c4552
   13598:	00004441 	andeq	r4, r0, r1, asr #8
   1359c:	00003a20 	andeq	r3, r0, r0, lsr #20
   135a0:	0a09203a 	beq	25b690 <__bss_end__+0x23dda0>
   135a4:	00000000 	andeq	r0, r0, r0
   135a8:	3d3d2069 	ldccc	0, cr2, [sp, #-420]!
   135ac:	72706e20 	rsbvcs	r6, r0, #512	; 0x200
   135b0:	616f6c65 	cmnvs	pc, r5, ror #24
   135b4:	00007364 	andeq	r7, r0, r4, ror #6
   135b8:	6c74725f 	lfmvs	f7, 2, [r4], #-380
   135bc:	6f6c5f64 	swivs	0x006c5f64
   135c0:	2e6c6163 	powcsez	f6, f4, f3
   135c4:	5f6c645f 	swipl	0x006c645f
   135c8:	646c7472 	strvsbt	r7, [ip], #-1138
   135cc:	70616d5f 	rsbvc	r6, r1, pc, asr sp
   135d0:	705f6c2e 	subvcs	r6, pc, lr, lsr #24
   135d4:	2d766572 	cfldr64cs	mvdx6, [r6, #-456]!
   135d8:	6e5f6c3e 	mrcvs	12, 2, r6, cr15, cr14, {1}
   135dc:	20747865 	rsbcss	r7, r4, r5, ror #16
   135e0:	5f203d3d 	swipl	0x00203d3d
   135e4:	646c7472 	strvsbt	r7, [ip], #-1138
   135e8:	636f6c5f 	cmnvs	pc, #24320	; 0x5f00
   135ec:	5f2e6c61 	swipl	0x002e6c61
   135f0:	725f6c64 	subvcs	r6, pc, #25600	; 0x6400
   135f4:	5f646c74 	swipl	0x00646c74
   135f8:	2e70616d 	rpwcssz	f6, f0, #5.0
   135fc:	656e5f6c 	strvsb	r5, [lr, #-3948]!
   13600:	00007478 	andeq	r7, r0, r8, ror r4
   13604:	6c74725f 	lfmvs	f7, 2, [r4], #-380
   13608:	6f6c5f64 	swivs	0x006c5f64
   1360c:	2e6c6163 	powcsez	f6, f4, f3
   13610:	5f6c645f 	swipl	0x006c645f
   13614:	646c7472 	strvsbt	r7, [ip], #-1138
   13618:	70616d5f 	rsbvc	r6, r1, pc, asr sp
   1361c:	6e5f6c2e 	cdpvs	12, 5, cr6, cr15, cr14, {1}
   13620:	2d747865 	ldccsl	8, cr7, [r4, #-404]!
   13624:	705f6c3e 	subvcs	r6, pc, lr, lsr ip
   13628:	20766572 	rsbcss	r6, r6, r2, ror r5
   1362c:	5f203d3d 	swipl	0x00203d3d
   13630:	646c7472 	strvsbt	r7, [ip], #-1138
   13634:	636f6c5f 	cmnvs	pc, #24320	; 0x5f00
   13638:	5f2e6c61 	swipl	0x002e6c61
   1363c:	725f6c64 	subvcs	r6, pc, #25600	; 0x6400
   13640:	5f646c74 	swipl	0x00646c74
   13644:	2e70616d 	rpwcssz	f6, f0, #5.0
   13648:	72705f6c 	rsbvcs	r5, r0, #432	; 0x1b0
   1364c:	00007665 	andeq	r7, r0, r5, ror #12
   13650:	69616d3c 	stmvsdb	r1!, {r2, r3, r4, r5, r8, sl, fp, sp, lr}^
   13654:	7270206e 	rsbvcs	r2, r0, #110	; 0x6e
   13658:	6172676f 	cmnvs	r2, pc, ror #14
   1365c:	00003e6d 	andeq	r3, r0, sp, ror #28
   13660:	20732509 	rsbcss	r2, r3, r9, lsl #10
   13664:	25203e3d 	strcs	r3, [r0, #-3645]!
   13668:	30282073 	eorcc	r2, r8, r3, ror r0
   1366c:	2a302578 	bcs	c1cc54 <__bss_end__+0xbff364>
   13670:	202c785a 	eorcs	r7, ip, sl, asr r8
   13674:	30257830 	eorcc	r7, r5, r0, lsr r8
   13678:	29785a2a 	ldmcsdb	r8!, {r1, r3, r5, r9, fp, ip, lr}^
   1367c:	00000000 	andeq	r0, r0, r0
   13680:	73756e55 	cmnvc	r5, #1360	; 0x550
   13684:	64206465 	strvst	r6, [r0], #-1125
   13688:	63657269 	cmnvs	r5, #-1879048186	; 0x90000006
   1368c:	65642074 	strvsb	r2, [r4, #-116]!
   13690:	646e6570 	strvsbt	r6, [lr], #-1392
   13694:	69636e65 	stmvsdb	r3!, {r0, r2, r5, r6, r9, sl, fp, sp, lr}^
   13698:	0a3a7365 	beq	eb0434 <__bss_end__+0xe92b44>
   1369c:	00000000 	andeq	r0, r0, r0
   136a0:	0a732509 	beq	1cdcacc <__bss_end__+0x1cbf1dc>
   136a4:	00000000 	andeq	r0, r0, r0
   136a8:	61747309 	cmnvs	r4, r9, lsl #6
   136ac:	61636974 	cmnvs	r3, r4, ror r9
   136b0:	20796c6c 	rsbcss	r6, r9, ip, ror #24
   136b4:	6b6e696c 	blvs	1badc6c <__bss_end__+0x1b9037c>
   136b8:	000a6465 	andeq	r6, sl, r5, ror #8
   136bc:	20732509 	rsbcss	r2, r3, r9, lsl #10
   136c0:	6e203e3d 	mcrvs	14, 1, r3, cr0, cr13, {1}
   136c4:	6620746f 	strvst	r7, [r0], -pc, ror #8
   136c8:	646e756f 	strvsbt	r7, [lr], #-1391
   136cc:	0000000a 	andeq	r0, r0, sl
   136d0:	20732509 	rsbcss	r2, r3, r9, lsl #10
   136d4:	25783028 	ldrcsb	r3, [r8, #-40]!
   136d8:	785a2a30 	ldmvcda	sl, {r4, r5, r9, fp, sp}^
   136dc:	00000a29 	andeq	r0, r0, r9, lsr #20
   136e0:	20732509 	rsbcss	r2, r3, r9, lsl #10
   136e4:	25203e3d 	strcs	r3, [r0, #-3645]!
   136e8:	30282073 	eorcc	r2, r8, r3, ror r0
   136ec:	2a302578 	bcs	c1ccd4 <__bss_end__+0xbff3e4>
   136f0:	0a29785a 	beq	a71860 <__bss_end__+0xa53f70>
   136f4:	00000000 	andeq	r0, r0, r0
   136f8:	66207325 	strvst	r7, [r0], -r5, lsr #6
   136fc:	646e756f 	strvsbt	r7, [lr], #-1391
   13700:	20746120 	rsbcss	r6, r4, r0, lsr #2
   13704:	30257830 	eorcc	r7, r5, r0, lsr r8
   13708:	20645a2a 	rsbcs	r5, r4, sl, lsr #20
   1370c:	6f206e69 	swivs	0x00206e69
   13710:	63656a62 	cmnvs	r5, #401408	; 0x62000
   13714:	74612074 	strvcbt	r2, [r1], #-116
   13718:	25783020 	ldrcsb	r3, [r8, #-32]!
   1371c:	645a2a30 	ldrvsb	r2, [sl], #-2608
   13720:	0000000a 	andeq	r0, r0, sl
   13724:	6556090a 	ldrvsb	r0, [r6, #-2314]
   13728:	6f697372 	swivs	0x00697372
   1372c:	6e69206e 	cdpvs	0, 6, cr2, cr9, cr14, {3}
   13730:	6d726f66 	ldcvsl	15, cr6, [r2, #-408]!
   13734:	6f697461 	swivs	0x00697461
   13738:	000a3a6e 	andeq	r3, sl, lr, ror #20
   1373c:	3a732509 	bcc	1cdcb68 <__bss_end__+0x1cbf278>
   13740:	0000000a 	andeq	r0, r0, sl
   13744:	73250909 	teqvc	r5, #147456	; 0x24000
   13748:	73252820 	teqvc	r5, #2097152	; 0x200000
   1374c:	73252029 	teqvc	r5, #41	; 0x29
   13750:	25203e3d 	strcs	r3, [r0, #-3645]!
   13754:	00000a73 	andeq	r0, r0, r3, ror sl
   13758:	4145575b 	cmpmi	r5, fp, asr r7
   1375c:	00205d4b 	eoreq	r5, r0, fp, asr #26
   13760:	28097325 	stmcsda	r9, {r0, r2, r5, r8, r9, ip, sp, lr}
   13764:	0a297325 	beq	a70400 <__bss_end__+0xa52b10>
   13768:	00000000 	andeq	r0, r0, r0
   1376c:	203a7325 	eorcss	r7, sl, r5, lsr #6
   13770:	203a7325 	eorcss	r7, sl, r5, lsr #6
   13774:	000a7325 	andeq	r7, sl, r5, lsr #6
   13778:	6e726177 	mrcvs	1, 3, r6, cr2, cr7, {3}
   1377c:	3a676e69 	bcc	19ef128 <__bss_end__+0x19d1838>
   13780:	62656420 	rsbvs	r6, r5, #536870912	; 0x20000000
   13784:	6f206775 	swivs	0x00206775
   13788:	6f697470 	swivs	0x00697470
   1378c:	2560206e 	strcsb	r2, [r0, #-110]!
   13790:	75202773 	strvc	r2, [r0, #-1907]!
   13794:	6f6e6b6e 	swivs	0x006e6b6e
   13798:	203b6e77 	eorcss	r6, fp, r7, ror lr
   1379c:	20797274 	rsbcss	r7, r9, r4, ror r2
   137a0:	445f444c 	ldrmib	r4, [pc], #1100	; 137a8 <__clz_tab+0xd1c>
   137a4:	47554245 	ldrmib	r4, [r5, -r5, asr #4]
   137a8:	6c65683d 	stcvsl	8, cr6, [r5], #-244
   137ac:	00000a70 	andeq	r0, r0, r0, ror sl
   137b0:	696c6156 	stmvsdb	ip!, {r1, r2, r4, r6, r8, sp, lr}^
   137b4:	706f2064 	rsbvc	r2, pc, r4, rrx
   137b8:	6e6f6974 	mcrvs	9, 3, r6, cr15, cr4, {3}
   137bc:	6f662073 	swivs	0x00662073
   137c0:	68742072 	ldmvsda	r4!, {r1, r4, r5, r6, sp}^
   137c4:	444c2065 	strmib	r2, [ip], #-101
   137c8:	4245445f 	submi	r4, r5, #1593835520	; 0x5f000000
   137cc:	65204755 	strvs	r4, [r0, #-1877]!
   137d0:	7269766e 	rsbvc	r7, r9, #115343360	; 0x6e00000
   137d4:	656d6e6f 	strvsb	r6, [sp, #-3695]!
   137d8:	7620746e 	strvct	r7, [r0], -lr, ror #8
   137dc:	61697261 	cmnvs	r9, r1, ror #4
   137e0:	20656c62 	rsbcs	r6, r5, r2, ror #24
   137e4:	3a657261 	bcc	1970170 <__bss_end__+0x1952880>
   137e8:	00000a0a 	andeq	r0, r0, sl, lsl #20
   137ec:	20202020 	eorcs	r2, r0, r0, lsr #32
   137f0:	20202020 	eorcs	r2, r0, r0, lsr #32
   137f4:	00000020 	andeq	r0, r0, r0, lsr #32
   137f8:	2e252020 	cdpcs	0, 2, cr2, cr5, cr0, {1}
   137fc:	7325732a 	teqvc	r5, #-1476395008	; 0xa8000000
   13800:	000a7325 	andeq	r7, sl, r5, lsr #6
   13804:	206f540a 	rsbcs	r5, pc, sl, lsl #8
   13808:	65726964 	ldrvsb	r6, [r2, #-2404]!
   1380c:	74207463 	strvct	r7, [r0], #-1123
   13810:	64206568 	strvst	r6, [r0], #-1384
   13814:	67756265 	ldrvsb	r6, [r5, -r5, ror #4]!
   13818:	676e6967 	strvsb	r6, [lr, -r7, ror #18]!
   1381c:	74756f20 	ldrvcbt	r6, [r5], #-3872
   13820:	20747570 	rsbcss	r7, r4, r0, ror r5
   13824:	6f746e69 	swivs	0x00746e69
   13828:	66206120 	strvst	r6, [r0], -r0, lsr #2
   1382c:	20656c69 	rsbcs	r6, r5, r9, ror #24
   13830:	74736e69 	ldrvcbt	r6, [r3], #-3689
   13834:	20646165 	rsbcs	r6, r4, r5, ror #2
   13838:	7320666f 	teqvc	r0, #116391936	; 0x6f00000
   1383c:	646e6174 	strvsbt	r6, [lr], #-372
   13840:	20647261 	rsbcs	r7, r4, r1, ror #4
   13844:	7074756f 	rsbvcs	r7, r4, pc, ror #10
   13848:	610a7475 	tstvs	sl, r5, ror r4
   1384c:	6c696620 	stcvsl	6, cr6, [r9], #-128
   13850:	6d616e65 	stcvsl	14, cr6, [r1, #-404]!
   13854:	61632065 	cmnvs	r3, r5, rrx
   13858:	6562206e 	strvsb	r2, [r2, #-110]!
   1385c:	65707320 	ldrvsb	r7, [r0, #-800]!
   13860:	69666963 	stmvsdb	r6!, {r0, r1, r5, r6, r8, fp, sp, lr}^
   13864:	75206465 	strvc	r6, [r0, #-1125]!
   13868:	676e6973 	undefined
   1386c:	65687420 	strvsb	r7, [r8, #-1056]!
   13870:	5f444c20 	swipl	0x00444c20
   13874:	55424544 	strplb	r4, [r2, #-1348]
   13878:	554f5f47 	strplb	r5, [pc, #-3911]	; 12939 <.rodata+0x8e9>
   1387c:	54555054 	ldrplb	r5, [r5], #-84
   13880:	766e6520 	strvcbt	r6, [lr], -r0, lsr #10
   13884:	6e6f7269 	cdpvs	2, 6, cr7, cr15, cr9, {3}
   13888:	746e656d 	strvcbt	r6, [lr], #-1389
   1388c:	72617620 	rsbvc	r7, r1, #33554432	; 0x2000000
   13890:	6c626169 	stfvse	f6, [r2], #-420
   13894:	000a2e65 	andeq	r2, sl, r5, ror #28
   13898:	4e524157 	mrcmi	1, 2, r4, cr2, cr7, {2}
   1389c:	00000000 	andeq	r0, r0, r0
   138a0:	55424544 	strplb	r4, [r2, #-1348]
   138a4:	00000047 	andeq	r0, r0, r7, asr #32
   138a8:	42524556 	submis	r4, r2, #360710144	; 0x15800000
   138ac:	0045534f 	subeq	r5, r5, pc, asr #6
   138b0:	4c455250 	sfmmi	f5, 2, [r5], {80}
   138b4:	0044414f 	subeq	r4, r4, pc, asr #2
   138b8:	464f5250 	undefined
   138bc:	00454c49 	subeq	r4, r5, r9, asr #24
   138c0:	444e4942 	strmib	r4, [lr], #-2370
   138c4:	574f4e5f 	smlsldpl	r4, pc, pc, lr
   138c8:	00000000 	andeq	r0, r0, r0
   138cc:	444e4942 	strmib	r4, [lr], #-2370
   138d0:	544f4e5f 	strplb	r4, [pc], #3679	; 138d8 <__clz_tab+0xe4c>
   138d4:	00000000 	andeq	r0, r0, r0
   138d8:	574f4853 	smlsldpl	r4, pc, r3, r8
   138dc:	5855415f 	ldmplda	r5, {r0, r1, r2, r3, r4, r6, r8, lr}^
   138e0:	00000056 	andeq	r0, r0, r6, asr r0
   138e4:	41435748 	cmpmi	r3, r8, asr #14
   138e8:	414d5f50 	cmpmi	sp, r0, asr pc
   138ec:	00004b53 	andeq	r4, r0, r3, asr fp
   138f0:	4749524f 	strmib	r5, [r9, -pc, asr #4]
   138f4:	505f4e49 	subpls	r4, pc, r9, asr #28
   138f8:	00485441 	subeq	r5, r8, r1, asr #8
   138fc:	5242494c 	subpl	r4, r2, #1245184	; 0x130000
   13900:	5f595241 	swipl	0x00595241
   13904:	48544150 	ldmmida	r4, {r4, r6, r8, lr}^
   13908:	00000000 	andeq	r0, r0, r0
   1390c:	55424544 	strplb	r4, [r2, #-1348]
   13910:	554f5f47 	strplb	r5, [pc, #-3911]	; 129d1 <.rodata+0x981>
   13914:	54555054 	ldrplb	r5, [r5], #-84
   13918:	00000000 	andeq	r0, r0, r0
   1391c:	414e5944 	cmpmi	lr, r4, asr #18
   13920:	5f43494d 	swipl	0x0043494d
   13924:	4b414557 	blmi	1064e88 <__bss_end__+0x1047598>
   13928:	00000000 	andeq	r0, r0, r0
   1392c:	55535341 	ldrplb	r5, [r3, #-833]
   13930:	4b5f454d 	blmi	17e4e6c <__bss_end__+0x17c757c>
   13934:	454e5245 	strmib	r5, [lr, #-581]
   13938:	0000004c 	andeq	r0, r0, ip, asr #32
   1393c:	5f455355 	swipl	0x00455355
   13940:	44414f4c 	strmib	r4, [r1], #-3916
   13944:	4149425f 	cmpmi	r9, pc, asr r2
   13948:	00000053 	andeq	r0, r0, r3, asr r0
   1394c:	464f5250 	undefined
   13950:	5f454c49 	swipl	0x00454c49
   13954:	5054554f 	subpls	r5, r4, pc, asr #10
   13958:	00005455 	andeq	r5, r0, r5, asr r4
   1395c:	43415254 	cmpmi	r1, #1073741829	; 0x40000005
   13960:	52505f45 	subpls	r5, r0, #276	; 0x114
   13964:	4e494c45 	cdpmi	12, 4, cr4, cr9, cr5, {2}
   13968:	474e494b 	strmib	r4, [lr, -fp, asr #18]
   1396c:	00000000 	andeq	r0, r0, r0
   13970:	43415254 	cmpmi	r1, #1073741829	; 0x40000005
   13974:	4f4c5f45 	swimi	0x004c5f45
   13978:	44454441 	strmib	r4, [r5], #-1089
   1397c:	4a424f5f 	bmi	10a7700 <__bss_end__+0x1089e10>
   13980:	53544345 	cmppl	r4, #335544321	; 0x14000001
   13984:	00000000 	andeq	r0, r0, r0
   13988:	6374652f 	cmnvs	r4, #197132288	; 0xbc00000
   1398c:	6975732f 	ldmvsdb	r5!, {r0, r1, r2, r3, r5, r8, r9, ip, sp, lr}^
   13990:	65642d64 	strvsb	r2, [r4, #-3428]!
   13994:	00677562 	rsbeq	r7, r7, r2, ror #10
   13998:	4c4c414d 	stfmie	f4, [ip], {77}
   1399c:	435f434f 	cmpmi	pc, #1006632961	; 0x3c000001
   139a0:	4b434548 	blmi	10e4ec8 <__bss_end__+0x10c75d8>
   139a4:	0000005f 	andeq	r0, r0, pc, asr r0
   139a8:	20202020 	eorcs	r2, r0, r0, lsr #32
   139ac:	20202020 	eorcs	r2, r0, r0, lsr #32
   139b0:	20202020 	eorcs	r2, r0, r0, lsr #32
   139b4:	20202020 	eorcs	r2, r0, r0, lsr #32
   139b8:	6d756e20 	ldcvsl	14, cr6, [r5, #-128]!
   139bc:	20726562 	rsbcss	r6, r2, r2, ror #10
   139c0:	7220666f 	eorvc	r6, r0, #116391936	; 0x6f00000
   139c4:	636f6c65 	cmnvs	pc, #25856	; 0x6500
   139c8:	6f697461 	swivs	0x00697461
   139cc:	203a736e 	eorcss	r7, sl, lr, ror #6
   139d0:	0a756c25 	beq	1d6ea6c <__bss_end__+0x1d5117c>
   139d4:	20202020 	eorcs	r2, r0, r0, lsr #32
   139d8:	756e2020 	strvcb	r2, [lr, #-32]!
   139dc:	7265626d 	rsbvc	r6, r5, #-805306362	; 0xd0000006
   139e0:	20666f20 	rsbcs	r6, r6, r0, lsr #30
   139e4:	6f6c6572 	swivs	0x006c6572
   139e8:	69746163 	ldmvsdb	r4!, {r0, r1, r5, r6, r8, sp, lr}^
   139ec:	20736e6f 	rsbcss	r6, r3, pc, ror #28
   139f0:	6d6f7266 	sfmvs	f7, 2, [pc, #-408]!
   139f4:	63616320 	cmnvs	r1, #-2147483648	; 0x80000000
   139f8:	203a6568 	eorcss	r6, sl, r8, ror #10
   139fc:	0a756c25 	beq	1d6ea98 <__bss_end__+0x1d511a8>
   13a00:	20202020 	eorcs	r2, r0, r0, lsr #32
   13a04:	20202020 	eorcs	r2, r0, r0, lsr #32
   13a08:	626d756e 	rsbvs	r7, sp, #461373440	; 0x1b800000
   13a0c:	6f207265 	swivs	0x00207265
   13a10:	65722066 	ldrvsb	r2, [r2, #-102]!
   13a14:	6974616c 	ldmvsdb	r4!, {r2, r3, r5, r6, r8, sp, lr}^
   13a18:	72206576 	eorvc	r6, r0, #494927872	; 0x1d800000
   13a1c:	636f6c65 	cmnvs	pc, #25856	; 0x6500
   13a20:	6f697461 	swivs	0x00697461
   13a24:	203a736e 	eorcss	r7, sl, lr, ror #6
   13a28:	0a756c25 	beq	1d6eac4 <__bss_end__+0x1d511d4>
   13a2c:	00000000 	andeq	r0, r0, r0
   13a30:	4749524f 	strmib	r5, [r9, -pc, asr #4]
   13a34:	00004e49 	andeq	r4, r0, r9, asr #28
   13a38:	54414c50 	strplb	r4, [r1], #-3152
   13a3c:	4d524f46 	ldcmil	15, cr4, [r2, #-280]
   13a40:	00000000 	andeq	r0, r0, r0
   13a44:	0042494c 	subeq	r4, r2, ip, asr #18
   13a48:	0062696c 	rsbeq	r6, r2, ip, ror #18
   13a4c:	2d296c28 	stccs	12, cr6, [r9, #-160]!
   13a50:	6e5f6c3e 	mrcvs	12, 2, r6, cr15, cr14, {1}
   13a54:	5b656d61 	blpl	196efe0 <__bss_end__+0x19516f0>
   13a58:	3d205d30 	stccc	13, cr5, [r0, #-192]!
   13a5c:	5c27203d 	stcpl	0, cr2, [r7], #-244
   13a60:	00002730 	andeq	r2, r0, r0, lsr r7
   13a64:	6c2d6c64 	stcvs	12, cr6, [sp], #-400
   13a68:	2e64616f 	powcssz	f6, f4, #10.0
   13a6c:	00000063 	andeq	r0, r0, r3, rrx
   13a70:	6e6e6163 	powvsez	f6, f6, f3
   13a74:	6120746f 	teqvs	r0, pc, ror #8
   13a78:	636f6c6c 	cmnvs	pc, #27648	; 0x6c00
   13a7c:	20657461 	rsbcs	r7, r5, r1, ror #8
   13a80:	656d616e 	strvsb	r6, [sp, #-366]!
   13a84:	63657220 	cmnvs	r5, #2	; 0x2
   13a88:	0064726f 	rsbeq	r7, r4, pc, ror #4
   13a8c:	7473616c 	ldrvcbt	r6, [r3], #-364
   13a90:	3d212070 	stccc	0, cr2, [r1, #-448]!
   13a94:	76282820 	strvct	r2, [r8], -r0, lsr #16
   13a98:	2064696f 	rsbcs	r6, r4, pc, ror #18
   13a9c:	2930292a 	ldmcsdb	r0!, {r1, r3, r5, r8, fp, sp}
   13aa0:	00000000 	andeq	r0, r0, r0
   13aa4:	6e6e6163 	powvsez	f6, f6, f3
   13aa8:	6320746f 	teqvs	r0, #1862270976	; 0x6f000000
   13aac:	74616572 	strvcbt	r6, [r1], #-1394
   13ab0:	61632065 	cmnvs	r3, r5, rrx
   13ab4:	20656863 	rsbcs	r6, r5, r3, ror #16
   13ab8:	20726f66 	rsbcss	r6, r2, r6, ror #30
   13abc:	72616573 	rsbvc	r6, r1, #482344960	; 0x1cc00000
   13ac0:	70206863 	eorvc	r6, r0, r3, ror #16
   13ac4:	00687461 	rsbeq	r7, r8, r1, ror #8
   13ac8:	6e6e6163 	powvsez	f6, f6, f3
   13acc:	6320746f 	teqvs	r0, #1862270976	; 0x6f000000
   13ad0:	74616572 	strvcbt	r6, [r1], #-1394
   13ad4:	55522065 	ldrplb	r2, [r2, #-101]
   13ad8:	5441504e 	strplb	r5, [r1], #-78
   13adc:	50522f48 	subpls	r2, r2, r8, asr #30
   13ae0:	20485441 	subcs	r5, r8, r1, asr #8
   13ae4:	79706f63 	ldmvcdb	r0!, {r0, r1, r5, r6, r8, r9, sl, fp, sp, lr}^
   13ae8:	00000000 	andeq	r0, r0, r0
   13aec:	0000003a 	andeq	r0, r0, sl, lsr r0
   13af0:	6e6e6163 	powvsez	f6, f6, f3
   13af4:	6320746f 	teqvs	r0, #1862270976	; 0x6f000000
   13af8:	74616572 	strvcbt	r6, [r1], #-1394
   13afc:	65732065 	ldrvsb	r2, [r3, #-101]!
   13b00:	68637261 	stmvsda	r3!, {r0, r5, r6, r9, ip, sp, lr}^
   13b04:	74617020 	strvcbt	r7, [r1], #-32
   13b08:	72612068 	rsbvc	r2, r1, #104	; 0x68
   13b0c:	00796172 	rsbeqs	r6, r9, r2, ror r1
   13b10:	74737973 	ldrvcbt	r7, [r3], #-2419
   13b14:	73206d65 	teqvc	r0, #6464	; 0x1940
   13b18:	63726165 	cmnvs	r2, #1073741849	; 0x40000019
   13b1c:	61702068 	cmnvs	r0, r8, rrx
   13b20:	00006874 	andeq	r6, r0, r4, ror r8
   13b24:	656c6570 	strvsb	r6, [ip, #-1392]!
   13b28:	643e2d6d 	ldrvst	r2, [lr], #-3437
   13b2c:	616e7269 	cmnvs	lr, r9, ror #4
   13b30:	305b656d 	subccs	r6, fp, sp, ror #10
   13b34:	3d3d205d 	ldccc	0, cr2, [sp, #-372]!
   13b38:	272f2720 	strcs	r2, [pc, -r0, lsr #14]!
   13b3c:	00000000 	andeq	r0, r0, r0
   13b40:	6c3e2d6c 	ldcvs	13, cr2, [lr], #-432
   13b44:	7079745f 	rsbvcs	r7, r9, pc, asr r4
   13b48:	3d212065 	stccc	0, cr2, [r1, #-404]!
   13b4c:	5f746c20 	swipl	0x00746c20
   13b50:	64616f6c 	strvsbt	r6, [r1], #-3948
   13b54:	00006465 	andeq	r6, r0, r5, ror #8
   13b58:	504e5552 	subpl	r5, lr, r2, asr r5
   13b5c:	00485441 	subeq	r5, r8, r1, asr #8
   13b60:	54415052 	strplb	r5, [r1], #-82
   13b64:	00000048 	andeq	r0, r0, r8, asr #32
   13b68:	4c5f444c 	cfldrdmi	mvd4, [pc], {76}
   13b6c:	41524249 	cmpmi	r2, r9, asr #4
   13b70:	505f5952 	subpls	r5, pc, r2, asr r9
   13b74:	00485441 	subeq	r5, r8, r1, asr #8
   13b78:	00003b3a 	andeq	r3, r0, sl, lsr fp
   13b7c:	6c3e2d6c 	ldcvs	13, cr2, [lr], #-432
   13b80:	78656e5f 	stmvcda	r5!, {r0, r1, r2, r3, r4, r6, r9, sl, fp, sp, lr}^
   13b84:	3d3d2074 	ldccc	0, cr2, [sp, #-464]!
   13b88:	76282820 	strvct	r2, [r8], -r0, lsr #16
   13b8c:	2064696f 	rsbcs	r6, r4, pc, ror #18
   13b90:	2930292a 	ldmcsdb	r0!, {r1, r3, r5, r8, fp, sp}
   13b94:	00000000 	andeq	r0, r0, r0
   13b98:	6e6e6163 	powvsez	f6, f6, f3
   13b9c:	7320746f 	teqvc	r0, #1862270976	; 0x6f000000
   13ba0:	20746174 	rsbcss	r6, r4, r4, ror r1
   13ba4:	72616873 	rsbvc	r6, r1, #7536640	; 0x730000
   13ba8:	6f206465 	swivs	0x00206465
   13bac:	63656a62 	cmnvs	r5, #401408	; 0x62000
   13bb0:	00000074 	andeq	r0, r0, r4, ror r0
   13bb4:	6e6e6163 	powvsez	f6, f6, f3
   13bb8:	6d20746f 	cfstrsvs	mvf7, [r0, #-444]!
   13bbc:	7a207061 	bvc	82fd48 <__bss_end__+0x812458>
   13bc0:	2d6f7265 	sfmcs	f7, 2, [pc, #-404]!
   13bc4:	6c6c6966 	stcvsl	9, cr6, [ip], #-408
   13bc8:	67617020 	strvsb	r7, [r1, -r0, lsr #32]!
   13bcc:	00007365 	andeq	r7, r0, r5, ror #6
   13bd0:	6e6e6163 	powvsez	f6, f6, f3
   13bd4:	6320746f 	teqvs	r0, #1862270976	; 0x6f000000
   13bd8:	676e6168 	strvsb	r6, [lr, -r8, ror #2]!
   13bdc:	656d2065 	strvsb	r2, [sp, #-101]!
   13be0:	79726f6d 	ldmvcdb	r2!, {r0, r2, r3, r5, r6, r8, r9, sl, fp, sp, lr}^
   13be4:	6f727020 	swivs	0x00727020
   13be8:	74636574 	strvcbt	r6, [r3], #-1396
   13bec:	736e6f69 	cmnvc	lr, #420	; 0x1a4
   13bf0:	00000000 	andeq	r0, r0, r0
   13bf4:	20464c45 	subcs	r4, r6, r5, asr #24
   13bf8:	64616f6c 	strvsbt	r6, [r1], #-3948
   13bfc:	6d6f6320 	stcvsl	3, cr6, [pc, #-128]!
   13c00:	646e616d 	strvsbt	r6, [lr], #-365
   13c04:	64646120 	strvsbt	r6, [r4], #-288
   13c08:	73736572 	cmnvc	r3, #478150656	; 0x1c800000
   13c0c:	66666f2f 	strvsbt	r6, [r6], -pc, lsr #30
   13c10:	20746573 	rsbcss	r6, r4, r3, ror r5
   13c14:	20746f6e 	rsbcss	r6, r4, lr, ror #30
   13c18:	706f7270 	rsbvc	r7, pc, r0, ror r2
   13c1c:	796c7265 	stmvcdb	ip!, {r0, r2, r5, r6, r9, ip, sp, lr}^
   13c20:	696c6120 	stmvsdb	ip!, {r5, r8, sp, lr}^
   13c24:	64656e67 	strvsbt	r6, [r5], #-3687
   13c28:	00000000 	andeq	r0, r0, r0
   13c2c:	20464c45 	subcs	r4, r6, r5, asr #24
   13c30:	64616f6c 	strvsbt	r6, [r1], #-3948
   13c34:	6d6f6320 	stcvsl	3, cr6, [pc, #-128]!
   13c38:	646e616d 	strvsbt	r6, [lr], #-365
   13c3c:	696c6120 	stmvsdb	ip!, {r5, r8, sp, lr}^
   13c40:	656d6e67 	strvsb	r6, [sp, #-3687]!
   13c44:	6e20746e 	cdpvs	4, 2, cr7, cr0, cr14, {3}
   13c48:	7020746f 	eorvc	r7, r0, pc, ror #8
   13c4c:	2d656761 	stccsl	7, cr6, [r5, #-388]!
   13c50:	67696c61 	strvsb	r6, [r9, -r1, ror #24]!
   13c54:	0064656e 	rsbeq	r6, r4, lr, ror #10
   13c58:	656c6966 	strvsb	r6, [ip, #-2406]!
   13c5c:	2073253d 	rsbcss	r2, r3, sp, lsr r5
   13c60:	756c255b 	strvcb	r2, [ip, #-1371]!
   13c64:	20203b5d 	eorcs	r3, r0, sp, asr fp
   13c68:	656e6567 	strvsb	r6, [lr, #-1383]!
   13c6c:	69746172 	ldmvsdb	r4!, {r1, r4, r5, r6, r8, sp, lr}^
   13c70:	6c20676e 	stcvs	7, cr6, [r0], #-440
   13c74:	206b6e69 	rsbcs	r6, fp, r9, ror #28
   13c78:	0a70616d 	beq	1c2c234 <__bss_end__+0x1c0e944>
   13c7c:	00000000 	andeq	r0, r0, r0
   13c80:	6e6e6163 	powvsez	f6, f6, f3
   13c84:	6320746f 	teqvs	r0, #1862270976	; 0x6f000000
   13c88:	74616572 	strvcbt	r6, [r1], #-1394
   13c8c:	68732065 	ldmvsda	r3!, {r0, r2, r5, r6, sp}^
   13c90:	64657261 	strvsbt	r7, [r5], #-609
   13c94:	6a626f20 	bvs	18af91c <__bss_end__+0x189202c>
   13c98:	20746365 	rsbcss	r6, r4, r5, ror #6
   13c9c:	63736564 	cmnvs	r3, #419430400	; 0x19000000
   13ca0:	74706972 	ldrvcbt	r6, [r0], #-2418
   13ca4:	0000726f 	andeq	r7, r0, pc, ror #4
   13ca8:	6e6e6163 	powvsez	f6, f6, f3
   13cac:	7220746f 	eorvc	r7, r0, #1862270976	; 0x6f000000
   13cb0:	20646165 	rsbcs	r6, r4, r5, ror #2
   13cb4:	656c6966 	strvsb	r6, [ip, #-2406]!
   13cb8:	74616420 	strvcbt	r6, [r1], #-1056
   13cbc:	00000061 	andeq	r0, r0, r1, rrx
   13cc0:	6e6e6163 	powvsez	f6, f6, f3
   13cc4:	6820746f 	stmvsda	r0!, {r0, r1, r2, r3, r5, r6, sl, ip, sp, lr}
   13cc8:	6c646e61 	stcvsl	14, cr6, [r4], #-388
   13ccc:	4c542065 	mrrcmi	0, 6, r2, r4, cr5
   13cd0:	61642053 	qdsubvs	r2, r3, r4
   13cd4:	00006174 	andeq	r6, r0, r4, ror r1
   13cd8:	656a626f 	strvsb	r6, [sl, #-623]!
   13cdc:	66207463 	strvst	r7, [r0], -r3, ror #8
   13ce0:	20656c69 	rsbcs	r6, r5, r9, ror #24
   13ce4:	20736168 	rsbcss	r6, r3, r8, ror #2
   13ce8:	6c206f6e 	stcvs	15, cr6, [r0], #-440
   13cec:	6164616f 	cmnvs	r4, pc, ror #2
   13cf0:	20656c62 	rsbcs	r6, r5, r2, ror #24
   13cf4:	6d676573 	cfstr64vs	mvdx6, [r7, #-460]!
   13cf8:	73746e65 	cmnvc	r4, #1616	; 0x650
   13cfc:	00000000 	andeq	r0, r0, r0
   13d00:	6c696166 	stfvse	f6, [r9], #-408
   13d04:	74206465 	strvct	r6, [r0], #-1125
   13d08:	616d206f 	cmnvs	sp, pc, rrx
   13d0c:	65732070 	ldrvsb	r2, [r3, #-112]!
   13d10:	6e656d67 	cdpvs	13, 6, cr6, cr5, cr7, {3}
   13d14:	72662074 	rsbvc	r2, r6, #116	; 0x74
   13d18:	73206d6f 	teqvc	r0, #7104	; 0x1bc0
   13d1c:	65726168 	ldrvsb	r6, [r2, #-360]!
   13d20:	626f2064 	rsbvs	r2, pc, #100	; 0x64
   13d24:	7463656a 	strvcbt	r6, [r3], #-1386
   13d28:	00000000 	andeq	r0, r0, r0
   13d2c:	6e6e6163 	powvsez	f6, f6, f3
   13d30:	6420746f 	strvst	r7, [r0], #-1135
   13d34:	6d616e79 	stcvsl	14, cr6, [r1, #-484]!
   13d38:	6c616369 	stcvsl	3, cr6, [r1], #-420
   13d3c:	6c20796c 	stcvs	9, cr7, [r0], #-432
   13d40:	2064616f 	rsbcs	r6, r4, pc, ror #2
   13d44:	63657865 	cmnvs	r5, #6619136	; 0x650000
   13d48:	62617475 	rsbvs	r7, r1, #1962934272	; 0x75000000
   13d4c:	0000656c 	andeq	r6, r0, ip, ror #10
   13d50:	656a626f 	strvsb	r6, [sl, #-623]!
   13d54:	66207463 	strvst	r7, [r0], -r3, ror #8
   13d58:	20656c69 	rsbcs	r6, r5, r9, ror #24
   13d5c:	20736168 	rsbcss	r6, r3, r8, ror #2
   13d60:	64206f6e 	strvst	r6, [r0], #-3950
   13d64:	6d616e79 	stcvsl	14, cr6, [r1, #-484]!
   13d68:	73206369 	teqvc	r0, #-1543503871	; 0xa4000001
   13d6c:	69746365 	ldmvsdb	r4!, {r0, r2, r5, r6, r8, r9, sp, lr}^
   13d70:	00006e6f 	andeq	r6, r0, pc, ror #28
   13d74:	72616873 	rsbvc	r6, r1, #7536640	; 0x730000
   13d78:	6f206465 	swivs	0x00206465
   13d7c:	63656a62 	cmnvs	r5, #401408	; 0x62000
   13d80:	61632074 	cmnvs	r3, r4, ror r0
   13d84:	746f6e6e 	strvcbt	r6, [pc], #3694	; 13d8c <__clz_tab+0x1300>
   13d88:	20656220 	rsbcs	r6, r5, r0, lsr #4
   13d8c:	706f6c64 	rsbvc	r6, pc, r4, ror #24
   13d90:	29286e65 	stmcsdb	r8!, {r0, r2, r5, r6, r9, sl, fp, sp, lr}
   13d94:	00006465 	andeq	r6, r0, r5, ror #8
   13d98:	6e6e6163 	powvsez	f6, f6, f3
   13d9c:	6120746f 	teqvs	r0, pc, ror #8
   13da0:	636f6c6c 	cmnvs	pc, #27648	; 0x6c00
   13da4:	20657461 	rsbcs	r7, r5, r1, ror #8
   13da8:	6f6d656d 	swivs	0x006d656d
   13dac:	66207972 	undefined
   13db0:	7020726f 	eorvc	r7, r0, pc, ror #4
   13db4:	72676f72 	rsbvc	r6, r7, #456	; 0x1c8
   13db8:	68206d61 	stmvsda	r0!, {r0, r5, r6, r8, sl, fp, sp, lr}
   13dbc:	65646165 	strvsb	r6, [r4, #-357]!
   13dc0:	00000072 	andeq	r0, r0, r2, ror r0
   13dc4:	6e6e6163 	powvsez	f6, f6, f3
   13dc8:	6520746f 	strvs	r7, [r0, #-1135]!
   13dcc:	6c62616e 	stfvse	f6, [r2], #-440
   13dd0:	78652065 	stmvcda	r5!, {r0, r2, r5, r6, sp}^
   13dd4:	74756365 	ldrvcbt	r6, [r5], #-869
   13dd8:	656c6261 	strvsb	r6, [ip, #-609]!
   13ddc:	61747320 	cmnvs	r4, r0, lsr #6
   13de0:	61206b63 	teqvs	r0, r3, ror #22
   13de4:	68732073 	ldmvsda	r3!, {r0, r1, r4, r5, r6, sp}^
   13de8:	64657261 	strvsbt	r7, [r5], #-609
   13dec:	6a626f20 	bvs	18afa74 <__bss_end__+0x1892184>
   13df0:	20746365 	rsbcss	r6, r4, r5, ror #6
   13df4:	75716572 	ldrvcb	r6, [r1, #-1394]!
   13df8:	73657269 	cmnvc	r5, #-1879048186	; 0x90000006
   13dfc:	00000000 	andeq	r0, r0, r0
   13e00:	6e6e6163 	powvsez	f6, f6, f3
   13e04:	6320746f 	teqvs	r0, #1862270976	; 0x6f000000
   13e08:	65736f6c 	ldrvsb	r6, [r3, #-3948]!
   13e0c:	6c696620 	stcvsl	6, cr6, [r9], #-128
   13e10:	65642065 	strvsb	r2, [r4, #-101]!
   13e14:	69726373 	ldmvsdb	r2!, {r0, r1, r4, r5, r6, r8, r9, sp, lr}^
   13e18:	726f7470 	rsbvc	r7, pc, #1879048192	; 0x70000000
   13e1c:	00000000 	andeq	r0, r0, r0
   13e20:	79642020 	stmvcdb	r4!, {r5, sp}^
   13e24:	696d616e 	stmvsdb	sp!, {r1, r2, r3, r5, r6, r8, sp, lr}^
   13e28:	30203a63 	eorcc	r3, r0, r3, ror #20
   13e2c:	2a302578 	bcs	c1d414 <__bss_end__+0xbffb24>
   13e30:	2020786c 	eorcs	r7, r0, ip, ror #16
   13e34:	65736162 	ldrvsb	r6, [r3, #-354]!
   13e38:	7830203a 	ldmvcda	r0!, {r1, r3, r4, r5, sp}
   13e3c:	6c2a3025 	stcvs	0, cr3, [sl], #-148
   13e40:	20202078 	eorcs	r2, r0, r8, ror r0
   13e44:	657a6973 	ldrvsb	r6, [sl, #-2419]!
   13e48:	7830203a 	ldmvcda	r0!, {r1, r3, r4, r5, sp}
   13e4c:	5a2a3025 	bpl	a9fee8 <__bss_end__+0xa825f8>
   13e50:	20200a78 	eorcs	r0, r0, r8, ror sl
   13e54:	6e652020 	cdpvs	0, 6, cr2, cr5, cr0, {1}
   13e58:	3a797274 	bcc	1e70830 <__bss_end__+0x1e52f40>
   13e5c:	25783020 	ldrcsb	r3, [r8, #-32]!
   13e60:	786c2a30 	stmvcda	ip!, {r4, r5, r9, fp, sp}^
   13e64:	68702020 	ldmvsda	r0!, {r5, sp}^
   13e68:	203a7264 	eorcss	r7, sl, r4, ror #4
   13e6c:	30257830 	eorcc	r7, r5, r0, lsr r8
   13e70:	20786c2a 	rsbcss	r6, r8, sl, lsr #24
   13e74:	6e687020 	cdpvs	0, 6, cr7, cr8, cr0, {1}
   13e78:	203a6d75 	eorcss	r6, sl, r5, ror sp
   13e7c:	2a252020 	bcs	95bf04 <__bss_end__+0x93e614>
   13e80:	000a0a75 	andeq	r0, sl, r5, ror sl
   13e84:	6e6e6163 	powvsez	f6, f6, f3
   13e88:	6320746f 	teqvs	r0, #1862270976	; 0x6f000000
   13e8c:	74616572 	strvcbt	r6, [r1], #-1394
   13e90:	65732065 	ldrvsb	r2, [r3, #-101]!
   13e94:	68637261 	stmvsda	r3!, {r0, r5, r6, r9, ip, sp, lr}^
   13e98:	7473696c 	ldrvcbt	r6, [r3], #-2412
   13e9c:	00000000 	andeq	r0, r0, r0
   13ea0:	61657320 	cmnvs	r5, r0, lsr #6
   13ea4:	20686372 	rsbcs	r6, r8, r2, ror r3
   13ea8:	68746170 	ldmvsda	r4!, {r4, r5, r6, r8, sp, lr}^
   13eac:	0000003d 	andeq	r0, r0, sp, lsr r0
   13eb0:	00007325 	andeq	r7, r0, r5, lsr #6
   13eb4:	0073253a 	rsbeqs	r2, r3, sl, lsr r5
   13eb8:	25280909 	strcs	r0, [r8, #-2313]!
   13ebc:	72662073 	rsbvc	r2, r6, #115	; 0x73
   13ec0:	66206d6f 	strvst	r6, [r0], -pc, ror #26
   13ec4:	20656c69 	rsbcs	r6, r5, r9, ror #24
   13ec8:	0a297325 	beq	a70b64 <__bss_end__+0xa53274>
   13ecc:	00000000 	andeq	r0, r0, r0
   13ed0:	25280909 	strcs	r0, [r8, #-2313]!
   13ed4:	000a2973 	andeq	r2, sl, r3, ror r9
   13ed8:	656c6966 	strvsb	r6, [ip, #-2406]!
   13edc:	6f6f7420 	swivs	0x006f7420
   13ee0:	6f687320 	swivs	0x00687320
   13ee4:	00007472 	andeq	r7, r0, r2, ror r4
   13ee8:	61766e69 	cmnvs	r6, r9, ror #28
   13eec:	2064696c 	rsbcs	r6, r4, ip, ror #18
   13ef0:	20464c45 	subcs	r4, r6, r5, asr #24
   13ef4:	64616568 	strvsbt	r6, [r1], #-1384
   13ef8:	00007265 	andeq	r7, r0, r5, ror #4
   13efc:	20464c45 	subcs	r4, r6, r5, asr #24
   13f00:	656c6966 	strvsb	r6, [ip, #-2406]!
   13f04:	74616420 	strvcbt	r6, [r1], #-1056
   13f08:	6e652061 	cdpvs	0, 6, cr2, cr5, cr1, {3}
   13f0c:	69646f63 	stmvsdb	r4!, {r0, r1, r5, r6, r8, r9, sl, fp, sp, lr}^
   13f10:	6e20676e 	cdpvs	7, 2, cr6, cr0, cr14, {3}
   13f14:	6c20746f 	cfstrsvs	mvf7, [r0], #-444
   13f18:	6c747469 	cfldrdvs	mvd7, [r4], #-420
   13f1c:	6e652d65 	cdpvs	13, 6, cr2, cr5, cr5, {3}
   13f20:	6e616964 	cdpvs	9, 6, cr6, cr1, cr4, {3}
   13f24:	00000000 	andeq	r0, r0, r0
   13f28:	20464c45 	subcs	r4, r6, r5, asr #24
   13f2c:	656c6966 	strvsb	r6, [ip, #-2406]!
   13f30:	72657620 	rsbvc	r7, r5, #33554432	; 0x2000000
   13f34:	6e6f6973 	mcrvs	9, 3, r6, cr15, cr3, {3}
   13f38:	65646920 	strvsb	r6, [r4, #-2336]!
   13f3c:	6420746e 	strvst	r7, [r0], #-1134
   13f40:	2073656f 	rsbcss	r6, r3, pc, ror #10
   13f44:	20746f6e 	rsbcss	r6, r4, lr, ror #30
   13f48:	6374616d 	cmnvs	r4, #1073741851	; 0x4000001b
   13f4c:	75632068 	strvcb	r2, [r3, #-104]!
   13f50:	6e657272 	mcrvs	2, 3, r7, cr5, cr2, {3}
   13f54:	6e6f2074 	mcrvs	0, 3, r2, cr15, cr4, {3}
   13f58:	00000065 	andeq	r0, r0, r5, rrx
   13f5c:	20464c45 	subcs	r4, r6, r5, asr #24
   13f60:	656c6966 	strvsb	r6, [ip, #-2406]!
   13f64:	20534f20 	subcss	r4, r3, r0, lsr #30
   13f68:	20494241 	subcs	r4, r9, r1, asr #4
   13f6c:	61766e69 	cmnvs	r6, r9, ror #28
   13f70:	0064696c 	rsbeq	r6, r4, ip, ror #18
   13f74:	20464c45 	subcs	r4, r6, r5, asr #24
   13f78:	656c6966 	strvsb	r6, [ip, #-2406]!
   13f7c:	49424120 	stmmidb	r2, {r5, r8, lr}^
   13f80:	72657620 	rsbvc	r7, r5, #33554432	; 0x2000000
   13f84:	6e6f6973 	mcrvs	9, 3, r6, cr15, cr3, {3}
   13f88:	766e6920 	strvcbt	r6, [lr], -r0, lsr #18
   13f8c:	64696c61 	strvsbt	r6, [r9], #-3169
   13f90:	00000000 	andeq	r0, r0, r0
   13f94:	65746e69 	ldrvsb	r6, [r4, #-3689]!
   13f98:	6c616e72 	stcvsl	14, cr6, [r1], #-456
   13f9c:	72726520 	rsbvcs	r6, r2, #134217728	; 0x8000000
   13fa0:	0000726f 	andeq	r7, r0, pc, ror #4
   13fa4:	20464c45 	subcs	r4, r6, r5, asr #24
   13fa8:	656c6966 	strvsb	r6, [ip, #-2406]!
   13fac:	72657620 	rsbvc	r7, r5, #33554432	; 0x2000000
   13fb0:	6e6f6973 	mcrvs	9, 3, r6, cr15, cr3, {3}
   13fb4:	656f6420 	strvsb	r6, [pc, #-1056]!	; 13b9c <__clz_tab+0x1110>
   13fb8:	6f6e2073 	swivs	0x006e2073
   13fbc:	616d2074 	cmnvs	sp, r4, ror r0
   13fc0:	20686374 	rsbcs	r6, r8, r4, ror r3
   13fc4:	72727563 	rsbvcs	r7, r2, #415236096	; 0x18c00000
   13fc8:	20746e65 	rsbcss	r6, r4, r5, ror #28
   13fcc:	00656e6f 	rsbeq	r6, r5, pc, ror #28
   13fd0:	796c6e6f 	stmvcdb	ip!, {r0, r1, r2, r3, r5, r6, r9, sl, fp, sp, lr}^
   13fd4:	5f544520 	swipl	0x00544520
   13fd8:	204e5944 	subcs	r5, lr, r4, asr #18
   13fdc:	20646e61 	rsbcs	r6, r4, r1, ror #28
   13fe0:	455f5445 	ldrmib	r5, [pc, #-1093]	; 13ba3 <__clz_tab+0x1117>
   13fe4:	20434558 	subcs	r4, r3, r8, asr r5
   13fe8:	206e6163 	rsbcs	r6, lr, r3, ror #2
   13fec:	6c206562 	cfstr32vs	mvfx6, [r0], #-392
   13ff0:	6564616f 	strvsb	r6, [r4, #-367]!
   13ff4:	00000064 	andeq	r0, r0, r4, rrx
   13ff8:	20464c45 	subcs	r4, r6, r5, asr #24
   13ffc:	656c6966 	strvsb	r6, [ip, #-2406]!
   14000:	70207327 	eorvc	r7, r0, r7, lsr #6
   14004:	746e6568 	strvcbt	r6, [lr], #-1384
   14008:	657a6973 	ldrvsb	r6, [sl, #-2419]!
   1400c:	746f6e20 	strvcbt	r6, [pc], #3616	; 14014 <__clz_tab+0x1588>
   14010:	65687420 	strvsb	r7, [r8, #-1056]!
   14014:	70786520 	rsbvcs	r6, r8, r0, lsr #10
   14018:	65746365 	ldrvsb	r6, [r4, #-869]!
   1401c:	69732064 	ldmvsdb	r3!, {r2, r5, r6, sp}^
   14020:	0000657a 	andeq	r6, r0, sl, ror r5
   14024:	72742020 	rsbvcs	r2, r4, #32	; 0x20
   14028:	676e6979 	undefined
   1402c:	6c696620 	stcvsl	6, cr6, [r9], #-128
   14030:	73253d65 	teqvc	r5, #6464	; 0x1940
   14034:	0000000a 	andeq	r0, r0, sl
   14038:	6469736e 	strvsbt	r7, [r9], #-878
   1403c:	203d3e20 	eorcss	r3, sp, r0, lsr #28
   14040:	00000030 	andeq	r0, r0, r0, lsr r0
   14044:	6469736e 	strvsbt	r7, [r9], #-878
   14048:	31203c20 	teqcc	r0, r0, lsr #24
   1404c:	00000036 	andeq	r0, r0, r6, lsr r0
   14050:	6c69660a 	stcvsl	6, cr6, [r9], #-40
   14054:	73253d65 	teqvc	r5, #6464	; 0x1940
   14058:	6c255b20 	stcvs	11, cr5, [r5], #-128
   1405c:	203b5d75 	eorcss	r5, fp, r5, ror sp
   14060:	65656e20 	strvsb	r6, [r5, #-3616]!
   14064:	20646564 	rsbcs	r6, r4, r4, ror #10
   14068:	25207962 	strcs	r7, [r0, #-2402]!
   1406c:	255b2073 	ldrcsb	r2, [fp, #-115]
   14070:	0a5d756c 	beq	1771628 <__bss_end__+0x1753d38>
   14074:	00000000 	andeq	r0, r0, r0
   14078:	646e6966 	strvsbt	r6, [lr], #-2406
   1407c:	62696c20 	rsbvs	r6, r9, #8192	; 0x2000
   14080:	79726172 	ldmvcdb	r2!, {r1, r4, r5, r6, r8, sp, lr}^
   14084:	2073253d 	rsbcss	r2, r3, sp, lsr r5
   14088:	756c255b 	strvcb	r2, [ip, #-1371]!
   1408c:	73203b5d 	teqvc	r0, #95232	; 0x17400
   14090:	63726165 	cmnvs	r2, #1073741849	; 0x40000019
   14094:	676e6968 	strvsb	r6, [lr, -r8, ror #18]!
   14098:	0000000a 	andeq	r0, r0, sl
   1409c:	6e6e6163 	powvsez	f6, f6, f3
   140a0:	6f20746f 	swivs	0x0020746f
   140a4:	206e6570 	rsbcs	r6, lr, r0, ror r5
   140a8:	72616873 	rsbvc	r6, r1, #7536640	; 0x730000
   140ac:	6f206465 	swivs	0x00206465
   140b0:	63656a62 	cmnvs	r5, #401408	; 0x62000
   140b4:	69662074 	stmvsdb	r6!, {r2, r4, r5, r6, sp}^
   140b8:	0000656c 	andeq	r6, r0, ip, ror #10
   140bc:	61657320 	cmnvs	r5, r0, lsr #6
   140c0:	20686372 	rsbcs	r6, r8, r2, ror r3
   140c4:	68636163 	stmvsda	r3!, {r0, r1, r5, r6, r8, sp, lr}^
   140c8:	73253d65 	teqvc	r5, #6464	; 0x1940
   140cc:	0000000a 	andeq	r0, r0, sl
   140d0:	6374652f 	cmnvs	r4, #197132288	; 0xbc00000
   140d4:	2e646c2f 	cdpcs	12, 6, cr6, cr4, cr15, {1}
   140d8:	632e6f73 	teqvs	lr, #460	; 0x1cc
   140dc:	65686361 	strvsb	r6, [r8, #-865]!
   140e0:	00000000 	andeq	r0, r0, r0
   140e4:	732e646c 	teqvc	lr, #1811939328	; 0x6c000000
   140e8:	2e312d6f 	cdpcs	13, 3, cr2, cr1, cr15, {3}
   140ec:	00302e37 	eoreqs	r2, r0, r7, lsr lr
   140f0:	62696c67 	rsbvs	r6, r9, #26368	; 0x6700
   140f4:	646c2d63 	strvsbt	r2, [ip], #-3427
   140f8:	2e6f732e 	cdpcs	3, 6, cr7, cr15, cr14, {1}
   140fc:	68636163 	stmvsda	r3!, {r0, r1, r5, r6, r8, sp, lr}^
   14100:	312e3165 	teqcc	lr, r5, ror #2
   14104:	00000000 	andeq	r0, r0, r0
   14108:	68636163 	stmvsda	r3!, {r0, r1, r5, r6, r8, sp, lr}^
   1410c:	3d212065 	stccc	0, cr2, [r1, #-404]!
   14110:	76282820 	strvct	r2, [r8], -r0, lsr #16
   14114:	2064696f 	rsbcs	r6, r4, pc, ror #18
   14118:	2930292a 	ldmcsdb	r0!, {r1, r3, r5, r8, fp, sp}
   1411c:	00000000 	andeq	r0, r0, r0
   14120:	732f2e2e 	teqvc	pc, #736	; 0x2e0
   14124:	65647379 	strvsb	r7, [r4, #-889]!
   14128:	672f7370 	undefined
   1412c:	72656e65 	rsbvc	r6, r5, #1616	; 0x650
   14130:	642f6369 	strvst	r6, [pc], #873	; 14138 <__clz_tab+0x16ac>
   14134:	61632d6c 	cmnvs	r3, ip, ror #26
   14138:	2e656863 	cdpcs	8, 6, cr6, cr5, cr3, {3}
   1413c:	00000063 	andeq	r0, r0, r3, rrx
   14140:	6f6c6572 	swivs	0x006c6572
   14144:	69746163 	ldmvsdb	r4!, {r0, r1, r5, r6, r8, sp, lr}^
   14148:	65206e6f 	strvs	r6, [r0, #-3695]!
   1414c:	726f7272 	rsbvc	r7, pc, #536870919	; 0x20000007
   14150:	00000000 	andeq	r0, r0, r0
   14154:	626d7973 	rsbvs	r7, sp, #1884160	; 0x1cc000
   14158:	6c206c6f 	stcvs	12, cr6, [r0], #-444
   1415c:	756b6f6f 	strvcb	r6, [fp, #-3951]!
   14160:	72652070 	rsbvc	r2, r5, #112	; 0x70
   14164:	00726f72 	rsbeqs	r6, r2, r2, ror pc
   14168:	626d7973 	rsbvs	r7, sp, #1884160	; 0x1cc000
   1416c:	253d6c6f 	ldrcs	r6, [sp, #-3183]!
   14170:	20203b73 	eorcs	r3, r0, r3, ror fp
   14174:	6b6f6f6c 	blvs	1beff2c <__bss_end__+0x1bd263c>
   14178:	69207075 	stmvsdb	r0!, {r0, r2, r4, r5, r6, ip, sp, lr}
   1417c:	6966206e 	stmvsdb	r6!, {r1, r2, r3, r5, r6, sp}^
   14180:	253d656c 	ldrcs	r6, [sp, #-1388]!
   14184:	00000a73 	andeq	r0, r0, r3, ror sl
   14188:	73726576 	cmnvc	r2, #494927872	; 0x1d800000
   1418c:	2d6e6f69 	stccsl	15, cr6, [lr, #-420]!
   14190:	6c69663e 	stcvsl	6, cr6, [r9], #-248
   14194:	6d616e65 	stcvsl	14, cr6, [r1, #-404]!
   14198:	3d3d2065 	ldccc	0, cr2, [sp, #-404]!
   1419c:	76282820 	strvct	r2, [r8], -r0, lsr #16
   141a0:	2064696f 	rsbcs	r6, r4, pc, ror #18
   141a4:	2930292a 	ldmcsdb	r0!, {r1, r3, r5, r8, fp, sp}
   141a8:	207c7c20 	rsbcss	r7, ip, r0, lsr #24
   141ac:	645f2021 	ldrvsb	r2, [pc], #33	; 141b4 <__clz_tab+0x1728>
   141b0:	616e5f6c 	cmnvs	lr, ip, ror #30
   141b4:	6d5f656d 	cfldr64vs	mvdx6, [pc, #-436]
   141b8:	68637461 	stmvsda	r3!, {r0, r5, r6, sl, ip, sp, lr}^
   141bc:	2820705f 	stmcsda	r0!, {r0, r1, r2, r3, r4, r6, ip, sp, lr}
   141c0:	73726576 	cmnvc	r2, #494927872	; 0x1d800000
   141c4:	2d6e6f69 	stccsl	15, cr6, [lr, #-420]!
   141c8:	6c69663e 	stcvsl	6, cr6, [r9], #-248
   141cc:	6d616e65 	stcvsl	14, cr6, [r1, #-404]!
   141d0:	6d202c65 	stcvs	12, cr2, [r0, #-404]!
   141d4:	00297061 	eoreq	r7, r9, r1, rrx
   141d8:	6c2d6f64 	stcvs	15, cr6, [sp], #-400
   141dc:	756b6f6f 	strvcb	r6, [fp, #-3951]!
   141e0:	00682e70 	rsbeq	r2, r8, r0, ror lr
   141e4:	6c69660a 	stcvsl	6, cr6, [r9], #-40
   141e8:	73253d65 	teqvc	r5, #6464	; 0x1940
   141ec:	6c255b20 	stcvs	11, cr5, [r5], #-128
   141f0:	203b5d75 	eorcss	r5, fp, r5, ror sp
   141f4:	65656e20 	strvsb	r6, [r5, #-3616]!
   141f8:	20646564 	rsbcs	r6, r4, r4, ror #10
   141fc:	25207962 	strcs	r7, [r0, #-2402]!
   14200:	255b2073 	ldrcsb	r2, [fp, #-115]
   14204:	205d756c 	subcss	r7, sp, ip, ror #10
   14208:	6c657228 	sfmvs	f7, 2, [r5], #-160
   1420c:	7461636f 	strvcbt	r6, [r1], #-879
   14210:	206e6f69 	rsbcs	r6, lr, r9, ror #30
   14214:	65706564 	ldrvsb	r6, [r0, #-1380]!
   14218:	6e65646e 	cdpvs	4, 6, cr6, cr5, cr14, {3}
   1421c:	0a297963 	beq	a727b0 <__bss_end__+0xa54ec0>
   14220:	0000000a 	andeq	r0, r0, sl
   14224:	73726576 	cmnvc	r2, #494927872	; 0x1d800000
   14228:	206e6f69 	rsbcs	r6, lr, r9, ror #30
   1422c:	28203d3d 	stmcsda	r0!, {r0, r2, r3, r4, r5, r8, sl, fp, ip, sp}
   14230:	696f7628 	stmvsdb	pc!, {r3, r5, r9, sl, ip, sp, lr}^
   14234:	292a2064 	stmcsdb	sl!, {r2, r5, r6, sp}
   14238:	7c202930 	stcvc	9, cr2, [r0], #-192
   1423c:	6c66207c 	stcvsl	0, cr2, [r6], #-496
   14240:	20736761 	rsbcss	r6, r3, r1, ror #14
   14244:	30203d3d 	eorcc	r3, r0, sp, lsr sp
   14248:	207c7c20 	rsbcss	r7, ip, r0, lsr #24
   1424c:	67616c66 	strvsb	r6, [r1, -r6, ror #24]!
   14250:	3d3d2073 	ldccc	0, cr2, [sp, #-460]!
   14254:	5f4c4420 	swipl	0x004c4420
   14258:	4b4f4f4c 	blmi	13e7f90 <__bss_end__+0x13ca6a0>
   1425c:	415f5055 	cmpmi	pc, r5, asr r0
   14260:	445f4444 	ldrmib	r4, [pc], #1092	; 14268 <__clz_tab+0x17dc>
   14264:	4e455045 	cdpmi	0, 4, cr5, cr5, cr5, {2}
   14268:	434e4544 	cmpmi	lr, #285212672	; 0x11000000
   1426c:	00000059 	andeq	r0, r0, r9, asr r0
   14270:	6c2d6c64 	stcvs	12, cr6, [sp], #-400
   14274:	756b6f6f 	strvcb	r6, [fp, #-3951]!
   14278:	00632e70 	rsbeq	r2, r3, r0, ror lr
   1427c:	203c2069 	eorcss	r2, ip, r9, rrx
   14280:	63732a28 	cmnvs	r3, #163840	; 0x28000
   14284:	2965706f 	stmcsdb	r5!, {r0, r1, r2, r3, r5, r6, ip, sp, lr}^
   14288:	5f723e2d 	swipl	0x00723e2d
   1428c:	73696c6e 	cmnvc	r9, #28160	; 0x6e00
   14290:	00000074 	andeq	r0, r0, r4, ror r0
   14294:	73726576 	cmnvc	r2, #494927872	; 0x1d800000
   14298:	206e6f69 	rsbcs	r6, lr, r9, ror #30
   1429c:	28203d21 	stmcsda	r0!, {r0, r5, r8, sl, fp, ip, sp}
   142a0:	696f7628 	stmvsdb	pc!, {r3, r5, r9, sl, ip, sp, lr}^
   142a4:	292a2064 	stmcsdb	sl!, {r2, r5, r6, sp}
   142a8:	00002930 	andeq	r2, r0, r0, lsr r9
   142ac:	626d7973 	rsbvs	r7, sp, #1884160	; 0x1cc000
   142b0:	00206c6f 	eoreq	r6, r0, pc, ror #24
   142b4:	6576202c 	ldrvsb	r2, [r6, #-44]!
   142b8:	6f697372 	swivs	0x00697372
   142bc:	0000206e 	andeq	r2, r0, lr, rrx
   142c0:	746f6e20 	strvcbt	r6, [pc], #3616	; 142c8 <__clz_tab+0x183c>
   142c4:	66656420 	strvsbt	r6, [r5], -r0, lsr #8
   142c8:	64656e69 	strvsbt	r6, [r5], #-3689
   142cc:	206e6920 	rsbcs	r6, lr, r0, lsr #18
   142d0:	656c6966 	strvsb	r6, [ip, #-2406]!
   142d4:	00000020 	andeq	r0, r0, r0, lsr #32
   142d8:	74697720 	strvcbt	r7, [r9], #-1824
   142dc:	696c2068 	stmvsdb	ip!, {r3, r5, r6, sp}^
   142e0:	74206b6e 	strvct	r6, [r0], #-2926
   142e4:	20656d69 	rsbcs	r6, r5, r9, ror #26
   142e8:	65666572 	strvsb	r6, [r6, #-1394]!
   142ec:	636e6572 	cmnvs	lr, #478150656	; 0x1c800000
   142f0:	00000065 	andeq	r0, r0, r5, rrx
   142f4:	6f6e2820 	swivs	0x006e2820
   142f8:	72657620 	rsbvc	r7, r5, #33554432	; 0x2000000
   142fc:	6e6f6973 	mcrvs	9, 3, r6, cr15, cr3, {3}
   14300:	6d797320 	ldcvsl	3, cr7, [r9, #-128]!
   14304:	736c6f62 	cmnvc	ip, #392	; 0x188
   14308:	00000029 	andeq	r0, r0, r9, lsr #32
   1430c:	746f7270 	strvcbt	r7, [pc], #624	; 14314 <__clz_tab+0x1888>
   14310:	65746365 	ldrvsb	r6, [r4, #-869]!
   14314:	00000064 	andeq	r0, r0, r4, rrx
   14318:	6d726f6e 	ldcvsl	15, cr6, [r2, #-440]!
   1431c:	00006c61 	andeq	r6, r0, r1, ror #24
   14320:	646e6962 	strvsbt	r6, [lr], #-2402
   14324:	20676e69 	rsbcs	r6, r7, r9, ror #28
   14328:	656c6966 	strvsb	r6, [ip, #-2406]!
   1432c:	20732520 	rsbcss	r2, r3, r0, lsr #10
   14330:	25206f74 	strcs	r6, [r0, #-3956]!
   14334:	25203a73 	strcs	r3, [r0, #-2675]!
   14338:	79732073 	ldmvcdb	r3!, {r0, r1, r4, r5, r6, sp}^
   1433c:	6c6f626d 	sfmvs	f6, 2, [pc], #-436
   14340:	73256020 	teqvc	r5, #32	; 0x20
   14344:	00000027 	andeq	r0, r0, r7, lsr #32
   14348:	73255b20 	teqvc	r5, #32768	; 0x8000
   1434c:	00000a5d 	andeq	r0, r0, sp, asr sl
   14350:	666e6f63 	strvsbt	r6, [lr], -r3, ror #30
   14354:	7463696c 	strvcbt	r6, [r3], #-2412
   14358:	00000000 	andeq	r0, r0, r0
   1435c:	6b6f6f6c 	blvs	1bf0114 <__bss_end__+0x1bd2824>
   14360:	00007075 	andeq	r7, r0, r5, ror r0
   14364:	30207325 	eorcc	r7, r0, r5, lsr #6
   14368:	2a302578 	bcs	c1d950 <__bss_end__+0xc00060>
   1436c:	3020785a 	eorcc	r7, r0, sl, asr r8
   14370:	2a302578 	bcs	c1d958 <__bss_end__+0xc00068>
   14374:	2d20785a 	stccs	8, cr7, [r0, #-360]!
   14378:	7830203e 	ldmvcda	r0!, {r1, r2, r3, r4, r5, sp}
   1437c:	5a2a3025 	bpl	aa0418 <__bss_end__+0xa82b28>
   14380:	78302078 	ldmvcda	r0!, {r3, r4, r5, r6, sp}
   14384:	5a2a3025 	bpl	aa0420 <__bss_end__+0xa82b30>
   14388:	00002078 	andeq	r2, r0, r8, ror r0
   1438c:	78302078 	ldmvcda	r0!, {r3, r4, r5, r6, sp}
   14390:	5a2a3025 	bpl	aa042c <__bss_end__+0xa82b3c>
   14394:	78302078 	ldmvcda	r0!, {r3, r4, r5, r6, sp}
   14398:	5a2a3025 	bpl	aa0434 <__bss_end__+0xa82b44>
   1439c:	00002078 	andeq	r2, r0, r8, ror r0
   143a0:	2078252f 	rsbcss	r2, r8, pc, lsr #10
   143a4:	000a7325 	andeq	r7, sl, r5, lsr #6
   143a8:	6c65720a 	sfmvs	f7, 2, [r5], #-40
   143ac:	7461636f 	strvcbt	r6, [r1], #-879
   143b0:	206e6f69 	rsbcs	r6, lr, r9, ror #30
   143b4:	636f7270 	cmnvs	pc, #7	; 0x7
   143b8:	69737365 	ldmvsdb	r3!, {r0, r2, r5, r6, r8, r9, ip, sp, lr}^
   143bc:	203a676e 	eorcss	r6, sl, lr, ror #14
   143c0:	73257325 	teqvc	r5, #-1811939328	; 0x94000000
   143c4:	0000000a 	andeq	r0, r0, sl
   143c8:	6e6e6163 	powvsez	f6, f6, f3
   143cc:	6d20746f 	cfstrsvs	mvf7, [r0, #-444]!
   143d0:	20656b61 	rsbcs	r6, r5, r1, ror #22
   143d4:	6d676573 	cfstr64vs	mvdx6, [r7, #-460]!
   143d8:	20746e65 	rsbcss	r6, r4, r5, ror #28
   143dc:	74697277 	strvcbt	r7, [r9], #-631
   143e0:	656c6261 	strvsb	r6, [ip, #-609]!
   143e4:	726f6620 	rsbvc	r6, pc, #33554432	; 0x2000000
   143e8:	6c657220 	sfmvs	f7, 2, [r5], #-128
   143ec:	7461636f 	strvcbt	r6, [r1], #-879
   143f0:	006e6f69 	rsbeq	r6, lr, r9, ror #30
   143f4:	6e6e6163 	powvsez	f6, f6, f3
   143f8:	7220746f 	eorvc	r7, r0, #1862270976	; 0x6f000000
   143fc:	6f747365 	swivs	0x00747365
   14400:	73206572 	teqvc	r0, #478150656	; 0x1c800000
   14404:	656d6765 	strvsb	r6, [sp, #-1893]!
   14408:	7020746e 	eorvc	r7, r0, lr, ror #8
   1440c:	20746f72 	rsbcss	r6, r4, r2, ror pc
   14410:	65746661 	ldrvsb	r6, [r4, #-1633]!
   14414:	65722072 	ldrvsb	r2, [r2, #-114]!
   14418:	00636f6c 	rsbeq	r6, r3, ip, ror #30
   1441c:	203a7325 	eorcss	r7, sl, r5, lsr #6
   14420:	666f7270 	undefined
   14424:	72656c69 	rsbvc	r6, r5, #26880	; 0x6900
   14428:	756f6620 	strvcb	r6, [pc, #-1568]!	; 13e10 <__clz_tab+0x1384>
   1442c:	6e20646e 	cdpvs	4, 2, cr6, cr0, cr14, {3}
   14430:	4c50206f 	mrrcmi	0, 6, r2, r0, cr15
   14434:	4c455254 	sfmmi	f5, 2, [r5], {84}
   14438:	206e6920 	rsbcs	r6, lr, r0, lsr #18
   1443c:	656a626f 	strvsb	r6, [sl, #-623]!
   14440:	25207463 	strcs	r7, [r0, #-1123]!
   14444:	00000a73 	andeq	r0, r0, r3, ror sl
   14448:	203a7325 	eorcss	r7, sl, r5, lsr #6
   1444c:	666f7270 	undefined
   14450:	72656c69 	rsbvc	r6, r5, #26880	; 0x6900
   14454:	74756f20 	ldrvcbt	r6, [r5], #-3872
   14458:	20666f20 	rsbcs	r6, r6, r0, lsr #30
   1445c:	6f6d656d 	swivs	0x006d656d
   14460:	73207972 	teqvc	r0, #1867776	; 0x1c8000
   14464:	6f646168 	swivs	0x00646168
   14468:	676e6977 	undefined
   1446c:	544c5020 	strplb	r5, [ip], #-32
   14470:	204c4552 	subcs	r4, ip, r2, asr r5
   14474:	2520666f 	strcs	r6, [r0, #-1647]!
   14478:	00000a73 	andeq	r0, r0, r3, ror sl
   1447c:	616c2820 	cmnvs	ip, r0, lsr #16
   14480:	0029797a 	eoreq	r7, r9, sl, ror r9
   14484:	20545344 	subcss	r5, r4, r4, asr #6
   14488:	20746f6e 	rsbcss	r6, r4, lr, ror #30
   1448c:	6f6c6c61 	swivs	0x006c6c61
   14490:	20646577 	rsbcs	r6, r4, r7, ror r5
   14494:	53206e69 	teqpl	r0, #1680	; 0x690
   14498:	2f444955 	swics	0x00444955
   1449c:	44494753 	strmib	r4, [r9], #-1875
   144a0:	6f727020 	swivs	0x00727020
   144a4:	6d617267 	sfmvs	f7, 2, [r1, #-412]!
   144a8:	00000073 	andeq	r0, r0, r3, ror r0
   144ac:	642d6c64 	strvst	r6, [sp], #-3172
   144b0:	2e737065 	cdpcs	0, 7, cr7, cr3, cr5, {3}
   144b4:	00000063 	andeq	r0, r0, r3, rrx
   144b8:	6e6e6163 	powvsez	f6, f6, f3
   144bc:	6c20746f 	cfstrsvs	mvf7, [r0], #-444
   144c0:	2064616f 	rsbcs	r6, r4, pc, ror #2
   144c4:	69787561 	ldmvsdb	r8!, {r0, r5, r6, r8, sl, ip, sp, lr}^
   144c8:	7261696c 	rsbvc	r6, r1, #1769472	; 0x1b0000
   144cc:	25602079 	strcsb	r2, [r0, #-121]!
   144d0:	62202773 	eorvs	r2, r0, #30146560	; 0x1cc0000
   144d4:	75616365 	strvcb	r6, [r1, #-869]!
   144d8:	6f206573 	swivs	0x00206573
   144dc:	6d652066 	stcvsl	0, cr2, [r5, #-408]!
   144e0:	20797470 	rsbcss	r7, r9, r0, ror r4
   144e4:	616e7964 	cmnvs	lr, r4, ror #18
   144e8:	2063696d 	rsbcs	r6, r3, sp, ror #18
   144ec:	69727473 	ldmvsdb	r2!, {r0, r1, r4, r5, r6, sl, ip, sp, lr}^
   144f0:	7420676e 	strvct	r6, [r0], #-1902
   144f4:	6e656b6f 	cdpvs	11, 6, cr6, cr5, cr15, {3}
   144f8:	62757320 	rsbvss	r7, r5, #-2147483648	; 0x80000000
   144fc:	74697473 	strvcbt	r7, [r9], #-1139
   14500:	6f697475 	swivs	0x00697475
   14504:	00000a6e 	andeq	r0, r0, lr, ror #20
   14508:	74706d65 	ldrvcbt	r6, [r0], #-3429
   1450c:	79642079 	stmvcdb	r4!, {r0, r3, r4, r5, r6, sp}^
   14510:	696d616e 	stmvsdb	sp!, {r1, r2, r3, r5, r6, r8, sp, lr}^
   14514:	73207363 	teqvc	r0, #-1946157055	; 0x8c000001
   14518:	6e697274 	mcrvs	2, 3, r7, cr9, cr4, {3}
   1451c:	6f742067 	swivs	0x00742067
   14520:	206e656b 	rsbcs	r6, lr, fp, ror #10
   14524:	73627573 	cmnvc	r2, #482344960	; 0x1cc00000
   14528:	75746974 	ldrvcb	r6, [r4, #-2420]!
   1452c:	6e6f6974 	mcrvs	9, 3, r6, cr15, cr4, {3}
   14530:	00000000 	andeq	r0, r0, r0
   14534:	64616f6c 	strvsbt	r6, [r1], #-3948
   14538:	78756120 	ldmvcda	r5!, {r5, r8, sp, lr}^
   1453c:	61696c69 	cmnvs	r9, r9, ror #24
   14540:	6f207972 	swivs	0x00207972
   14544:	63656a62 	cmnvs	r5, #401408	; 0x62000
   14548:	73253d74 	teqvc	r5, #7424	; 0x1d00
   1454c:	71657220 	cmnvc	r5, r0, lsr #4
   14550:	74736575 	ldrvcbt	r6, [r3], #-1397
   14554:	62206465 	eorvs	r6, r0, #1694498816	; 0x65000000
   14558:	69662079 	stmvsdb	r6!, {r0, r3, r4, r5, r6, sp}^
   1455c:	253d656c 	ldrcs	r6, [sp, #-1388]!
   14560:	00000a73 	andeq	r0, r0, r3, ror sl
   14564:	64616f6c 	strvsbt	r6, [r1], #-3948
   14568:	6c696620 	stcvsl	6, cr6, [r9], #-128
   1456c:	65726574 	ldrvsb	r6, [r2, #-1396]!
   14570:	626f2064 	rsbvs	r2, pc, #100	; 0x64
   14574:	7463656a 	strvcbt	r6, [r3], #-1386
   14578:	2073253d 	rsbcss	r2, r3, sp, lsr r5
   1457c:	75716572 	ldrvcb	r6, [r1, #-1394]!
   14580:	65747365 	ldrvsb	r7, [r4, #-869]!
   14584:	79622064 	stmvcdb	r2!, {r2, r5, r6, sp}^
   14588:	6c696620 	stcvsl	6, cr6, [r9], #-128
   1458c:	73253d65 	teqvc	r5, #6464	; 0x1940
   14590:	0000000a 	andeq	r0, r0, sl
   14594:	6e6e6163 	powvsez	f6, f6, f3
   14598:	6120746f 	teqvs	r0, pc, ror #8
   1459c:	636f6c6c 	cmnvs	pc, #27648	; 0x6c00
   145a0:	20657461 	rsbcs	r7, r5, r1, ror #8
   145a4:	65706564 	ldrvsb	r6, [r0, #-1380]!
   145a8:	6e65646e 	cdpvs	4, 6, cr6, cr5, cr14, {3}
   145ac:	6c207963 	stcvs	9, cr7, [r0], #-396
   145b0:	00747369 	rsbeqs	r7, r4, r9, ror #6
   145b4:	2d70616d 	ldfcse	f6, [r0, #-436]!
   145b8:	735f6c3e 	cmpvc	pc, #15872	; 0x3e00
   145bc:	63726165 	cmnvs	r2, #1073741849	; 0x40000019
   145c0:	73696c68 	cmnvc	r9, #26624	; 0x6800
   145c4:	5f722e74 	swipl	0x00722e74
   145c8:	7473696c 	ldrvcbt	r6, [r3], #-2412
   145cc:	203d3d20 	eorcss	r3, sp, r0, lsr #26
   145d0:	6f762828 	swivs	0x00762828
   145d4:	2a206469 	bcs	82d780 <__bss_end__+0x80fe90>
   145d8:	00293029 	eoreq	r3, r9, r9, lsr #32
   145dc:	6e6e6163 	powvsez	f6, f6, f3
   145e0:	6120746f 	teqvs	r0, pc, ror #8
   145e4:	636f6c6c 	cmnvs	pc, #27648	; 0x6c00
   145e8:	20657461 	rsbcs	r7, r5, r1, ror #8
   145ec:	626d7973 	rsbvs	r7, sp, #1884160	; 0x1cc000
   145f0:	73206c6f 	teqvc	r0, #28416	; 0x6f00
   145f4:	63726165 	cmnvs	r2, #1073741849	; 0x40000019
   145f8:	696c2068 	stmvsdb	ip!, {r3, r5, r6, sp}^
   145fc:	00007473 	andeq	r7, r0, r3, ror r4
   14600:	746c6946 	strvcbt	r6, [ip], #-2374
   14604:	20737265 	rsbcss	r7, r3, r5, ror #4
   14608:	20746f6e 	rsbcss	r6, r4, lr, ror #30
   1460c:	70707573 	rsbvcs	r7, r0, r3, ror r5
   14610:	6574726f 	ldrvsb	r7, [r4, #-623]!
   14614:	69772064 	ldmvsdb	r7!, {r2, r5, r6, sp}^
   14618:	4c206874 	stcmi	8, cr6, [r0], #-464
   1461c:	52545f44 	subpls	r5, r4, #272	; 0x110
   14620:	5f454341 	swipl	0x00454341
   14624:	4c455250 	sfmmi	f5, 2, [r5], {80}
   14628:	494b4e49 	stmmidb	fp, {r0, r3, r6, r9, sl, fp, lr}^
   1462c:	0000474e 	andeq	r4, r0, lr, asr #14
   14630:	20746e63 	rsbcss	r6, r4, r3, ror #28
   14634:	6e203d3c 	mcrvs	13, 1, r3, cr0, cr12, {1}
   14638:	7473696c 	ldrvcbt	r6, [r3], #-2412
   1463c:	00000000 	andeq	r0, r0, r0
   14640:	2d70616d 	ldfcse	f6, [r0, #-436]!
   14644:	735f6c3e 	cmpvc	pc, #15872	; 0x3e00
   14648:	63726165 	cmnvs	r2, #1073741849	; 0x40000019
   1464c:	73696c68 	cmnvc	r9, #26624	; 0x6800
   14650:	5f722e74 	swipl	0x00722e74
   14654:	7473696c 	ldrvcbt	r6, [r3], #-2412
   14658:	205d305b 	subcss	r3, sp, fp, asr r0
   1465c:	6d203d3d 	stcvs	13, cr3, [r0, #-244]!
   14660:	00007061 	andeq	r7, r0, r1, rrx
   14664:	65722828 	ldrvsb	r2, [r2, #-2088]!
   14668:	2d636f6c 	stccsl	15, cr6, [r3, #-432]!
   1466c:	695f723e 	ldmvsdb	pc, {r1, r2, r3, r4, r5, r9, ip, sp, lr}^
   14670:	296f666e 	stmcsdb	pc!, {r1, r2, r3, r5, r6, r9, sl, sp, lr}^
   14674:	30202620 	eorcc	r2, r0, r0, lsr #12
   14678:	29666678 	stmcsdb	r6!, {r3, r4, r5, r6, r9, sl, sp, lr}^
   1467c:	203d3d20 	eorcss	r3, sp, r0, lsr #26
   14680:	00003232 	andeq	r3, r0, r2, lsr r2
   14684:	722d6c64 	eorvc	r6, sp, #25600	; 0x6400
   14688:	69746e75 	ldmvsdb	r4!, {r0, r2, r4, r5, r6, r9, sl, fp, sp, lr}^
   1468c:	632e656d 	teqvs	lr, #457179136	; 0x1b400000
   14690:	00000000 	andeq	r0, r0, r0
   14694:	6f727265 	swivs	0x00727265
   14698:	68772072 	ldmvsda	r7!, {r1, r4, r5, r6, sp}^
   1469c:	20656c69 	rsbcs	r6, r5, r9, ror #24
   146a0:	64616f6c 	strvsbt	r6, [r1], #-3948
   146a4:	20676e69 	rsbcs	r6, r7, r9, ror #28
   146a8:	72616873 	rsbvc	r6, r1, #7536640	; 0x730000
   146ac:	6c206465 	cfstrsvs	mvf6, [r0], #-404
   146b0:	61726269 	cmnvs	r2, r9, ror #4
   146b4:	73656972 	cmnvc	r5, #1867776	; 0x1c8000
   146b8:	00000000 	andeq	r0, r0, r0
   146bc:	0000203a 	andeq	r2, r0, sl, lsr r0
   146c0:	203a7325 	eorcss	r7, sl, r5, lsr #6
   146c4:	203a7325 	eorcss	r7, sl, r5, lsr #6
   146c8:	73257325 	teqvc	r5, #-1811939328	; 0x94000000
   146cc:	73257325 	teqvc	r5, #-1811939328	; 0x94000000
   146d0:	000a7325 	andeq	r7, sl, r5, lsr #6
   146d4:	414e5944 	cmpmi	lr, r4, asr #18
   146d8:	2043494d 	subcs	r4, r3, sp, asr #18
   146dc:	4b4e494c 	blmi	13a6c14 <__bss_end__+0x1389324>
   146e0:	42205245 	eormi	r5, r0, #1342177284	; 0x50000004
   146e4:	21214755 	teqcs	r1, r5, asr r7
   146e8:	00000021 	andeq	r0, r0, r1, lsr #32
   146ec:	746e6f63 	strvcbt	r6, [lr], #-3939
   146f0:	65756e69 	ldrvsb	r6, [r5, #-3689]!
   146f4:	00000064 	andeq	r0, r0, r4, rrx
   146f8:	61746166 	cmnvs	r4, r6, ror #2
   146fc:	0000006c 	andeq	r0, r0, ip, rrx
   14700:	203a7325 	eorcss	r7, sl, r5, lsr #6
   14704:	6f727265 	swivs	0x00727265
   14708:	25203a72 	strcs	r3, [r0, #-2674]!
   1470c:	25203a73 	strcs	r3, [r0, #-2675]!
   14710:	25282073 	strcs	r2, [r8, #-115]!
   14714:	000a2973 	andeq	r2, sl, r3, ror r9
   14718:	6c61630a 	stcvsl	3, cr6, [r1], #-40
   1471c:	676e696c 	strvsb	r6, [lr, -ip, ror #18]!
   14720:	696e6920 	stmvsdb	lr!, {r5, r8, fp, sp, lr}^
   14724:	25203a74 	strcs	r3, [r0, #-2676]!
   14728:	000a0a73 	andeq	r0, sl, r3, ror sl
   1472c:	6c61630a 	stcvsl	3, cr6, [r1], #-40
   14730:	676e696c 	strvsb	r6, [lr, -ip, ror #18]!
   14734:	65727020 	ldrvsb	r7, [r2, #-32]!
   14738:	74696e69 	strvcbt	r6, [r9], #-3689
   1473c:	7325203a 	teqvc	r5, #58	; 0x3a
   14740:	00000a0a 	andeq	r0, r0, sl, lsl #20
   14744:	203c206a 	eorcss	r2, ip, sl, rrx
   14748:	70616d6e 	rsbvc	r6, r1, lr, ror #26
   1474c:	00000073 	andeq	r0, r0, r3, ror r0
   14750:	662d6c64 	strvst	r6, [sp], -r4, ror #24
   14754:	2e696e69 	cdpcs	14, 6, cr6, cr9, cr9, {3}
   14758:	00000063 	andeq	r0, r0, r3, rrx
   1475c:	2120736e 	teqcs	r0, lr, ror #6
   14760:	2030203d 	eorcss	r2, r0, sp, lsr r0
   14764:	6e207c7c 	mcrvs	12, 1, r7, cr0, cr12, {3}
   14768:	64616f6c 	strvsbt	r6, [r1], #-3948
   1476c:	3e206465 	cdpcc	4, 2, cr6, cr0, cr5, {3}
   14770:	00003020 	andeq	r3, r0, r0, lsr #32
   14774:	203c2069 	eorcss	r2, ip, r9, rrx
   14778:	616f6c6e 	cmnvs	pc, lr, ror #24
   1477c:	00646564 	rsbeq	r6, r4, r4, ror #10
   14780:	2120736e 	teqcs	r0, lr, ror #6
   14784:	2030203d 	eorcss	r2, r0, sp, lsr r0
   14788:	69207c7c 	stmvsdb	r0!, {r2, r3, r4, r5, r6, sl, fp, ip, sp, lr}
   1478c:	203d3d20 	eorcss	r3, sp, r0, lsr #26
   14790:	616f6c6e 	cmnvs	pc, lr, ror #24
   14794:	00646564 	rsbeq	r6, r4, r4, ror #10
   14798:	3d20736e 	stccc	3, cr7, [r0, #-440]!
   1479c:	2030203d 	eorcss	r2, r0, sp, lsr r0
   147a0:	69207c7c 	stmvsdb	r0!, {r2, r3, r4, r5, r6, sl, fp, ip, sp, lr}
   147a4:	203d3d20 	eorcss	r3, sp, r0, lsr #26
   147a8:	616f6c6e 	cmnvs	pc, lr, ror #24
   147ac:	20646564 	rsbcs	r6, r4, r4, ror #10
   147b0:	69207c7c 	stmvsdb	r0!, {r2, r3, r4, r5, r6, sl, fp, ip, sp, lr}
   147b4:	203d3d20 	eorcss	r3, sp, r0, lsr #26
   147b8:	616f6c6e 	cmnvs	pc, lr, ror #24
   147bc:	20646564 	rsbcs	r6, r4, r4, ror #10
   147c0:	0031202d 	eoreqs	r2, r1, sp, lsr #32
   147c4:	6c61630a 	stcvsl	3, cr6, [r1], #-40
   147c8:	676e696c 	strvsb	r6, [lr, -ip, ror #18]!
   147cc:	6e696620 	cdpvs	6, 6, cr6, cr9, cr0, {1}
   147d0:	25203a69 	strcs	r3, [r0, #-2665]!
   147d4:	255b2073 	ldrcsb	r2, [fp, #-115]
   147d8:	0a5d756c 	beq	1771d90 <__bss_end__+0x17544a0>
   147dc:	0000000a 	andeq	r0, r0, sl
   147e0:	6e75720a 	cdpvs	2, 7, cr7, cr5, cr10, {0}
   147e4:	656d6974 	strvsb	r6, [sp, #-2420]!
   147e8:	6e696c20 	cdpvs	12, 6, cr6, cr9, cr0, {1}
   147ec:	2072656b 	rsbcss	r6, r2, fp, ror #10
   147f0:	74617473 	strvcbt	r7, [r1], #-1139
   147f4:	69747369 	ldmvsdb	r4!, {r0, r3, r5, r6, r8, r9, ip, sp, lr}^
   147f8:	0a3a7363 	beq	eb158c <__bss_end__+0xe93c9c>
   147fc:	20202020 	eorcs	r2, r0, r0, lsr #32
   14800:	20202020 	eorcs	r2, r0, r0, lsr #32
   14804:	66202020 	strvst	r2, [r0], -r0, lsr #32
   14808:	6c616e69 	stcvsl	14, cr6, [r1], #-420
   1480c:	6d756e20 	ldcvsl	14, cr6, [r5, #-128]!
   14810:	20726562 	rsbcss	r6, r2, r2, ror #10
   14814:	7220666f 	eorvc	r6, r0, #116391936	; 0x6f00000
   14818:	636f6c65 	cmnvs	pc, #25856	; 0x6500
   1481c:	6f697461 	swivs	0x00697461
   14820:	203a736e 	eorcss	r7, sl, lr, ror #6
   14824:	0a756c25 	beq	1d6f8c0 <__bss_end__+0x1d51fd0>
   14828:	616e6966 	cmnvs	lr, r6, ror #18
   1482c:	756e206c 	strvcb	r2, [lr, #-108]!
   14830:	7265626d 	rsbvc	r6, r5, #-805306362	; 0xd0000006
   14834:	20666f20 	rsbcs	r6, r6, r0, lsr #30
   14838:	6f6c6572 	swivs	0x006c6572
   1483c:	69746163 	ldmvsdb	r4!, {r0, r1, r5, r6, r8, sp, lr}^
   14840:	20736e6f 	rsbcss	r6, r3, pc, ror #28
   14844:	6d6f7266 	sfmvs	f7, 2, [pc, #-408]!
   14848:	63616320 	cmnvs	r1, #-2147483648	; 0x80000000
   1484c:	203a6568 	eorcss	r6, sl, r8, ror #10
   14850:	0a756c25 	beq	1d6f8ec <__bss_end__+0x1d51ffc>
   14854:	00000000 	andeq	r0, r0, r0
   14858:	20646970 	rsbcs	r6, r4, r0, ror r9
   1485c:	30203d3e 	eorcc	r3, r0, lr, lsr sp
   14860:	20262620 	eorcs	r2, r6, r0, lsr #12
   14864:	657a6973 	ldrvsb	r6, [sl, #-2419]!
   14868:	2820666f 	stmcsda	r0!, {r0, r1, r2, r3, r5, r6, r9, sl, sp, lr}
   1486c:	5f646970 	swipl	0x00646970
   14870:	3c202974 	stccc	9, cr2, [r0], #-464
   14874:	0034203d 	eoreqs	r2, r4, sp, lsr r0
   14878:	6d2d6c64 	stcvs	12, cr6, [sp, #-400]!
   1487c:	2e637369 	cdpcs	3, 6, cr7, cr3, cr9, {3}
   14880:	00000063 	andeq	r0, r0, r3, rrx
   14884:	766f696e 	strvcbt	r6, [pc], -lr, ror #18
   14888:	36203c20 	strcct	r3, [r0], -r0, lsr #24
   1488c:	00000034 	andeq	r0, r0, r4, lsr r0
   14890:	69222021 	stmvsdb	r2!, {r0, r5, sp}
   14894:	6c61766e 	stcvsl	6, cr7, [r1], #-440
   14898:	66206469 	strvst	r6, [r0], -r9, ror #8
   1489c:	616d726f 	cmnvs	sp, pc, ror #4
   148a0:	70732074 	rsbvcs	r2, r3, r4, ror r0
   148a4:	66696365 	strvsbt	r6, [r9], -r5, ror #6
   148a8:	22726569 	rsbcss	r6, r2, #440401920	; 0x1a400000
   148ac:	00000000 	andeq	r0, r0, r0
   148b0:	63656863 	cmnvs	r5, #6488064	; 0x630000
   148b4:	676e696b 	strvsb	r6, [lr, -fp, ror #18]!
   148b8:	726f6620 	rsbvc	r6, pc, #33554432	; 0x2000000
   148bc:	72657620 	rsbvc	r7, r5, #33554432	; 0x2000000
   148c0:	6e6f6973 	mcrvs	9, 3, r6, cr15, cr3, {3}
   148c4:	73256020 	teqvc	r5, #32	; 0x20
   148c8:	6e692027 	cdpvs	0, 6, cr2, cr9, cr7, {1}
   148cc:	6c696620 	stcvsl	6, cr6, [r9], #-128
   148d0:	73252065 	teqvc	r5, #101	; 0x65
   148d4:	71657220 	cmnvc	r5, r0, lsr #4
   148d8:	65726975 	ldrvsb	r6, [r2, #-2421]!
   148dc:	79622064 	stmvcdb	r2!, {r2, r5, r6, sp}^
   148e0:	6c696620 	stcvsl	6, cr6, [r9], #-128
   148e4:	73252065 	teqvc	r5, #101	; 0x65
   148e8:	0000000a 	andeq	r0, r0, sl
   148ec:	76206f6e 	strvct	r6, [r0], -lr, ror #30
   148f0:	69737265 	ldmvsdb	r3!, {r0, r2, r5, r6, r9, ip, sp, lr}^
   148f4:	69206e6f 	stmvsdb	r0!, {r0, r1, r2, r3, r5, r6, r9, sl, fp, sp, lr}
   148f8:	726f666e 	rsbvc	r6, pc, #115343360	; 0x6e00000
   148fc:	6974616d 	ldmvsdb	r4!, {r0, r2, r3, r5, r6, r8, sp, lr}^
   14900:	61206e6f 	teqvs	r0, pc, ror #28
   14904:	6c696176 	stfvse	f6, [r9], #-472
   14908:	656c6261 	strvsb	r6, [ip, #-609]!
   1490c:	65722820 	ldrvsb	r2, [r2, #-2080]!
   14910:	72697571 	rsbvc	r7, r9, #473956352	; 0x1c400000
   14914:	62206465 	eorvs	r6, r0, #1694498816	; 0x65000000
   14918:	00002079 	andeq	r2, r0, r9, ror r0
   1491c:	5f666564 	swipl	0x00666564
   14920:	7366666f 	cmnvc	r6, #116391936	; 0x6f00000
   14924:	21207465 	teqcs	r0, r5, ror #8
   14928:	0030203d 	eoreqs	r2, r0, sp, lsr r0
   1492c:	762d6c64 	strvct	r6, [sp], -r4, ror #24
   14930:	69737265 	ldmvsdb	r3!, {r0, r2, r5, r6, r9, ip, sp, lr}^
   14934:	632e6e6f 	teqvs	lr, #1776	; 0x6f0
   14938:	00000000 	andeq	r0, r0, r0
   1493c:	75736e75 	ldrvcb	r6, [r3, #-3701]!
   14940:	726f7070 	rsbvc	r7, pc, #112	; 0x70
   14944:	20646574 	rsbcs	r6, r4, r4, ror r5
   14948:	73726576 	cmnvc	r2, #494927872	; 0x1d800000
   1494c:	206e6f69 	rsbcs	r6, lr, r9, ror #30
   14950:	00000000 	andeq	r0, r0, r0
   14954:	20666f20 	rsbcs	r6, r6, r0, lsr #30
   14958:	64726556 	ldrvsbt	r6, [r2], #-1366
   1495c:	72206665 	eorvc	r6, r0, #105906176	; 0x6500000
   14960:	726f6365 	rsbvc	r6, pc, #-1811939327	; 0x94000001
   14964:	00000064 	andeq	r0, r0, r4, rrx
   14968:	6b616577 	blvs	186df4c <__bss_end__+0x185065c>
   1496c:	72657620 	rsbvc	r7, r5, #33554432	; 0x2000000
   14970:	6e6f6973 	mcrvs	9, 3, r6, cr15, cr3, {3}
   14974:	00006020 	andeq	r6, r0, r0, lsr #32
   14978:	6f6e2027 	swivs	0x006e2027
   1497c:	6f662074 	swivs	0x00662074
   14980:	20646e75 	rsbcs	r6, r4, r5, ror lr
   14984:	71657228 	cmnvc	r5, r8, lsr #4
   14988:	65726975 	ldrvsb	r6, [r2, #-2421]!
   1498c:	79622064 	stmvcdb	r2!, {r2, r5, r6, sp}^
   14990:	00000020 	andeq	r0, r0, r0, lsr #32
   14994:	73726576 	cmnvc	r2, #494927872	; 0x1d800000
   14998:	206e6f69 	rsbcs	r6, lr, r9, ror #30
   1499c:	00000060 	andeq	r0, r0, r0, rrx
   149a0:	20666f20 	rsbcs	r6, r6, r0, lsr #30
   149a4:	6e726556 	mrcvs	5, 3, r6, cr2, cr6, {2}
   149a8:	20646565 	rsbcs	r6, r4, r5, ror #10
   149ac:	6f636572 	swivs	0x00636572
   149b0:	000a6472 	andeq	r6, sl, r2, ror r4
   149b4:	6465656e 	strvsbt	r6, [r5], #-1390
   149b8:	21206465 	teqcs	r0, r5, ror #8
   149bc:	2828203d 	stmcsda	r8!, {r0, r2, r3, r4, r5, sp}
   149c0:	64696f76 	strvsbt	r6, [r9], #-3958
   149c4:	30292a20 	eorcc	r2, r9, r0, lsr #20
   149c8:	00000029 	andeq	r0, r0, r9, lsr #32
   149cc:	6e6e6163 	powvsez	f6, f6, f3
   149d0:	6120746f 	teqvs	r0, pc, ror #8
   149d4:	636f6c6c 	cmnvs	pc, #27648	; 0x6c00
   149d8:	20657461 	rsbcs	r7, r5, r1, ror #8
   149dc:	73726576 	cmnvc	r2, #494927872	; 0x1d800000
   149e0:	206e6f69 	rsbcs	r6, lr, r9, ror #30
   149e4:	65666572 	strvsb	r6, [r6, #-1394]!
   149e8:	636e6572 	cmnvs	lr, #478150656	; 0x1c800000
   149ec:	61742065 	cmnvs	r4, r5, rrx
   149f0:	00656c62 	rsbeq	r6, r5, r2, ror #24
   149f4:	6f636573 	swivs	0x00636573
   149f8:	0073646e 	rsbeqs	r6, r3, lr, ror #8
   149fc:	6f72702e 	swivs	0x0072702e
   14a00:	656c6966 	strvsb	r6, [ip, #-2406]!
   14a04:	00000000 	andeq	r0, r0, r0
   14a08:	203a7325 	eorcss	r7, sl, r5, lsr #6
   14a0c:	6e6e6163 	powvsez	f6, f6, f3
   14a10:	6f20746f 	swivs	0x0020746f
   14a14:	206e6570 	rsbcs	r6, lr, r0, ror r5
   14a18:	656c6966 	strvsb	r6, [ip, #-2406]!
   14a1c:	7325203a 	teqvc	r5, #58	; 0x3a
   14a20:	0000000a 	andeq	r0, r0, sl
   14a24:	203a7325 	eorcss	r7, sl, r5, lsr #6
   14a28:	6e6e6163 	powvsez	f6, f6, f3
   14a2c:	7320746f 	teqvc	r0, #1862270976	; 0x6f000000
   14a30:	20746174 	rsbcss	r6, r4, r4, ror r1
   14a34:	656c6966 	strvsb	r6, [ip, #-2406]!
   14a38:	7325203a 	teqvc	r5, #58	; 0x3a
   14a3c:	0000000a 	andeq	r0, r0, sl
   14a40:	203a7325 	eorcss	r7, sl, r5, lsr #6
   14a44:	6e6e6163 	powvsez	f6, f6, f3
   14a48:	6320746f 	teqvs	r0, #1862270976	; 0x6f000000
   14a4c:	74616572 	strvcbt	r6, [r1], #-1394
   14a50:	69662065 	stmvsdb	r6!, {r0, r2, r5, r6, sp}^
   14a54:	203a656c 	eorcss	r6, sl, ip, ror #10
   14a58:	000a7325 	andeq	r7, sl, r5, lsr #6
   14a5c:	203a7325 	eorcss	r7, sl, r5, lsr #6
   14a60:	656c6966 	strvsb	r6, [ip, #-2406]!
   14a64:	20736920 	rsbcss	r6, r3, r0, lsr #18
   14a68:	63206f6e 	teqvs	r0, #440	; 0x1b8
   14a6c:	6572726f 	ldrvsb	r7, [r2, #-623]!
   14a70:	70207463 	eorvc	r7, r0, r3, ror #8
   14a74:	69666f72 	stmvsdb	r6!, {r1, r4, r5, r6, r8, r9, sl, fp, sp, lr}^
   14a78:	6420656c 	strvst	r6, [r0], #-1388
   14a7c:	20617461 	rsbcs	r7, r1, r1, ror #8
   14a80:	656c6966 	strvsb	r6, [ip, #-2406]!
   14a84:	726f6620 	rsbvc	r6, pc, #33554432	; 0x2000000
   14a88:	73256020 	teqvc	r5, #32	; 0x20
   14a8c:	00000a27 	andeq	r0, r0, r7, lsr #20
   14a90:	203a7325 	eorcss	r7, sl, r5, lsr #6
   14a94:	6e6e6163 	powvsez	f6, f6, f3
   14a98:	6d20746f 	cfstrsvs	mvf7, [r0, #-444]!
   14a9c:	66207061 	strvst	r7, [r0], -r1, rrx
   14aa0:	3a656c69 	bcc	196fc4c <__bss_end__+0x195235c>
   14aa4:	0a732520 	beq	1cddf2c <__bss_end__+0x1cc063c>
   14aa8:	00000000 	andeq	r0, r0, r0
   14aac:	2074754f 	rsbcss	r7, r4, pc, asr #10
   14ab0:	6d20666f 	stcvs	6, cr6, [r0, #-444]!
   14ab4:	726f6d65 	rsbvc	r6, pc, #6464	; 0x1940
   14ab8:	68772079 	ldmvsda	r7!, {r0, r3, r4, r5, r6, sp}^
   14abc:	20656c69 	rsbcs	r6, r5, r9, ror #24
   14ac0:	74696e69 	strvcbt	r6, [r9], #-3689
   14ac4:	696c6169 	stmvsdb	ip!, {r0, r3, r5, r6, r8, sp, lr}^
   14ac8:	676e697a 	undefined
   14acc:	6f727020 	swivs	0x00727020
   14ad0:	656c6966 	strvsb	r6, [ip, #-2406]!
   14ad4:	00000a72 	andeq	r0, r0, r2, ror sl
   14ad8:	6e6f630a 	cdpvs	3, 6, cr6, cr15, cr10, {0}
   14adc:	63696c66 	cmnvs	r9, #26112	; 0x6600
   14ae0:	72702074 	rsbvcs	r2, r0, #116	; 0x74
   14ae4:	7365636f 	cmnvc	r5, #-1140850687	; 0xbc000001
   14ae8:	676e6973 	undefined
   14aec:	7325203a 	teqvc	r5, #58	; 0x3a
   14af0:	0000000a 	andeq	r0, r0, sl
   14af4:	6c3e2d6c 	ldcvs	13, cr2, [lr], #-432
   14af8:	20736e5f 	rsbcss	r6, r3, pc, asr lr
   14afc:	30203d3d 	eorcc	r3, r0, sp, lsr sp
   14b00:	00000000 	andeq	r0, r0, r0
   14b04:	632d6c64 	teqvs	sp, #25600	; 0x6400
   14b08:	6c666e6f 	stcvsl	14, cr6, [r6], #-444
   14b0c:	2e746369 	cdpcs	3, 7, cr6, cr4, cr9, {3}
   14b10:	00000063 	andeq	r0, r0, r3, rrx
   14b14:	6f72702f 	swivs	0x0072702f
   14b18:	65732f63 	ldrvsb	r2, [r3, #-3939]!
   14b1c:	652f666c 	strvs	r6, [pc, #-1644]!	; 144b8 <__clz_tab+0x1a2c>
   14b20:	00006578 	andeq	r6, r0, r8, ror r5
   14b24:	6b6e696c 	blvs	1baf0dc <__bss_end__+0x1b917ec>
   14b28:	5b6c6176 	blpl	1b2d108 <__bss_end__+0x1b0f818>
   14b2c:	3d205d30 	stccc	13, cr5, [r0, #-192]!
   14b30:	2f27203d 	swics	0x0027203d
   14b34:	00000027 	andeq	r0, r0, r7, lsr #32
   14b38:	732f2e2e 	teqvc	pc, #736	; 0x2e0
   14b3c:	65647379 	strvsb	r7, [r4, #-889]!
   14b40:	752f7370 	strvc	r7, [pc, #-880]!	; 147d8 <__clz_tab+0x1d4c>
   14b44:	2f78696e 	swics	0x0078696e
   14b48:	76737973 	undefined
   14b4c:	6e696c2f 	cdpvs	12, 6, cr6, cr9, cr15, {1}
   14b50:	642f7875 	strvst	r7, [pc], #2165	; 14b58 <__clz_tab+0x20cc>
   14b54:	726f2d6c 	rsbvc	r2, pc, #6912	; 0x1b00
   14b58:	6e696769 	cdpvs	7, 6, cr6, cr9, cr9, {3}
   14b5c:	0000632e 	andeq	r6, r0, lr, lsr #6
   14b60:	0000002f 	andeq	r0, r0, pc, lsr #32
   14b64:	6f72702f 	swivs	0x0072702f
   14b68:	79732f63 	ldmvcdb	r3!, {r0, r1, r5, r6, r8, r9, sl, fp, sp}^
   14b6c:	656b2f73 	strvsb	r2, [fp, #-3955]!
   14b70:	6c656e72 	stcvsl	14, cr6, [r5], #-456
   14b74:	72736f2f 	rsbvcs	r6, r3, #188	; 0xbc
   14b78:	61656c65 	cmnvs	r5, r5, ror #24
   14b7c:	00006573 	andeq	r6, r0, r3, ror r5
   14b80:	41544146 	cmpmi	r4, r6, asr #2
   14b84:	63203a4c 	teqvs	r0, #311296	; 0x4c000
   14b88:	6f6e6e61 	swivs	0x006e6e61
   14b8c:	65642074 	strvsb	r2, [r4, #-116]!
   14b90:	6d726574 	cfldr64vs	mvdx6, [r2, #-464]!
   14b94:	20656e69 	rsbcs	r6, r5, r9, ror #28
   14b98:	6e72656b 	cdpvs	5, 7, cr6, cr2, cr11, {3}
   14b9c:	76206c65 	strvct	r6, [r0], -r5, ror #24
   14ba0:	69737265 	ldmvsdb	r3!, {r0, r2, r5, r6, r9, ip, sp, lr}^
   14ba4:	000a6e6f 	andeq	r6, sl, pc, ror #28
   14ba8:	41544146 	cmpmi	r4, r6, asr #2
   14bac:	6b203a4c 	blvs	8234e4 <__bss_end__+0x805bf4>
   14bb0:	656e7265 	strvsb	r7, [lr, #-613]!
   14bb4:	6f74206c 	swivs	0x0074206c
   14bb8:	6c6f206f 	stcvsl	0, cr2, [pc], #-444
   14bbc:	00000a64 	andeq	r0, r0, r4, ror #20
   14bc0:	485f5441 	ldmmida	pc, {r0, r6, sl, ip, lr}^
   14bc4:	50414357 	subpl	r4, r1, r7, asr r3
   14bc8:	2020203a 	eorcs	r2, r0, sl, lsr r0
   14bcc:	00000000 	andeq	r0, r0, r0
   14bd0:	00732520 	rsbeqs	r2, r3, r0, lsr #10
   14bd4:	3f5f5441 	swicc	0x005f5441
   14bd8:	28203f3f 	stmcsda	r0!, {r0, r1, r2, r3, r4, r5, r8, r9, sl, fp, ip, sp}
   14bdc:	73257830 	teqvc	r5, #3145728	; 0x300000
   14be0:	30203a29 	eorcc	r3, r0, r9, lsr #20
   14be4:	0a732578 	beq	1cde1cc <__bss_end__+0x1cc08dc>
   14be8:	00000000 	andeq	r0, r0, r0
   14bec:	3d3d206d 	ldccc	0, cr2, [sp, #-436]!
   14bf0:	746e6320 	strvcbt	r6, [lr], #-800
   14bf4:	00000000 	andeq	r0, r0, r0
   14bf8:	732f2e2e 	teqvc	pc, #736	; 0x2e0
   14bfc:	65647379 	strvsb	r7, [r4, #-889]!
   14c00:	672f7370 	undefined
   14c04:	72656e65 	rsbvc	r6, r5, #1616	; 0x650
   14c08:	642f6369 	strvst	r6, [pc], #873	; 14c10 <__clz_tab+0x2184>
   14c0c:	79732d6c 	ldmvcdb	r3!, {r2, r3, r5, r6, r8, sl, fp, sp}^
   14c10:	70656473 	rsbvc	r6, r5, r3, ror r4
   14c14:	0000632e 	andeq	r6, r0, lr, lsr #6
   14c18:	6e6e6163 	powvsez	f6, f6, f3
   14c1c:	6320746f 	teqvs	r0, #1862270976	; 0x6f000000
   14c20:	74616572 	strvcbt	r6, [r1], #-1394
   14c24:	61632065 	cmnvs	r3, r5, rrx
   14c28:	69626170 	stmvsdb	r2!, {r4, r5, r6, r8, sp, lr}^
   14c2c:	7974696c 	ldmvcdb	r4!, {r2, r3, r5, r6, r8, fp, sp, lr}^
   14c30:	73696c20 	cmnvc	r9, #8192	; 0x2000
   14c34:	00000074 	andeq	r0, r0, r4, ror r0
   14c38:	6f636e49 	swivs	0x00636e49
   14c3c:	7369736e 	cmnvc	r9, #-1207959551	; 0xb8000001
   14c40:	636e6574 	cmnvs	lr, #486539264	; 0x1d000000
   14c44:	65642079 	strvsb	r2, [r4, #-121]!
   14c48:	74636574 	strvcbt	r6, [r3], #-1396
   14c4c:	62206465 	eorvs	r6, r0, #1694498816	; 0x65000000
   14c50:	646c2079 	strvsbt	r2, [ip], #-121
   14c54:	3a6f732e 	bcc	1bf1914 <__bss_end__+0x1bd4024>
   14c58:	3a732520 	bcc	1cde0e0 <__bss_end__+0x1cc07f0>
   14c5c:	3a752520 	bcc	1d5e0e4 <__bss_end__+0x1d407f4>
   14c60:	25732520 	ldrcsb	r2, [r3, #-1312]!
   14c64:	73734173 	cmnvc	r3, #-1073741796	; 0xc000001c
   14c68:	69747265 	ldmvsdb	r4!, {r0, r2, r5, r6, r9, ip, sp, lr}^
   14c6c:	60206e6f 	eorvs	r6, r0, pc, ror #28
   14c70:	20277325 	eorcs	r7, r7, r5, lsr #6
   14c74:	6c696166 	stfvse	f6, [r9], #-408
   14c78:	0a216465 	beq	86de14 <__bss_end__+0x850524>
   14c7c:	00000000 	andeq	r0, r0, r0
   14c80:	65676170 	strvsb	r6, [r7, #-368]!
   14c84:	203d2120 	eorcss	r2, sp, r0, lsr #2
   14c88:	6f762828 	swivs	0x00762828
   14c8c:	2a206469 	bcs	82de38 <__bss_end__+0x810548>
   14c90:	312d2029 	teqcc	sp, r9, lsr #32
   14c94:	00000029 	andeq	r0, r0, r9, lsr #32
   14c98:	6d2d6c64 	stcvs	12, cr6, [sp, #-400]!
   14c9c:	6d696e69 	stcvsl	14, cr6, [r9, #-420]!
   14ca0:	632e6c61 	teqvs	lr, #24832	; 0x6100
   14ca4:	00000000 	andeq	r0, r0, r0
   14ca8:	20727470 	rsbcss	r7, r2, r0, ror r4
   14cac:	61203d3d 	teqvs	r0, sp, lsr sp
   14cb0:	636f6c6c 	cmnvs	pc, #27648	; 0x6c00
   14cb4:	73616c5f 	cmnvc	r1, #24320	; 0x5f00
   14cb8:	6c625f74 	stcvsl	15, cr5, [r2], #-464
   14cbc:	006b636f 	rsbeq	r6, fp, pc, ror #6
   14cc0:	2077656e 	rsbcss	r6, r7, lr, ror #10
   14cc4:	70203d3d 	eorvc	r3, r0, sp, lsr sp
   14cc8:	00007274 	andeq	r7, r0, r4, ror r2
   14ccc:	6e6e6143 	powvsem	f6, f6, f3
   14cd0:	6120746f 	teqvs	r0, pc, ror #8
   14cd4:	636f6c6c 	cmnvs	pc, #27648	; 0x6c00
   14cd8:	20657461 	rsbcs	r7, r5, r1, ror #8
   14cdc:	6f6d656d 	swivs	0x006d656d
   14ce0:	00007972 	andeq	r7, r0, r2, ror r9
   14ce4:	61766e49 	cmnvs	r6, r9, asr #28
   14ce8:	2064696c 	rsbcs	r6, r4, ip, ror #18
   14cec:	75677261 	strvcb	r7, [r7, #-609]!
   14cf0:	746e656d 	strvcbt	r6, [lr], #-1389
   14cf4:	00000000 	andeq	r0, r0, r0
   14cf8:	73206f4e 	teqvc	r0, #312	; 0x138
   14cfc:	20686375 	rsbcs	r6, r8, r5, ror r3
   14d00:	656c6966 	strvsb	r6, [ip, #-2406]!
   14d04:	20726f20 	rsbcss	r6, r2, r0, lsr #30
   14d08:	65726964 	ldrvsb	r6, [r2, #-2404]!
   14d0c:	726f7463 	rsbvc	r7, pc, #1660944384	; 0x63000000
   14d10:	00000079 	andeq	r0, r0, r9, ror r0
   14d14:	7265704f 	rsbvc	r7, r5, #79	; 0x4f
   14d18:	6f697461 	swivs	0x00697461
   14d1c:	6f6e206e 	swivs	0x006e206e
   14d20:	65702074 	ldrvsb	r2, [r0, #-116]!
   14d24:	74696d72 	strvcbt	r6, [r9], #-3442
   14d28:	00646574 	rsbeq	r6, r4, r4, ror r5
   14d2c:	75706e49 	ldrvcb	r6, [r0, #-3657]!
   14d30:	756f2f74 	strvcb	r2, [pc, #-3956]!	; 13dc4 <__clz_tab+0x1338>
   14d34:	74757074 	ldrvcbt	r7, [r5], #-116
   14d38:	72726520 	rsbvcs	r6, r2, #134217728	; 0x8000000
   14d3c:	0000726f 	andeq	r7, r0, pc, ror #4
   14d40:	6d726550 	cfldr64vs	mvdx6, [r2, #-320]!
   14d44:	69737369 	ldmvsdb	r3!, {r0, r3, r5, r6, r8, r9, ip, sp, lr}^
   14d48:	64206e6f 	strvst	r6, [r0], #-3695
   14d4c:	65696e65 	strvsb	r6, [r9, #-3685]!
   14d50:	00000064 	andeq	r0, r0, r4, rrx
   14d54:	6f727245 	swivs	0x00727245
   14d58:	00002072 	andeq	r2, r0, r2, ror r0
   14d5c:	6f636e49 	swivs	0x00636e49
   14d60:	7369736e 	cmnvc	r9, #-1207959551	; 0xb8000001
   14d64:	636e6574 	cmnvs	lr, #486539264	; 0x1d000000
   14d68:	65642079 	strvsb	r2, [r4, #-121]!
   14d6c:	74636574 	strvcbt	r6, [r3], #-1396
   14d70:	62206465 	eorvs	r6, r0, #1694498816	; 0x65000000
   14d74:	646c2079 	strvsbt	r2, [ip], #-121
   14d78:	3a6f732e 	bcc	1bf1a38 <__bss_end__+0x1bd4148>
   14d7c:	3a732520 	bcc	1cde204 <__bss_end__+0x1cc0914>
   14d80:	3a752520 	bcc	1d5e208 <__bss_end__+0x1d40918>
   14d84:	25732520 	ldrcsb	r2, [r3, #-1312]!
   14d88:	656e5573 	strvsb	r5, [lr, #-1395]!
   14d8c:	63657078 	cmnvs	r5, #120	; 0x78
   14d90:	20646574 	rsbcs	r6, r4, r4, ror r5
   14d94:	6f727265 	swivs	0x00727265
   14d98:	25203a72 	strcs	r3, [r0, #-2674]!
   14d9c:	000a2e73 	andeq	r2, sl, r3, ror lr
   14da0:	65736162 	ldrvsb	r6, [r3, #-354]!
   14da4:	203d3d20 	eorcss	r3, sp, r0, lsr #26
   14da8:	00000030 	andeq	r0, r0, r0, lsr r0
   14dac:	70752021 	rsbvcs	r2, r5, r1, lsr #32
   14db0:	5f726570 	swipl	0x00726570
   14db4:	65736163 	ldrvsb	r6, [r3, #-355]!
   14db8:	00000000 	andeq	r0, r0, r0
   14dbc:	696c6564 	stmvsdb	ip!, {r2, r5, r6, r8, sl, sp, lr}^
   14dc0:	5d305b6d 	fldmdbxpl	r0!, {d5-d58}
   14dc4:	203d2120 	eorcss	r2, sp, r0, lsr #2
   14dc8:	27305c27 	ldrcs	r5, [r0, -r7, lsr #24]!
   14dcc:	00000000 	andeq	r0, r0, r0
   14dd0:	7665642f 	strvcbt	r6, [r5], -pc, lsr #8
   14dd4:	6c756e2f 	ldcvsl	14, cr6, [r5], #-188
   14dd8:	0000006c 	andeq	r0, r0, ip, rrx
   14ddc:	646c7472 	strvsbt	r7, [ip], #-1138
   14de0:	7272655f 	rsbvcs	r6, r2, #398458880	; 0x17c00000
   14de4:	21206f6e 	teqcs	r0, lr, ror #30
   14de8:	3433203d 	ldrcct	r2, [r3], #-61
   14dec:	207c7c20 	rsbcss	r7, ip, r0, lsr #24
   14df0:	20667562 	rsbcs	r7, r6, r2, ror #10
   14df4:	28203d21 	stmcsda	r0!, {r0, r5, r8, sl, fp, ip, sp}
   14df8:	696f7628 	stmvsdb	pc!, {r3, r5, r9, sl, ip, sp, lr}^
   14dfc:	292a2064 	stmcsdb	sl!, {r2, r5, r6, sp}
   14e00:	7c202930 	stcvc	9, cr2, [r0], #-192
   14e04:	6973207c 	ldmvsdb	r3!, {r2, r3, r4, r5, r6, sp}^
   14e08:	2120657a 	teqcs	r0, sl, ror r5
   14e0c:	0030203d 	eoreqs	r2, r0, sp, lsr r0
   14e10:	732f2e2e 	teqvc	pc, #736	; 0x2e0
   14e14:	65647379 	strvsb	r7, [r4, #-889]!
   14e18:	752f7370 	strvc	r7, [pc, #-880]!	; 14ab0 <__clz_tab+0x2024>
   14e1c:	2f78696e 	swics	0x0078696e
   14e20:	76737973 	undefined
   14e24:	6e696c2f 	cdpvs	12, 6, cr6, cr9, cr15, {1}
   14e28:	672f7875 	undefined
   14e2c:	77637465 	strvcb	r7, [r3, -r5, ror #8]!
   14e30:	00632e64 	rsbeq	r2, r3, r4, ror #28
Disassembly of section .data:

0001d000 <_rtld_global>:
	...
   1d18c:	00000001 	andeq	r0, r0, r1
	...
   1d3e0:	00000007 	andeq	r0, r0, r7
   1d3e4:	00000000 	andeq	r0, r0, r0

0001d3e8 <__stack_prot>:
   1d3e8:	01000000 	tsteq	r0, r0

0001d3ec <_rtld_global_ro>:
	...
   1d410:	00000002 	andeq	r0, r0, r2
   1d414:	00000001 	andeq	r0, r0, r1
	...
   1d424:	00000003 	andeq	r0, r0, r3
   1d428:	00000000 	andeq	r0, r0, r0
   1d42c:	00000012 	andeq	r0, r0, r2, lsl r0
   1d430:	00707773 	rsbeqs	r7, r0, r3, ror r7
   1d434:	00000000 	andeq	r0, r0, r0
   1d438:	61680000 	cmnvs	r8, r0
   1d43c:	0000666c 	andeq	r6, r0, ip, ror #12
   1d440:	00000000 	andeq	r0, r0, r0
   1d444:	6d756874 	ldcvsl	8, cr6, [r5, #-464]!
   1d448:	00000062 	andeq	r0, r0, r2, rrx
   1d44c:	36320000 	ldrcct	r0, [r2], -r0
   1d450:	00746962 	rsbeqs	r6, r4, r2, ror #18
   1d454:	00000000 	andeq	r0, r0, r0
   1d458:	74736166 	ldrvcbt	r6, [r3], #-358
   1d45c:	6c756d2d 	ldcvsl	13, cr6, [r5], #-180
   1d460:	70660074 	rsbvc	r0, r6, r4, ror r0
   1d464:	00000061 	andeq	r0, r0, r1, rrx
   1d468:	00000000 	andeq	r0, r0, r0
   1d46c:	00706676 	rsbeqs	r6, r0, r6, ror r6
   1d470:	00000000 	andeq	r0, r0, r0
   1d474:	64650000 	strvsbt	r0, [r5]
   1d478:	00007073 	andeq	r7, r0, r3, ror r0
	...
   1d488:	fffffffe 	swinv	0x00fffffe
	...
   1d4a0:	0000e2d8 	ldreqd	lr, [r0], -r8
   1d4a4:	00004050 	andeq	r4, r0, r0, asr r0
   1d4a8:	00004124 	andeq	r4, r0, r4, lsr #2
   1d4ac:	000068b4 	streqh	r6, [r0], -r4
   1d4b0:	0000a66c 	andeq	sl, r0, ip, ror #12
   1d4b4:	00008be0 	andeq	r8, r0, r0, ror #23
   1d4b8:	0000cd80 	andeq	ip, r0, r0, lsl #27
   1d4bc:	0000bd08 	andeq	fp, r0, r8, lsl #26
   1d4c0:	0000c418 	andeq	ip, r0, r8, lsl r4
   1d4c4:	00007900 	andeq	r7, r0, r0, lsl #18
   1d4c8:	0000c86c 	andeq	ip, r0, ip, ror #16
   1d4cc:	0000ba9c 	muleq	r0, ip, sl
   1d4d0:	0000b82c 	andeq	fp, r0, ip, lsr #16
   1d4d4:	0000d2c4 	andeq	sp, r0, r4, asr #5
   1d4d8:	0000da94 	muleq	r0, r4, sl
   1d4dc:	00007fbc 	streqh	r7, [r0], -ip
   1d4e0:	0000e634 	andeq	lr, r0, r4, lsr r6
Disassembly of section .dynamic:

0001d4e4 <.dynamic>:
   1d4e4:	0000000e 	andeq	r0, r0, lr
   1d4e8:	000000e2 	andeq	r0, r0, r2, ror #1
   1d4ec:	00000004 	andeq	r0, r0, r4
   1d4f0:	00000094 	muleq	r0, r4, r0
   1d4f4:	00000005 	andeq	r0, r0, r5
   1d4f8:	00000464 	andeq	r0, r0, r4, ror #8
   1d4fc:	00000006 	andeq	r0, r0, r6
   1d500:	000001d4 	ldreqd	r0, [r0], -r4
   1d504:	0000000a 	andeq	r0, r0, sl
   1d508:	0000011c 	andeq	r0, r0, ip, lsl r1
   1d50c:	0000000b 	andeq	r0, r0, fp
   1d510:	00000010 	andeq	r0, r0, r0, lsl r0
   1d514:	00000003 	andeq	r0, r0, r3
   1d518:	0001d594 	muleq	r1, r4, r5
   1d51c:	00000002 	andeq	r0, r0, r2
   1d520:	00000020 	andeq	r0, r0, r0, lsr #32
   1d524:	00000014 	andeq	r0, r0, r4, lsl r0
   1d528:	00000011 	andeq	r0, r0, r1, lsl r0
   1d52c:	00000017 	andeq	r0, r0, r7, lsl r0
   1d530:	00000b60 	andeq	r0, r0, r0, ror #22
   1d534:	00000011 	andeq	r0, r0, r1, lsl r0
   1d538:	00000678 	andeq	r0, r0, r8, ror r6
   1d53c:	00000012 	andeq	r0, r0, r2, lsl r0
   1d540:	000004e8 	andeq	r0, r0, r8, ror #9
   1d544:	00000013 	andeq	r0, r0, r3, lsl r0
   1d548:	00000008 	andeq	r0, r0, r8
   1d54c:	6ffffffc 	swivs	0x00fffffc
   1d550:	000005d4 	ldreqd	r0, [r0], -r4
   1d554:	6ffffffd 	swivs	0x00fffffd
   1d558:	00000005 	andeq	r0, r0, r5
   1d55c:	6ffffff0 	swivs	0x00fffff0
   1d560:	00000580 	andeq	r0, r0, r0, lsl #11
   1d564:	6ffffffa 	swivs	0x00fffffa
   1d568:	0000009b 	muleq	r0, fp, r0
	...
Disassembly of section .got:

0001d594 <.got>:
   1d594:	0001d4e4 	andeq	sp, r1, r4, ror #9
	...
   1d5a0:	00000b80 	andeq	r0, r0, r0, lsl #23
   1d5a4:	00000b80 	andeq	r0, r0, r0, lsl #23
   1d5a8:	00000b80 	andeq	r0, r0, r0, lsl #23
   1d5ac:	00000b80 	andeq	r0, r0, r0, lsl #23
   1d5b0:	00000d08 	andeq	r0, r0, r8, lsl #26
   1d5b4:	000018b0 	streqh	r1, [r0], -r0
   1d5b8:	00012050 	andeq	r2, r1, r0, asr r0
   1d5bc:	0001205c 	andeq	r2, r1, ip, asr r0
   1d5c0:	0001d7e4 	andeq	sp, r1, r4, ror #15
   1d5c4:	0001d7e8 	andeq	sp, r1, r8, ror #15
   1d5c8:	0001d7ec 	andeq	sp, r1, ip, ror #15
   1d5cc:	0001206c 	andeq	r2, r1, ip, rrx
   1d5d0:	00012084 	andeq	r2, r1, r4, lsl #1
   1d5d4:	00001698 	muleq	r0, r8, r6
   1d5d8:	000016bc 	streqh	r1, [r0], -ip
   1d5dc:	000016fc 	streqd	r1, [r0], -ip
   1d5e0:	0001d7f0 	streqd	sp, [r1], -r0
   1d5e4:	00001890 	muleq	r0, r0, r8
   1d5e8:	000018a0 	andeq	r1, r0, r0, lsr #17
   1d5ec:	00012098 	muleq	r1, r8, r0
   1d5f0:	000120a0 	andeq	r2, r1, r0, lsr #1
   1d5f4:	000120b8 	streqh	r2, [r1], -r8
   1d5f8:	0001d80c 	andeq	sp, r1, ip, lsl #16
   1d5fc:	0001d7f4 	streqd	sp, [r1], -r4
   1d600:	0001d800 	andeq	sp, r1, r0, lsl #16
   1d604:	0001d810 	andeq	sp, r1, r0, lsl r8
   1d608:	00003504 	andeq	r3, r0, r4, lsl #10
   1d60c:	000034a0 	andeq	r3, r0, r0, lsr #9
   1d610:	0001d814 	andeq	sp, r1, r4, lsl r8
   1d614:	000120cc 	andeq	r2, r1, ip, asr #1
   1d618:	0001d818 	andeq	sp, r1, r8, lsl r8
   1d61c:	000122fc 	streqd	r2, [r1], -ip
   1d620:	00012408 	andeq	r2, r1, r8, lsl #8
   1d624:	00012418 	andeq	r2, r1, r8, lsl r4
   1d628:	00012420 	andeq	r2, r1, r0, lsr #8
   1d62c:	0001243c 	andeq	r2, r1, ip, lsr r4
   1d630:	00012450 	andeq	r2, r1, r0, asr r4
   1d634:	0001d828 	andeq	sp, r1, r8, lsr #16
   1d638:	0001d838 	andeq	sp, r1, r8, lsr r8
   1d63c:	00012454 	andeq	r2, r1, r4, asr r4
   1d640:	0001d82c 	andeq	sp, r1, ip, lsr #16
   1d644:	0001d824 	andeq	sp, r1, r4, lsr #16
   1d648:	0001d830 	andeq	sp, r1, r0, lsr r8
   1d64c:	0001d81c 	andeq	sp, r1, ip, lsl r8
   1d650:	00012464 	andeq	r2, r1, r4, ror #8
   1d654:	0001246c 	andeq	r2, r1, ip, ror #8
   1d658:	00012490 	muleq	r1, r0, r4
   1d65c:	0001249c 	muleq	r1, ip, r4
   1d660:	000124ac 	andeq	r2, r1, ip, lsr #9
   1d664:	000124bc 	streqh	r2, [r1], -ip
   1d668:	000124c0 	andeq	r2, r1, r0, asr #9
   1d66c:	0001d83c 	andeq	sp, r1, ip, lsr r8
   1d670:	0001d844 	andeq	sp, r1, r4, asr #16
   1d674:	0001d840 	andeq	sp, r1, r0, asr #16
   1d678:	000124d8 	ldreqd	r2, [r1], -r8
   1d67c:	000124ec 	andeq	r2, r1, ip, ror #9
   1d680:	000124f8 	streqd	r2, [r1], -r8
   1d684:	00012520 	andeq	r2, r1, r0, lsr #10
   1d688:	0001d848 	andeq	sp, r1, r8, asr #16
   1d68c:	0001d84c 	andeq	sp, r1, ip, asr #16
   1d690:	0001d850 	andeq	sp, r1, r0, asr r8
   1d694:	00012548 	andeq	r2, r1, r8, asr #10
   1d698:	00012583 	andeq	r2, r1, r3, lsl #11
   1d69c:	0000a5ac 	andeq	sl, r0, ip, lsr #11
   1d6a0:	000125c4 	andeq	r2, r1, r4, asr #11
   1d6a4:	000125d8 	ldreqd	r2, [r1], -r8
   1d6a8:	000125e0 	andeq	r2, r1, r0, ror #11
   1d6ac:	0001d854 	andeq	sp, r1, r4, asr r8
   1d6b0:	00012600 	andeq	r2, r1, r0, lsl #12
   1d6b4:	00012610 	andeq	r2, r1, r0, lsl r6
   1d6b8:	0001261c 	andeq	r2, r1, ip, lsl r6
   1d6bc:	00012630 	andeq	r2, r1, r0, lsr r6
   1d6c0:	00012640 	andeq	r2, r1, r0, asr #12
   1d6c4:	0001d85c 	andeq	sp, r1, ip, asr r8
   1d6c8:	0001d878 	andeq	sp, r1, r8, ror r8
   1d6cc:	0001d87c 	andeq	sp, r1, ip, ror r8
   1d6d0:	0001d880 	andeq	sp, r1, r0, lsl #17
   1d6d4:	0001d870 	andeq	sp, r1, r0, ror r8
   1d6d8:	0001d864 	andeq	sp, r1, r4, ror #16
   1d6dc:	0001d858 	andeq	sp, r1, r8, asr r8
   1d6e0:	0001d868 	andeq	sp, r1, r8, ror #16
   1d6e4:	0001d86c 	andeq	sp, r1, ip, ror #16
   1d6e8:	0001d874 	andeq	sp, r1, r4, ror r8
   1d6ec:	0001d860 	andeq	sp, r1, r0, ror #16
   1d6f0:	0001266c 	andeq	r2, r1, ip, ror #12
   1d6f4:	00012684 	andeq	r2, r1, r4, lsl #13
   1d6f8:	0001d884 	andeq	sp, r1, r4, lsl #17
   1d6fc:	0001d888 	andeq	sp, r1, r8, lsl #17
   1d700:	0001d88c 	andeq	sp, r1, ip, lsl #17
   1d704:	000126ac 	andeq	r2, r1, ip, lsr #13
   1d708:	0001d890 	muleq	r1, r0, r8
   1d70c:	000126bc 	streqh	r2, [r1], -ip
   1d710:	000126c8 	andeq	r2, r1, r8, asr #13
   1d714:	000126d4 	ldreqd	r2, [r1], -r4
   1d718:	000126e4 	andeq	r2, r1, r4, ror #13
   1d71c:	0001d8a0 	andeq	sp, r1, r0, lsr #17
   1d720:	00012704 	andeq	r2, r1, r4, lsl #14
   1d724:	00012a04 	andeq	r2, r1, r4, lsl #20
   1d728:	00012a1c 	andeq	r2, r1, ip, lsl sl
   1d72c:	0001d8a8 	andeq	sp, r1, r8, lsr #17
   1d730:	0001d8a4 	andeq	sp, r1, r4, lsr #17
   1d734:	0001d8ac 	andeq	sp, r1, ip, lsr #17
   1d738:	00012a2c 	andeq	r2, r1, ip, lsr #20
   1d73c:	00012a34 	andeq	r2, r1, r4, lsr sl
   1d740:	00012a48 	andeq	r2, r1, r8, asr #20
   1d744:	00012a50 	andeq	r2, r1, r0, asr sl
   1d748:	0001d8bc 	streqh	sp, [r1], -ip
   1d74c:	0001d8c0 	andeq	sp, r1, r0, asr #17
   1d750:	0001d8b8 	streqh	sp, [r1], -r8
   1d754:	0001d8b4 	streqh	sp, [r1], -r4
   1d758:	00012a80 	andeq	r2, r1, r0, lsl #21
   1d75c:	00012a5c 	andeq	r2, r1, ip, asr sl
   1d760:	00000bd0 	ldreqd	r0, [r0], -r0
   1d764:	0000f6a4 	andeq	pc, r0, r4, lsr #13
   1d768:	0001d8c8 	andeq	sp, r1, r8, asr #17
   1d76c:	0001d7e0 	andeq	sp, r1, r0, ror #15
   1d770:	0001d3e8 	andeq	sp, r1, r8, ror #7
   1d774:	00012a8c 	andeq	r2, r1, ip, lsl #21
   1d778:	0001d8c4 	andeq	sp, r1, r4, asr #17
   1d77c:	0000b7e4 	andeq	fp, r0, r4, ror #15
   1d780:	000017b8 	streqh	r1, [r0], -r8
   1d784:	0000da94 	muleq	r0, r4, sl
   1d788:	00000000 	andeq	r0, r0, r0
   1d78c:	0001d8b0 	streqh	sp, [r1], -r0
   1d790:	000125f0 	streqd	r2, [r1], -r0
   1d794:	0001d894 	muleq	r1, r4, r8
   1d798:	00012050 	andeq	r2, r1, r0, asr r0
   1d79c:	00010510 	andeq	r0, r1, r0, lsl r5
   1d7a0:	0001d8cc 	andeq	sp, r1, ip, asr #17
   1d7a4:	0001d3ec 	andeq	sp, r1, ip, ror #7
   1d7a8:	00000000 	andeq	r0, r0, r0
   1d7ac:	0000b808 	andeq	fp, r0, r8, lsl #16
   1d7b0:	0001d8e4 	andeq	sp, r1, r4, ror #17
   1d7b4:	0000c418 	andeq	ip, r0, r8, lsl r4
   1d7b8:	0001d8c4 	andeq	sp, r1, r4, asr #17
   1d7bc:	0001d8f0 	streqd	sp, [r1], -r0
   1d7c0:	00010ee0 	andeq	r0, r1, r0, ror #29
   1d7c4:	0001d89c 	muleq	r1, ip, r8
   1d7c8:	0001d898 	muleq	r1, r8, r8
   1d7cc:	0001d8ec 	andeq	sp, r1, ip, ror #17
   1d7d0:	0001d000 	andeq	sp, r1, r0
   1d7d4:	00000000 	andeq	r0, r0, r0
   1d7d8:	0000e4a0 	andeq	lr, r0, r0, lsr #9
   1d7dc:	00010ed0 	ldreqd	r0, [r1], -r0
Disassembly of section .bss:

0001d7e0 <_dl_argv>:
   1d7e0:	00000000 	andeq	r0, r0, r0

0001d7e4 <fix_page.3>:
   1d7e4:	00000000 	andeq	r0, r0, r0

0001d7e8 <fix_offset.4>:
   1d7e8:	00000000 	andeq	r0, r0, r0

0001d7ec <pagesize.5>:
   1d7ec:	00000000 	andeq	r0, r0, r0

0001d7f0 <data.14>:
   1d7f0:	00000000 	andeq	r0, r0, r0

0001d7f4 <_dl_rtld_libname>:
	...

0001d800 <_dl_rtld_libname2>:
	...

0001d80c <library_path>:
   1d80c:	00000000 	andeq	r0, r0, r0

0001d810 <preloadlist>:
   1d810:	00000000 	andeq	r0, r0, r0

0001d814 <version_info>:
   1d814:	00000000 	andeq	r0, r0, r0

0001d818 <any_debug>:
   1d818:	00000000 	andeq	r0, r0, r0

0001d81c <env_path_list>:
	...

0001d824 <capstr>:
   1d824:	00000000 	andeq	r0, r0, r0

0001d828 <ncapstr>:
   1d828:	00000000 	andeq	r0, r0, r0

0001d82c <max_capstrlen>:
   1d82c:	00000000 	andeq	r0, r0, r0

0001d830 <rtld_search_dirs>:
	...

0001d838 <max_dirnamelen>:
   1d838:	00000000 	andeq	r0, r0, r0

0001d83c <cache>:
   1d83c:	00000000 	andeq	r0, r0, r0

0001d840 <cache_new>:
   1d840:	00000000 	andeq	r0, r0, r0

0001d844 <cachesize>:
   1d844:	00000000 	andeq	r0, r0, r0

0001d848 <fix_page.3>:
   1d848:	00000000 	andeq	r0, r0, r0

0001d84c <fix_offset.4>:
   1d84c:	00000000 	andeq	r0, r0, r0

0001d850 <pagesize.5>:
   1d850:	00000000 	andeq	r0, r0, r0

0001d854 <receiver>:
   1d854:	00000000 	andeq	r0, r0, r0

0001d858 <data>:
   1d858:	00000000 	andeq	r0, r0, r0

0001d85c <running>:
   1d85c:	00000000 	andeq	r0, r0, r0

0001d860 <narcs>:
   1d860:	00000000 	andeq	r0, r0, r0

0001d864 <narcsp>:
   1d864:	00000000 	andeq	r0, r0, r0

0001d868 <tos>:
   1d868:	00000000 	andeq	r0, r0, r0

0001d86c <froms>:
   1d86c:	00000000 	andeq	r0, r0, r0

0001d870 <fromlimit>:
   1d870:	00000000 	andeq	r0, r0, r0

0001d874 <fromidx>:
   1d874:	00000000 	andeq	r0, r0, r0

0001d878 <lowpc>:
   1d878:	00000000 	andeq	r0, r0, r0

0001d87c <textsize>:
   1d87c:	00000000 	andeq	r0, r0, r0

0001d880 <log_hashfraction>:
   1d880:	00000000 	andeq	r0, r0, r0

0001d884 <fix_page.3>:
   1d884:	00000000 	andeq	r0, r0, r0

0001d888 <fix_offset.4>:
   1d888:	00000000 	andeq	r0, r0, r0

0001d88c <pagesize.5>:
   1d88c:	00000000 	andeq	r0, r0, r0

0001d890 <no_growsupdown.0>:
   1d890:	00000000 	andeq	r0, r0, r0

0001d894 <__libc_enable_secure>:
   1d894:	00000000 	andeq	r0, r0, r0

0001d898 <__libc_multiple_libcs>:
   1d898:	00000000 	andeq	r0, r0, r0

0001d89c <__libc_stack_end>:
   1d89c:	00000000 	andeq	r0, r0, r0

0001d8a0 <_dl_auxv>:
   1d8a0:	00000000 	andeq	r0, r0, r0

0001d8a4 <alloc_ptr>:
   1d8a4:	00000000 	andeq	r0, r0, r0

0001d8a8 <alloc_end>:
   1d8a8:	00000000 	andeq	r0, r0, r0

0001d8ac <alloc_last_block>:
   1d8ac:	00000000 	andeq	r0, r0, r0

0001d8b0 <__curbrk>:
   1d8b0:	00000000 	andeq	r0, r0, r0

0001d8b4 <samples>:
   1d8b4:	00000000 	andeq	r0, r0, r0

0001d8b8 <nsamples>:
   1d8b8:	00000000 	andeq	r0, r0, r0

0001d8bc <pc_offset>:
   1d8bc:	00000000 	andeq	r0, r0, r0

0001d8c0 <pc_scale>:
   1d8c0:	00000000 	andeq	r0, r0, r0

0001d8c4 <__environ>:
   1d8c4:	00000000 	andeq	r0, r0, r0

0001d8c8 <_dl_skip_args>:
   1d8c8:	00000000 	andeq	r0, r0, r0

0001d8cc <_dl_argc>:
   1d8cc:	00000000 	andeq	r0, r0, r0

0001d8d0 <_r_debug>:
	...

0001d8e4 <__have_no_fcntl64>:
   1d8e4:	00000000 	andeq	r0, r0, r0

0001d8e8 <__libc_missing_rt_sigs>:
   1d8e8:	00000000 	andeq	r0, r0, r0

0001d8ec <rtld_errno>:
   1d8ec:	00000000 	andeq	r0, r0, r0
Disassembly of section .comment:

00000000 <.comment>:
   0:	43434700 	cmpmi	r3, #0	; 0x0
   4:	4728203a 	undefined
   8:	2029554e 	eorcs	r5, r9, lr, asr #10
   c:	2e342e33 	mrccs	14, 1, r2, cr4, cr3, {1}
  10:	47000035 	smladxmi	r0, r5, r0, r0
  14:	203a4343 	eorcss	r4, sl, r3, asr #6
  18:	554e4728 	strplb	r4, [lr, #-1832]
  1c:	2e332029 	cdpcs	0, 3, cr2, cr3, cr9, {1}
  20:	00352e34 	eoreqs	r2, r5, r4, lsr lr
  24:	43434700 	cmpmi	r3, #0	; 0x0
  28:	4728203a 	undefined
  2c:	2029554e 	eorcs	r5, r9, lr, asr #10
  30:	2e342e33 	mrccs	14, 1, r2, cr4, cr3, {1}
  34:	47000035 	smladxmi	r0, r5, r0, r0
  38:	203a4343 	eorcss	r4, sl, r3, asr #6
  3c:	554e4728 	strplb	r4, [lr, #-1832]
  40:	2e332029 	cdpcs	0, 3, cr2, cr3, cr9, {1}
  44:	00352e34 	eoreqs	r2, r5, r4, lsr lr
  48:	43434700 	cmpmi	r3, #0	; 0x0
  4c:	4728203a 	undefined
  50:	2029554e 	eorcs	r5, r9, lr, asr #10
  54:	2e342e33 	mrccs	14, 1, r2, cr4, cr3, {1}
  58:	47000035 	smladxmi	r0, r5, r0, r0
  5c:	203a4343 	eorcss	r4, sl, r3, asr #6
  60:	554e4728 	strplb	r4, [lr, #-1832]
  64:	2e332029 	cdpcs	0, 3, cr2, cr3, cr9, {1}
  68:	00352e34 	eoreqs	r2, r5, r4, lsr lr
  6c:	43434700 	cmpmi	r3, #0	; 0x0
  70:	4728203a 	undefined
  74:	2029554e 	eorcs	r5, r9, lr, asr #10
  78:	2e342e33 	mrccs	14, 1, r2, cr4, cr3, {1}
  7c:	47000035 	smladxmi	r0, r5, r0, r0
  80:	203a4343 	eorcss	r4, sl, r3, asr #6
  84:	554e4728 	strplb	r4, [lr, #-1832]
  88:	2e332029 	cdpcs	0, 3, cr2, cr3, cr9, {1}
  8c:	00352e34 	eoreqs	r2, r5, r4, lsr lr
  90:	43434700 	cmpmi	r3, #0	; 0x0
  94:	4728203a 	undefined
  98:	2029554e 	eorcs	r5, r9, lr, asr #10
  9c:	2e342e33 	mrccs	14, 1, r2, cr4, cr3, {1}
  a0:	47000035 	smladxmi	r0, r5, r0, r0
  a4:	203a4343 	eorcss	r4, sl, r3, asr #6
  a8:	554e4728 	strplb	r4, [lr, #-1832]
  ac:	2e332029 	cdpcs	0, 3, cr2, cr3, cr9, {1}
  b0:	00352e34 	eoreqs	r2, r5, r4, lsr lr
  b4:	43434700 	cmpmi	r3, #0	; 0x0
  b8:	4728203a 	undefined
  bc:	2029554e 	eorcs	r5, r9, lr, asr #10
  c0:	2e342e33 	mrccs	14, 1, r2, cr4, cr3, {1}
  c4:	47000035 	smladxmi	r0, r5, r0, r0
  c8:	203a4343 	eorcss	r4, sl, r3, asr #6
  cc:	554e4728 	strplb	r4, [lr, #-1832]
  d0:	2e332029 	cdpcs	0, 3, cr2, cr3, cr9, {1}
  d4:	00352e34 	eoreqs	r2, r5, r4, lsr lr
  d8:	43434700 	cmpmi	r3, #0	; 0x0
  dc:	4728203a 	undefined
  e0:	2029554e 	eorcs	r5, r9, lr, asr #10
  e4:	2e342e33 	mrccs	14, 1, r2, cr4, cr3, {1}
  e8:	47000035 	smladxmi	r0, r5, r0, r0
  ec:	203a4343 	eorcss	r4, sl, r3, asr #6
  f0:	554e4728 	strplb	r4, [lr, #-1832]
  f4:	2e332029 	cdpcs	0, 3, cr2, cr3, cr9, {1}
  f8:	00352e34 	eoreqs	r2, r5, r4, lsr lr
  fc:	43434700 	cmpmi	r3, #0	; 0x0
 100:	4728203a 	undefined
 104:	2029554e 	eorcs	r5, r9, lr, asr #10
 108:	2e342e33 	mrccs	14, 1, r2, cr4, cr3, {1}
 10c:	47000035 	smladxmi	r0, r5, r0, r0
 110:	203a4343 	eorcss	r4, sl, r3, asr #6
 114:	554e4728 	strplb	r4, [lr, #-1832]
 118:	2e332029 	cdpcs	0, 3, cr2, cr3, cr9, {1}
 11c:	00352e34 	eoreqs	r2, r5, r4, lsr lr
 120:	43434700 	cmpmi	r3, #0	; 0x0
 124:	4728203a 	undefined
 128:	2029554e 	eorcs	r5, r9, lr, asr #10
 12c:	2e342e33 	mrccs	14, 1, r2, cr4, cr3, {1}
 130:	47000035 	smladxmi	r0, r5, r0, r0
 134:	203a4343 	eorcss	r4, sl, r3, asr #6
 138:	554e4728 	strplb	r4, [lr, #-1832]
 13c:	2e332029 	cdpcs	0, 3, cr2, cr3, cr9, {1}
 140:	00352e34 	eoreqs	r2, r5, r4, lsr lr
 144:	43434700 	cmpmi	r3, #0	; 0x0
 148:	4728203a 	undefined
 14c:	2029554e 	eorcs	r5, r9, lr, asr #10
 150:	2e342e33 	mrccs	14, 1, r2, cr4, cr3, {1}
 154:	47000035 	smladxmi	r0, r5, r0, r0
 158:	203a4343 	eorcss	r4, sl, r3, asr #6
 15c:	554e4728 	strplb	r4, [lr, #-1832]
 160:	2e332029 	cdpcs	0, 3, cr2, cr3, cr9, {1}
 164:	00352e34 	eoreqs	r2, r5, r4, lsr lr
 168:	43434700 	cmpmi	r3, #0	; 0x0
 16c:	4728203a 	undefined
 170:	2029554e 	eorcs	r5, r9, lr, asr #10
 174:	2e342e33 	mrccs	14, 1, r2, cr4, cr3, {1}
 178:	47000035 	smladxmi	r0, r5, r0, r0
 17c:	203a4343 	eorcss	r4, sl, r3, asr #6
 180:	554e4728 	strplb	r4, [lr, #-1832]
 184:	2e332029 	cdpcs	0, 3, cr2, cr3, cr9, {1}
 188:	00352e34 	eoreqs	r2, r5, r4, lsr lr
 18c:	43434700 	cmpmi	r3, #0	; 0x0
 190:	4728203a 	undefined
 194:	2029554e 	eorcs	r5, r9, lr, asr #10
 198:	2e342e33 	mrccs	14, 1, r2, cr4, cr3, {1}
 19c:	47000035 	smladxmi	r0, r5, r0, r0
 1a0:	203a4343 	eorcss	r4, sl, r3, asr #6
 1a4:	554e4728 	strplb	r4, [lr, #-1832]
 1a8:	2e332029 	cdpcs	0, 3, cr2, cr3, cr9, {1}
 1ac:	00352e34 	eoreqs	r2, r5, r4, lsr lr
 1b0:	43434700 	cmpmi	r3, #0	; 0x0
 1b4:	4728203a 	undefined
 1b8:	2029554e 	eorcs	r5, r9, lr, asr #10
 1bc:	2e342e33 	mrccs	14, 1, r2, cr4, cr3, {1}
 1c0:	47000035 	smladxmi	r0, r5, r0, r0
 1c4:	203a4343 	eorcss	r4, sl, r3, asr #6
 1c8:	554e4728 	strplb	r4, [lr, #-1832]
 1cc:	2e332029 	cdpcs	0, 3, cr2, cr3, cr9, {1}
 1d0:	00352e34 	eoreqs	r2, r5, r4, lsr lr
 1d4:	43434700 	cmpmi	r3, #0	; 0x0
 1d8:	4728203a 	undefined
 1dc:	2029554e 	eorcs	r5, r9, lr, asr #10
 1e0:	2e342e33 	mrccs	14, 1, r2, cr4, cr3, {1}
 1e4:	47000035 	smladxmi	r0, r5, r0, r0
 1e8:	203a4343 	eorcss	r4, sl, r3, asr #6
 1ec:	554e4728 	strplb	r4, [lr, #-1832]
 1f0:	2e332029 	cdpcs	0, 3, cr2, cr3, cr9, {1}
 1f4:	00352e34 	eoreqs	r2, r5, r4, lsr lr
 1f8:	43434700 	cmpmi	r3, #0	; 0x0
 1fc:	4728203a 	undefined
 200:	2029554e 	eorcs	r5, r9, lr, asr #10
 204:	2e342e33 	mrccs	14, 1, r2, cr4, cr3, {1}
 208:	47000035 	smladxmi	r0, r5, r0, r0
 20c:	203a4343 	eorcss	r4, sl, r3, asr #6
 210:	554e4728 	strplb	r4, [lr, #-1832]
 214:	2e332029 	cdpcs	0, 3, cr2, cr3, cr9, {1}
 218:	00352e34 	eoreqs	r2, r5, r4, lsr lr
 21c:	43434700 	cmpmi	r3, #0	; 0x0
 220:	4728203a 	undefined
 224:	2029554e 	eorcs	r5, r9, lr, asr #10
 228:	2e342e33 	mrccs	14, 1, r2, cr4, cr3, {1}
 22c:	47000035 	smladxmi	r0, r5, r0, r0
 230:	203a4343 	eorcss	r4, sl, r3, asr #6
 234:	554e4728 	strplb	r4, [lr, #-1832]
 238:	2e332029 	cdpcs	0, 3, cr2, cr3, cr9, {1}
 23c:	00352e34 	eoreqs	r2, r5, r4, lsr lr
 240:	43434700 	cmpmi	r3, #0	; 0x0
 244:	4728203a 	undefined
 248:	2029554e 	eorcs	r5, r9, lr, asr #10
 24c:	2e342e33 	mrccs	14, 1, r2, cr4, cr3, {1}
 250:	47000035 	smladxmi	r0, r5, r0, r0
 254:	203a4343 	eorcss	r4, sl, r3, asr #6
 258:	554e4728 	strplb	r4, [lr, #-1832]
 25c:	2e332029 	cdpcs	0, 3, cr2, cr3, cr9, {1}
 260:	00352e34 	eoreqs	r2, r5, r4, lsr lr
 264:	43434700 	cmpmi	r3, #0	; 0x0
 268:	4728203a 	undefined
 26c:	2029554e 	eorcs	r5, r9, lr, asr #10
 270:	2e342e33 	mrccs	14, 1, r2, cr4, cr3, {1}
 274:	47000035 	smladxmi	r0, r5, r0, r0
 278:	203a4343 	eorcss	r4, sl, r3, asr #6
 27c:	554e4728 	strplb	r4, [lr, #-1832]
 280:	2e332029 	cdpcs	0, 3, cr2, cr3, cr9, {1}
 284:	00352e34 	eoreqs	r2, r5, r4, lsr lr
 288:	43434700 	cmpmi	r3, #0	; 0x0
 28c:	4728203a 	undefined
 290:	2029554e 	eorcs	r5, r9, lr, asr #10
 294:	2e342e33 	mrccs	14, 1, r2, cr4, cr3, {1}
 298:	47000035 	smladxmi	r0, r5, r0, r0
 29c:	203a4343 	eorcss	r4, sl, r3, asr #6
 2a0:	554e4728 	strplb	r4, [lr, #-1832]
 2a4:	2e332029 	cdpcs	0, 3, cr2, cr3, cr9, {1}
 2a8:	00352e34 	eoreqs	r2, r5, r4, lsr lr
 2ac:	43434700 	cmpmi	r3, #0	; 0x0
 2b0:	4728203a 	undefined
 2b4:	2029554e 	eorcs	r5, r9, lr, asr #10
 2b8:	2e342e33 	mrccs	14, 1, r2, cr4, cr3, {1}
 2bc:	47000035 	smladxmi	r0, r5, r0, r0
 2c0:	203a4343 	eorcss	r4, sl, r3, asr #6
 2c4:	554e4728 	strplb	r4, [lr, #-1832]
 2c8:	2e332029 	cdpcs	0, 3, cr2, cr3, cr9, {1}
 2cc:	00352e34 	eoreqs	r2, r5, r4, lsr lr
 2d0:	43434700 	cmpmi	r3, #0	; 0x0
 2d4:	4728203a 	undefined
 2d8:	2029554e 	eorcs	r5, r9, lr, asr #10
 2dc:	2e342e33 	mrccs	14, 1, r2, cr4, cr3, {1}
 2e0:	47000035 	smladxmi	r0, r5, r0, r0
 2e4:	203a4343 	eorcss	r4, sl, r3, asr #6
 2e8:	554e4728 	strplb	r4, [lr, #-1832]
 2ec:	2e332029 	cdpcs	0, 3, cr2, cr3, cr9, {1}
 2f0:	00352e34 	eoreqs	r2, r5, r4, lsr lr
 2f4:	43434700 	cmpmi	r3, #0	; 0x0
 2f8:	4728203a 	undefined
 2fc:	2029554e 	eorcs	r5, r9, lr, asr #10
 300:	2e342e33 	mrccs	14, 1, r2, cr4, cr3, {1}
 304:	47000035 	smladxmi	r0, r5, r0, r0
 308:	203a4343 	eorcss	r4, sl, r3, asr #6
 30c:	554e4728 	strplb	r4, [lr, #-1832]
 310:	2e332029 	cdpcs	0, 3, cr2, cr3, cr9, {1}
 314:	00352e34 	eoreqs	r2, r5, r4, lsr lr
 318:	43434700 	cmpmi	r3, #0	; 0x0
 31c:	4728203a 	undefined
 320:	2029554e 	eorcs	r5, r9, lr, asr #10
 324:	2e342e33 	mrccs	14, 1, r2, cr4, cr3, {1}
 328:	47000035 	smladxmi	r0, r5, r0, r0
 32c:	203a4343 	eorcss	r4, sl, r3, asr #6
 330:	554e4728 	strplb	r4, [lr, #-1832]
 334:	2e332029 	cdpcs	0, 3, cr2, cr3, cr9, {1}
 338:	00352e34 	eoreqs	r2, r5, r4, lsr lr
 33c:	43434700 	cmpmi	r3, #0	; 0x0
 340:	4728203a 	undefined
 344:	2029554e 	eorcs	r5, r9, lr, asr #10
 348:	2e342e33 	mrccs	14, 1, r2, cr4, cr3, {1}
 34c:	47000035 	smladxmi	r0, r5, r0, r0
 350:	203a4343 	eorcss	r4, sl, r3, asr #6
 354:	554e4728 	strplb	r4, [lr, #-1832]
 358:	2e332029 	cdpcs	0, 3, cr2, cr3, cr9, {1}
 35c:	00352e34 	eoreqs	r2, r5, r4, lsr lr
 360:	43434700 	cmpmi	r3, #0	; 0x0
 364:	4728203a 	undefined
 368:	2029554e 	eorcs	r5, r9, lr, asr #10
 36c:	2e342e33 	mrccs	14, 1, r2, cr4, cr3, {1}
 370:	47000035 	smladxmi	r0, r5, r0, r0
 374:	203a4343 	eorcss	r4, sl, r3, asr #6
 378:	554e4728 	strplb	r4, [lr, #-1832]
 37c:	2e332029 	cdpcs	0, 3, cr2, cr3, cr9, {1}
 380:	00352e34 	eoreqs	r2, r5, r4, lsr lr
 384:	43434700 	cmpmi	r3, #0	; 0x0
 388:	4728203a 	undefined
 38c:	2029554e 	eorcs	r5, r9, lr, asr #10
 390:	2e342e33 	mrccs	14, 1, r2, cr4, cr3, {1}
 394:	47000035 	smladxmi	r0, r5, r0, r0
 398:	203a4343 	eorcss	r4, sl, r3, asr #6
 39c:	554e4728 	strplb	r4, [lr, #-1832]
 3a0:	2e332029 	cdpcs	0, 3, cr2, cr3, cr9, {1}
 3a4:	00352e34 	eoreqs	r2, r5, r4, lsr lr
Disassembly of section .debug_aranges:

00000000 <.debug_aranges>:
   0:	0000001c 	andeq	r0, r0, ip, lsl r0
   4:	00000002 	andeq	r0, r0, r2
   8:	00040000 	andeq	r0, r4, r0
   c:	00000000 	andeq	r0, r0, r0
  10:	00011dd0 	ldreqd	r1, [r1], -r0
  14:	000000f8 	streqd	r0, [r0], -r8
	...
  20:	0000001c 	andeq	r0, r0, ip, lsl r0
  24:	01060002 	tsteq	r6, r2
  28:	00040000 	andeq	r0, r4, r0
  2c:	00000000 	andeq	r0, r0, r0
  30:	00011ec8 	andeq	r1, r1, r8, asr #29
  34:	000000cc 	andeq	r0, r0, ip, asr #1
	...
  40:	0000001c 	andeq	r0, r0, ip, lsl r0
  44:	020c0002 	andeq	r0, ip, #2	; 0x2
  48:	00040000 	andeq	r0, r4, r0
  4c:	00000000 	andeq	r0, r0, r0
  50:	00011f94 	muleq	r1, r4, pc
  54:	0000001c 	andeq	r0, r0, ip, lsl r0
	...
Disassembly of section .debug_info:

00000000 <.debug_info>:
   0:	00000102 	andeq	r0, r0, r2, lsl #2
   4:	00000002 	andeq	r0, r0, r2
   8:	01040000 	tsteq	r4, r0
   c:	00000000 	andeq	r0, r0, r0
  10:	00011dd0 	ldreqd	r1, [r1], -r0
  14:	00011ec8 	andeq	r1, r1, r8, asr #29
  18:	726f772f 	rsbvc	r7, pc, #12320768	; 0xbc0000
  1c:	6f742f6b 	swivs	0x00742f6b
  20:	2f736c6f 	swics	0x00736c6f
  24:	61657263 	cmnvs	r5, r3, ror #4
  28:	635f6574 	cmpvs	pc, #486539264	; 0x1d000000
  2c:	73736f72 	cmnvc	r3, #456	; 0x1c8
  30:	6c6f6f74 	stcvsl	15, cr6, [pc], #-464
  34:	72632f73 	rsbvc	r2, r3, #460	; 0x1cc
  38:	7473736f 	ldrvcbt	r7, [r3], #-879
  3c:	2d6c6f6f 	stccsl	15, cr6, [ip, #-444]!
  40:	33342e30 	teqcc	r4, #768	; 0x300
  44:	6975622f 	ldmvsdb	r5!, {r0, r1, r2, r3, r5, r9, sp, lr}^
  48:	612f646c 	teqvs	pc, ip, ror #8
  4c:	6c2d6d72 	stcvs	13, cr6, [sp], #-456
  50:	78756e69 	ldmvcda	r5!, {r0, r3, r5, r6, r9, sl, fp, sp, lr}^
  54:	6363672f 	cmnvs	r3, #12320768	; 0xbc0000
  58:	342e332d 	strcct	r3, [lr], #-813
  5c:	672d352e 	strvs	r3, [sp, -lr, lsr #10]!
  60:	6362696c 	cmnvs	r2, #1769472	; 0x1b0000
  64:	332e322d 	teqcc	lr, #-805306366	; 0xd0000002
  68:	672f362e 	strvs	r3, [pc, -lr, lsr #12]!
  6c:	332d6363 	teqcc	sp, #-1946157055	; 0x8c000001
  70:	352e342e 	strcc	r3, [lr, #-1070]!
  74:	6363672f 	cmnvs	r3, #12320768	; 0xbc0000
  78:	6e6f632f 	cdpvs	3, 6, cr6, cr15, cr15, {1}
  7c:	2f676966 	swics	0x00676966
  80:	2f6d7261 	swics	0x006d7261
  84:	3162696c 	cmncc	r2, ip, ror #18
  88:	636e7566 	cmnvs	lr, #427819008	; 0x19800000
  8c:	73612e73 	cmnvc	r1, #1840	; 0x730
  90:	772f006d 	strvc	r0, [pc, -sp, rrx]!
  94:	2f6b726f 	swics	0x006b726f
  98:	6c6f6f74 	stcvsl	15, cr6, [pc], #-464
  9c:	72632f73 	rsbvc	r2, r3, #460	; 0x1cc
  a0:	65746165 	ldrvsb	r6, [r4, #-357]!
  a4:	6f72635f 	swivs	0x0072635f
  a8:	6f747373 	swivs	0x00747373
  ac:	2f736c6f 	swics	0x00736c6f
  b0:	736f7263 	cmnvc	pc, #805306374	; 0x30000006
  b4:	6f6f7473 	swivs	0x006f7473
  b8:	2e302d6c 	cdpcs	13, 3, cr2, cr0, cr12, {3}
  bc:	622f3334 	eorvs	r3, pc, #-805306368	; 0xd0000000
  c0:	646c6975 	strvsbt	r6, [ip], #-2421
  c4:	6d72612f 	ldfvse	f6, [r2, #-188]!
  c8:	6e696c2d 	cdpvs	12, 6, cr6, cr9, cr13, {1}
  cc:	672f7875 	undefined
  d0:	332d6363 	teqcc	sp, #-1946157055	; 0x8c000001
  d4:	352e342e 	strcc	r3, [lr, #-1070]!
  d8:	696c672d 	stmvsdb	ip!, {r0, r2, r3, r5, r8, r9, sl, sp, lr}^
  dc:	322d6362 	eorcc	r6, sp, #-2013265919	; 0x88000001
  e0:	362e332e 	strcct	r3, [lr], -lr, lsr #6
  e4:	6975622f 	ldmvsdb	r5!, {r0, r1, r2, r3, r5, r9, sp, lr}^
  e8:	672d646c 	strvs	r6, [sp, -ip, ror #8]!
  ec:	632d6363 	teqvs	sp, #-1946157055	; 0x8c000001
  f0:	2f65726f 	swics	0x0065726f
  f4:	00636367 	rsbeq	r6, r3, r7, ror #6
  f8:	20554e47 	subcss	r4, r5, r7, asr #28
  fc:	32205341 	eorcc	r5, r0, #67108865	; 0x4000001
 100:	0035312e 	eoreqs	r3, r5, lr, lsr #2
 104:	01028001 	tsteq	r2, r1
 108:	00020000 	andeq	r0, r2, r0
 10c:	00000014 	andeq	r0, r0, r4, lsl r0
 110:	00ca0104 	sbceq	r0, sl, r4, lsl #2
 114:	1ec80000 	cdpne	0, 12, cr0, cr8, cr0, {0}
 118:	1f940001 	swine	0x00940001
 11c:	772f0001 	strvc	r0, [pc, -r1]!
 120:	2f6b726f 	swics	0x006b726f
 124:	6c6f6f74 	stcvsl	15, cr6, [pc], #-464
 128:	72632f73 	rsbvc	r2, r3, #460	; 0x1cc
 12c:	65746165 	ldrvsb	r6, [r4, #-357]!
 130:	6f72635f 	swivs	0x0072635f
 134:	6f747373 	swivs	0x00747373
 138:	2f736c6f 	swics	0x00736c6f
 13c:	736f7263 	cmnvc	pc, #805306374	; 0x30000006
 140:	6f6f7473 	swivs	0x006f7473
 144:	2e302d6c 	cdpcs	13, 3, cr2, cr0, cr12, {3}
 148:	622f3334 	eorvs	r3, pc, #-805306368	; 0xd0000000
 14c:	646c6975 	strvsbt	r6, [ip], #-2421
 150:	6d72612f 	ldfvse	f6, [r2, #-188]!
 154:	6e696c2d 	cdpvs	12, 6, cr6, cr9, cr13, {1}
 158:	672f7875 	undefined
 15c:	332d6363 	teqcc	sp, #-1946157055	; 0x8c000001
 160:	352e342e 	strcc	r3, [lr, #-1070]!
 164:	696c672d 	stmvsdb	ip!, {r0, r2, r3, r5, r8, r9, sl, sp, lr}^
 168:	322d6362 	eorcc	r6, sp, #-2013265919	; 0x88000001
 16c:	362e332e 	strcct	r3, [lr], -lr, lsr #6
 170:	6363672f 	cmnvs	r3, #12320768	; 0xbc0000
 174:	342e332d 	strcct	r3, [lr], #-813
 178:	672f352e 	strvs	r3, [pc, -lr, lsr #10]!
 17c:	632f6363 	teqvs	pc, #-1946157055	; 0x8c000001
 180:	69666e6f 	stmvsdb	r6!, {r0, r1, r2, r3, r5, r6, r9, sl, fp, sp, lr}^
 184:	72612f67 	rsbvc	r2, r1, #412	; 0x19c
 188:	696c2f6d 	stmvsdb	ip!, {r0, r2, r3, r5, r6, r8, r9, sl, fp, sp}^
 18c:	75663162 	strvcb	r3, [r6, #-354]!
 190:	2e73636e 	cdpcs	3, 7, cr6, cr3, cr14, {3}
 194:	006d7361 	rsbeq	r7, sp, r1, ror #6
 198:	726f772f 	rsbvc	r7, pc, #12320768	; 0xbc0000
 19c:	6f742f6b 	swivs	0x00742f6b
 1a0:	2f736c6f 	swics	0x00736c6f
 1a4:	61657263 	cmnvs	r5, r3, ror #4
 1a8:	635f6574 	cmpvs	pc, #486539264	; 0x1d000000
 1ac:	73736f72 	cmnvc	r3, #456	; 0x1c8
 1b0:	6c6f6f74 	stcvsl	15, cr6, [pc], #-464
 1b4:	72632f73 	rsbvc	r2, r3, #460	; 0x1cc
 1b8:	7473736f 	ldrvcbt	r7, [r3], #-879
 1bc:	2d6c6f6f 	stccsl	15, cr6, [ip, #-444]!
 1c0:	33342e30 	teqcc	r4, #768	; 0x300
 1c4:	6975622f 	ldmvsdb	r5!, {r0, r1, r2, r3, r5, r9, sp, lr}^
 1c8:	612f646c 	teqvs	pc, ip, ror #8
 1cc:	6c2d6d72 	stcvs	13, cr6, [sp], #-456
 1d0:	78756e69 	ldmvcda	r5!, {r0, r3, r5, r6, r9, sl, fp, sp, lr}^
 1d4:	6363672f 	cmnvs	r3, #12320768	; 0xbc0000
 1d8:	342e332d 	strcct	r3, [lr], #-813
 1dc:	672d352e 	strvs	r3, [sp, -lr, lsr #10]!
 1e0:	6362696c 	cmnvs	r2, #1769472	; 0x1b0000
 1e4:	332e322d 	teqcc	lr, #-805306366	; 0xd0000002
 1e8:	622f362e 	eorvs	r3, pc, #48234496	; 0x2e00000
 1ec:	646c6975 	strvsbt	r6, [ip], #-2421
 1f0:	6363672d 	cmnvs	r3, #11796480	; 0xb40000
 1f4:	726f632d 	rsbvc	r6, pc, #-1275068416	; 0xb4000000
 1f8:	63672f65 	cmnvs	r7, #404	; 0x194
 1fc:	4e470063 	cdpmi	0, 4, cr0, cr7, cr3, {3}
 200:	53412055 	cmppl	r1, #85	; 0x55
 204:	312e3220 	teqcc	lr, r0, lsr #4
 208:	80010035 	andhi	r0, r1, r5, lsr r0
 20c:	00000102 	andeq	r0, r0, r2, lsl #2
 210:	00280002 	eoreq	r0, r8, r2
 214:	01040000 	tsteq	r4, r0
 218:	00000186 	andeq	r0, r0, r6, lsl #3
 21c:	00011f94 	muleq	r1, r4, pc
 220:	00011fb0 	streqh	r1, [r1], -r0
 224:	726f772f 	rsbvc	r7, pc, #12320768	; 0xbc0000
 228:	6f742f6b 	swivs	0x00742f6b
 22c:	2f736c6f 	swics	0x00736c6f
 230:	61657263 	cmnvs	r5, r3, ror #4
 234:	635f6574 	cmpvs	pc, #486539264	; 0x1d000000
 238:	73736f72 	cmnvc	r3, #456	; 0x1c8
 23c:	6c6f6f74 	stcvsl	15, cr6, [pc], #-464
 240:	72632f73 	rsbvc	r2, r3, #460	; 0x1cc
 244:	7473736f 	ldrvcbt	r7, [r3], #-879
 248:	2d6c6f6f 	stccsl	15, cr6, [ip, #-444]!
 24c:	33342e30 	teqcc	r4, #768	; 0x300
 250:	6975622f 	ldmvsdb	r5!, {r0, r1, r2, r3, r5, r9, sp, lr}^
 254:	612f646c 	teqvs	pc, ip, ror #8
 258:	6c2d6d72 	stcvs	13, cr6, [sp], #-456
 25c:	78756e69 	ldmvcda	r5!, {r0, r3, r5, r6, r9, sl, fp, sp, lr}^
 260:	6363672f 	cmnvs	r3, #12320768	; 0xbc0000
 264:	342e332d 	strcct	r3, [lr], #-813
 268:	672d352e 	strvs	r3, [sp, -lr, lsr #10]!
 26c:	6362696c 	cmnvs	r2, #1769472	; 0x1b0000
 270:	332e322d 	teqcc	lr, #-805306366	; 0xd0000002
 274:	672f362e 	strvs	r3, [pc, -lr, lsr #12]!
 278:	332d6363 	teqcc	sp, #-1946157055	; 0x8c000001
 27c:	352e342e 	strcc	r3, [lr, #-1070]!
 280:	6363672f 	cmnvs	r3, #12320768	; 0xbc0000
 284:	6e6f632f 	cdpvs	3, 6, cr6, cr15, cr15, {1}
 288:	2f676966 	swics	0x00676966
 28c:	2f6d7261 	swics	0x006d7261
 290:	3162696c 	cmncc	r2, ip, ror #18
 294:	636e7566 	cmnvs	lr, #427819008	; 0x19800000
 298:	73612e73 	cmnvc	r1, #1840	; 0x730
 29c:	772f006d 	strvc	r0, [pc, -sp, rrx]!
 2a0:	2f6b726f 	swics	0x006b726f
 2a4:	6c6f6f74 	stcvsl	15, cr6, [pc], #-464
 2a8:	72632f73 	rsbvc	r2, r3, #460	; 0x1cc
 2ac:	65746165 	ldrvsb	r6, [r4, #-357]!
 2b0:	6f72635f 	swivs	0x0072635f
 2b4:	6f747373 	swivs	0x00747373
 2b8:	2f736c6f 	swics	0x00736c6f
 2bc:	736f7263 	cmnvc	pc, #805306374	; 0x30000006
 2c0:	6f6f7473 	swivs	0x006f7473
 2c4:	2e302d6c 	cdpcs	13, 3, cr2, cr0, cr12, {3}
 2c8:	622f3334 	eorvs	r3, pc, #-805306368	; 0xd0000000
 2cc:	646c6975 	strvsbt	r6, [ip], #-2421
 2d0:	6d72612f 	ldfvse	f6, [r2, #-188]!
 2d4:	6e696c2d 	cdpvs	12, 6, cr6, cr9, cr13, {1}
 2d8:	672f7875 	undefined
 2dc:	332d6363 	teqcc	sp, #-1946157055	; 0x8c000001
 2e0:	352e342e 	strcc	r3, [lr, #-1070]!
 2e4:	696c672d 	stmvsdb	ip!, {r0, r2, r3, r5, r8, r9, sl, sp, lr}^
 2e8:	322d6362 	eorcc	r6, sp, #-2013265919	; 0x88000001
 2ec:	362e332e 	strcct	r3, [lr], -lr, lsr #6
 2f0:	6975622f 	ldmvsdb	r5!, {r0, r1, r2, r3, r5, r9, sp, lr}^
 2f4:	672d646c 	strvs	r6, [sp, -ip, ror #8]!
 2f8:	632d6363 	teqvs	sp, #-1946157055	; 0x8c000001
 2fc:	2f65726f 	swics	0x0065726f
 300:	00636367 	rsbeq	r6, r3, r7, ror #6
 304:	20554e47 	subcss	r4, r5, r7, asr #28
 308:	32205341 	eorcc	r5, r0, #67108865	; 0x4000001
 30c:	0035312e 	eoreqs	r3, r5, lr, lsr #2
 310:	Address 0x310 is out of bounds.

Disassembly of section .debug_abbrev:

00000000 <.debug_abbrev>:
   0:	10001101 	andne	r1, r0, r1, lsl #2
   4:	12011106 	andne	r1, r1, #-2147483647	; 0x80000001
   8:	1b080301 	blne	200c14 <__bss_end__+0x1e3324>
   c:	13082508 	tstne	r8, #33554432	; 0x2000000
  10:	00000005 	andeq	r0, r0, r5
  14:	10001101 	andne	r1, r0, r1, lsl #2
  18:	12011106 	andne	r1, r1, #-2147483647	; 0x80000001
  1c:	1b080301 	blne	200c28 <__bss_end__+0x1e3338>
  20:	13082508 	tstne	r8, #33554432	; 0x2000000
  24:	00000005 	andeq	r0, r0, r5
  28:	10001101 	andne	r1, r0, r1, lsl #2
  2c:	12011106 	andne	r1, r1, #-2147483647	; 0x80000001
  30:	1b080301 	blne	200c3c <__bss_end__+0x1e334c>
  34:	13082508 	tstne	r8, #33554432	; 0x2000000
  38:	00000005 	andeq	r0, r0, r5
Disassembly of section .debug_line:

00000000 <.debug_line>:
   0:	000000c6 	andeq	r0, r0, r6, asr #1
   4:	008d0002 	addeq	r0, sp, r2
   8:	01020000 	tsteq	r2, r0
   c:	000a0efb 	streqd	r0, [sl], -fp
  10:	01010101 	tsteq	r1, r1, lsl #2
  14:	01000000 	tsteq	r0, r0
  18:	726f772f 	rsbvc	r7, pc, #12320768	; 0xbc0000
  1c:	6f742f6b 	swivs	0x00742f6b
  20:	2f736c6f 	swics	0x00736c6f
  24:	61657263 	cmnvs	r5, r3, ror #4
  28:	635f6574 	cmpvs	pc, #486539264	; 0x1d000000
  2c:	73736f72 	cmnvc	r3, #456	; 0x1c8
  30:	6c6f6f74 	stcvsl	15, cr6, [pc], #-464
  34:	72632f73 	rsbvc	r2, r3, #460	; 0x1cc
  38:	7473736f 	ldrvcbt	r7, [r3], #-879
  3c:	2d6c6f6f 	stccsl	15, cr6, [ip, #-444]!
  40:	33342e30 	teqcc	r4, #768	; 0x300
  44:	6975622f 	ldmvsdb	r5!, {r0, r1, r2, r3, r5, r9, sp, lr}^
  48:	612f646c 	teqvs	pc, ip, ror #8
  4c:	6c2d6d72 	stcvs	13, cr6, [sp], #-456
  50:	78756e69 	ldmvcda	r5!, {r0, r3, r5, r6, r9, sl, fp, sp, lr}^
  54:	6363672f 	cmnvs	r3, #12320768	; 0xbc0000
  58:	342e332d 	strcct	r3, [lr], #-813
  5c:	672d352e 	strvs	r3, [sp, -lr, lsr #10]!
  60:	6362696c 	cmnvs	r2, #1769472	; 0x1b0000
  64:	332e322d 	teqcc	lr, #-805306366	; 0xd0000002
  68:	672f362e 	strvs	r3, [pc, -lr, lsr #12]!
  6c:	332d6363 	teqcc	sp, #-1946157055	; 0x8c000001
  70:	352e342e 	strcc	r3, [lr, #-1070]!
  74:	6363672f 	cmnvs	r3, #12320768	; 0xbc0000
  78:	6e6f632f 	cdpvs	3, 6, cr6, cr15, cr15, {1}
  7c:	2f676966 	swics	0x00676966
  80:	006d7261 	rsbeq	r7, sp, r1, ror #4
  84:	62696c00 	rsbvs	r6, r9, #0	; 0x0
  88:	6e756631 	mrcvs	6, 3, r6, cr5, cr1, {1}
  8c:	612e7363 	teqvs	lr, r3, ror #6
  90:	01006d73 	tsteq	r0, r3, ror sp
  94:	00000000 	andeq	r0, r0, r0
  98:	1dd00205 	lfmne	f0, 2, [r0, #20]
  9c:	ce030001 	cdpgt	0, 0, cr0, cr3, cr1, {0}
  a0:	2c2c0104 	stfcss	f0, [ip], #-16
  a4:	2c2c2c2c 	stccs	12, cr2, [ip], #-176
  a8:	2b7dab03 	blcs	1f6acbc <__bss_end__+0x1f4d3cc>
  ac:	0202d903 	andeq	sp, r2, #49152	; 0xc000
  b0:	2d2c013e 	stfcss	f0, [ip, #-248]!
  b4:	de032c2c 	cdple	12, 0, cr2, cr3, cr12, {1}
  b8:	a6032b7d 	undefined
  bc:	2c8d0802 	stccs	8, cr0, [sp], {2}
  c0:	7c92032f 	ldcvc	3, cr0, [r2], {47}
  c4:	00020263 	andeq	r0, r2, r3, ror #4
  c8:	00b80101 	adceqs	r0, r8, r1, lsl #2
  cc:	00020000 	andeq	r0, r2, r0
  d0:	0000008d 	andeq	r0, r0, sp, lsl #1
  d4:	0efb0102 	cdpeq	1, 15, cr0, cr11, cr2, {0}
  d8:	0101000a 	tsteq	r1, sl
  dc:	00000101 	andeq	r0, r0, r1, lsl #2
  e0:	772f0100 	strvc	r0, [pc, -r0, lsl #2]!
  e4:	2f6b726f 	swics	0x006b726f
  e8:	6c6f6f74 	stcvsl	15, cr6, [pc], #-464
  ec:	72632f73 	rsbvc	r2, r3, #460	; 0x1cc
  f0:	65746165 	ldrvsb	r6, [r4, #-357]!
  f4:	6f72635f 	swivs	0x0072635f
  f8:	6f747373 	swivs	0x00747373
  fc:	2f736c6f 	swics	0x00736c6f
 100:	736f7263 	cmnvc	pc, #805306374	; 0x30000006
 104:	6f6f7473 	swivs	0x006f7473
 108:	2e302d6c 	cdpcs	13, 3, cr2, cr0, cr12, {3}
 10c:	622f3334 	eorvs	r3, pc, #-805306368	; 0xd0000000
 110:	646c6975 	strvsbt	r6, [ip], #-2421
 114:	6d72612f 	ldfvse	f6, [r2, #-188]!
 118:	6e696c2d 	cdpvs	12, 6, cr6, cr9, cr13, {1}
 11c:	672f7875 	undefined
 120:	332d6363 	teqcc	sp, #-1946157055	; 0x8c000001
 124:	352e342e 	strcc	r3, [lr, #-1070]!
 128:	696c672d 	stmvsdb	ip!, {r0, r2, r3, r5, r8, r9, sl, sp, lr}^
 12c:	322d6362 	eorcc	r6, sp, #-2013265919	; 0x88000001
 130:	362e332e 	strcct	r3, [lr], -lr, lsr #6
 134:	6363672f 	cmnvs	r3, #12320768	; 0xbc0000
 138:	342e332d 	strcct	r3, [lr], #-813
 13c:	672f352e 	strvs	r3, [pc, -lr, lsr #10]!
 140:	632f6363 	teqvs	pc, #-1946157055	; 0x8c000001
 144:	69666e6f 	stmvsdb	r6!, {r0, r1, r2, r3, r5, r6, r9, sl, fp, sp, lr}^
 148:	72612f67 	rsbvc	r2, r1, #412	; 0x19c
 14c:	6c00006d 	stcvs	0, cr0, [r0], {109}
 150:	66316269 	ldrvst	r6, [r1], -r9, ror #4
 154:	73636e75 	cmnvc	r3, #1872	; 0x750
 158:	6d73612e 	ldfvse	f6, [r3, #-184]!
 15c:	00000100 	andeq	r0, r0, r0, lsl #2
 160:	02050000 	andeq	r0, r5, #0	; 0x0
 164:	00011ec8 	andeq	r1, r1, r8, asr #29
 168:	01058103 	tsteq	r5, r3, lsl #2
 16c:	2c2c2c2c 	stccs	12, cr2, [ip], #-176
 170:	d4032c2c 	strle	r2, [r3], #-3116
 174:	b0032b7d 	andlt	r2, r3, sp, ror fp
 178:	014e0202 	cmpeq	lr, r2, lsl #4
 17c:	7be9032f 	blvc	ffa40e40 <__bss_end__+0xffa23550>
 180:	00020263 	andeq	r0, r2, r3, ror #4
 184:	00b20101 	adceqs	r0, r2, r1, lsl #2
 188:	00020000 	andeq	r0, r2, r0
 18c:	0000008d 	andeq	r0, r0, sp, lsl #1
 190:	0efb0102 	cdpeq	1, 15, cr0, cr11, cr2, {0}
 194:	0101000a 	tsteq	r1, sl
 198:	00000101 	andeq	r0, r0, r1, lsl #2
 19c:	772f0100 	strvc	r0, [pc, -r0, lsl #2]!
 1a0:	2f6b726f 	swics	0x006b726f
 1a4:	6c6f6f74 	stcvsl	15, cr6, [pc], #-464
 1a8:	72632f73 	rsbvc	r2, r3, #460	; 0x1cc
 1ac:	65746165 	ldrvsb	r6, [r4, #-357]!
 1b0:	6f72635f 	swivs	0x0072635f
 1b4:	6f747373 	swivs	0x00747373
 1b8:	2f736c6f 	swics	0x00736c6f
 1bc:	736f7263 	cmnvc	pc, #805306374	; 0x30000006
 1c0:	6f6f7473 	swivs	0x006f7473
 1c4:	2e302d6c 	cdpcs	13, 3, cr2, cr0, cr12, {3}
 1c8:	622f3334 	eorvs	r3, pc, #-805306368	; 0xd0000000
 1cc:	646c6975 	strvsbt	r6, [ip], #-2421
 1d0:	6d72612f 	ldfvse	f6, [r2, #-188]!
 1d4:	6e696c2d 	cdpvs	12, 6, cr6, cr9, cr13, {1}
 1d8:	672f7875 	undefined
 1dc:	332d6363 	teqcc	sp, #-1946157055	; 0x8c000001
 1e0:	352e342e 	strcc	r3, [lr, #-1070]!
 1e4:	696c672d 	stmvsdb	ip!, {r0, r2, r3, r5, r8, r9, sl, sp, lr}^
 1e8:	322d6362 	eorcc	r6, sp, #-2013265919	; 0x88000001
 1ec:	362e332e 	strcct	r3, [lr], -lr, lsr #6
 1f0:	6363672f 	cmnvs	r3, #12320768	; 0xbc0000
 1f4:	342e332d 	strcct	r3, [lr], #-813
 1f8:	672f352e 	strvs	r3, [pc, -lr, lsr #10]!
 1fc:	632f6363 	teqvs	pc, #-1946157055	; 0x8c000001
 200:	69666e6f 	stmvsdb	r6!, {r0, r1, r2, r3, r5, r6, r9, sl, fp, sp, lr}^
 204:	72612f67 	rsbvc	r2, r1, #412	; 0x19c
 208:	6c00006d 	stcvs	0, cr0, [r0], {109}
 20c:	66316269 	ldrvst	r6, [r1], -r9, ror #4
 210:	73636e75 	cmnvc	r3, #1872	; 0x750
 214:	6d73612e 	ldfvse	f6, [r3, #-184]!
 218:	00000100 	andeq	r0, r0, r0, lsl #2
 21c:	02050000 	andeq	r0, r5, #0	; 0x0
 220:	00011f94 	muleq	r1, r4, pc
 224:	0106b403 	tsteq	r6, r3, lsl #8
 228:	c2032c2c 	andgt	r2, r3, #11264	; 0x2c00
 22c:	c0032b7a 	andgt	r2, r3, sl, ror fp
 230:	032c2b05 	teqeq	ip, #5120	; 0x1400
 234:	022b7abf 	eoreq	r7, fp, #782336	; 0xbf000
 238:	01010002 	tsteq	r1, r2
