
ld-linux.so.2:     file format elf32-littlearm

Disassembly of section .plt:

00000b80 <.plt>:
 b80:	e52de004 	str	lr, [sp, #-4]!
 b84:	e59fe004 	ldr	lr, [pc, #4]	; b90 <GLIBC_2.0+0xb90>
 b88:	e08fe00e 	add	lr, pc, lr
 b8c:	e5bef008 	ldr	pc, [lr, #8]!
 b90:	0001ca04 	andeq	ip, r1, r4, lsl #20
 b94:	e28fc600 	add	ip, pc, #0	; 0x0
 b98:	e28cca1c 	add	ip, ip, #114688	; 0x1c000
 b9c:	e5bcfa04 	ldr	pc, [ip, #2564]!
 ba0:	e28fc600 	add	ip, pc, #0	; 0x0
 ba4:	e28cca1c 	add	ip, ip, #114688	; 0x1c000
 ba8:	e5bcf9fc 	ldr	pc, [ip, #2556]!
 bac:	e28fc600 	add	ip, pc, #0	; 0x0
 bb0:	e28cca1c 	add	ip, ip, #114688	; 0x1c000
 bb4:	e5bcf9f4 	ldr	pc, [ip, #2548]!
 bb8:	e28fc600 	add	ip, pc, #0	; 0x0
 bbc:	e28cca1c 	add	ip, ip, #114688	; 0x1c000
 bc0:	e5bcf9ec 	ldr	pc, [ip, #2540]!
Disassembly of section .text:

00000bd0 <_start>:
     bd0:	e59fa048 	ldr	sl, [pc, #72]	; c20 <.text+0x50>
     bd4:	e59f4048 	ldr	r4, [pc, #72]	; c24 <.text+0x54>
     bd8:	e1a0000d 	mov	r0, sp
     bdc:	eb000049 	bl	d08 <_dl_start>

00000be0 <_dl_start_user>:
     be0:	e08fa00a 	add	sl, pc, sl
     be4:	e79a4004 	ldr	r4, [sl, r4]
     be8:	e59d1000 	ldr	r1, [sp]
     bec:	e1a06000 	mov	r6, r0
     bf0:	e08dd104 	add	sp, sp, r4, lsl #2
     bf4:	e0411004 	sub	r1, r1, r4
     bf8:	e28d2004 	add	r2, sp, #4	; 0x4
     bfc:	e58d1000 	str	r1, [sp]
     c00:	e0823101 	add	r3, r2, r1, lsl #2
     c04:	e2833004 	add	r3, r3, #4	; 0x4
     c08:	e59f001c 	ldr	r0, [pc, #28]	; c2c <.text+0x5c>
     c0c:	e79a0000 	ldr	r0, [sl, r0]
     c10:	eb002c3c 	bl	bd08 <_dl_init>
     c14:	e59f000c 	ldr	r0, [pc, #12]	; c28 <.text+0x58>
     c18:	e08a0000 	add	r0, sl, r0
     c1c:	e1a0f006 	mov	pc, r6
     c20:	0001c9ac 	andeq	ip, r1, ip, lsr #19
     c24:	00000334 	andeq	r0, r0, r4, lsr r3
     c28:	fffeea98 	swinv	0x00feea98
     c2c:	fffffa6c 	swinv	0x00fffa6c

00000c30 <_dl_start_final>:
     c30:	e92d4c70 	stmdb	sp!, {r4, r5, r6, sl, fp, lr}
     c34:	e59fa0ac 	ldr	sl, [pc, #172]	; ce8 <.text+0x118>
     c38:	e08fa00a 	add	sl, pc, sl
     c3c:	e1a06000 	mov	r6, r0
     c40:	e1a05001 	mov	r5, r1
     c44:	e59f30a0 	ldr	r3, [pc, #160]	; cec <.text+0x11c>
     c48:	e79a4003 	ldr	r4, [sl, r3]
     c4c:	e5913000 	ldr	r3, [r1]
     c50:	e58431b8 	str	r3, [r4, #440]
     c54:	e5913008 	ldr	r3, [r1, #8]
     c58:	e58431c0 	str	r3, [r4, #448]
     c5c:	e2840f76 	add	r0, r4, #472	; 0x1d8
     c60:	e2811020 	add	r1, r1, #32	; 0x20
     c64:	e3a02f4b 	mov	r2, #300	; 0x12c
     c68:	eb004319 	bl	118d4 <memcpy>
     c6c:	e5953204 	ldr	r3, [r5, #516]
     c70:	e58433bc 	str	r3, [r4, #956]
     c74:	e2845f6e 	add	r5, r4, #440	; 0x1b8
     c78:	e1a00005 	mov	r0, r5
     c7c:	eb001e5d 	bl	85f8 <_dl_setup_hash>
     c80:	e58451cc 	str	r5, [r4, #460]
     c84:	e59f3064 	ldr	r3, [pc, #100]	; cf0 <.text+0x120>
     c88:	e79a3003 	ldr	r3, [sl, r3]
     c8c:	e5843358 	str	r3, [r4, #856]
     c90:	e59f305c 	ldr	r3, [pc, #92]	; cf4 <.text+0x124>
     c94:	e79a3003 	ldr	r3, [sl, r3]
     c98:	e584335c 	str	r3, [r4, #860]
     c9c:	e59f3054 	ldr	r3, [pc, #84]	; cf8 <.text+0x128>
     ca0:	e79a3003 	ldr	r3, [sl, r3]
     ca4:	e5843360 	str	r3, [r4, #864]
     ca8:	e59f304c 	ldr	r3, [pc, #76]	; cfc <.text+0x12c>
     cac:	e79a3003 	ldr	r3, [sl, r3]
     cb0:	e583b000 	str	fp, [r3]
     cb4:	e1a00006 	mov	r0, r6
     cb8:	e59f3040 	ldr	r3, [pc, #64]	; d00 <.text+0x130>
     cbc:	e79a1003 	ldr	r1, [sl, r3]
     cc0:	eb0036cd 	bl	e7fc <_dl_sysdep_start>
     cc4:	e1a04000 	mov	r4, r0
     cc8:	e59f3034 	ldr	r3, [pc, #52]	; d04 <.text+0x134>
     ccc:	e79a3003 	ldr	r3, [sl, r3]
     cd0:	e5933000 	ldr	r3, [r3]
     cd4:	e3130080 	tst	r3, #128	; 0x80
     cd8:	13a00000 	movne	r0, #0	; 0x0
     cdc:	1b000c68 	blne	3e84 <print_statistics>
     ce0:	e1a00004 	mov	r0, r4
     ce4:	e8bd8c70 	ldmia	sp!, {r4, r5, r6, sl, fp, pc}
     ce8:	0001c954 	andeq	ip, r1, r4, asr r9
     cec:	0000023c 	andeq	r0, r0, ip, lsr r2
     cf0:	00000240 	andeq	r0, r0, r0, asr #4
     cf4:	00000228 	andeq	r0, r0, r8, lsr #4
     cf8:	00000204 	andeq	r0, r0, r4, lsl #4
     cfc:	00000230 	andeq	r0, r0, r0, lsr r2
     d00:	00000020 	andeq	r0, r0, r0, lsr #32
     d04:	00000210 	andeq	r0, r0, r0, lsl r2

00000d08 <_dl_start>:
     d08:	e92d4ff0 	stmdb	sp!, {r4, r5, r6, r7, r8, r9, sl, fp, lr}
     d0c:	e24dde26 	sub	sp, sp, #608	; 0x260
     d10:	e59fa910 	ldr	sl, [pc, #2320]	; 1628 <.text+0xa58>
     d14:	e08fa00a 	add	sl, pc, sl
     d18:	e58d0024 	str	r0, [sp, #36]
     d1c:	e3a02000 	mov	r2, #0	; 0x0
     d20:	e1a01002 	mov	r1, r2
     d24:	e28d0e26 	add	r0, sp, #608	; 0x260
     d28:	e0803102 	add	r3, r0, r2, lsl #2
     d2c:	e5031200 	str	r1, [r3, #-512]
     d30:	e2822001 	add	r2, r2, #1	; 0x1
     d34:	e352004a 	cmp	r2, #74	; 0x4a
     d38:	9afffff9 	bls	d24 <_dl_start+0x1c>
     d3c:	e24f203c 	sub	r2, pc, #60	; 0x3c
     d40:	e59f38e4 	ldr	r3, [pc, #2276]	; 162c <.text+0xa5c>
     d44:	e79a3003 	ldr	r3, [sl, r3]
     d48:	e0632002 	rsb	r2, r3, r2
     d4c:	e58d2040 	str	r2, [sp, #64]
     d50:	e59a1000 	ldr	r1, [sl]
     d54:	e0813002 	add	r3, r1, r2
     d58:	e58d3048 	str	r3, [sp, #72]
     d5c:	e3a0e000 	mov	lr, #0	; 0x0
     d60:	e1a00003 	mov	r0, r3
     d64:	e28dc060 	add	ip, sp, #96	; 0x60
     d68:	e7913002 	ldr	r3, [r1, r2]
     d6c:	e153000e 	cmp	r3, lr
     d70:	0a000030 	beq	e38 <_dl_start+0x130>
     d74:	e5903000 	ldr	r3, [r0]
     d78:	e3530021 	cmp	r3, #33	; 0x21
     d7c:	d78c0103 	strle	r0, [ip, r3, lsl #2]
     d80:	da000029 	ble	e2c <_dl_start+0x124>
     d84:	e5902000 	ldr	r2, [r0]
     d88:	e262346f 	rsb	r3, r2, #1862270976	; 0x6f000000
     d8c:	e28338ff 	add	r3, r3, #16711680	; 0xff0000
     d90:	e2833cff 	add	r3, r3, #65280	; 0xff00
     d94:	e28330ff 	add	r3, r3, #255	; 0xff
     d98:	e353000f 	cmp	r3, #15	; 0xf
     d9c:	92623207 	rsbls	r3, r2, #1879048192	; 0x70000000
     da0:	92833021 	addls	r3, r3, #33	; 0x21
     da4:	978c0103 	strls	r0, [ip, r3, lsl #2]
     da8:	9a00001f 	bls	e2c <_dl_start+0x124>
     dac:	e5903000 	ldr	r3, [r0]
     db0:	e1a03083 	mov	r3, r3, lsl #1
     db4:	e1a020c3 	mov	r2, r3, asr #1
     db8:	e1e03002 	mvn	r3, r2
     dbc:	e3530002 	cmp	r3, #2	; 0x2
     dc0:	92623031 	rsbls	r3, r2, #49	; 0x31
     dc4:	978c0103 	strls	r0, [ip, r3, lsl #2]
     dc8:	9a000017 	bls	e2c <_dl_start+0x124>
     dcc:	e5902000 	ldr	r2, [r0]
     dd0:	e262346f 	rsb	r3, r2, #1862270976	; 0x6f000000
     dd4:	e28338ff 	add	r3, r3, #16711680	; 0xff0000
     dd8:	e2833cfd 	add	r3, r3, #64768	; 0xfd00
     ddc:	e28330ff 	add	r3, r3, #255	; 0xff
     de0:	e353000b 	cmp	r3, #11	; 0xb
     de4:	8a000005 	bhi	e00 <_dl_start+0xf8>
     de8:	e262346f 	rsb	r3, r2, #1862270976	; 0x6f000000
     dec:	e28338ff 	add	r3, r3, #16711680	; 0xff0000
     df0:	e2833cfe 	add	r3, r3, #65024	; 0xfe00
     df4:	e2833034 	add	r3, r3, #52	; 0x34
     df8:	e78c0103 	str	r0, [ip, r3, lsl #2]
     dfc:	ea00000a 	b	e2c <_dl_start+0x124>
     e00:	e5902000 	ldr	r2, [r0]
     e04:	e262346f 	rsb	r3, r2, #1862270976	; 0x6f000000
     e08:	e28338ff 	add	r3, r3, #16711680	; 0xff0000
     e0c:	e2833cfe 	add	r3, r3, #65024	; 0xfe00
     e10:	e28330ff 	add	r3, r3, #255	; 0xff
     e14:	e3530009 	cmp	r3, #9	; 0x9
     e18:	9262346f 	rsbls	r3, r2, #1862270976	; 0x6f000000
     e1c:	928338ff 	addls	r3, r3, #16711680	; 0xff0000
     e20:	92833cff 	addls	r3, r3, #65280	; 0xff00
     e24:	92833040 	addls	r3, r3, #64	; 0x40
     e28:	978c0103 	strls	r0, [ip, r3, lsl #2]
     e2c:	e5b03008 	ldr	r3, [r0, #8]!
     e30:	e3530000 	cmp	r3, #0	; 0x0
     e34:	1affffce 	bne	d74 <_dl_start+0x6c>
     e38:	e59d3040 	ldr	r3, [sp, #64]
     e3c:	e3530000 	cmp	r3, #0	; 0x0
     e40:	0a00008e 	beq	1080 <_dl_start+0x378>
     e44:	e1a04003 	mov	r4, r3
     e48:	e3a00000 	mov	r0, #0	; 0x0
     e4c:	e59c3010 	ldr	r3, [ip, #16]
     e50:	e1530000 	cmp	r3, r0
     e54:	0a00000d 	beq	e90 <_dl_start+0x188>
     e58:	e15e0000 	cmp	lr, r0
     e5c:	059c2010 	ldreq	r2, [ip, #16]
     e60:	05923004 	ldreq	r3, [r2, #4]
     e64:	00843003 	addeq	r3, r4, r3
     e68:	05823004 	streq	r3, [r2, #4]
     e6c:	0a000007 	beq	e90 <_dl_start+0x188>
     e70:	e5933000 	ldr	r3, [r3]
     e74:	e58e3000 	str	r3, [lr]
     e78:	e59c3010 	ldr	r3, [ip, #16]
     e7c:	e5933004 	ldr	r3, [r3, #4]
     e80:	e0843003 	add	r3, r4, r3
     e84:	e58e3004 	str	r3, [lr, #4]
     e88:	e2800001 	add	r0, r0, #1	; 0x1
     e8c:	e58ce010 	str	lr, [ip, #16]
     e90:	e59c300c 	ldr	r3, [ip, #12]
     e94:	e3530000 	cmp	r3, #0	; 0x0
     e98:	0a00000f 	beq	edc <_dl_start+0x1d4>
     e9c:	e35e0000 	cmp	lr, #0	; 0x0
     ea0:	059c200c 	ldreq	r2, [ip, #12]
     ea4:	05923004 	ldreq	r3, [r2, #4]
     ea8:	00843003 	addeq	r3, r4, r3
     eac:	05823004 	streq	r3, [r2, #4]
     eb0:	0a000009 	beq	edc <_dl_start+0x1d4>
     eb4:	e1a02180 	mov	r2, r0, lsl #3
     eb8:	e082100e 	add	r1, r2, lr
     ebc:	e5933000 	ldr	r3, [r3]
     ec0:	e782300e 	str	r3, [r2, lr]
     ec4:	e59c300c 	ldr	r3, [ip, #12]
     ec8:	e5933004 	ldr	r3, [r3, #4]
     ecc:	e0843003 	add	r3, r4, r3
     ed0:	e5813004 	str	r3, [r1, #4]
     ed4:	e2800001 	add	r0, r0, #1	; 0x1
     ed8:	e58c100c 	str	r1, [ip, #12]
     edc:	e59c3014 	ldr	r3, [ip, #20]
     ee0:	e3530000 	cmp	r3, #0	; 0x0
     ee4:	0a00000f 	beq	f28 <_dl_start+0x220>
     ee8:	e35e0000 	cmp	lr, #0	; 0x0
     eec:	059c2014 	ldreq	r2, [ip, #20]
     ef0:	05923004 	ldreq	r3, [r2, #4]
     ef4:	00843003 	addeq	r3, r4, r3
     ef8:	05823004 	streq	r3, [r2, #4]
     efc:	0a000009 	beq	f28 <_dl_start+0x220>
     f00:	e1a02180 	mov	r2, r0, lsl #3
     f04:	e082100e 	add	r1, r2, lr
     f08:	e5933000 	ldr	r3, [r3]
     f0c:	e782300e 	str	r3, [r2, lr]
     f10:	e59c3014 	ldr	r3, [ip, #20]
     f14:	e5933004 	ldr	r3, [r3, #4]
     f18:	e0843003 	add	r3, r4, r3
     f1c:	e5813004 	str	r3, [r1, #4]
     f20:	e2800001 	add	r0, r0, #1	; 0x1
     f24:	e58c1014 	str	r1, [ip, #20]
     f28:	e59c3018 	ldr	r3, [ip, #24]
     f2c:	e3530000 	cmp	r3, #0	; 0x0
     f30:	0a00000f 	beq	f74 <_dl_start+0x26c>
     f34:	e35e0000 	cmp	lr, #0	; 0x0
     f38:	059c2018 	ldreq	r2, [ip, #24]
     f3c:	05923004 	ldreq	r3, [r2, #4]
     f40:	00843003 	addeq	r3, r4, r3
     f44:	05823004 	streq	r3, [r2, #4]
     f48:	0a000009 	beq	f74 <_dl_start+0x26c>
     f4c:	e1a02180 	mov	r2, r0, lsl #3
     f50:	e082100e 	add	r1, r2, lr
     f54:	e5933000 	ldr	r3, [r3]
     f58:	e782300e 	str	r3, [r2, lr]
     f5c:	e59c3018 	ldr	r3, [ip, #24]
     f60:	e5933004 	ldr	r3, [r3, #4]
     f64:	e0843003 	add	r3, r4, r3
     f68:	e5813004 	str	r3, [r1, #4]
     f6c:	e2800001 	add	r0, r0, #1	; 0x1
     f70:	e58c1018 	str	r1, [ip, #24]
     f74:	e59c3044 	ldr	r3, [ip, #68]
     f78:	e3530000 	cmp	r3, #0	; 0x0
     f7c:	0a00000f 	beq	fc0 <_dl_start+0x2b8>
     f80:	e35e0000 	cmp	lr, #0	; 0x0
     f84:	059c2044 	ldreq	r2, [ip, #68]
     f88:	05923004 	ldreq	r3, [r2, #4]
     f8c:	00843003 	addeq	r3, r4, r3
     f90:	05823004 	streq	r3, [r2, #4]
     f94:	0a000009 	beq	fc0 <_dl_start+0x2b8>
     f98:	e1a02180 	mov	r2, r0, lsl #3
     f9c:	e082100e 	add	r1, r2, lr
     fa0:	e5933000 	ldr	r3, [r3]
     fa4:	e782300e 	str	r3, [r2, lr]
     fa8:	e59c3044 	ldr	r3, [ip, #68]
     fac:	e5933004 	ldr	r3, [r3, #4]
     fb0:	e0843003 	add	r3, r4, r3
     fb4:	e5813004 	str	r3, [r1, #4]
     fb8:	e2800001 	add	r0, r0, #1	; 0x1
     fbc:	e58c1044 	str	r1, [ip, #68]
     fc0:	e59c305c 	ldr	r3, [ip, #92]
     fc4:	e3530000 	cmp	r3, #0	; 0x0
     fc8:	0a00000f 	beq	100c <_dl_start+0x304>
     fcc:	e35e0000 	cmp	lr, #0	; 0x0
     fd0:	059c205c 	ldreq	r2, [ip, #92]
     fd4:	05923004 	ldreq	r3, [r2, #4]
     fd8:	00843003 	addeq	r3, r4, r3
     fdc:	05823004 	streq	r3, [r2, #4]
     fe0:	0a000009 	beq	100c <_dl_start+0x304>
     fe4:	e1a02180 	mov	r2, r0, lsl #3
     fe8:	e082100e 	add	r1, r2, lr
     fec:	e5933000 	ldr	r3, [r3]
     ff0:	e782300e 	str	r3, [r2, lr]
     ff4:	e59c305c 	ldr	r3, [ip, #92]
     ff8:	e5933004 	ldr	r3, [r3, #4]
     ffc:	e0843003 	add	r3, r4, r3
    1000:	e5813004 	str	r3, [r1, #4]
    1004:	e2800001 	add	r0, r0, #1	; 0x1
    1008:	e58c105c 	str	r1, [ip, #92]
    100c:	e59c30c4 	ldr	r3, [ip, #196]
    1010:	e3530000 	cmp	r3, #0	; 0x0
    1014:	0a00000f 	beq	1058 <_dl_start+0x350>
    1018:	e35e0000 	cmp	lr, #0	; 0x0
    101c:	059c20c4 	ldreq	r2, [ip, #196]
    1020:	05923004 	ldreq	r3, [r2, #4]
    1024:	00843003 	addeq	r3, r4, r3
    1028:	05823004 	streq	r3, [r2, #4]
    102c:	0a000009 	beq	1058 <_dl_start+0x350>
    1030:	e1a02180 	mov	r2, r0, lsl #3
    1034:	e082100e 	add	r1, r2, lr
    1038:	e5933000 	ldr	r3, [r3]
    103c:	e782300e 	str	r3, [r2, lr]
    1040:	e59c30c4 	ldr	r3, [ip, #196]
    1044:	e5933004 	ldr	r3, [r3, #4]
    1048:	e0843003 	add	r3, r4, r3
    104c:	e5813004 	str	r3, [r1, #4]
    1050:	e2800001 	add	r0, r0, #1	; 0x1
    1054:	e58c10c4 	str	r1, [ip, #196]
    1058:	e3500008 	cmp	r0, #8	; 0x8
    105c:	da000007 	ble	1080 <_dl_start+0x378>
    1060:	e59f05c8 	ldr	r0, [pc, #1480]	; 1630 <.text+0xa60>
    1064:	e08a0000 	add	r0, sl, r0
    1068:	e59f15c4 	ldr	r1, [pc, #1476]	; 1634 <.text+0xa64>
    106c:	e08a1001 	add	r1, sl, r1
    1070:	e3a0206a 	mov	r2, #106	; 0x6a
    1074:	e59f35bc 	ldr	r3, [pc, #1468]	; 1638 <.text+0xa68>
    1078:	e79a3003 	ldr	r3, [sl, r3]
    107c:	eb0039cf 	bl	f7c0 <__GI___assert_fail>
    1080:	e59c3050 	ldr	r3, [ip, #80]
    1084:	e3530000 	cmp	r3, #0	; 0x0
    1088:	0a00000a 	beq	10b8 <_dl_start+0x3b0>
    108c:	e5933004 	ldr	r3, [r3, #4]
    1090:	e3530011 	cmp	r3, #17	; 0x11
    1094:	0a000007 	beq	10b8 <_dl_start+0x3b0>
    1098:	e59f059c 	ldr	r0, [pc, #1436]	; 163c <.text+0xa6c>
    109c:	e08a0000 	add	r0, sl, r0
    10a0:	e59f158c 	ldr	r1, [pc, #1420]	; 1634 <.text+0xa64>
    10a4:	e08a1001 	add	r1, sl, r1
    10a8:	e3a02070 	mov	r2, #112	; 0x70
    10ac:	e59f3584 	ldr	r3, [pc, #1412]	; 1638 <.text+0xa68>
    10b0:	e79a3003 	ldr	r3, [sl, r3]
    10b4:	eb0039c1 	bl	f7c0 <__GI___assert_fail>
    10b8:	e59c3044 	ldr	r3, [ip, #68]
    10bc:	e3530000 	cmp	r3, #0	; 0x0
    10c0:	0a00000b 	beq	10f4 <_dl_start+0x3ec>
    10c4:	e59c304c 	ldr	r3, [ip, #76]
    10c8:	e5933004 	ldr	r3, [r3, #4]
    10cc:	e3530008 	cmp	r3, #8	; 0x8
    10d0:	0a000007 	beq	10f4 <_dl_start+0x3ec>
    10d4:	e59f0564 	ldr	r0, [pc, #1380]	; 1640 <.text+0xa70>
    10d8:	e08a0000 	add	r0, sl, r0
    10dc:	e59f1550 	ldr	r1, [pc, #1360]	; 1634 <.text+0xa64>
    10e0:	e08a1001 	add	r1, sl, r1
    10e4:	e3a0207e 	mov	r2, #126	; 0x7e
    10e8:	e59f3548 	ldr	r3, [pc, #1352]	; 1638 <.text+0xa68>
    10ec:	e79a3003 	ldr	r3, [sl, r3]
    10f0:	eb0039b2 	bl	f7c0 <__GI___assert_fail>
    10f4:	e59c3098 	ldr	r3, [ip, #152]
    10f8:	e3530000 	cmp	r3, #0	; 0x0
    10fc:	0a00000a 	beq	112c <_dl_start+0x424>
    1100:	e5933004 	ldr	r3, [r3, #4]
    1104:	e3530001 	cmp	r3, #1	; 0x1
    1108:	0a000007 	beq	112c <_dl_start+0x424>
    110c:	e59f0530 	ldr	r0, [pc, #1328]	; 1644 <.text+0xa74>
    1110:	e08a0000 	add	r0, sl, r0
    1114:	e59f1518 	ldr	r1, [pc, #1304]	; 1634 <.text+0xa64>
    1118:	e08a1001 	add	r1, sl, r1
    111c:	e3a02083 	mov	r2, #131	; 0x83
    1120:	e59f3510 	ldr	r3, [pc, #1296]	; 1638 <.text+0xa68>
    1124:	e79a3003 	ldr	r3, [sl, r3]
    1128:	eb0039a4 	bl	f7c0 <__GI___assert_fail>
    112c:	e59c3078 	ldr	r3, [ip, #120]
    1130:	e3530000 	cmp	r3, #0	; 0x0
    1134:	0a00000a 	beq	1164 <_dl_start+0x45c>
    1138:	e5933004 	ldr	r3, [r3, #4]
    113c:	e3530008 	cmp	r3, #8	; 0x8
    1140:	0a000007 	beq	1164 <_dl_start+0x45c>
    1144:	e59f04fc 	ldr	r0, [pc, #1276]	; 1648 <.text+0xa78>
    1148:	e08a0000 	add	r0, sl, r0
    114c:	e59f14e0 	ldr	r1, [pc, #1248]	; 1634 <.text+0xa64>
    1150:	e08a1001 	add	r1, sl, r1
    1154:	e3a02085 	mov	r2, #133	; 0x85
    1158:	e59f34d8 	ldr	r3, [pc, #1240]	; 1638 <.text+0xa68>
    115c:	e79a3003 	ldr	r3, [sl, r3]
    1160:	eb003996 	bl	f7c0 <__GI___assert_fail>
    1164:	e59c3074 	ldr	r3, [ip, #116]
    1168:	e3530000 	cmp	r3, #0	; 0x0
    116c:	0a000007 	beq	1190 <_dl_start+0x488>
    1170:	e59f04d4 	ldr	r0, [pc, #1236]	; 164c <.text+0xa7c>
    1174:	e08a0000 	add	r0, sl, r0
    1178:	e59f14b4 	ldr	r1, [pc, #1204]	; 1634 <.text+0xa64>
    117c:	e08a1001 	add	r1, sl, r1
    1180:	e3a02087 	mov	r2, #135	; 0x87
    1184:	e59f34ac 	ldr	r3, [pc, #1196]	; 1638 <.text+0xa68>
    1188:	e79a3003 	ldr	r3, [sl, r3]
    118c:	eb00398b 	bl	f7c0 <__GI___assert_fail>
    1190:	e59c303c 	ldr	r3, [ip, #60]
    1194:	e3530000 	cmp	r3, #0	; 0x0
    1198:	0a000007 	beq	11bc <_dl_start+0x4b4>
    119c:	e59f04ac 	ldr	r0, [pc, #1196]	; 1650 <.text+0xa80>
    11a0:	e08a0000 	add	r0, sl, r0
    11a4:	e59f1488 	ldr	r1, [pc, #1160]	; 1634 <.text+0xa64>
    11a8:	e08a1001 	add	r1, sl, r1
    11ac:	e3a02088 	mov	r2, #136	; 0x88
    11b0:	e59f3480 	ldr	r3, [pc, #1152]	; 1638 <.text+0xa68>
    11b4:	e79a3003 	ldr	r3, [sl, r3]
    11b8:	eb003980 	bl	f7c0 <__GI___assert_fail>
    11bc:	e59d3040 	ldr	r3, [sp, #64]
    11c0:	e3530000 	cmp	r3, #0	; 0x0
    11c4:	1a000002 	bne	11d4 <_dl_start+0x4cc>
    11c8:	e59d315c 	ldr	r3, [sp, #348]
    11cc:	e3530000 	cmp	r3, #0	; 0x0
    11d0:	1a00010f 	bne	1614 <_dl_start+0x90c>
    11d4:	e3a03000 	mov	r3, #0	; 0x0
    11d8:	e58d3030 	str	r3, [sp, #48]
    11dc:	e58d3038 	str	r3, [sp, #56]
    11e0:	e58d302c 	str	r3, [sp, #44]
    11e4:	e58d3028 	str	r3, [sp, #40]
    11e8:	e59d30a4 	ldr	r3, [sp, #164]
    11ec:	e3530000 	cmp	r3, #0	; 0x0
    11f0:	15933004 	ldrne	r3, [r3, #4]
    11f4:	158d3028 	strne	r3, [sp, #40]
    11f8:	159d30a8 	ldrne	r3, [sp, #168]
    11fc:	15933004 	ldrne	r3, [r3, #4]
    1200:	158d302c 	strne	r3, [sp, #44]
    1204:	e59d30b0 	ldr	r3, [sp, #176]
    1208:	e3530000 	cmp	r3, #0	; 0x0
    120c:	0a000014 	beq	1264 <_dl_start+0x55c>
    1210:	e59d30bc 	ldr	r3, [sp, #188]
    1214:	e5931004 	ldr	r1, [r3, #4]
    1218:	e59d3028 	ldr	r3, [sp, #40]
    121c:	e59d202c 	ldr	r2, [sp, #44]
    1220:	e0833002 	add	r3, r3, r2
    1224:	e1530001 	cmp	r3, r1
    1228:	0a000008 	beq	1250 <_dl_start+0x548>
    122c:	e59f0420 	ldr	r0, [pc, #1056]	; 1654 <.text+0xa84>
    1230:	e08a0000 	add	r0, sl, r0
    1234:	e59f141c 	ldr	r1, [pc, #1052]	; 1658 <.text+0xa88>
    1238:	e08a1001 	add	r1, sl, r1
    123c:	e3a02c02 	mov	r2, #512	; 0x200
    1240:	e2822003 	add	r2, r2, #3	; 0x3
    1244:	e59f3410 	ldr	r3, [pc, #1040]	; 165c <.text+0xa8c>
    1248:	e79a3003 	ldr	r3, [sl, r3]
    124c:	eb00395b 	bl	f7c0 <__GI___assert_fail>
    1250:	e59d3068 	ldr	r3, [sp, #104]
    1254:	e5932004 	ldr	r2, [r3, #4]
    1258:	e59d302c 	ldr	r3, [sp, #44]
    125c:	e0833002 	add	r3, r3, r2
    1260:	e58d302c 	str	r3, [sp, #44]
    1264:	e28d0040 	add	r0, sp, #64	; 0x40
    1268:	e28d5028 	add	r5, sp, #40	; 0x28
    126c:	e8951020 	ldmia	r5, {r5, ip}
    1270:	e085100c 	add	r1, r5, ip
    1274:	e58d1020 	str	r1, [sp, #32]
    1278:	e59d9040 	ldr	r9, [sp, #64]
    127c:	e59d3078 	ldr	r3, [sp, #120]
    1280:	e5933004 	ldr	r3, [r3, #4]
    1284:	e58d301c 	str	r3, [sp, #28]
    1288:	e59d30fc 	ldr	r3, [sp, #252]
    128c:	e3530000 	cmp	r3, #0	; 0x0
    1290:	15932004 	ldrne	r2, [r3, #4]
    1294:	03a02000 	moveq	r2, #0	; 0x0
    1298:	e1a01005 	mov	r1, r5
    129c:	e1a031ac 	mov	r3, ip, lsr #3
    12a0:	e1530002 	cmp	r3, r2
    12a4:	21a03002 	movcs	r3, r2
    12a8:	e0855183 	add	r5, r5, r3, lsl #3
    12ac:	e1510005 	cmp	r1, r5
    12b0:	2a000005 	bcs	12cc <_dl_start+0x5c4>
    12b4:	e4912008 	ldr	r2, [r1], #8
    12b8:	e7993002 	ldr	r3, [r9, r2]
    12bc:	e0893003 	add	r3, r9, r3
    12c0:	e7893002 	str	r3, [r9, r2]
    12c4:	e1510005 	cmp	r1, r5
    12c8:	3afffff9 	bcc	12b4 <_dl_start+0x5ac>
    12cc:	e59030e4 	ldr	r3, [r0, #228]
    12d0:	e3530000 	cmp	r3, #0	; 0x0
    12d4:	1a000007 	bne	12f8 <_dl_start+0x5f0>
    12d8:	e59f0380 	ldr	r0, [pc, #896]	; 1660 <.text+0xa90>
    12dc:	e08a0000 	add	r0, sl, r0
    12e0:	e59f137c 	ldr	r1, [pc, #892]	; 1664 <.text+0xa94>
    12e4:	e08a1001 	add	r1, sl, r1
    12e8:	e3a0206d 	mov	r2, #109	; 0x6d
    12ec:	e59f3374 	ldr	r3, [pc, #884]	; 1668 <.text+0xa98>
    12f0:	e79a3003 	ldr	r3, [sl, r3]
    12f4:	eb003931 	bl	f7c0 <__GI___assert_fail>
    12f8:	e59d2020 	ldr	r2, [sp, #32]
    12fc:	e1550002 	cmp	r5, r2
    1300:	2a0000c3 	bcs	1614 <_dl_start+0x90c>
    1304:	e58d0018 	str	r0, [sp, #24]
    1308:	e59f335c 	ldr	r3, [pc, #860]	; 166c <.text+0xa9c>
    130c:	e79a3003 	ldr	r3, [sl, r3]
    1310:	e58d3014 	str	r3, [sp, #20]
    1314:	e59f3354 	ldr	r3, [pc, #852]	; 1670 <.text+0xaa0>
    1318:	e79a3003 	ldr	r3, [sl, r3]
    131c:	e58d300c 	str	r3, [sp, #12]
    1320:	e59f3348 	ldr	r3, [pc, #840]	; 1670 <.text+0xaa0>
    1324:	e79a3003 	ldr	r3, [sl, r3]
    1328:	e58d3010 	str	r3, [sp, #16]
    132c:	e59f3338 	ldr	r3, [pc, #824]	; 166c <.text+0xa9c>
    1330:	e79a3003 	ldr	r3, [sl, r3]
    1334:	e58d3008 	str	r3, [sp, #8]
    1338:	e5953004 	ldr	r3, [r5, #4]
    133c:	e1a03423 	mov	r3, r3, lsr #8
    1340:	e59d001c 	ldr	r0, [sp, #28]
    1344:	e0804203 	add	r4, r0, r3, lsl #4
    1348:	e5953000 	ldr	r3, [r5]
    134c:	e0898003 	add	r8, r9, r3
    1350:	e1a0b008 	mov	fp, r8
    1354:	e5d51004 	ldrb	r1, [r5, #4]
    1358:	e1a07004 	mov	r7, r4
    135c:	e5d4200e 	ldrb	r2, [r4, #14]
    1360:	e5d4300f 	ldrb	r3, [r4, #15]
    1364:	e1922403 	orrs	r2, r2, r3, lsl #8
    1368:	159d6040 	ldrne	r6, [sp, #64]
    136c:	03a06000 	moveq	r6, #0	; 0x0
    1370:	e2543000 	subs	r3, r4, #0	; 0x0
    1374:	15933004 	ldrne	r3, [r3, #4]
    1378:	10866003 	addne	r6, r6, r3
    137c:	e2413001 	sub	r3, r1, #1	; 0x1
    1380:	e3530015 	cmp	r3, #21	; 0x15
    1384:	908ff103 	addls	pc, pc, r3, lsl #2
    1388:	ea00009a 	b	15f8 <_dl_start+0x8f0>
    138c:	ea000045 	b	14a8 <_dl_start+0x7a0>
    1390:	ea000040 	b	1498 <_dl_start+0x790>
    1394:	ea000097 	b	15f8 <_dl_start+0x8f0>
    1398:	ea000096 	b	15f8 <_dl_start+0x8f0>
    139c:	ea000095 	b	15f8 <_dl_start+0x8f0>
    13a0:	ea000094 	b	15f8 <_dl_start+0x8f0>
    13a4:	ea000093 	b	15f8 <_dl_start+0x8f0>
    13a8:	ea000092 	b	15f8 <_dl_start+0x8f0>
    13ac:	ea000091 	b	15f8 <_dl_start+0x8f0>
    13b0:	ea000090 	b	15f8 <_dl_start+0x8f0>
    13b4:	ea00008f 	b	15f8 <_dl_start+0x8f0>
    13b8:	ea00008e 	b	15f8 <_dl_start+0x8f0>
    13bc:	ea00008d 	b	15f8 <_dl_start+0x8f0>
    13c0:	ea00008c 	b	15f8 <_dl_start+0x8f0>
    13c4:	ea00008b 	b	15f8 <_dl_start+0x8f0>
    13c8:	ea00008a 	b	15f8 <_dl_start+0x8f0>
    13cc:	ea000089 	b	15f8 <_dl_start+0x8f0>
    13d0:	ea000088 	b	15f8 <_dl_start+0x8f0>
    13d4:	ea000087 	b	15f8 <_dl_start+0x8f0>
    13d8:	ea000001 	b	13e4 <_dl_start+0x6dc>
    13dc:	ea000025 	b	1478 <_dl_start+0x770>
    13e0:	ea000024 	b	1478 <_dl_start+0x770>
    13e4:	e2543000 	subs	r3, r4, #0	; 0x0
    13e8:	0a000085 	beq	1604 <_dl_start+0x8fc>
    13ec:	e5932008 	ldr	r2, [r3, #8]
    13f0:	e5941008 	ldr	r1, [r4, #8]
    13f4:	e1520001 	cmp	r2, r1
    13f8:	8a000006 	bhi	1418 <_dl_start+0x710>
    13fc:	e59f3270 	ldr	r3, [pc, #624]	; 1674 <.text+0xaa4>
    1400:	e79a3003 	ldr	r3, [sl, r3]
    1404:	e5933020 	ldr	r3, [r3, #32]
    1408:	e3530000 	cmp	r3, #0	; 0x0
    140c:	0a000011 	beq	1458 <_dl_start+0x750>
    1410:	e1520001 	cmp	r2, r1
    1414:	2a00000f 	bcs	1458 <_dl_start+0x750>
    1418:	e59d1018 	ldr	r1, [sp, #24]
    141c:	e5913034 	ldr	r3, [r1, #52]
    1420:	e593c004 	ldr	ip, [r3, #4]
    1424:	e59f324c 	ldr	r3, [pc, #588]	; 1678 <.text+0xaa8>
    1428:	e79a3003 	ldr	r3, [sl, r3]
    142c:	e5933000 	ldr	r3, [r3]
    1430:	e5932000 	ldr	r2, [r3]
    1434:	e3520000 	cmp	r2, #0	; 0x0
    1438:	059f323c 	ldreq	r3, [pc, #572]	; 167c <.text+0xaac>
    143c:	008a2003 	addeq	r2, sl, r3
    1440:	e5973000 	ldr	r3, [r7]
    1444:	e3a00002 	mov	r0, #2	; 0x2
    1448:	e59f1230 	ldr	r1, [pc, #560]	; 1680 <.text+0xab0>
    144c:	e08a1001 	add	r1, sl, r1
    1450:	e08c3003 	add	r3, ip, r3
    1454:	eb002d24 	bl	c8ec <_dl_dprintf>
    1458:	e5973008 	ldr	r3, [r7, #8]
    145c:	e5942008 	ldr	r2, [r4, #8]
    1460:	e1a0000b 	mov	r0, fp
    1464:	e1a01006 	mov	r1, r6
    1468:	e1530002 	cmp	r3, r2
    146c:	31a02003 	movcc	r2, r3
    1470:	eb004117 	bl	118d4 <memcpy>
    1474:	ea000062 	b	1604 <_dl_start+0x8fc>
    1478:	e2543000 	subs	r3, r4, #0	; 0x0
    147c:	0a000003 	beq	1490 <_dl_start+0x788>
    1480:	e5933004 	ldr	r3, [r3, #4]
    1484:	e3530000 	cmp	r3, #0	; 0x0
    1488:	05883000 	streq	r3, [r8]
    148c:	0a00005c 	beq	1604 <_dl_start+0x8fc>
    1490:	e5886000 	str	r6, [r8]
    1494:	ea00005a 	b	1604 <_dl_start+0x8fc>
    1498:	e5983000 	ldr	r3, [r8]
    149c:	e0863003 	add	r3, r6, r3
    14a0:	e5883000 	str	r3, [r8]
    14a4:	ea000056 	b	1604 <_dl_start+0x8fc>
    14a8:	e5983000 	ldr	r3, [r8]
    14ac:	e3c374ff 	bic	r7, r3, #-16777216	; 0xff000000
    14b0:	e3130502 	tst	r3, #8388608	; 0x800000
    14b4:	138774ff 	orrne	r7, r7, #-16777216	; 0xff000000
    14b8:	e0680006 	rsb	r0, r8, r6
    14bc:	e0800107 	add	r0, r0, r7, lsl #2
    14c0:	e20034fe 	and	r3, r0, #-33554432	; 0xfe000000
    14c4:	e35304fe 	cmp	r3, #-33554432	; 0xfe000000
    14c8:	13530000 	cmpne	r3, #0	; 0x0
    14cc:	0a000043 	beq	15e0 <_dl_start+0x8d8>
    14d0:	e59d2014 	ldr	r2, [sp, #20]
    14d4:	e5923000 	ldr	r3, [r2]
    14d8:	e3530000 	cmp	r3, #0	; 0x0
    14dc:	1a00001f 	bne	1560 <_dl_start+0x858>
    14e0:	e59d400c 	ldr	r4, [sp, #12]
    14e4:	e5943000 	ldr	r3, [r4]
    14e8:	e3530000 	cmp	r3, #0	; 0x0
    14ec:	1a000001 	bne	14f8 <_dl_start+0x7f0>
    14f0:	eb003dc0 	bl	10bf8 <__getpagesize>
    14f4:	e5840000 	str	r0, [r4]
    14f8:	e3e03000 	mvn	r3, #0	; 0x0
    14fc:	e58d3000 	str	r3, [sp]
    1500:	e3a00000 	mov	r0, #0	; 0x0
    1504:	e58d0004 	str	r0, [sp, #4]
    1508:	e59d3010 	ldr	r3, [sp, #16]
    150c:	e5931000 	ldr	r1, [r3]
    1510:	e3a02007 	mov	r2, #7	; 0x7
    1514:	e3a03022 	mov	r3, #34	; 0x22
    1518:	eb003dc4 	bl	10c30 <__mmap>
    151c:	e59d1014 	ldr	r1, [sp, #20]
    1520:	e5810000 	str	r0, [r1]
    1524:	e3500000 	cmp	r0, #0	; 0x0
    1528:	1a000008 	bne	1550 <_dl_start+0x848>
    152c:	e59f0150 	ldr	r0, [pc, #336]	; 1684 <.text+0xab4>
    1530:	e08a0000 	add	r0, sl, r0
    1534:	e59f114c 	ldr	r1, [pc, #332]	; 1688 <.text+0xab8>
    1538:	e08a1001 	add	r1, sl, r1
    153c:	e3a02f5f 	mov	r2, #380	; 0x17c
    1540:	e2822002 	add	r2, r2, #2	; 0x2
    1544:	e59f3140 	ldr	r3, [pc, #320]	; 168c <.text+0xabc>
    1548:	e79a3003 	ldr	r3, [sl, r3]
    154c:	eb00389b 	bl	f7c0 <__GI___assert_fail>
    1550:	e3a03000 	mov	r3, #0	; 0x0
    1554:	e59f2134 	ldr	r2, [pc, #308]	; 1690 <.text+0xac0>
    1558:	e79a2002 	ldr	r2, [sl, r2]
    155c:	e5823000 	str	r3, [r2]
    1560:	e59de008 	ldr	lr, [sp, #8]
    1564:	e59f3124 	ldr	r3, [pc, #292]	; 1690 <.text+0xac0>
    1568:	e79a2003 	ldr	r2, [sl, r3]
    156c:	e59e0000 	ldr	r0, [lr]
    1570:	e5921000 	ldr	r1, [r2]
    1574:	e080c001 	add	ip, r0, r1
    1578:	e3a0324e 	mov	r3, #-536870908	; 0xe0000004
    157c:	e2833651 	add	r3, r3, #84934656	; 0x5100000
    1580:	e2833aff 	add	r3, r3, #1044480	; 0xff000
    1584:	e7803001 	str	r3, [r0, r1]
    1588:	e58c6004 	str	r6, [ip, #4]
    158c:	e5923000 	ldr	r3, [r2]
    1590:	e2833008 	add	r3, r3, #8	; 0x8
    1594:	e5823000 	str	r3, [r2]
    1598:	e59d0010 	ldr	r0, [sp, #16]
    159c:	e5902000 	ldr	r2, [r0]
    15a0:	e1530002 	cmp	r3, r2
    15a4:	23a03000 	movcs	r3, #0	; 0x0
    15a8:	258e3000 	strcs	r3, [lr]
    15ac:	e068000c 	rsb	r0, r8, ip
    15b0:	e0800107 	add	r0, r0, r7, lsl #2
    15b4:	e20034fe 	and	r3, r0, #-33554432	; 0xfe000000
    15b8:	e35304fe 	cmp	r3, #-33554432	; 0xfe000000
    15bc:	13530000 	cmpne	r3, #0	; 0x0
    15c0:	0a000006 	beq	15e0 <_dl_start+0x8d8>
    15c4:	e3a00000 	mov	r0, #0	; 0x0
    15c8:	e59d2018 	ldr	r2, [sp, #24]
    15cc:	e5921004 	ldr	r1, [r2, #4]
    15d0:	e1a02000 	mov	r2, r0
    15d4:	e59f30b8 	ldr	r3, [pc, #184]	; 1694 <.text+0xac4>
    15d8:	e08a3003 	add	r3, sl, r3
    15dc:	eb002892 	bl	b82c <_dl_signal_error>
    15e0:	e5983000 	ldr	r3, [r8]
    15e4:	e20364ff 	and	r6, r3, #-16777216	; 0xff000000
    15e8:	e1a03300 	mov	r3, r0, lsl #6
    15ec:	e1866423 	orr	r6, r6, r3, lsr #8
    15f0:	e5886000 	str	r6, [r8]
    15f4:	ea000002 	b	1604 <_dl_start+0x8fc>
    15f8:	e59d0018 	ldr	r0, [sp, #24]
    15fc:	e3a02000 	mov	r2, #0	; 0x0
    1600:	eb0023cd 	bl	a53c <_dl_reloc_bad_type>
    1604:	e2855008 	add	r5, r5, #8	; 0x8
    1608:	e59d3020 	ldr	r3, [sp, #32]
    160c:	e1550003 	cmp	r5, r3
    1610:	3affff48 	bcc	1338 <_dl_start+0x630>
    1614:	e59d0024 	ldr	r0, [sp, #36]
    1618:	e28d1040 	add	r1, sp, #64	; 0x40
    161c:	ebfffd83 	bl	c30 <_dl_start_final>
    1620:	e28dde26 	add	sp, sp, #608	; 0x260
    1624:	e8bd8ff0 	ldmia	sp!, {r4, r5, r6, r7, r8, r9, sl, fp, pc}
    1628:	0001c878 	andeq	ip, r1, r8, ror r8
    162c:	0000001c 	andeq	r0, r0, ip, lsl r0
    1630:	ffff56d0 	swinv	0x00ff56d0
    1634:	ffff56dc 	swinv	0x00ff56dc
    1638:	00000038 	andeq	r0, r0, r8, lsr r0
    163c:	ffff56ec 	swinv	0x00ff56ec
    1640:	ffff5708 	swinv	0x00ff5708
    1644:	ffff5734 	swinv	0x00ff5734
    1648:	ffff57bc 	swinv	0x00ff57bc
    164c:	ffff57fc 	swinv	0x00ff57fc
    1650:	ffff5814 	swinv	0x00ff5814
    1654:	ffff582c 	swinv	0x00ff582c
    1658:	ffff5858 	swinv	0x00ff5858
    165c:	00000024 	andeq	r0, r0, r4, lsr #32
    1660:	ffff5860 	swinv	0x00ff5860
    1664:	ffff58a4 	swinv	0x00ff58a4
    1668:	0000003c 	andeq	r0, r0, ip, lsr r0
    166c:	0000002c 	andeq	r0, r0, ip, lsr #32
    1670:	00000034 	andeq	r0, r0, r4, lsr r0
    1674:	00000210 	andeq	r0, r0, r0, lsl r2
    1678:	000001d8 	ldreqd	r0, [r0], -r8
    167c:	ffff58b0 	swinv	0x00ff58b0
    1680:	ffff58c8 	swinv	0x00ff58c8
    1684:	ffff5914 	swinv	0x00ff5914
    1688:	ffff5938 	swinv	0x00ff5938
    168c:	00000028 	andeq	r0, r0, r8, lsr #32
    1690:	00000030 	andeq	r0, r0, r0, lsr r0
    1694:	ffff5954 	swinv	0x00ff5954

00001698 <relocate_doit>:
    1698:	e52de004 	str	lr, [sp, #-4]!
    169c:	e1a02000 	mov	r2, r0
    16a0:	e5903000 	ldr	r3, [r0]
    16a4:	e1a00003 	mov	r0, r3
    16a8:	e59311c0 	ldr	r1, [r3, #448]
    16ac:	e5922004 	ldr	r2, [r2, #4]
    16b0:	e3a03000 	mov	r3, #0	; 0x0
    16b4:	eb001d49 	bl	8be0 <_dl_relocate_object>
    16b8:	e49df004 	ldr	pc, [sp], #4

000016bc <map_doit>:
    16bc:	e92d4010 	stmdb	sp!, {r4, lr}
    16c0:	e24dd00c 	sub	sp, sp, #12	; 0xc
    16c4:	e1a04000 	mov	r4, r0
    16c8:	e3a02000 	mov	r2, #0	; 0x0
    16cc:	e58d2000 	str	r2, [sp]
    16d0:	e590300c 	ldr	r3, [r0, #12]
    16d4:	e58d3004 	str	r3, [sp, #4]
    16d8:	e58d2008 	str	r2, [sp, #8]
    16dc:	e5900004 	ldr	r0, [r0, #4]
    16e0:	e5941000 	ldr	r1, [r4]
    16e4:	e5942008 	ldr	r2, [r4, #8]
    16e8:	e3a03001 	mov	r3, #1	; 0x1
    16ec:	eb001470 	bl	68b4 <_dl_map_object>
    16f0:	e5840010 	str	r0, [r4, #16]
    16f4:	e28dd00c 	add	sp, sp, #12	; 0xc
    16f8:	e8bd8010 	ldmia	sp!, {r4, pc}

000016fc <version_check_doit>:
    16fc:	e92d4410 	stmdb	sp!, {r4, sl, lr}
    1700:	e59fa03c 	ldr	sl, [pc, #60]	; 1744 <.text+0xb74>
    1704:	e08fa00a 	add	sl, pc, sl
    1708:	e1a04000 	mov	r4, r0
    170c:	e59f3034 	ldr	r3, [pc, #52]	; 1748 <.text+0xb78>
    1710:	e79a3003 	ldr	r3, [sl, r3]
    1714:	e5930000 	ldr	r0, [r3]
    1718:	e3a01001 	mov	r1, #1	; 0x1
    171c:	e5942004 	ldr	r2, [r4, #4]
    1720:	eb002ed1 	bl	d26c <_dl_check_all_versions>
    1724:	e3500000 	cmp	r0, #0	; 0x0
    1728:	08bd8410 	ldmeqia	sp!, {r4, sl, pc}
    172c:	e5943000 	ldr	r3, [r4]
    1730:	e3530000 	cmp	r3, #0	; 0x0
    1734:	08bd8410 	ldmeqia	sp!, {r4, sl, pc}
    1738:	e3a00001 	mov	r0, #1	; 0x1
    173c:	eb003d77 	bl	10d20 <_Exit>
    1740:	e8bd8410 	ldmia	sp!, {r4, sl, pc}
    1744:	0001be88 	andeq	fp, r1, r8, lsl #29
    1748:	0000023c 	andeq	r0, r0, ip, lsr r2

0000174c <match_version>:
    174c:	e92d4070 	stmdb	sp!, {r4, r5, r6, lr}
    1750:	e1a06000 	mov	r6, r0
    1754:	e5913034 	ldr	r3, [r1, #52]
    1758:	e5935004 	ldr	r5, [r3, #4]
    175c:	e59100b4 	ldr	r0, [r1, #180]
    1760:	e3500000 	cmp	r0, #0	; 0x0
    1764:	08bd8070 	ldmeqia	sp!, {r4, r5, r6, pc}
    1768:	ea000001 	b	1774 <match_version+0x28>
    176c:	e3a00001 	mov	r0, #1	; 0x1
    1770:	e8bd8070 	ldmia	sp!, {r4, r5, r6, pc}
    1774:	e59130b4 	ldr	r3, [r1, #180]
    1778:	e5912000 	ldr	r2, [r1]
    177c:	e5933004 	ldr	r3, [r3, #4]
    1780:	e0824003 	add	r4, r2, r3
    1784:	e594300c 	ldr	r3, [r4, #12]
    1788:	e7941003 	ldr	r1, [r4, r3]
    178c:	e1a00006 	mov	r0, r6
    1790:	e0851001 	add	r1, r5, r1
    1794:	eb003e15 	bl	10ff0 <strcmp>
    1798:	e3500000 	cmp	r0, #0	; 0x0
    179c:	0afffff2 	beq	176c <match_version+0x20>
    17a0:	e5943010 	ldr	r3, [r4, #16]
    17a4:	e3530000 	cmp	r3, #0	; 0x0
    17a8:	10844003 	addne	r4, r4, r3
    17ac:	1afffff4 	bne	1784 <match_version+0x38>
    17b0:	e3a00000 	mov	r0, #0	; 0x0
    17b4:	e8bd8070 	ldmia	sp!, {r4, r5, r6, pc}

000017b8 <_dl_initial_error_catch_tsd>:
    17b8:	e52da004 	str	sl, [sp, #-4]!
    17bc:	e59fa010 	ldr	sl, [pc, #16]	; 17d4 <.text+0xc04>
    17c0:	e08fa00a 	add	sl, pc, sl
    17c4:	e59f300c 	ldr	r3, [pc, #12]	; 17d8 <.text+0xc08>
    17c8:	e79a0003 	ldr	r0, [sl, r3]
    17cc:	e8bd0400 	ldmia	sp!, {sl}
    17d0:	e1a0f00e 	mov	pc, lr
    17d4:	0001bdcc 	andeq	fp, r1, ip, asr #27
    17d8:	0000004c 	andeq	r0, r0, ip, asr #32

000017dc <do_preload>:
    17dc:	e92d4470 	stmdb	sp!, {r4, r5, r6, sl, lr}
    17e0:	e24dd01c 	sub	sp, sp, #28	; 0x1c
    17e4:	e59fa094 	ldr	sl, [pc, #148]	; 1880 <.text+0xcb0>
    17e8:	e08fa00a 	add	sl, pc, sl
    17ec:	e1a05000 	mov	r5, r0
    17f0:	e1a06002 	mov	r6, r2
    17f4:	e3a02000 	mov	r2, #0	; 0x0
    17f8:	e58d2000 	str	r2, [sp]
    17fc:	e58d0008 	str	r0, [sp, #8]
    1800:	e58d100c 	str	r1, [sp, #12]
    1804:	e3a03001 	mov	r3, #1	; 0x1
    1808:	e58d3010 	str	r3, [sp, #16]
    180c:	e58d2014 	str	r2, [sp, #20]
    1810:	e59f306c 	ldr	r3, [pc, #108]	; 1884 <.text+0xcb4>
    1814:	e79a3003 	ldr	r3, [sl, r3]
    1818:	e5934004 	ldr	r4, [r3, #4]
    181c:	e28d0004 	add	r0, sp, #4	; 0x4
    1820:	e1a0100d 	mov	r1, sp
    1824:	e59f305c 	ldr	r3, [pc, #92]	; 1888 <.text+0xcb8>
    1828:	e79a2003 	ldr	r2, [sl, r3]
    182c:	e28d3008 	add	r3, sp, #8	; 0x8
    1830:	eb002899 	bl	ba9c <_dl_catch_error>
    1834:	e59d3000 	ldr	r3, [sp]
    1838:	e3530000 	cmp	r3, #0	; 0x0
    183c:	0a000006 	beq	185c <do_preload+0x80>
    1840:	e3a00002 	mov	r0, #2	; 0x2
    1844:	e59f1040 	ldr	r1, [pc, #64]	; 188c <.text+0xcbc>
    1848:	e08a1001 	add	r1, sl, r1
    184c:	e1a02005 	mov	r2, r5
    1850:	e1a03006 	mov	r3, r6
    1854:	eb002c24 	bl	c8ec <_dl_dprintf>
    1858:	ea000005 	b	1874 <do_preload+0x98>
    185c:	e59f3020 	ldr	r3, [pc, #32]	; 1884 <.text+0xcb4>
    1860:	e79a3003 	ldr	r3, [sl, r3]
    1864:	e5933004 	ldr	r3, [r3, #4]
    1868:	e1530004 	cmp	r3, r4
    186c:	13a00001 	movne	r0, #1	; 0x1
    1870:	1a000000 	bne	1878 <do_preload+0x9c>
    1874:	e3a00000 	mov	r0, #0	; 0x0
    1878:	e28dd01c 	add	sp, sp, #28	; 0x1c
    187c:	e8bd8470 	ldmia	sp!, {r4, r5, r6, sl, pc}
    1880:	0001bda4 	andeq	fp, r1, r4, lsr #27
    1884:	0000023c 	andeq	r0, r0, ip, lsr r2
    1888:	00000044 	andeq	r0, r0, r4, asr #32
    188c:	ffff5978 	swinv	0x00ff5978

00001890 <rtld_lock_default_lock_recursive>:
    1890:	e5903004 	ldr	r3, [r0, #4]
    1894:	e2833001 	add	r3, r3, #1	; 0x1
    1898:	e5803004 	str	r3, [r0, #4]
    189c:	e1a0f00e 	mov	pc, lr

000018a0 <rtld_lock_default_unlock_recursive>:
    18a0:	e5903004 	ldr	r3, [r0, #4]
    18a4:	e2433001 	sub	r3, r3, #1	; 0x1
    18a8:	e5803004 	str	r3, [r0, #4]
    18ac:	e1a0f00e 	mov	pc, lr

000018b0 <dl_main>:
    18b0:	e1a0c00d 	mov	ip, sp
    18b4:	e92ddff0 	stmdb	sp!, {r4, r5, r6, r7, r8, r9, sl, fp, ip, lr, pc}
    18b8:	e24cb004 	sub	fp, ip, #4	; 0x4
    18bc:	e24dd084 	sub	sp, sp, #132	; 0x84
    18c0:	e59faf90 	ldr	sl, [pc, #3984]	; 2858 <.text+0x1c88>
    18c4:	e08fa00a 	add	sl, pc, sl
    18c8:	e1a06000 	mov	r6, r0
    18cc:	e1a08001 	mov	r8, r1
    18d0:	e1a09002 	mov	r9, r2
    18d4:	e3a00000 	mov	r0, #0	; 0x0
    18d8:	e50b0078 	str	r0, [fp, #-120]
    18dc:	e50b0074 	str	r0, [fp, #-116]
    18e0:	e50b007c 	str	r0, [fp, #-124]
    18e4:	e59f3f70 	ldr	r3, [pc, #3952]	; 285c <.text+0x1c8c>
    18e8:	e79a4003 	ldr	r4, [sl, r3]
    18ec:	e59f3f6c 	ldr	r3, [pc, #3948]	; 2860 <.text+0x1c90>
    18f0:	e79a3003 	ldr	r3, [sl, r3]
    18f4:	e58431b4 	str	r3, [r4, #436]
    18f8:	e59f3f64 	ldr	r3, [pc, #3940]	; 2864 <.text+0x1c94>
    18fc:	e79a3003 	ldr	r3, [sl, r3]
    1900:	e58433d8 	str	r3, [r4, #984]
    1904:	e59f3f5c 	ldr	r3, [pc, #3932]	; 2868 <.text+0x1c98>
    1908:	e79a3003 	ldr	r3, [sl, r3]
    190c:	e58433dc 	str	r3, [r4, #988]
    1910:	e59f3f54 	ldr	r3, [pc, #3924]	; 286c <.text+0x1c9c>
    1914:	e79a3003 	ldr	r3, [sl, r3]
    1918:	e58433e4 	str	r3, [r4, #996]
    191c:	e24b0040 	sub	r0, fp, #64	; 0x40
    1920:	eb0007a2 	bl	37b0 <process_envvars>
    1924:	e5992000 	ldr	r2, [r9]
    1928:	e59f3f40 	ldr	r3, [pc, #3904]	; 2870 <.text+0x1ca0>
    192c:	e79a3003 	ldr	r3, [sl, r3]
    1930:	e1520003 	cmp	r2, r3
    1934:	1a0000d7 	bne	1c98 <dl_main+0x3e8>
    1938:	e3a01001 	mov	r1, #1	; 0x1
    193c:	e50b107c 	str	r1, [fp, #-124]
    1940:	e59f3fac 	ldr	r3, [pc, #4012]	; 28f4 <.text+0x1d24>
    1944:	e79a3003 	ldr	r3, [sl, r3]
    1948:	e5933000 	ldr	r3, [r3]
    194c:	e5933000 	ldr	r3, [r3]
    1950:	e58431bc 	str	r3, [r4, #444]
    1954:	e59f3fc0 	ldr	r3, [pc, #4032]	; 291c <.text+0x1d4c>
    1958:	e79a3003 	ldr	r3, [sl, r3]
    195c:	e5933000 	ldr	r3, [r3]
    1960:	e1530001 	cmp	r3, r1
    1964:	da00006d 	ble	1b20 <dl_main+0x270>
    1968:	e59f3f84 	ldr	r3, [pc, #3972]	; 28f4 <.text+0x1d24>
    196c:	e79a4003 	ldr	r4, [sl, r3]
    1970:	e59f3fb8 	ldr	r3, [pc, #4024]	; 2930 <.text+0x1d60>
    1974:	e79a7003 	ldr	r7, [sl, r3]
    1978:	e59f3ef4 	ldr	r3, [pc, #3828]	; 2874 <.text+0x1ca4>
    197c:	e79a5003 	ldr	r5, [sl, r3]
    1980:	e59f3f94 	ldr	r3, [pc, #3988]	; 291c <.text+0x1d4c>
    1984:	e79a3003 	ldr	r3, [sl, r3]
    1988:	e50b3098 	str	r3, [fp, #-152]
    198c:	e59f3f88 	ldr	r3, [pc, #3976]	; 291c <.text+0x1d4c>
    1990:	e79a3003 	ldr	r3, [sl, r3]
    1994:	e50b309c 	str	r3, [fp, #-156]
    1998:	e5943000 	ldr	r3, [r4]
    199c:	e5930004 	ldr	r0, [r3, #4]
    19a0:	e59f1ed0 	ldr	r1, [pc, #3792]	; 2878 <.text+0x1ca8>
    19a4:	e08a1001 	add	r1, sl, r1
    19a8:	eb003d90 	bl	10ff0 <strcmp>
    19ac:	e3500000 	cmp	r0, #0	; 0x0
    19b0:	1a00000f 	bne	19f4 <dl_main+0x144>
    19b4:	e3a03001 	mov	r3, #1	; 0x1
    19b8:	e50b3040 	str	r3, [fp, #-64]
    19bc:	e2433002 	sub	r3, r3, #2	; 0x2
    19c0:	e5873028 	str	r3, [r7, #40]
    19c4:	e5953000 	ldr	r3, [r5]
    19c8:	e2833001 	add	r3, r3, #1	; 0x1
    19cc:	e5853000 	str	r3, [r5]
    19d0:	e59f3f44 	ldr	r3, [pc, #3908]	; 291c <.text+0x1d4c>
    19d4:	e79a2003 	ldr	r2, [sl, r3]
    19d8:	e5923000 	ldr	r3, [r2]
    19dc:	e2433001 	sub	r3, r3, #1	; 0x1
    19e0:	e5823000 	str	r3, [r2]
    19e4:	e5943000 	ldr	r3, [r4]
    19e8:	e2833004 	add	r3, r3, #4	; 0x4
    19ec:	e5843000 	str	r3, [r4]
    19f0:	ea00003f 	b	1af4 <dl_main+0x244>
    19f4:	e5943000 	ldr	r3, [r4]
    19f8:	e5930004 	ldr	r0, [r3, #4]
    19fc:	e59f1e78 	ldr	r1, [pc, #3704]	; 287c <.text+0x1cac>
    1a00:	e08a1001 	add	r1, sl, r1
    1a04:	eb003d79 	bl	10ff0 <strcmp>
    1a08:	e3500000 	cmp	r0, #0	; 0x0
    1a0c:	1a00000d 	bne	1a48 <dl_main+0x198>
    1a10:	e3a03002 	mov	r3, #2	; 0x2
    1a14:	e50b3040 	str	r3, [fp, #-64]
    1a18:	e5953000 	ldr	r3, [r5]
    1a1c:	e2833001 	add	r3, r3, #1	; 0x1
    1a20:	e5853000 	str	r3, [r5]
    1a24:	e59f3ef0 	ldr	r3, [pc, #3824]	; 291c <.text+0x1d4c>
    1a28:	e79a2003 	ldr	r2, [sl, r3]
    1a2c:	e5923000 	ldr	r3, [r2]
    1a30:	e2433001 	sub	r3, r3, #1	; 0x1
    1a34:	e5823000 	str	r3, [r2]
    1a38:	e5943000 	ldr	r3, [r4]
    1a3c:	e2833004 	add	r3, r3, #4	; 0x4
    1a40:	e5843000 	str	r3, [r4]
    1a44:	ea00002a 	b	1af4 <dl_main+0x244>
    1a48:	e5943000 	ldr	r3, [r4]
    1a4c:	e5930004 	ldr	r0, [r3, #4]
    1a50:	e59f1e28 	ldr	r1, [pc, #3624]	; 2880 <.text+0x1cb0>
    1a54:	e08a1001 	add	r1, sl, r1
    1a58:	eb003d64 	bl	10ff0 <strcmp>
    1a5c:	e3500000 	cmp	r0, #0	; 0x0
    1a60:	1a00000f 	bne	1aa4 <dl_main+0x1f4>
    1a64:	e51b0098 	ldr	r0, [fp, #-152]
    1a68:	e590c000 	ldr	ip, [r0]
    1a6c:	e35c0002 	cmp	ip, #2	; 0x2
    1a70:	da00000b 	ble	1aa4 <dl_main+0x1f4>
    1a74:	e5942000 	ldr	r2, [r4]
    1a78:	e5b21008 	ldr	r1, [r2, #8]!
    1a7c:	e59f3e00 	ldr	r3, [pc, #3584]	; 2884 <.text+0x1cb4>
    1a80:	e79a3003 	ldr	r3, [sl, r3]
    1a84:	e5831000 	str	r1, [r3]
    1a88:	e5953000 	ldr	r3, [r5]
    1a8c:	e2833002 	add	r3, r3, #2	; 0x2
    1a90:	e5853000 	str	r3, [r5]
    1a94:	e24c3002 	sub	r3, ip, #2	; 0x2
    1a98:	e5803000 	str	r3, [r0]
    1a9c:	e5842000 	str	r2, [r4]
    1aa0:	ea000013 	b	1af4 <dl_main+0x244>
    1aa4:	e5943000 	ldr	r3, [r4]
    1aa8:	e5930004 	ldr	r0, [r3, #4]
    1aac:	e59f1dd4 	ldr	r1, [pc, #3540]	; 2888 <.text+0x1cb8>
    1ab0:	e08a1001 	add	r1, sl, r1
    1ab4:	eb003d4d 	bl	10ff0 <strcmp>
    1ab8:	e3500000 	cmp	r0, #0	; 0x0
    1abc:	1a000012 	bne	1b0c <dl_main+0x25c>
    1ac0:	e51b009c 	ldr	r0, [fp, #-156]
    1ac4:	e5901000 	ldr	r1, [r0]
    1ac8:	e3510002 	cmp	r1, #2	; 0x2
    1acc:	da00000e 	ble	1b0c <dl_main+0x25c>
    1ad0:	e5942000 	ldr	r2, [r4]
    1ad4:	e5b23008 	ldr	r3, [r2, #8]!
    1ad8:	e5873094 	str	r3, [r7, #148]
    1adc:	e5953000 	ldr	r3, [r5]
    1ae0:	e2833002 	add	r3, r3, #2	; 0x2
    1ae4:	e5853000 	str	r3, [r5]
    1ae8:	e2413002 	sub	r3, r1, #2	; 0x2
    1aec:	e5803000 	str	r3, [r0]
    1af0:	e5842000 	str	r2, [r4]
    1af4:	e59f3e20 	ldr	r3, [pc, #3616]	; 291c <.text+0x1d4c>
    1af8:	e79a3003 	ldr	r3, [sl, r3]
    1afc:	e5933000 	ldr	r3, [r3]
    1b00:	e3530001 	cmp	r3, #1	; 0x1
    1b04:	caffffa3 	bgt	1998 <dl_main+0xe8>
    1b08:	ea000004 	b	1b20 <dl_main+0x270>
    1b0c:	e59f3e08 	ldr	r3, [pc, #3592]	; 291c <.text+0x1d4c>
    1b10:	e79a3003 	ldr	r3, [sl, r3]
    1b14:	e5933000 	ldr	r3, [r3]
    1b18:	e3530001 	cmp	r3, #1	; 0x1
    1b1c:	ca000006 	bgt	1b3c <dl_main+0x28c>
    1b20:	e59f4d64 	ldr	r4, [pc, #3428]	; 288c <.text+0x1cbc>
    1b24:	e3a00002 	mov	r0, #2	; 0x2
    1b28:	e08a1004 	add	r1, sl, r4
    1b2c:	eb002b6e 	bl	c8ec <_dl_dprintf>
    1b30:	e3a0007f 	mov	r0, #127	; 0x7f
    1b34:	eb003c79 	bl	10d20 <_Exit>
    1b38:	eafffff9 	b	1b24 <dl_main+0x274>
    1b3c:	e59f3d30 	ldr	r3, [pc, #3376]	; 2874 <.text+0x1ca4>
    1b40:	e79a2003 	ldr	r2, [sl, r3]
    1b44:	e5923000 	ldr	r3, [r2]
    1b48:	e2833001 	add	r3, r3, #1	; 0x1
    1b4c:	e5823000 	str	r3, [r2]
    1b50:	e59f3dc4 	ldr	r3, [pc, #3524]	; 291c <.text+0x1d4c>
    1b54:	e79a2003 	ldr	r2, [sl, r3]
    1b58:	e5923000 	ldr	r3, [r2]
    1b5c:	e2433001 	sub	r3, r3, #1	; 0x1
    1b60:	e5823000 	str	r3, [r2]
    1b64:	e59f3d88 	ldr	r3, [pc, #3464]	; 28f4 <.text+0x1d24>
    1b68:	e79a2003 	ldr	r2, [sl, r3]
    1b6c:	e5923000 	ldr	r3, [r2]
    1b70:	e2833004 	add	r3, r3, #4	; 0x4
    1b74:	e5823000 	str	r3, [r2]
    1b78:	e59f3d04 	ldr	r3, [pc, #3332]	; 2884 <.text+0x1cb4>
    1b7c:	e79a3003 	ldr	r3, [sl, r3]
    1b80:	e5930000 	ldr	r0, [r3]
    1b84:	eb000bbb 	bl	4a78 <_dl_init_paths>
    1b88:	e1a0c006 	mov	ip, r6
    1b8c:	e0863288 	add	r3, r6, r8, lsl #5
    1b90:	e1530006 	cmp	r3, r6
    1b94:	9a000007 	bls	1bb8 <dl_main+0x308>
    1b98:	e59f2cf0 	ldr	r2, [pc, #3312]	; 2890 <.text+0x1cc0>
    1b9c:	e0860288 	add	r0, r6, r8, lsl #5
    1ba0:	e59c3000 	ldr	r3, [ip]
    1ba4:	e1530002 	cmp	r3, r2
    1ba8:	0a00001c 	beq	1c20 <dl_main+0x370>
    1bac:	e28cc020 	add	ip, ip, #32	; 0x20
    1bb0:	e150000c 	cmp	r0, ip
    1bb4:	8afffff9 	bhi	1ba0 <dl_main+0x2f0>
    1bb8:	e51b3040 	ldr	r3, [fp, #-64]
    1bbc:	e3530002 	cmp	r3, #2	; 0x2
    1bc0:	1a00001b 	bne	1c34 <dl_main+0x384>
    1bc4:	e3a02000 	mov	r2, #0	; 0x0
    1bc8:	e50b2048 	str	r2, [fp, #-72]
    1bcc:	e59f3d20 	ldr	r3, [pc, #3360]	; 28f4 <.text+0x1d24>
    1bd0:	e79a3003 	ldr	r3, [sl, r3]
    1bd4:	e5933000 	ldr	r3, [r3]
    1bd8:	e5933000 	ldr	r3, [r3]
    1bdc:	e50b303c 	str	r3, [fp, #-60]
    1be0:	e50b2038 	str	r2, [fp, #-56]
    1be4:	e50b2034 	str	r2, [fp, #-52]
    1be8:	e3a03202 	mov	r3, #536870912	; 0x20000000
    1bec:	e50b3030 	str	r3, [fp, #-48]
    1bf0:	e24b0044 	sub	r0, fp, #68	; 0x44
    1bf4:	e24b1048 	sub	r1, fp, #72	; 0x48
    1bf8:	e59f3c94 	ldr	r3, [pc, #3220]	; 2894 <.text+0x1cc4>
    1bfc:	e79a2003 	ldr	r2, [sl, r3]
    1c00:	e24b303c 	sub	r3, fp, #60	; 0x3c
    1c04:	eb0027a4 	bl	ba9c <_dl_catch_error>
    1c08:	e51b3048 	ldr	r3, [fp, #-72]
    1c0c:	e3530000 	cmp	r3, #0	; 0x0
    1c10:	0a000013 	beq	1c64 <dl_main+0x3b4>
    1c14:	e3a00001 	mov	r0, #1	; 0x1
    1c18:	eb003c40 	bl	10d20 <_Exit>
    1c1c:	ea000010 	b	1c64 <dl_main+0x3b4>
    1c20:	e59c3018 	ldr	r3, [ip, #24]
    1c24:	e59f2c30 	ldr	r2, [pc, #3120]	; 285c <.text+0x1c8c>
    1c28:	e79a2002 	ldr	r2, [sl, r2]
    1c2c:	e58233e0 	str	r3, [r2, #992]
    1c30:	eaffffe0 	b	1bb8 <dl_main+0x308>
    1c34:	e59f3cb8 	ldr	r3, [pc, #3256]	; 28f4 <.text+0x1d24>
    1c38:	e79a3003 	ldr	r3, [sl, r3]
    1c3c:	e5931000 	ldr	r1, [r3]
    1c40:	e3a02000 	mov	r2, #0	; 0x0
    1c44:	e58d2000 	str	r2, [sp]
    1c48:	e3a03202 	mov	r3, #536870912	; 0x20000000
    1c4c:	e58d3004 	str	r3, [sp, #4]
    1c50:	e58d2008 	str	r2, [sp, #8]
    1c54:	e1a00002 	mov	r0, r2
    1c58:	e5911000 	ldr	r1, [r1]
    1c5c:	e283321e 	add	r3, r3, #-536870911	; 0xe0000001
    1c60:	eb001313 	bl	68b4 <_dl_map_object>
    1c64:	e59f3bf0 	ldr	r3, [pc, #3056]	; 285c <.text+0x1c8c>
    1c68:	e79a3003 	ldr	r3, [sl, r3]
    1c6c:	e5937000 	ldr	r7, [r3]
    1c70:	e597614c 	ldr	r6, [r7, #332]
    1c74:	e5d72154 	ldrb	r2, [r7, #340]
    1c78:	e5d73155 	ldrb	r3, [r7, #341]
    1c7c:	e1828403 	orr	r8, r2, r3, lsl #8
    1c80:	e59f3cc4 	ldr	r3, [pc, #3268]	; 294c <.text+0x1d7c>
    1c84:	e08a3003 	add	r3, sl, r3
    1c88:	e5873004 	str	r3, [r7, #4]
    1c8c:	e5973150 	ldr	r3, [r7, #336]
    1c90:	e5893000 	str	r3, [r9]
    1c94:	ea000019 	b	1d00 <dl_main+0x450>
    1c98:	e3a03000 	mov	r3, #0	; 0x0
    1c9c:	e58d3000 	str	r3, [sp]
    1ca0:	e58d3004 	str	r3, [sp, #4]
    1ca4:	e59f2ca0 	ldr	r2, [pc, #3232]	; 294c <.text+0x1d7c>
    1ca8:	e08a1002 	add	r1, sl, r2
    1cac:	e1a00001 	mov	r0, r1
    1cb0:	e1a02003 	mov	r2, r3
    1cb4:	eb001b15 	bl	8910 <_dl_new_object>
    1cb8:	e59f3b9c 	ldr	r3, [pc, #2972]	; 285c <.text+0x1c8c>
    1cbc:	e79a3003 	ldr	r3, [sl, r3]
    1cc0:	e5937000 	ldr	r7, [r3]
    1cc4:	e3570000 	cmp	r7, #0	; 0x0
    1cc8:	1a000006 	bne	1ce8 <dl_main+0x438>
    1ccc:	e59f4bc4 	ldr	r4, [pc, #3012]	; 2898 <.text+0x1cc8>
    1cd0:	e3a00002 	mov	r0, #2	; 0x2
    1cd4:	e08a1004 	add	r1, sl, r4
    1cd8:	eb002b03 	bl	c8ec <_dl_dprintf>
    1cdc:	e3a0007f 	mov	r0, #127	; 0x7f
    1ce0:	eb003c0e 	bl	10d20 <_Exit>
    1ce4:	eafffff9 	b	1cd0 <dl_main+0x420>
    1ce8:	e587614c 	str	r6, [r7, #332]
    1cec:	e5c78154 	strb	r8, [r7, #340]
    1cf0:	e1a03448 	mov	r3, r8, asr #8
    1cf4:	e5c73155 	strb	r3, [r7, #341]
    1cf8:	e5993000 	ldr	r3, [r9]
    1cfc:	e5873150 	str	r3, [r7, #336]
    1d00:	e3a03000 	mov	r3, #0	; 0x0
    1d04:	e58731a4 	str	r3, [r7, #420]
    1d08:	e58731a8 	str	r3, [r7, #424]
    1d0c:	e2433001 	sub	r3, r3, #1	; 0x1
    1d10:	e58731a0 	str	r3, [r7, #416]
    1d14:	e597317c 	ldr	r3, [r7, #380]
    1d18:	e2833001 	add	r3, r3, #1	; 0x1
    1d1c:	e587317c 	str	r3, [r7, #380]
    1d20:	e1a0c006 	mov	ip, r6
    1d24:	e0863288 	add	r3, r6, r8, lsl #5
    1d28:	e1530006 	cmp	r3, r6
    1d2c:	9a000056 	bls	1e8c <dl_main+0x5dc>
    1d30:	e59f3b64 	ldr	r3, [pc, #2916]	; 289c <.text+0x1ccc>
    1d34:	e79a4003 	ldr	r4, [sl, r3]
    1d38:	e59f3b1c 	ldr	r3, [pc, #2844]	; 285c <.text+0x1c8c>
    1d3c:	e79a5003 	ldr	r5, [sl, r3]
    1d40:	e59f3b58 	ldr	r3, [pc, #2904]	; 28a0 <.text+0x1cd0>
    1d44:	e79a9003 	ldr	r9, [sl, r3]
    1d48:	e59c2000 	ldr	r2, [ip]
    1d4c:	e3520003 	cmp	r2, #3	; 0x3
    1d50:	0a00001a 	beq	1dc0 <dl_main+0x510>
    1d54:	8a000007 	bhi	1d78 <dl_main+0x4c8>
    1d58:	e3520001 	cmp	r2, #1	; 0x1
    1d5c:	0a00002f 	beq	1e20 <dl_main+0x570>
    1d60:	e3520002 	cmp	r2, #2	; 0x2
    1d64:	05973000 	ldreq	r3, [r7]
    1d68:	059c2008 	ldreq	r2, [ip, #8]
    1d6c:	00833002 	addeq	r3, r3, r2
    1d70:	05873008 	streq	r3, [r7, #8]
    1d74:	ea000040 	b	1e7c <dl_main+0x5cc>
    1d78:	e59f3b10 	ldr	r3, [pc, #2832]	; 2890 <.text+0x1cc0>
    1d7c:	e1520003 	cmp	r2, r3
    1d80:	059c3018 	ldreq	r3, [ip, #24]
    1d84:	058533e0 	streq	r3, [r5, #992]
    1d88:	0a00003b 	beq	1e7c <dl_main+0x5cc>
    1d8c:	8a000004 	bhi	1da4 <dl_main+0x4f4>
    1d90:	e3520006 	cmp	r2, #6	; 0x6
    1d94:	059c3008 	ldreq	r3, [ip, #8]
    1d98:	00633006 	rsbeq	r3, r3, r6
    1d9c:	05873000 	streq	r3, [r7]
    1da0:	ea000035 	b	1e7c <dl_main+0x5cc>
    1da4:	e59f3af8 	ldr	r3, [pc, #2808]	; 28a4 <.text+0x1cd4>
    1da8:	e1520003 	cmp	r2, r3
    1dac:	059c3008 	ldreq	r3, [ip, #8]
    1db0:	05873218 	streq	r3, [r7, #536]
    1db4:	059c3014 	ldreq	r3, [ip, #20]
    1db8:	0587321c 	streq	r3, [r7, #540]
    1dbc:	ea00002e 	b	1e7c <dl_main+0x5cc>
    1dc0:	e597e000 	ldr	lr, [r7]
    1dc4:	e59c0008 	ldr	r0, [ip, #8]
    1dc8:	e08e2000 	add	r2, lr, r0
    1dcc:	e5842000 	str	r2, [r4]
    1dd0:	e58541d4 	str	r4, [r5, #468]
    1dd4:	e59531c0 	ldr	r3, [r5, #448]
    1dd8:	e3530000 	cmp	r3, #0	; 0x0
    1ddc:	1a00000c 	bne	1e14 <dl_main+0x564>
    1de0:	e1a01003 	mov	r1, r3
    1de4:	e7de3000 	ldrb	r3, [lr, r0]
    1de8:	e3530000 	cmp	r3, #0	; 0x0
    1dec:	0a000005 	beq	1e08 <dl_main+0x558>
    1df0:	e4d23001 	ldrb	r3, [r2], #1
    1df4:	e353002f 	cmp	r3, #47	; 0x2f
    1df8:	01a01002 	moveq	r1, r2
    1dfc:	e5d23000 	ldrb	r3, [r2]
    1e00:	e3530000 	cmp	r3, #0	; 0x0
    1e04:	1afffff9 	bne	1df0 <dl_main+0x540>
    1e08:	e3510000 	cmp	r1, #0	; 0x0
    1e0c:	15891000 	strne	r1, [r9]
    1e10:	15849004 	strne	r9, [r4, #4]
    1e14:	e3a03001 	mov	r3, #1	; 0x1
    1e18:	e50b3074 	str	r3, [fp, #-116]
    1e1c:	ea000016 	b	1e7c <dl_main+0x5cc>
    1e20:	e59c301c 	ldr	r3, [ip, #28]
    1e24:	e2633000 	rsb	r3, r3, #0	; 0x0
    1e28:	e59c2008 	ldr	r2, [ip, #8]
    1e2c:	e0033002 	and	r3, r3, r2
    1e30:	e5972000 	ldr	r2, [r7]
    1e34:	e0832002 	add	r2, r3, r2
    1e38:	e59731a0 	ldr	r3, [r7, #416]
    1e3c:	e1530002 	cmp	r3, r2
    1e40:	858721a0 	strhi	r2, [r7, #416]
    1e44:	e5972000 	ldr	r2, [r7]
    1e48:	e59c3008 	ldr	r3, [ip, #8]
    1e4c:	e0822003 	add	r2, r2, r3
    1e50:	e59c3014 	ldr	r3, [ip, #20]
    1e54:	e0822003 	add	r2, r2, r3
    1e58:	e59731a4 	ldr	r3, [r7, #420]
    1e5c:	e1530002 	cmp	r3, r2
    1e60:	358721a4 	strcc	r2, [r7, #420]
    1e64:	e59c3018 	ldr	r3, [ip, #24]
    1e68:	e3130001 	tst	r3, #1	; 0x1
    1e6c:	0a000002 	beq	1e7c <dl_main+0x5cc>
    1e70:	e59731a8 	ldr	r3, [r7, #424]
    1e74:	e1530002 	cmp	r3, r2
    1e78:	358721a8 	strcc	r2, [r7, #424]
    1e7c:	e28cc020 	add	ip, ip, #32	; 0x20
    1e80:	e0863288 	add	r3, r6, r8, lsl #5
    1e84:	e153000c 	cmp	r3, ip
    1e88:	8affffae 	bhi	1d48 <dl_main+0x498>
    1e8c:	e59731a4 	ldr	r3, [r7, #420]
    1e90:	e3530000 	cmp	r3, #0	; 0x0
    1e94:	02433001 	subeq	r3, r3, #1	; 0x1
    1e98:	058731a4 	streq	r3, [r7, #420]
    1e9c:	e59731a8 	ldr	r3, [r7, #424]
    1ea0:	e3530000 	cmp	r3, #0	; 0x0
    1ea4:	02433001 	subeq	r3, r3, #1	; 0x1
    1ea8:	058731a8 	streq	r3, [r7, #424]
    1eac:	e59f39a8 	ldr	r3, [pc, #2472]	; 285c <.text+0x1c8c>
    1eb0:	e79a1003 	ldr	r1, [sl, r3]
    1eb4:	e59131d4 	ldr	r3, [r1, #468]
    1eb8:	e3530000 	cmp	r3, #0	; 0x0
    1ebc:	1a000015 	bne	1f18 <dl_main+0x668>
    1ec0:	e59121bc 	ldr	r2, [r1, #444]
    1ec4:	e3520000 	cmp	r2, #0	; 0x0
    1ec8:	0a000004 	beq	1ee0 <dl_main+0x630>
    1ecc:	e59f39c8 	ldr	r3, [pc, #2504]	; 289c <.text+0x1ccc>
    1ed0:	e79a3003 	ldr	r3, [sl, r3]
    1ed4:	e5832000 	str	r2, [r3]
    1ed8:	e58131d4 	str	r3, [r1, #468]
    1edc:	ea00000d 	b	1f18 <dl_main+0x668>
    1ee0:	e59f3974 	ldr	r3, [pc, #2420]	; 285c <.text+0x1c8c>
    1ee4:	e79a3003 	ldr	r3, [sl, r3]
    1ee8:	e59331d4 	ldr	r3, [r3, #468]
    1eec:	e3530000 	cmp	r3, #0	; 0x0
    1ef0:	1a000008 	bne	1f18 <dl_main+0x668>
    1ef4:	e59f09ac 	ldr	r0, [pc, #2476]	; 28a8 <.text+0x1cd8>
    1ef8:	e08a0000 	add	r0, sl, r0
    1efc:	e59f1a64 	ldr	r1, [pc, #2660]	; 2968 <.text+0x1d98>
    1f00:	e08a1001 	add	r1, sl, r1
    1f04:	e3a02e43 	mov	r2, #1072	; 0x430
    1f08:	e2822003 	add	r2, r2, #3	; 0x3
    1f0c:	e59f3a58 	ldr	r3, [pc, #2648]	; 296c <.text+0x1d9c>
    1f10:	e79a3003 	ldr	r3, [sl, r3]
    1f14:	eb003629 	bl	f7c0 <__GI___assert_fail>
    1f18:	e51b007c 	ldr	r0, [fp, #-124]
    1f1c:	e3500000 	cmp	r0, #0	; 0x0
    1f20:	1a000129 	bne	23cc <dl_main+0xb1c>
    1f24:	e1a05007 	mov	r5, r7
    1f28:	e1a0e000 	mov	lr, r0
    1f2c:	e5972008 	ldr	r2, [r7, #8]
    1f30:	e3520000 	cmp	r2, #0	; 0x0
    1f34:	0a000122 	beq	23c4 <dl_main+0xb14>
    1f38:	e2870020 	add	r0, r7, #32	; 0x20
    1f3c:	e5923000 	ldr	r3, [r2]
    1f40:	e3530000 	cmp	r3, #0	; 0x0
    1f44:	0a000030 	beq	200c <dl_main+0x75c>
    1f48:	e5923000 	ldr	r3, [r2]
    1f4c:	e3530021 	cmp	r3, #33	; 0x21
    1f50:	d7802103 	strle	r2, [r0, r3, lsl #2]
    1f54:	da000029 	ble	2000 <dl_main+0x750>
    1f58:	e5921000 	ldr	r1, [r2]
    1f5c:	e261346f 	rsb	r3, r1, #1862270976	; 0x6f000000
    1f60:	e28338ff 	add	r3, r3, #16711680	; 0xff0000
    1f64:	e2833cff 	add	r3, r3, #65280	; 0xff00
    1f68:	e28330ff 	add	r3, r3, #255	; 0xff
    1f6c:	e353000f 	cmp	r3, #15	; 0xf
    1f70:	92613207 	rsbls	r3, r1, #1879048192	; 0x70000000
    1f74:	92833021 	addls	r3, r3, #33	; 0x21
    1f78:	97802103 	strls	r2, [r0, r3, lsl #2]
    1f7c:	9a00001f 	bls	2000 <dl_main+0x750>
    1f80:	e5923000 	ldr	r3, [r2]
    1f84:	e1a03083 	mov	r3, r3, lsl #1
    1f88:	e1a010c3 	mov	r1, r3, asr #1
    1f8c:	e1e03001 	mvn	r3, r1
    1f90:	e3530002 	cmp	r3, #2	; 0x2
    1f94:	92613031 	rsbls	r3, r1, #49	; 0x31
    1f98:	97802103 	strls	r2, [r0, r3, lsl #2]
    1f9c:	9a000017 	bls	2000 <dl_main+0x750>
    1fa0:	e5921000 	ldr	r1, [r2]
    1fa4:	e261346f 	rsb	r3, r1, #1862270976	; 0x6f000000
    1fa8:	e28338ff 	add	r3, r3, #16711680	; 0xff0000
    1fac:	e2833cfd 	add	r3, r3, #64768	; 0xfd00
    1fb0:	e28330ff 	add	r3, r3, #255	; 0xff
    1fb4:	e353000b 	cmp	r3, #11	; 0xb
    1fb8:	8a000005 	bhi	1fd4 <dl_main+0x724>
    1fbc:	e261346f 	rsb	r3, r1, #1862270976	; 0x6f000000
    1fc0:	e28338ff 	add	r3, r3, #16711680	; 0xff0000
    1fc4:	e2833cfe 	add	r3, r3, #65024	; 0xfe00
    1fc8:	e2833034 	add	r3, r3, #52	; 0x34
    1fcc:	e7802103 	str	r2, [r0, r3, lsl #2]
    1fd0:	ea00000a 	b	2000 <dl_main+0x750>
    1fd4:	e5921000 	ldr	r1, [r2]
    1fd8:	e261346f 	rsb	r3, r1, #1862270976	; 0x6f000000
    1fdc:	e28338ff 	add	r3, r3, #16711680	; 0xff0000
    1fe0:	e2833cfe 	add	r3, r3, #65024	; 0xfe00
    1fe4:	e28330ff 	add	r3, r3, #255	; 0xff
    1fe8:	e3530009 	cmp	r3, #9	; 0x9
    1fec:	9261346f 	rsbls	r3, r1, #1862270976	; 0x6f000000
    1ff0:	928338ff 	addls	r3, r3, #16711680	; 0xff0000
    1ff4:	92833cff 	addls	r3, r3, #65280	; 0xff00
    1ff8:	92833040 	addls	r3, r3, #64	; 0x40
    1ffc:	97802103 	strls	r2, [r0, r3, lsl #2]
    2000:	e5b23008 	ldr	r3, [r2, #8]!
    2004:	e3530000 	cmp	r3, #0	; 0x0
    2008:	1affffce 	bne	1f48 <dl_main+0x698>
    200c:	e5953000 	ldr	r3, [r5]
    2010:	e3530000 	cmp	r3, #0	; 0x0
    2014:	0a0000a1 	beq	22a0 <dl_main+0x9f0>
    2018:	e1a0c003 	mov	ip, r3
    201c:	e3a04000 	mov	r4, #0	; 0x0
    2020:	e5903010 	ldr	r3, [r0, #16]
    2024:	e1530004 	cmp	r3, r4
    2028:	0a00000d 	beq	2064 <dl_main+0x7b4>
    202c:	e15e0004 	cmp	lr, r4
    2030:	05902010 	ldreq	r2, [r0, #16]
    2034:	05923004 	ldreq	r3, [r2, #4]
    2038:	008c3003 	addeq	r3, ip, r3
    203c:	05823004 	streq	r3, [r2, #4]
    2040:	0a000007 	beq	2064 <dl_main+0x7b4>
    2044:	e5933000 	ldr	r3, [r3]
    2048:	e58e3000 	str	r3, [lr]
    204c:	e5903010 	ldr	r3, [r0, #16]
    2050:	e5933004 	ldr	r3, [r3, #4]
    2054:	e08c3003 	add	r3, ip, r3
    2058:	e58e3004 	str	r3, [lr, #4]
    205c:	e2844001 	add	r4, r4, #1	; 0x1
    2060:	e580e010 	str	lr, [r0, #16]
    2064:	e590300c 	ldr	r3, [r0, #12]
    2068:	e3530000 	cmp	r3, #0	; 0x0
    206c:	0a00000f 	beq	20b0 <dl_main+0x800>
    2070:	e35e0000 	cmp	lr, #0	; 0x0
    2074:	0590200c 	ldreq	r2, [r0, #12]
    2078:	05923004 	ldreq	r3, [r2, #4]
    207c:	008c3003 	addeq	r3, ip, r3
    2080:	05823004 	streq	r3, [r2, #4]
    2084:	0a000009 	beq	20b0 <dl_main+0x800>
    2088:	e1a02184 	mov	r2, r4, lsl #3
    208c:	e082100e 	add	r1, r2, lr
    2090:	e5933000 	ldr	r3, [r3]
    2094:	e782300e 	str	r3, [r2, lr]
    2098:	e590300c 	ldr	r3, [r0, #12]
    209c:	e5933004 	ldr	r3, [r3, #4]
    20a0:	e08c3003 	add	r3, ip, r3
    20a4:	e5813004 	str	r3, [r1, #4]
    20a8:	e2844001 	add	r4, r4, #1	; 0x1
    20ac:	e580100c 	str	r1, [r0, #12]
    20b0:	e5903014 	ldr	r3, [r0, #20]
    20b4:	e3530000 	cmp	r3, #0	; 0x0
    20b8:	0a00000f 	beq	20fc <dl_main+0x84c>
    20bc:	e35e0000 	cmp	lr, #0	; 0x0
    20c0:	05902014 	ldreq	r2, [r0, #20]
    20c4:	05923004 	ldreq	r3, [r2, #4]
    20c8:	008c3003 	addeq	r3, ip, r3
    20cc:	05823004 	streq	r3, [r2, #4]
    20d0:	0a000009 	beq	20fc <dl_main+0x84c>
    20d4:	e1a02184 	mov	r2, r4, lsl #3
    20d8:	e082100e 	add	r1, r2, lr
    20dc:	e5933000 	ldr	r3, [r3]
    20e0:	e782300e 	str	r3, [r2, lr]
    20e4:	e5903014 	ldr	r3, [r0, #20]
    20e8:	e5933004 	ldr	r3, [r3, #4]
    20ec:	e08c3003 	add	r3, ip, r3
    20f0:	e5813004 	str	r3, [r1, #4]
    20f4:	e2844001 	add	r4, r4, #1	; 0x1
    20f8:	e5801014 	str	r1, [r0, #20]
    20fc:	e5903018 	ldr	r3, [r0, #24]
    2100:	e3530000 	cmp	r3, #0	; 0x0
    2104:	0a00000f 	beq	2148 <dl_main+0x898>
    2108:	e35e0000 	cmp	lr, #0	; 0x0
    210c:	05902018 	ldreq	r2, [r0, #24]
    2110:	05923004 	ldreq	r3, [r2, #4]
    2114:	008c3003 	addeq	r3, ip, r3
    2118:	05823004 	streq	r3, [r2, #4]
    211c:	0a000009 	beq	2148 <dl_main+0x898>
    2120:	e1a02184 	mov	r2, r4, lsl #3
    2124:	e082100e 	add	r1, r2, lr
    2128:	e5933000 	ldr	r3, [r3]
    212c:	e782300e 	str	r3, [r2, lr]
    2130:	e5903018 	ldr	r3, [r0, #24]
    2134:	e5933004 	ldr	r3, [r3, #4]
    2138:	e08c3003 	add	r3, ip, r3
    213c:	e5813004 	str	r3, [r1, #4]
    2140:	e2844001 	add	r4, r4, #1	; 0x1
    2144:	e5801018 	str	r1, [r0, #24]
    2148:	e590301c 	ldr	r3, [r0, #28]
    214c:	e3530000 	cmp	r3, #0	; 0x0
    2150:	0a00000f 	beq	2194 <dl_main+0x8e4>
    2154:	e35e0000 	cmp	lr, #0	; 0x0
    2158:	0590201c 	ldreq	r2, [r0, #28]
    215c:	05923004 	ldreq	r3, [r2, #4]
    2160:	008c3003 	addeq	r3, ip, r3
    2164:	05823004 	streq	r3, [r2, #4]
    2168:	0a000009 	beq	2194 <dl_main+0x8e4>
    216c:	e1a02184 	mov	r2, r4, lsl #3
    2170:	e082100e 	add	r1, r2, lr
    2174:	e5933000 	ldr	r3, [r3]
    2178:	e782300e 	str	r3, [r2, lr]
    217c:	e590301c 	ldr	r3, [r0, #28]
    2180:	e5933004 	ldr	r3, [r3, #4]
    2184:	e08c3003 	add	r3, ip, r3
    2188:	e5813004 	str	r3, [r1, #4]
    218c:	e2844001 	add	r4, r4, #1	; 0x1
    2190:	e580101c 	str	r1, [r0, #28]
    2194:	e5903044 	ldr	r3, [r0, #68]
    2198:	e3530000 	cmp	r3, #0	; 0x0
    219c:	0a00000f 	beq	21e0 <dl_main+0x930>
    21a0:	e35e0000 	cmp	lr, #0	; 0x0
    21a4:	05902044 	ldreq	r2, [r0, #68]
    21a8:	05923004 	ldreq	r3, [r2, #4]
    21ac:	008c3003 	addeq	r3, ip, r3
    21b0:	05823004 	streq	r3, [r2, #4]
    21b4:	0a000009 	beq	21e0 <dl_main+0x930>
    21b8:	e1a02184 	mov	r2, r4, lsl #3
    21bc:	e082100e 	add	r1, r2, lr
    21c0:	e5933000 	ldr	r3, [r3]
    21c4:	e782300e 	str	r3, [r2, lr]
    21c8:	e5903044 	ldr	r3, [r0, #68]
    21cc:	e5933004 	ldr	r3, [r3, #4]
    21d0:	e08c3003 	add	r3, ip, r3
    21d4:	e5813004 	str	r3, [r1, #4]
    21d8:	e2844001 	add	r4, r4, #1	; 0x1
    21dc:	e5801044 	str	r1, [r0, #68]
    21e0:	e590305c 	ldr	r3, [r0, #92]
    21e4:	e3530000 	cmp	r3, #0	; 0x0
    21e8:	0a00000f 	beq	222c <dl_main+0x97c>
    21ec:	e35e0000 	cmp	lr, #0	; 0x0
    21f0:	0590205c 	ldreq	r2, [r0, #92]
    21f4:	05923004 	ldreq	r3, [r2, #4]
    21f8:	008c3003 	addeq	r3, ip, r3
    21fc:	05823004 	streq	r3, [r2, #4]
    2200:	0a000009 	beq	222c <dl_main+0x97c>
    2204:	e1a02184 	mov	r2, r4, lsl #3
    2208:	e082100e 	add	r1, r2, lr
    220c:	e5933000 	ldr	r3, [r3]
    2210:	e782300e 	str	r3, [r2, lr]
    2214:	e590305c 	ldr	r3, [r0, #92]
    2218:	e5933004 	ldr	r3, [r3, #4]
    221c:	e08c3003 	add	r3, ip, r3
    2220:	e5813004 	str	r3, [r1, #4]
    2224:	e2844001 	add	r4, r4, #1	; 0x1
    2228:	e580105c 	str	r1, [r0, #92]
    222c:	e59030c4 	ldr	r3, [r0, #196]
    2230:	e3530000 	cmp	r3, #0	; 0x0
    2234:	0a00000f 	beq	2278 <dl_main+0x9c8>
    2238:	e35e0000 	cmp	lr, #0	; 0x0
    223c:	059020c4 	ldreq	r2, [r0, #196]
    2240:	05923004 	ldreq	r3, [r2, #4]
    2244:	008c3003 	addeq	r3, ip, r3
    2248:	05823004 	streq	r3, [r2, #4]
    224c:	0a000009 	beq	2278 <dl_main+0x9c8>
    2250:	e1a02184 	mov	r2, r4, lsl #3
    2254:	e082100e 	add	r1, r2, lr
    2258:	e5933000 	ldr	r3, [r3]
    225c:	e782300e 	str	r3, [r2, lr]
    2260:	e59030c4 	ldr	r3, [r0, #196]
    2264:	e5933004 	ldr	r3, [r3, #4]
    2268:	e08c3003 	add	r3, ip, r3
    226c:	e5813004 	str	r3, [r1, #4]
    2270:	e2844001 	add	r4, r4, #1	; 0x1
    2274:	e58010c4 	str	r1, [r0, #196]
    2278:	e3540008 	cmp	r4, #8	; 0x8
    227c:	da000007 	ble	22a0 <dl_main+0x9f0>
    2280:	e59f0624 	ldr	r0, [pc, #1572]	; 28ac <.text+0x1cdc>
    2284:	e08a0000 	add	r0, sl, r0
    2288:	e59f1620 	ldr	r1, [pc, #1568]	; 28b0 <.text+0x1ce0>
    228c:	e08a1001 	add	r1, sl, r1
    2290:	e3a0206a 	mov	r2, #106	; 0x6a
    2294:	e59f3618 	ldr	r3, [pc, #1560]	; 28b4 <.text+0x1ce4>
    2298:	e79a3003 	ldr	r3, [sl, r3]
    229c:	eb003547 	bl	f7c0 <__GI___assert_fail>
    22a0:	e5903050 	ldr	r3, [r0, #80]
    22a4:	e3530000 	cmp	r3, #0	; 0x0
    22a8:	0a00000b 	beq	22dc <dl_main+0xa2c>
    22ac:	e5933004 	ldr	r3, [r3, #4]
    22b0:	e3530011 	cmp	r3, #17	; 0x11
    22b4:	13530007 	cmpne	r3, #7	; 0x7
    22b8:	0a000007 	beq	22dc <dl_main+0xa2c>
    22bc:	e59f05f4 	ldr	r0, [pc, #1524]	; 28b8 <.text+0x1ce8>
    22c0:	e08a0000 	add	r0, sl, r0
    22c4:	e59f15e4 	ldr	r1, [pc, #1508]	; 28b0 <.text+0x1ce0>
    22c8:	e08a1001 	add	r1, sl, r1
    22cc:	e3a02075 	mov	r2, #117	; 0x75
    22d0:	e59f35dc 	ldr	r3, [pc, #1500]	; 28b4 <.text+0x1ce4>
    22d4:	e79a3003 	ldr	r3, [sl, r3]
    22d8:	eb003538 	bl	f7c0 <__GI___assert_fail>
    22dc:	e590301c 	ldr	r3, [r0, #28]
    22e0:	e3530000 	cmp	r3, #0	; 0x0
    22e4:	0a00000b 	beq	2318 <dl_main+0xa68>
    22e8:	e5903024 	ldr	r3, [r0, #36]
    22ec:	e5933004 	ldr	r3, [r3, #4]
    22f0:	e353000c 	cmp	r3, #12	; 0xc
    22f4:	0a000007 	beq	2318 <dl_main+0xa68>
    22f8:	e59f05bc 	ldr	r0, [pc, #1468]	; 28bc <.text+0x1cec>
    22fc:	e08a0000 	add	r0, sl, r0
    2300:	e59f15a8 	ldr	r1, [pc, #1448]	; 28b0 <.text+0x1ce0>
    2304:	e08a1001 	add	r1, sl, r1
    2308:	e3a0207a 	mov	r2, #122	; 0x7a
    230c:	e59f35a0 	ldr	r3, [pc, #1440]	; 28b4 <.text+0x1ce4>
    2310:	e79a3003 	ldr	r3, [sl, r3]
    2314:	eb003529 	bl	f7c0 <__GI___assert_fail>
    2318:	e5903044 	ldr	r3, [r0, #68]
    231c:	e3530000 	cmp	r3, #0	; 0x0
    2320:	0a00000b 	beq	2354 <dl_main+0xaa4>
    2324:	e590304c 	ldr	r3, [r0, #76]
    2328:	e5933004 	ldr	r3, [r3, #4]
    232c:	e3530008 	cmp	r3, #8	; 0x8
    2330:	0a000007 	beq	2354 <dl_main+0xaa4>
    2334:	e59f0584 	ldr	r0, [pc, #1412]	; 28c0 <.text+0x1cf0>
    2338:	e08a0000 	add	r0, sl, r0
    233c:	e59f156c 	ldr	r1, [pc, #1388]	; 28b0 <.text+0x1ce0>
    2340:	e08a1001 	add	r1, sl, r1
    2344:	e3a0207e 	mov	r2, #126	; 0x7e
    2348:	e59f3564 	ldr	r3, [pc, #1380]	; 28b4 <.text+0x1ce4>
    234c:	e79a3003 	ldr	r3, [sl, r3]
    2350:	eb00351a 	bl	f7c0 <__GI___assert_fail>
    2354:	e5903078 	ldr	r3, [r0, #120]
    2358:	e3530000 	cmp	r3, #0	; 0x0
    235c:	0a00000c 	beq	2394 <dl_main+0xae4>
    2360:	e5933004 	ldr	r3, [r3, #4]
    2364:	e58531fc 	str	r3, [r5, #508]
    2368:	e3130002 	tst	r3, #2	; 0x2
    236c:	15903078 	ldrne	r3, [r0, #120]
    2370:	15803040 	strne	r3, [r0, #64]
    2374:	e59531fc 	ldr	r3, [r5, #508]
    2378:	e3130004 	tst	r3, #4	; 0x4
    237c:	15903078 	ldrne	r3, [r0, #120]
    2380:	15803058 	strne	r3, [r0, #88]
    2384:	e59531fc 	ldr	r3, [r5, #508]
    2388:	e3130008 	tst	r3, #8	; 0x8
    238c:	15903078 	ldrne	r3, [r0, #120]
    2390:	15803060 	strne	r3, [r0, #96]
    2394:	e5903098 	ldr	r3, [r0, #152]
    2398:	e3530000 	cmp	r3, #0	; 0x0
    239c:	0a000004 	beq	23b4 <dl_main+0xb04>
    23a0:	e5933004 	ldr	r3, [r3, #4]
    23a4:	e58531f8 	str	r3, [r5, #504]
    23a8:	e3130001 	tst	r3, #1	; 0x1
    23ac:	15903098 	ldrne	r3, [r0, #152]
    23b0:	15803060 	strne	r3, [r0, #96]
    23b4:	e5903074 	ldr	r3, [r0, #116]
    23b8:	e3530000 	cmp	r3, #0	; 0x0
    23bc:	13a03000 	movne	r3, #0	; 0x0
    23c0:	1580303c 	strne	r3, [r0, #60]
    23c4:	e1a00007 	mov	r0, r7
    23c8:	eb00188a 	bl	85f8 <_dl_setup_hash>
    23cc:	e51b3040 	ldr	r3, [fp, #-64]
    23d0:	e3530002 	cmp	r3, #2	; 0x2
    23d4:	1a000008 	bne	23fc <dl_main+0xb4c>
    23d8:	e5973008 	ldr	r3, [r7, #8]
    23dc:	e3530000 	cmp	r3, #0	; 0x0
    23e0:	03a00001 	moveq	r0, #1	; 0x1
    23e4:	0b003a4d 	bleq	10d20 <_Exit>
    23e8:	e51b1074 	ldr	r1, [fp, #-116]
    23ec:	e3510000 	cmp	r1, #0	; 0x0
    23f0:	03a00002 	moveq	r0, #2	; 0x2
    23f4:	13a00000 	movne	r0, #0	; 0x0
    23f8:	eb003a48 	bl	10d20 <_Exit>
    23fc:	e51b307c 	ldr	r3, [fp, #-124]
    2400:	e3530000 	cmp	r3, #0	; 0x0
    2404:	059f3478 	ldreq	r3, [pc, #1144]	; 2884 <.text+0x1cb4>
    2408:	079a3003 	ldreq	r3, [sl, r3]
    240c:	05930000 	ldreq	r0, [r3]
    2410:	0b000998 	bleq	4a78 <_dl_init_paths>
    2414:	e59f3440 	ldr	r3, [pc, #1088]	; 285c <.text+0x1c8c>
    2418:	e79a2003 	ldr	r2, [sl, r3]
    241c:	e59231bc 	ldr	r3, [r2, #444]
    2420:	e3530000 	cmp	r3, #0	; 0x0
    2424:	059231d4 	ldreq	r3, [r2, #468]
    2428:	05933000 	ldreq	r3, [r3]
    242c:	058231bc 	streq	r3, [r2, #444]
    2430:	e59f3424 	ldr	r3, [pc, #1060]	; 285c <.text+0x1c8c>
    2434:	e79a2003 	ldr	r2, [sl, r3]
    2438:	e5d23338 	ldrb	r3, [r2, #824]
    243c:	e3c33002 	bic	r3, r3, #2	; 0x2
    2440:	e3833001 	orr	r3, r3, #1	; 0x1
    2444:	e5c23338 	strb	r3, [r2, #824]
    2448:	e2823f6e 	add	r3, r2, #440	; 0x1b8
    244c:	e587300c 	str	r3, [r7, #12]
    2450:	e58271c8 	str	r7, [r2, #456]
    2454:	e5923004 	ldr	r3, [r2, #4]
    2458:	e2833001 	add	r3, r3, #1	; 0x1
    245c:	e5823004 	str	r3, [r2, #4]
    2460:	e2822f66 	add	r2, r2, #408	; 0x198
    2464:	e8920003 	ldmia	r2, {r0, r1}
    2468:	e3a04000 	mov	r4, #0	; 0x0
    246c:	e3a03001 	mov	r3, #1	; 0x1
    2470:	e0933000 	adds	r3, r3, r0
    2474:	e0a44001 	adc	r4, r4, r1
    2478:	e8820018 	stmia	r2, {r3, r4}
    247c:	e59f34ac 	ldr	r3, [pc, #1196]	; 2930 <.text+0x1d60>
    2480:	e79a2003 	ldr	r2, [sl, r3]
    2484:	e592309c 	ldr	r3, [r2, #156]
    2488:	e3730002 	cmn	r3, #2	; 0x2
    248c:	1a00000e 	bne	24cc <dl_main+0xc1c>
    2490:	e5973000 	ldr	r3, [r7]
    2494:	e3530000 	cmp	r3, #0	; 0x0
    2498:	02433001 	subeq	r3, r3, #1	; 0x1
    249c:	0a000009 	beq	24c8 <dl_main+0xc18>
    24a0:	ea000007 	b	24c4 <dl_main+0xc14>
    24a4:	e59f33b0 	ldr	r3, [pc, #944]	; 285c <.text+0x1c8c>
    24a8:	e79a1003 	ldr	r1, [sl, r3]
    24ac:	e0802282 	add	r2, r0, r2, lsl #5
    24b0:	e5923008 	ldr	r3, [r2, #8]
    24b4:	e58133d0 	str	r3, [r1, #976]
    24b8:	e5923014 	ldr	r3, [r2, #20]
    24bc:	e58133d4 	str	r3, [r1, #980]
    24c0:	ea000018 	b	2528 <dl_main+0xc78>
    24c4:	e3a03000 	mov	r3, #0	; 0x0
    24c8:	e582309c 	str	r3, [r2, #156]
    24cc:	e59f3388 	ldr	r3, [pc, #904]	; 285c <.text+0x1c8c>
    24d0:	e79a2003 	ldr	r2, [sl, r3]
    24d4:	e5921358 	ldr	r1, [r2, #856]
    24d8:	e591301c 	ldr	r3, [r1, #28]
    24dc:	e0810003 	add	r0, r1, r3
    24e0:	e5820304 	str	r0, [r2, #772]
    24e4:	e591302c 	ldr	r3, [r1, #44]
    24e8:	e5c2330c 	strb	r3, [r2, #780]
    24ec:	e1a03443 	mov	r3, r3, asr #8
    24f0:	e5c2330d 	strb	r3, [r2, #781]
    24f4:	e5d1202c 	ldrb	r2, [r1, #44]
    24f8:	e5d1302d 	ldrb	r3, [r1, #45]
    24fc:	e1822403 	orr	r2, r2, r3, lsl #8
    2500:	e2422001 	sub	r2, r2, #1	; 0x1
    2504:	e3720001 	cmn	r2, #1	; 0x1
    2508:	0a000006 	beq	2528 <dl_main+0xc78>
    250c:	e59f1390 	ldr	r1, [pc, #912]	; 28a4 <.text+0x1cd4>
    2510:	e7903282 	ldr	r3, [r0, r2, lsl #5]
    2514:	e1530001 	cmp	r3, r1
    2518:	0affffe1 	beq	24a4 <dl_main+0xbf4>
    251c:	e2422001 	sub	r2, r2, #1	; 0x1
    2520:	e3720001 	cmn	r2, #1	; 0x1
    2524:	1afffff9 	bne	2510 <dl_main+0xc60>
    2528:	e59f332c 	ldr	r3, [pc, #812]	; 285c <.text+0x1c8c>
    252c:	e79a3003 	ldr	r3, [sl, r3]
    2530:	e59331c4 	ldr	r3, [r3, #452]
    2534:	e3530000 	cmp	r3, #0	; 0x0
    2538:	0a000008 	beq	2560 <dl_main+0xcb0>
    253c:	e59f0380 	ldr	r0, [pc, #896]	; 28c4 <.text+0x1cf4>
    2540:	e08a0000 	add	r0, sl, r0
    2544:	e59f141c 	ldr	r1, [pc, #1052]	; 2968 <.text+0x1d98>
    2548:	e08a1001 	add	r1, sl, r1
    254c:	e3a02e47 	mov	r2, #1136	; 0x470
    2550:	e282200a 	add	r2, r2, #10	; 0xa
    2554:	e59f3410 	ldr	r3, [pc, #1040]	; 296c <.text+0x1d9c>
    2558:	e79a3003 	ldr	r3, [sl, r3]
    255c:	eb003497 	bl	f7c0 <__GI___assert_fail>
    2560:	e3a09000 	mov	r9, #0	; 0x0
    2564:	e1a08009 	mov	r8, r9
    2568:	e59f3358 	ldr	r3, [pc, #856]	; 28c8 <.text+0x1cf8>
    256c:	e79a3003 	ldr	r3, [sl, r3]
    2570:	e5934000 	ldr	r4, [r3]
    2574:	e1540009 	cmp	r4, r9
    2578:	0a000024 	beq	2610 <dl_main+0xd60>
    257c:	e1a00004 	mov	r0, r4
    2580:	eb003aa6 	bl	11020 <strlen>
    2584:	e1a02000 	mov	r2, r0
    2588:	e2803007 	add	r3, r0, #7	; 0x7
    258c:	e3c33003 	bic	r3, r3, #3	; 0x3
    2590:	e063d00d 	rsb	sp, r3, sp
    2594:	e28d0010 	add	r0, sp, #16	; 0x10
    2598:	e1a01004 	mov	r1, r4
    259c:	e2822001 	add	r2, r2, #1	; 0x1
    25a0:	eb003ccb 	bl	118d4 <memcpy>
    25a4:	e50b004c 	str	r0, [fp, #-76]
    25a8:	e59f331c 	ldr	r3, [pc, #796]	; 28cc <.text+0x1cfc>
    25ac:	e79a5003 	ldr	r5, [sl, r3]
    25b0:	ea000010 	b	25f8 <dl_main+0xd48>
    25b4:	e5d43000 	ldrb	r3, [r4]
    25b8:	e3530000 	cmp	r3, #0	; 0x0
    25bc:	0a00000d 	beq	25f8 <dl_main+0xd48>
    25c0:	e5953000 	ldr	r3, [r5]
    25c4:	e3530000 	cmp	r3, #0	; 0x0
    25c8:	0a000004 	beq	25e0 <dl_main+0xd30>
    25cc:	e1a00004 	mov	r0, r4
    25d0:	e3a0102f 	mov	r1, #47	; 0x2f
    25d4:	eb003a45 	bl	10ef0 <index>
    25d8:	e3500000 	cmp	r0, #0	; 0x0
    25dc:	1a000005 	bne	25f8 <dl_main+0xd48>
    25e0:	e1a00004 	mov	r0, r4
    25e4:	e1a01007 	mov	r1, r7
    25e8:	e59f22e0 	ldr	r2, [pc, #736]	; 28d0 <.text+0x1d00>
    25ec:	e08a2002 	add	r2, sl, r2
    25f0:	ebfffc79 	bl	17dc <do_preload>
    25f4:	e0899000 	add	r9, r9, r0
    25f8:	e24b004c 	sub	r0, fp, #76	; 0x4c
    25fc:	e59f12d0 	ldr	r1, [pc, #720]	; 28d4 <.text+0x1d04>
    2600:	e08a1001 	add	r1, sl, r1
    2604:	eb003538 	bl	faec <__strsep>
    2608:	e2504000 	subs	r4, r0, #0	; 0x0
    260c:	1affffe8 	bne	25b4 <dl_main+0xd04>
    2610:	e59f32c0 	ldr	r3, [pc, #704]	; 28d8 <.text+0x1d08>
    2614:	e79a4003 	ldr	r4, [sl, r3]
    2618:	e1a00004 	mov	r0, r4
    261c:	e3a01004 	mov	r1, #4	; 0x4
    2620:	eb003886 	bl	10840 <__access>
    2624:	e3500000 	cmp	r0, #0	; 0x0
    2628:	1a00006f 	bne	27ec <dl_main+0xf3c>
    262c:	e1a00004 	mov	r0, r4
    2630:	e24b1050 	sub	r1, fp, #80	; 0x50
    2634:	e3a02003 	mov	r2, #3	; 0x3
    2638:	eb002777 	bl	c41c <_dl_sysdep_read_whole_file>
    263c:	e1a05000 	mov	r5, r0
    2640:	e3700001 	cmn	r0, #1	; 0x1
    2644:	0a000068 	beq	27ec <dl_main+0xf3c>
    2648:	e50b0054 	str	r0, [fp, #-84]
    264c:	e51b4050 	ldr	r4, [fp, #-80]
    2650:	e3540000 	cmp	r4, #0	; 0x0
    2654:	0a000011 	beq	26a0 <dl_main+0xdf0>
    2658:	e51b6054 	ldr	r6, [fp, #-84]
    265c:	e1a00006 	mov	r0, r6
    2660:	e3a01023 	mov	r1, #35	; 0x23
    2664:	e1a02004 	mov	r2, r4
    2668:	eb003abe 	bl	11168 <__memchr>
    266c:	e3500000 	cmp	r0, #0	; 0x0
    2670:	0a00000a 	beq	26a0 <dl_main+0xdf0>
    2674:	e0663000 	rsb	r3, r6, r0
    2678:	e0634004 	rsb	r4, r3, r4
    267c:	e3a02020 	mov	r2, #32	; 0x20
    2680:	e5c02000 	strb	r2, [r0]
    2684:	e2544001 	subs	r4, r4, #1	; 0x1
    2688:	0a000004 	beq	26a0 <dl_main+0xdf0>
    268c:	e5f03001 	ldrb	r3, [r0, #1]!
    2690:	e353000a 	cmp	r3, #10	; 0xa
    2694:	1afffff9 	bne	2680 <dl_main+0xdd0>
    2698:	e3540000 	cmp	r4, #0	; 0x0
    269c:	1affffed 	bne	2658 <dl_main+0xda8>
    26a0:	e51b3050 	ldr	r3, [fp, #-80]
    26a4:	e0850003 	add	r0, r5, r3
    26a8:	e5502001 	ldrb	r2, [r0, #-1]
    26ac:	e3520020 	cmp	r2, #32	; 0x20
    26b0:	13520009 	cmpne	r2, #9	; 0x9
    26b4:	0a00001e 	beq	2734 <dl_main+0xe84>
    26b8:	e352000a 	cmp	r2, #10	; 0xa
    26bc:	0a00001c 	beq	2734 <dl_main+0xe84>
    26c0:	e352003a 	cmp	r2, #58	; 0x3a
    26c4:	0a00001a 	beq	2734 <dl_main+0xe84>
    26c8:	e1a04000 	mov	r4, r0
    26cc:	e1500005 	cmp	r0, r5
    26d0:	9a00001b 	bls	2744 <dl_main+0xe94>
    26d4:	e3520020 	cmp	r2, #32	; 0x20
    26d8:	0a000011 	beq	2724 <dl_main+0xe74>
    26dc:	e3520009 	cmp	r2, #9	; 0x9
    26e0:	0a00000f 	beq	2724 <dl_main+0xe74>
    26e4:	e352000a 	cmp	r2, #10	; 0xa
    26e8:	0a00000d 	beq	2724 <dl_main+0xe74>
    26ec:	e352003a 	cmp	r2, #58	; 0x3a
    26f0:	0a00000b 	beq	2724 <dl_main+0xe74>
    26f4:	e2444001 	sub	r4, r4, #1	; 0x1
    26f8:	e1540005 	cmp	r4, r5
    26fc:	9a000010 	bls	2744 <dl_main+0xe94>
    2700:	e5543001 	ldrb	r3, [r4, #-1]
    2704:	e3530020 	cmp	r3, #32	; 0x20
    2708:	0a000005 	beq	2724 <dl_main+0xe74>
    270c:	e3530009 	cmp	r3, #9	; 0x9
    2710:	0a000003 	beq	2724 <dl_main+0xe74>
    2714:	e353000a 	cmp	r3, #10	; 0xa
    2718:	0a000001 	beq	2724 <dl_main+0xe74>
    271c:	e353003a 	cmp	r3, #58	; 0x3a
    2720:	1afffff3 	bne	26f4 <dl_main+0xe44>
    2724:	e1540005 	cmp	r4, r5
    2728:	83a03000 	movhi	r3, #0	; 0x0
    272c:	85443001 	strhib	r3, [r4, #-1]
    2730:	ea000003 	b	2744 <dl_main+0xe94>
    2734:	e3a04000 	mov	r4, #0	; 0x0
    2738:	e51b3050 	ldr	r3, [fp, #-80]
    273c:	e0853003 	add	r3, r5, r3
    2740:	e5434001 	strb	r4, [r3, #-1]
    2744:	e1550004 	cmp	r5, r4
    2748:	150b5054 	strne	r5, [fp, #-84]
    274c:	0a00000e 	beq	278c <dl_main+0xedc>
    2750:	e24b0054 	sub	r0, fp, #84	; 0x54
    2754:	e59f1180 	ldr	r1, [pc, #384]	; 28dc <.text+0x1d0c>
    2758:	e08a1001 	add	r1, sl, r1
    275c:	eb0034e2 	bl	faec <__strsep>
    2760:	e3500000 	cmp	r0, #0	; 0x0
    2764:	0a000008 	beq	278c <dl_main+0xedc>
    2768:	e5d03000 	ldrb	r3, [r0]
    276c:	e3530000 	cmp	r3, #0	; 0x0
    2770:	0afffff6 	beq	2750 <dl_main+0xea0>
    2774:	e1a01007 	mov	r1, r7
    2778:	e59f3158 	ldr	r3, [pc, #344]	; 28d8 <.text+0x1d08>
    277c:	e79a2003 	ldr	r2, [sl, r3]
    2780:	ebfffc15 	bl	17dc <do_preload>
    2784:	e0899000 	add	r9, r9, r0
    2788:	eafffff0 	b	2750 <dl_main+0xea0>
    278c:	e3540000 	cmp	r4, #0	; 0x0
    2790:	0a000012 	beq	27e0 <dl_main+0xf30>
    2794:	e0653004 	rsb	r3, r5, r4
    2798:	e1a00004 	mov	r0, r4
    279c:	e51b1050 	ldr	r1, [fp, #-80]
    27a0:	e0631001 	rsb	r1, r3, r1
    27a4:	eb003a35 	bl	11080 <__strnlen>
    27a8:	e1a02000 	mov	r2, r0
    27ac:	e2803007 	add	r3, r0, #7	; 0x7
    27b0:	e3c33003 	bic	r3, r3, #3	; 0x3
    27b4:	e063d00d 	rsb	sp, r3, sp
    27b8:	e28d0010 	add	r0, sp, #16	; 0x10
    27bc:	e3a03000 	mov	r3, #0	; 0x0
    27c0:	e7c03002 	strb	r3, [r0, r2]
    27c4:	e1a01004 	mov	r1, r4
    27c8:	eb003c41 	bl	118d4 <memcpy>
    27cc:	e1a01007 	mov	r1, r7
    27d0:	e59f3100 	ldr	r3, [pc, #256]	; 28d8 <.text+0x1d08>
    27d4:	e79a2003 	ldr	r2, [sl, r3]
    27d8:	ebfffbff 	bl	17dc <do_preload>
    27dc:	e0899000 	add	r9, r9, r0
    27e0:	e1a00005 	mov	r0, r5
    27e4:	e51b1050 	ldr	r1, [fp, #-80]
    27e8:	eb003928 	bl	10c90 <__munmap>
    27ec:	e59f3068 	ldr	r3, [pc, #104]	; 285c <.text+0x1c8c>
    27f0:	e79a3003 	ldr	r3, [sl, r3]
    27f4:	e59321c4 	ldr	r2, [r3, #452]
    27f8:	e3520000 	cmp	r2, #0	; 0x0
    27fc:	0a00005d 	beq	2978 <.text+0x1da8>
    2800:	e1a03109 	mov	r3, r9, lsl #2
    2804:	e2833004 	add	r3, r3, #4	; 0x4
    2808:	e063d00d 	rsb	sp, r3, sp
    280c:	e28d8010 	add	r8, sp, #16	; 0x10
    2810:	e1a03002 	mov	r3, r2
    2814:	e3a05000 	mov	r5, #0	; 0x0
    2818:	e7883105 	str	r3, [r8, r5, lsl #2]
    281c:	e2855001 	add	r5, r5, #1	; 0x1
    2820:	e593300c 	ldr	r3, [r3, #12]
    2824:	e3530000 	cmp	r3, #0	; 0x0
    2828:	1afffffa 	bne	2818 <dl_main+0xf68>
    282c:	e1550009 	cmp	r5, r9
    2830:	0a000050 	beq	2978 <.text+0x1da8>
    2834:	e59f00a4 	ldr	r0, [pc, #164]	; 28e0 <.text+0x1d10>
    2838:	e08a0000 	add	r0, sl, r0
    283c:	e59f1124 	ldr	r1, [pc, #292]	; 2968 <.text+0x1d98>
    2840:	e08a1001 	add	r1, sl, r1
    2844:	e3a02e4f 	mov	r2, #1264	; 0x4f0
    2848:	e2822006 	add	r2, r2, #6	; 0x6
    284c:	e59f3118 	ldr	r3, [pc, #280]	; 296c <.text+0x1d9c>
    2850:	e79a3003 	ldr	r3, [sl, r3]
    2854:	eb0033d9 	bl	f7c0 <__GI___assert_fail>
    2858:	0001bcc8 	andeq	fp, r1, r8, asr #25
    285c:	0000023c 	andeq	r0, r0, ip, lsr r2
    2860:	000001ec 	andeq	r0, r0, ip, ror #3
    2864:	00000050 	andeq	r0, r0, r0, asr r0
    2868:	00000054 	andeq	r0, r0, r4, asr r0
    286c:	00000244 	andeq	r0, r0, r4, asr #4
    2870:	000001cc 	andeq	r0, r0, ip, asr #3
    2874:	000001d4 	ldreqd	r0, [r0], -r4
    2878:	ffff59bc 	swinv	0x00ff59bc
    287c:	ffff59c4 	swinv	0x00ff59c4
    2880:	ffff59d0 	swinv	0x00ff59d0
    2884:	00000064 	andeq	r0, r0, r4, rrx
    2888:	ffff59e0 	swinv	0x00ff59e0
    288c:	ffff59f0 	swinv	0x00ff59f0
    2890:	6474e551 	ldrvsbt	lr, [r4], #-1361
    2894:	00000044 	andeq	r0, r0, r4, asr #32
    2898:	ffff5f1c 	swinv	0x00ff5f1c
    289c:	00000068 	andeq	r0, r0, r8, rrx
    28a0:	0000006c 	andeq	r0, r0, ip, rrx
    28a4:	6474e552 	ldrvsbt	lr, [r4], #-1362
    28a8:	ffff5f44 	swinv	0x00ff5f44
    28ac:	ffff56d0 	swinv	0x00ff56d0
    28b0:	ffff56dc 	swinv	0x00ff56dc
    28b4:	0000005c 	andeq	r0, r0, ip, asr r0
    28b8:	ffff5f68 	swinv	0x00ff5f68
    28bc:	ffff5fa0 	swinv	0x00ff5fa0
    28c0:	ffff5708 	swinv	0x00ff5708
    28c4:	ffff5fcc 	swinv	0x00ff5fcc
    28c8:	00000070 	andeq	r0, r0, r0, ror r0
    28cc:	00000200 	andeq	r0, r0, r0, lsl #4
    28d0:	ffff5ffc 	swinv	0x00ff5ffc
    28d4:	ffff6008 	swinv	0x00ff6008
    28d8:	00000060 	andeq	r0, r0, r0, rrx
    28dc:	ffff600c 	swinv	0x00ff600c
    28e0:	ffff6014 	swinv	0x00ff6014
    28e4:	ffff6024 	swinv	0x00ff6024
    28e8:	ffff6070 	swinv	0x00ff6070
    28ec:	00000074 	andeq	r0, r0, r4, ror r0
    28f0:	00000048 	andeq	r0, r0, r8, asr #32
    28f4:	000001d8 	ldreqd	r0, [r0], -r8
    28f8:	ffff60bc 	swinv	0x00ff60bc
    28fc:	ffff60cc 	swinv	0x00ff60cc
    2900:	ffff6c8c 	swinv	0x00ff6c8c
    2904:	ffff60ec 	swinv	0x00ff60ec
    2908:	ffff610c 	swinv	0x00ff610c
    290c:	ffff6114 	swinv	0x00ff6114
    2910:	ffff6128 	swinv	0x00ff6128
    2914:	ffff613c 	swinv	0x00ff613c
    2918:	ffff614c 	swinv	0x00ff614c
    291c:	0000020c 	andeq	r0, r0, ip, lsl #4
    2920:	ffff6164 	swinv	0x00ff6164
    2924:	0000020c 	andeq	r0, r0, ip, lsl #4
    2928:	00000078 	andeq	r0, r0, r8, ror r0
    292c:	00000040 	andeq	r0, r0, r0, asr #32
    2930:	00000210 	andeq	r0, r0, r0, lsl r2
    2934:	0000007c 	andeq	r0, r0, ip, ror r0
    2938:	ffff6190 	swinv	0x00ff6190
    293c:	000001d8 	ldreqd	r0, [r0], -r8
    2940:	ffff61a8 	swinv	0x00ff61a8
    2944:	ffff61b0 	swinv	0x00ff61b0
    2948:	ffff61c4 	swinv	0x00ff61c4
    294c:	ffff6010 	swinv	0x00ff6010
    2950:	ffff55f8 	swinv	0x00ff55f8
    2954:	ffff5604 	swinv	0x00ff5604
    2958:	ffff5658 	swinv	0x00ff5658
    295c:	ffff565c 	swinv	0x00ff565c
    2960:	ffff5664 	swinv	0x00ff5664
    2964:	ffff567c 	swinv	0x00ff567c
    2968:	ffff5858 	swinv	0x00ff5858
    296c:	00000058 	andeq	r0, r0, r8, asr r0
    2970:	00000210 	andeq	r0, r0, r0, lsl r2
    2974:	0000023c 	andeq	r0, r0, ip, lsr r2
    2978:	e3a03000 	mov	r3, #0	; 0x0
    297c:	e58d3000 	str	r3, [sp]
    2980:	e1a00007 	mov	r0, r7
    2984:	e1a01008 	mov	r1, r8
    2988:	e1a02009 	mov	r2, r9
    298c:	e51b3040 	ldr	r3, [fp, #-64]
    2990:	e3530003 	cmp	r3, #3	; 0x3
    2994:	13a03000 	movne	r3, #0	; 0x0
    2998:	03a03001 	moveq	r3, #1	; 0x1
    299c:	eb001f32 	bl	a66c <_dl_map_object_deps>
    29a0:	e597515c 	ldr	r5, [r7, #348]
    29a4:	e3550000 	cmp	r5, #0	; 0x0
    29a8:	0a000007 	beq	29cc <.text+0x1dfc>
    29ac:	e2455001 	sub	r5, r5, #1	; 0x1
    29b0:	e5973158 	ldr	r3, [r7, #344]
    29b4:	e7932105 	ldr	r2, [r3, r5, lsl #2]
    29b8:	e5d23180 	ldrb	r3, [r2, #384]
    29bc:	e3833010 	orr	r3, r3, #16	; 0x10
    29c0:	e5c23180 	strb	r3, [r2, #384]
    29c4:	e3550000 	cmp	r5, #0	; 0x0
    29c8:	1afffff7 	bne	29ac <.text+0x1ddc>
    29cc:	e51f3060 	ldr	r3, [pc, #-96]	; 2974 <.text+0x1da4>
    29d0:	e79a3003 	ldr	r3, [sl, r3]
    29d4:	e59311c8 	ldr	r1, [r3, #456]
    29d8:	e59321c4 	ldr	r2, [r3, #452]
    29dc:	e581200c 	str	r2, [r1, #12]
    29e0:	e59331c4 	ldr	r3, [r3, #452]
    29e4:	e3530000 	cmp	r3, #0	; 0x0
    29e8:	15831010 	strne	r1, [r3, #16]
    29ec:	e3a05001 	mov	r5, #1	; 0x1
    29f0:	e597315c 	ldr	r3, [r7, #348]
    29f4:	e1a01003 	mov	r1, r3
    29f8:	e1530005 	cmp	r3, r5
    29fc:	9a000009 	bls	2a28 <.text+0x1e58>
    2a00:	e5972158 	ldr	r2, [r7, #344]
    2a04:	e51f3098 	ldr	r3, [pc, #-152]	; 2974 <.text+0x1da4>
    2a08:	e79a3003 	ldr	r3, [sl, r3]
    2a0c:	e2830f6e 	add	r0, r3, #440	; 0x1b8
    2a10:	e7923105 	ldr	r3, [r2, r5, lsl #2]
    2a14:	e1530000 	cmp	r3, r0
    2a18:	0a000002 	beq	2a28 <.text+0x1e58>
    2a1c:	e2855001 	add	r5, r5, #1	; 0x1
    2a20:	e1510005 	cmp	r1, r5
    2a24:	8afffff9 	bhi	2a10 <.text+0x1e40>
    2a28:	e3a00000 	mov	r0, #0	; 0x0
    2a2c:	e50b0080 	str	r0, [fp, #-128]
    2a30:	e597115c 	ldr	r1, [r7, #348]
    2a34:	e1510005 	cmp	r1, r5
    2a38:	9a00003d 	bls	2b34 <.text+0x1f64>
    2a3c:	e3a03001 	mov	r3, #1	; 0x1
    2a40:	e50b3080 	str	r3, [fp, #-128]
    2a44:	e51f30d8 	ldr	r3, [pc, #-216]	; 2974 <.text+0x1da4>
    2a48:	e79a0003 	ldr	r0, [sl, r3]
    2a4c:	e5973158 	ldr	r3, [r7, #344]
    2a50:	e0832105 	add	r2, r3, r5, lsl #2
    2a54:	e5123004 	ldr	r3, [r2, #-4]
    2a58:	e58031c8 	str	r3, [r0, #456]
    2a5c:	e51b3040 	ldr	r3, [fp, #-64]
    2a60:	e3530000 	cmp	r3, #0	; 0x0
    2a64:	1a000005 	bne	2a80 <.text+0x1eb0>
    2a68:	e2853001 	add	r3, r5, #1	; 0x1
    2a6c:	e1530001 	cmp	r3, r1
    2a70:	35923004 	ldrcc	r3, [r2, #4]
    2a74:	23a03000 	movcs	r3, #0	; 0x0
    2a78:	e58031c4 	str	r3, [r0, #452]
    2a7c:	ea000004 	b	2a94 <.text+0x1ec4>
    2a80:	e51f3114 	ldr	r3, [pc, #-276]	; 2974 <.text+0x1da4>
    2a84:	e79a2003 	ldr	r2, [sl, r3]
    2a88:	e59231c8 	ldr	r3, [r2, #456]
    2a8c:	e593300c 	ldr	r3, [r3, #12]
    2a90:	e58231c4 	str	r3, [r2, #452]
    2a94:	e51f3128 	ldr	r3, [pc, #-296]	; 2974 <.text+0x1da4>
    2a98:	e79a2003 	ldr	r2, [sl, r3]
    2a9c:	e59231c8 	ldr	r3, [r2, #456]
    2aa0:	e593100c 	ldr	r1, [r3, #12]
    2aa4:	e59231c4 	ldr	r3, [r2, #452]
    2aa8:	e1510003 	cmp	r1, r3
    2aac:	0a000008 	beq	2ad4 <.text+0x1f04>
    2ab0:	e51f01d4 	ldr	r0, [pc, #-468]	; 28e4 <.text+0x1d14>
    2ab4:	e08a0000 	add	r0, sl, r0
    2ab8:	e51f1158 	ldr	r1, [pc, #-344]	; 2968 <.text+0x1d98>
    2abc:	e08a1001 	add	r1, sl, r1
    2ac0:	e3a02e57 	mov	r2, #1392	; 0x570
    2ac4:	e282200c 	add	r2, r2, #12	; 0xc
    2ac8:	e51f3164 	ldr	r3, [pc, #-356]	; 296c <.text+0x1d9c>
    2acc:	e79a3003 	ldr	r3, [sl, r3]
    2ad0:	eb00333a 	bl	f7c0 <__GI___assert_fail>
    2ad4:	e51f3168 	ldr	r3, [pc, #-360]	; 2974 <.text+0x1da4>
    2ad8:	e79a3003 	ldr	r3, [sl, r3]
    2adc:	e59311c8 	ldr	r1, [r3, #456]
    2ae0:	e2832f6e 	add	r2, r3, #440	; 0x1b8
    2ae4:	e581200c 	str	r2, [r1, #12]
    2ae8:	e59331c4 	ldr	r3, [r3, #452]
    2aec:	e3530000 	cmp	r3, #0	; 0x0
    2af0:	0a00000f 	beq	2b34 <.text+0x1f64>
    2af4:	e5933010 	ldr	r3, [r3, #16]
    2af8:	e1530001 	cmp	r3, r1
    2afc:	0a000007 	beq	2b20 <.text+0x1f50>
    2b00:	e51f0220 	ldr	r0, [pc, #-544]	; 28e8 <.text+0x1d18>
    2b04:	e08a0000 	add	r0, sl, r0
    2b08:	e51f11a8 	ldr	r1, [pc, #-424]	; 2968 <.text+0x1d98>
    2b0c:	e08a1001 	add	r1, sl, r1
    2b10:	e3a02d16 	mov	r2, #1408	; 0x580
    2b14:	e51f31b0 	ldr	r3, [pc, #-432]	; 296c <.text+0x1d9c>
    2b18:	e79a3003 	ldr	r3, [sl, r3]
    2b1c:	eb003327 	bl	f7c0 <__GI___assert_fail>
    2b20:	e51f31b4 	ldr	r3, [pc, #-436]	; 2974 <.text+0x1da4>
    2b24:	e79a3003 	ldr	r3, [sl, r3]
    2b28:	e59321c4 	ldr	r2, [r3, #452]
    2b2c:	e2833f6e 	add	r3, r3, #440	; 0x1b8
    2b30:	e5823010 	str	r3, [r2, #16]
    2b34:	e51b3040 	ldr	r3, [fp, #-64]
    2b38:	e2732001 	rsbs	r2, r3, #1	; 0x1
    2b3c:	33a02000 	movcc	r2, #0	; 0x0
    2b40:	e50b205c 	str	r2, [fp, #-92]
    2b44:	e24b205c 	sub	r2, fp, #92	; 0x5c
    2b48:	e3530003 	cmp	r3, #3	; 0x3
    2b4c:	13a03000 	movne	r3, #0	; 0x0
    2b50:	03a03001 	moveq	r3, #1	; 0x1
    2b54:	e5823004 	str	r3, [r2, #4]
    2b58:	e51f3274 	ldr	r3, [pc, #-628]	; 28ec <.text+0x1d1c>
    2b5c:	e79a0003 	ldr	r0, [sl, r3]
    2b60:	e51f3278 	ldr	r3, [pc, #-632]	; 28f0 <.text+0x1d20>
    2b64:	e79a1003 	ldr	r1, [sl, r3]
    2b68:	eb0023ff 	bl	bb6c <_dl_receive_error>
    2b6c:	e51b3040 	ldr	r3, [fp, #-64]
    2b70:	e3530000 	cmp	r3, #0	; 0x0
    2b74:	0a00017a 	beq	3164 <.text+0x2594>
    2b78:	e51f3250 	ldr	r3, [pc, #-592]	; 2930 <.text+0x1d60>
    2b7c:	e79a3003 	ldr	r3, [sl, r3]
    2b80:	e5933000 	ldr	r3, [r3]
    2b84:	e3130b01 	tst	r3, #1024	; 0x400
    2b88:	0a000048 	beq	2cb0 <.text+0x20e0>
    2b8c:	e2878f56 	add	r8, r7, #344	; 0x158
    2b90:	e3a05000 	mov	r5, #0	; 0x0
    2b94:	e5983004 	ldr	r3, [r8, #4]
    2b98:	e1530005 	cmp	r3, r5
    2b9c:	9a0000a2 	bls	2e2c <.text+0x225c>
    2ba0:	e51f3278 	ldr	r3, [pc, #-632]	; 2930 <.text+0x1d60>
    2ba4:	e79a3003 	ldr	r3, [sl, r3]
    2ba8:	e50b3094 	str	r3, [fp, #-148]
    2bac:	e51f32c0 	ldr	r3, [pc, #-704]	; 28f4 <.text+0x1d24>
    2bb0:	e79a9003 	ldr	r9, [sl, r3]
    2bb4:	e5983000 	ldr	r3, [r8]
    2bb8:	e7934105 	ldr	r4, [r3, r5, lsl #2]
    2bbc:	e5d43181 	ldrb	r3, [r4, #385]
    2bc0:	e3130002 	tst	r3, #2	; 0x2
    2bc4:	0a000006 	beq	2be4 <.text+0x2014>
    2bc8:	e594301c 	ldr	r3, [r4, #28]
    2bcc:	e3a00001 	mov	r0, #1	; 0x1
    2bd0:	e51f12c8 	ldr	r1, [pc, #-712]	; 2910 <.text+0x1d40>
    2bd4:	e08a1001 	add	r1, sl, r1
    2bd8:	e5932000 	ldr	r2, [r3]
    2bdc:	eb002742 	bl	c8ec <_dl_dprintf>
    2be0:	ea00002d 	b	2c9c <.text+0x20cc>
    2be4:	e51b6094 	ldr	r6, [fp, #-148]
    2be8:	e59600a8 	ldr	r0, [r6, #168]
    2bec:	e1a01004 	mov	r1, r4
    2bf0:	eb002746 	bl	c910 <_dl_name_match_p>
    2bf4:	e3500000 	cmp	r0, #0	; 0x0
    2bf8:	158640ac 	strne	r4, [r6, #172]
    2bfc:	e594301c 	ldr	r3, [r4, #28]
    2c00:	e5932000 	ldr	r2, [r3]
    2c04:	e5d23000 	ldrb	r3, [r2]
    2c08:	e3530000 	cmp	r3, #0	; 0x0
    2c0c:	11a0e002 	movne	lr, r2
    2c10:	1a000005 	bne	2c2c <.text+0x205c>
    2c14:	e5993000 	ldr	r3, [r9]
    2c18:	e5932000 	ldr	r2, [r3]
    2c1c:	e3520000 	cmp	r2, #0	; 0x0
    2c20:	11a0e002 	movne	lr, r2
    2c24:	051f3334 	ldreq	r3, [pc, #-820]	; 28f8 <.text+0x1d28>
    2c28:	008ae003 	addeq	lr, sl, r3
    2c2c:	e5942004 	ldr	r2, [r4, #4]
    2c30:	e5d23000 	ldrb	r3, [r2]
    2c34:	e3530000 	cmp	r3, #0	; 0x0
    2c38:	11a0c002 	movne	ip, r2
    2c3c:	1a000005 	bne	2c58 <.text+0x2088>
    2c40:	e5993000 	ldr	r3, [r9]
    2c44:	e5933000 	ldr	r3, [r3]
    2c48:	e3530000 	cmp	r3, #0	; 0x0
    2c4c:	11a0c003 	movne	ip, r3
    2c50:	051f3360 	ldreq	r3, [pc, #-864]	; 28f8 <.text+0x1d28>
    2c54:	008ac003 	addeq	ip, sl, r3
    2c58:	e3a02008 	mov	r2, #8	; 0x8
    2c5c:	e58d2000 	str	r2, [sp]
    2c60:	e59431a0 	ldr	r3, [r4, #416]
    2c64:	e58d3004 	str	r3, [sp, #4]
    2c68:	e58d2008 	str	r2, [sp, #8]
    2c6c:	e5943000 	ldr	r3, [r4]
    2c70:	e58d300c 	str	r3, [sp, #12]
    2c74:	e3a00001 	mov	r0, #1	; 0x1
    2c78:	e51f1384 	ldr	r1, [pc, #-900]	; 28fc <.text+0x1d2c>
    2c7c:	e08a1001 	add	r1, sl, r1
    2c80:	e1a0200e 	mov	r2, lr
    2c84:	e1a0300c 	mov	r3, ip
    2c88:	eb002717 	bl	c8ec <_dl_dprintf>
    2c8c:	e3a00001 	mov	r0, #1	; 0x1
    2c90:	e51f1398 	ldr	r1, [pc, #-920]	; 2900 <.text+0x1d30>
    2c94:	e08a1001 	add	r1, sl, r1
    2c98:	eb002713 	bl	c8ec <_dl_dprintf>
    2c9c:	e2855001 	add	r5, r5, #1	; 0x1
    2ca0:	e5983004 	ldr	r3, [r8, #4]
    2ca4:	e1530005 	cmp	r3, r5
    2ca8:	8affffc1 	bhi	2bb4 <.text+0x1fe4>
    2cac:	ea00005e 	b	2e2c <.text+0x225c>
    2cb0:	e51f3388 	ldr	r3, [pc, #-904]	; 2930 <.text+0x1d60>
    2cb4:	e79a1003 	ldr	r1, [sl, r3]
    2cb8:	e5913000 	ldr	r3, [r1]
    2cbc:	e3130c01 	tst	r3, #256	; 0x100
    2cc0:	0a000027 	beq	2d64 <.text+0x2194>
    2cc4:	e1a05007 	mov	r5, r7
    2cc8:	e50b7064 	str	r7, [fp, #-100]
    2ccc:	e24b2064 	sub	r2, fp, #100	; 0x64
    2cd0:	e5913028 	ldr	r3, [r1, #40]
    2cd4:	e5823004 	str	r3, [r2, #4]
    2cd8:	e51f33b8 	ldr	r3, [pc, #-952]	; 2928 <.text+0x1d58>
    2cdc:	e79a0003 	ldr	r0, [sl, r3]
    2ce0:	e51f33bc 	ldr	r3, [pc, #-956]	; 292c <.text+0x1d5c>
    2ce4:	e79a1003 	ldr	r1, [sl, r3]
    2ce8:	eb00239f 	bl	bb6c <_dl_receive_error>
    2cec:	e5974008 	ldr	r4, [r7, #8]
    2cf0:	e3a08001 	mov	r8, #1	; 0x1
    2cf4:	e5943000 	ldr	r3, [r4]
    2cf8:	e3530000 	cmp	r3, #0	; 0x0
    2cfc:	0a000015 	beq	2d58 <.text+0x2188>
    2d00:	e5940000 	ldr	r0, [r4]
    2d04:	e3500001 	cmp	r0, #1	; 0x1
    2d08:	1a00000f 	bne	2d4c <.text+0x217c>
    2d0c:	e595500c 	ldr	r5, [r5, #12]
    2d10:	e5d53181 	ldrb	r3, [r5, #385]
    2d14:	e1a031a3 	mov	r3, r3, lsr #3
    2d18:	e2136001 	ands	r6, r3, #1	; 0x1
    2d1c:	1a00000a 	bne	2d4c <.text+0x217c>
    2d20:	e3580000 	cmp	r8, #0	; 0x0
    2d24:	0a000003 	beq	2d38 <.text+0x2168>
    2d28:	e51f142c 	ldr	r1, [pc, #-1068]	; 2904 <.text+0x1d34>
    2d2c:	e08a1001 	add	r1, sl, r1
    2d30:	eb0026ed 	bl	c8ec <_dl_dprintf>
    2d34:	e1a08006 	mov	r8, r6
    2d38:	e3a00001 	mov	r0, #1	; 0x1
    2d3c:	e51f143c 	ldr	r1, [pc, #-1084]	; 2908 <.text+0x1d38>
    2d40:	e08a1001 	add	r1, sl, r1
    2d44:	e5952004 	ldr	r2, [r5, #4]
    2d48:	eb0026e7 	bl	c8ec <_dl_dprintf>
    2d4c:	e5b43008 	ldr	r3, [r4, #8]!
    2d50:	e3530000 	cmp	r3, #0	; 0x0
    2d54:	1affffe9 	bne	2d00 <.text+0x2130>
    2d58:	e2280001 	eor	r0, r8, #1	; 0x1
    2d5c:	eb0037ef 	bl	10d20 <_Exit>
    2d60:	ea000031 	b	2e2c <.text+0x225c>
    2d64:	e5973024 	ldr	r3, [r7, #36]
    2d68:	e3530000 	cmp	r3, #0	; 0x0
    2d6c:	1a000004 	bne	2d84 <.text+0x21b4>
    2d70:	e3a00001 	mov	r0, #1	; 0x1
    2d74:	e51f1470 	ldr	r1, [pc, #-1136]	; 290c <.text+0x1d3c>
    2d78:	e08a1001 	add	r1, sl, r1
    2d7c:	eb0026da 	bl	c8ec <_dl_dprintf>
    2d80:	ea000029 	b	2e2c <.text+0x225c>
    2d84:	e597400c 	ldr	r4, [r7, #12]
    2d88:	e3540000 	cmp	r4, #0	; 0x0
    2d8c:	0a000026 	beq	2e2c <.text+0x225c>
    2d90:	e5d43181 	ldrb	r3, [r4, #385]
    2d94:	e3130002 	tst	r3, #2	; 0x2
    2d98:	0a000006 	beq	2db8 <.text+0x21e8>
    2d9c:	e594301c 	ldr	r3, [r4, #28]
    2da0:	e3a00001 	mov	r0, #1	; 0x1
    2da4:	e51f149c 	ldr	r1, [pc, #-1180]	; 2910 <.text+0x1d40>
    2da8:	e08a1001 	add	r1, sl, r1
    2dac:	e5932000 	ldr	r2, [r3]
    2db0:	eb0026cd 	bl	c8ec <_dl_dprintf>
    2db4:	ea000019 	b	2e20 <.text+0x2250>
    2db8:	e594501c 	ldr	r5, [r4, #28]
    2dbc:	e5950000 	ldr	r0, [r5]
    2dc0:	e5941004 	ldr	r1, [r4, #4]
    2dc4:	eb003889 	bl	10ff0 <strcmp>
    2dc8:	e3500000 	cmp	r0, #0	; 0x0
    2dcc:	1a000008 	bne	2df4 <.text+0x2224>
    2dd0:	e59431a0 	ldr	r3, [r4, #416]
    2dd4:	e58d3000 	str	r3, [sp]
    2dd8:	e2800001 	add	r0, r0, #1	; 0x1
    2ddc:	e51f14d0 	ldr	r1, [pc, #-1232]	; 2914 <.text+0x1d44>
    2de0:	e08a1001 	add	r1, sl, r1
    2de4:	e5952000 	ldr	r2, [r5]
    2de8:	e3a03008 	mov	r3, #8	; 0x8
    2dec:	eb0026be 	bl	c8ec <_dl_dprintf>
    2df0:	ea00000a 	b	2e20 <.text+0x2250>
    2df4:	e594201c 	ldr	r2, [r4, #28]
    2df8:	e3a03008 	mov	r3, #8	; 0x8
    2dfc:	e58d3000 	str	r3, [sp]
    2e00:	e59431a0 	ldr	r3, [r4, #416]
    2e04:	e58d3004 	str	r3, [sp, #4]
    2e08:	e3a00001 	mov	r0, #1	; 0x1
    2e0c:	e51f14fc 	ldr	r1, [pc, #-1276]	; 2918 <.text+0x1d48>
    2e10:	e08a1001 	add	r1, sl, r1
    2e14:	e5922000 	ldr	r2, [r2]
    2e18:	e5943004 	ldr	r3, [r4, #4]
    2e1c:	eb0026b2 	bl	c8ec <_dl_dprintf>
    2e20:	e594400c 	ldr	r4, [r4, #12]
    2e24:	e3540000 	cmp	r4, #0	; 0x0
    2e28:	1affffd8 	bne	2d90 <.text+0x21c0>
    2e2c:	e51b3040 	ldr	r3, [fp, #-64]
    2e30:	e3530003 	cmp	r3, #3	; 0x3
    2e34:	0a000026 	beq	2ed4 <.text+0x2304>
    2e38:	e3a05001 	mov	r5, #1	; 0x1
    2e3c:	e51f3528 	ldr	r3, [pc, #-1320]	; 291c <.text+0x1d4c>
    2e40:	e79a3003 	ldr	r3, [sl, r3]
    2e44:	e5933000 	ldr	r3, [r3]
    2e48:	e1530005 	cmp	r3, r5
    2e4c:	9a0000c2 	bls	315c <.text+0x258c>
    2e50:	e3a04000 	mov	r4, #0	; 0x0
    2e54:	e51f3520 	ldr	r3, [pc, #-1312]	; 293c <.text+0x1d6c>
    2e58:	e79a8003 	ldr	r8, [sl, r3]
    2e5c:	e1a06005 	mov	r6, r5
    2e60:	e50b4068 	str	r4, [fp, #-104]
    2e64:	e5983000 	ldr	r3, [r8]
    2e68:	e7930105 	ldr	r0, [r3, r5, lsl #2]
    2e6c:	e59731c0 	ldr	r3, [r7, #448]
    2e70:	e88d0050 	stmia	sp, {r4, r6}
    2e74:	e58d6008 	str	r6, [sp, #8]
    2e78:	e58d400c 	str	r4, [sp, #12]
    2e7c:	e1a01007 	mov	r1, r7
    2e80:	e24b2068 	sub	r2, fp, #104	; 0x68
    2e84:	eb00144c 	bl	7fbc <_dl_lookup_symbol_x>
    2e88:	e5982000 	ldr	r2, [r8]
    2e8c:	e51b3068 	ldr	r3, [fp, #-104]
    2e90:	e5933004 	ldr	r3, [r3, #4]
    2e94:	e58d3000 	str	r3, [sp]
    2e98:	e3a03008 	mov	r3, #8	; 0x8
    2e9c:	e58d3004 	str	r3, [sp, #4]
    2ea0:	e58d0008 	str	r0, [sp, #8]
    2ea4:	e1a00006 	mov	r0, r6
    2ea8:	e51f1590 	ldr	r1, [pc, #-1424]	; 2920 <.text+0x1d50>
    2eac:	e08a1001 	add	r1, sl, r1
    2eb0:	e7922105 	ldr	r2, [r2, r5, lsl #2]
    2eb4:	eb00268c 	bl	c8ec <_dl_dprintf>
    2eb8:	e2855001 	add	r5, r5, #1	; 0x1
    2ebc:	e51f35a0 	ldr	r3, [pc, #-1440]	; 2924 <.text+0x1d54>
    2ec0:	e79a3003 	ldr	r3, [sl, r3]
    2ec4:	e5933000 	ldr	r3, [r3]
    2ec8:	e1530005 	cmp	r3, r5
    2ecc:	8affffe3 	bhi	2e60 <.text+0x2290>
    2ed0:	ea0000a1 	b	315c <.text+0x258c>
    2ed4:	e51f35ac 	ldr	r3, [pc, #-1452]	; 2930 <.text+0x1d60>
    2ed8:	e79a3003 	ldr	r3, [sl, r3]
    2edc:	e5932028 	ldr	r2, [r3, #40]
    2ee0:	e3520000 	cmp	r2, #0	; 0x0
    2ee4:	ba00002c 	blt	2f9c <.text+0x23cc>
    2ee8:	e5933020 	ldr	r3, [r3, #32]
    2eec:	e3530000 	cmp	r3, #0	; 0x0
    2ef0:	0a000029 	beq	2f9c <.text+0x23cc>
    2ef4:	e50b206c 	str	r2, [fp, #-108]
    2ef8:	e1a04007 	mov	r4, r7
    2efc:	e597300c 	ldr	r3, [r7, #12]
    2f00:	e3530000 	cmp	r3, #0	; 0x0
    2f04:	0a000003 	beq	2f18 <.text+0x2348>
    2f08:	e594400c 	ldr	r4, [r4, #12]
    2f0c:	e594300c 	ldr	r3, [r4, #12]
    2f10:	e3530000 	cmp	r3, #0	; 0x0
    2f14:	1afffffb 	bne	2f08 <.text+0x2338>
    2f18:	e51f35ac 	ldr	r3, [pc, #-1452]	; 2974 <.text+0x1da4>
    2f1c:	e79a3003 	ldr	r3, [sl, r3]
    2f20:	e2833f6e 	add	r3, r3, #440	; 0x1b8
    2f24:	e1530004 	cmp	r3, r4
    2f28:	0a000009 	beq	2f54 <.text+0x2384>
    2f2c:	e5d43181 	ldrb	r3, [r4, #385]
    2f30:	e3130002 	tst	r3, #2	; 0x2
    2f34:	1a000006 	bne	2f54 <.text+0x2384>
    2f38:	e50b4070 	str	r4, [fp, #-112]
    2f3c:	e51f361c 	ldr	r3, [pc, #-1564]	; 2928 <.text+0x1d58>
    2f40:	e79a0003 	ldr	r0, [sl, r3]
    2f44:	e51f3620 	ldr	r3, [pc, #-1568]	; 292c <.text+0x1d5c>
    2f48:	e79a1003 	ldr	r1, [sl, r3]
    2f4c:	e24b2070 	sub	r2, fp, #112	; 0x70
    2f50:	eb002305 	bl	bb6c <_dl_receive_error>
    2f54:	e5944010 	ldr	r4, [r4, #16]
    2f58:	e3540000 	cmp	r4, #0	; 0x0
    2f5c:	1affffed 	bne	2f18 <.text+0x2348>
    2f60:	e51f3638 	ldr	r3, [pc, #-1592]	; 2930 <.text+0x1d60>
    2f64:	e79a3003 	ldr	r3, [sl, r3]
    2f68:	e5933000 	ldr	r3, [r3]
    2f6c:	e3130b01 	tst	r3, #1024	; 0x400
    2f70:	0a000009 	beq	2f9c <.text+0x23cc>
    2f74:	e51b0080 	ldr	r0, [fp, #-128]
    2f78:	e3500000 	cmp	r0, #0	; 0x0
    2f7c:	0a000006 	beq	2f9c <.text+0x23cc>
    2f80:	e51f3614 	ldr	r3, [pc, #-1556]	; 2974 <.text+0x1da4>
    2f84:	e79a0003 	ldr	r0, [sl, r3]
    2f88:	e2800f6e 	add	r0, r0, #440	; 0x1b8
    2f8c:	e59711c0 	ldr	r1, [r7, #448]
    2f90:	e3a02000 	mov	r2, #0	; 0x0
    2f94:	e1a03002 	mov	r3, r2
    2f98:	eb001710 	bl	8be0 <_dl_relocate_object>
    2f9c:	e51f3670 	ldr	r3, [pc, #-1648]	; 2934 <.text+0x1d64>
    2fa0:	e79a3003 	ldr	r3, [sl, r3]
    2fa4:	e5933000 	ldr	r3, [r3]
    2fa8:	e3530000 	cmp	r3, #0	; 0x0
    2fac:	0a00006a 	beq	315c <.text+0x258c>
    2fb0:	e3a01001 	mov	r1, #1	; 0x1
    2fb4:	e50b1084 	str	r1, [fp, #-132]
    2fb8:	e1a06007 	mov	r6, r7
    2fbc:	e3570000 	cmp	r7, #0	; 0x0
    2fc0:	0a000065 	beq	315c <.text+0x258c>
    2fc4:	e59610ac 	ldr	r1, [r6, #172]
    2fc8:	e3510000 	cmp	r1, #0	; 0x0
    2fcc:	0a00005f 	beq	3150 <.text+0x2580>
    2fd0:	e5963034 	ldr	r3, [r6, #52]
    2fd4:	e5939004 	ldr	r9, [r3, #4]
    2fd8:	e5962000 	ldr	r2, [r6]
    2fdc:	e5913004 	ldr	r3, [r1, #4]
    2fe0:	e0828003 	add	r8, r2, r3
    2fe4:	e51b3084 	ldr	r3, [fp, #-132]
    2fe8:	e3530000 	cmp	r3, #0	; 0x0
    2fec:	0a000005 	beq	3008 <.text+0x2438>
    2ff0:	e3a00001 	mov	r0, #1	; 0x1
    2ff4:	e51f16c4 	ldr	r1, [pc, #-1732]	; 2938 <.text+0x1d68>
    2ff8:	e08a1001 	add	r1, sl, r1
    2ffc:	eb00263a 	bl	c8ec <_dl_dprintf>
    3000:	e3a00000 	mov	r0, #0	; 0x0
    3004:	e50b0084 	str	r0, [fp, #-132]
    3008:	e5962004 	ldr	r2, [r6, #4]
    300c:	e5d23000 	ldrb	r3, [r2]
    3010:	e3530000 	cmp	r3, #0	; 0x0
    3014:	051f36e0 	ldreq	r3, [pc, #-1760]	; 293c <.text+0x1d6c>
    3018:	079a3003 	ldreq	r3, [sl, r3]
    301c:	05933000 	ldreq	r3, [r3]
    3020:	05932000 	ldreq	r2, [r3]
    3024:	e3a00001 	mov	r0, #1	; 0x1
    3028:	e51f16f0 	ldr	r1, [pc, #-1776]	; 2940 <.text+0x1d70>
    302c:	e08a1001 	add	r1, sl, r1
    3030:	eb00262d 	bl	c8ec <_dl_dprintf>
    3034:	e5983004 	ldr	r3, [r8, #4]
    3038:	e0893003 	add	r3, r9, r3
    303c:	e50b3088 	str	r3, [fp, #-136]
    3040:	e51f36d4 	ldr	r3, [pc, #-1748]	; 2974 <.text+0x1da4>
    3044:	e79a3003 	ldr	r3, [sl, r3]
    3048:	e5933000 	ldr	r3, [r3]
    304c:	e2835f56 	add	r5, r3, #344	; 0x158
    3050:	e5954004 	ldr	r4, [r5, #4]
    3054:	e2444001 	sub	r4, r4, #1	; 0x1
    3058:	e3740001 	cmn	r4, #1	; 0x1
    305c:	0a000008 	beq	3084 <.text+0x24b4>
    3060:	e5953000 	ldr	r3, [r5]
    3064:	e51b0088 	ldr	r0, [fp, #-136]
    3068:	e7931104 	ldr	r1, [r3, r4, lsl #2]
    306c:	eb002627 	bl	c910 <_dl_name_match_p>
    3070:	e3500000 	cmp	r0, #0	; 0x0
    3074:	1a000032 	bne	3144 <.text+0x2574>
    3078:	e2444001 	sub	r4, r4, #1	; 0x1
    307c:	e3740001 	cmn	r4, #1	; 0x1
    3080:	1afffff6 	bne	3060 <.text+0x2490>
    3084:	e3a01000 	mov	r1, #0	; 0x0
    3088:	e1a05001 	mov	r5, r1
    308c:	e5983008 	ldr	r3, [r8, #8]
    3090:	e0884003 	add	r4, r8, r3
    3094:	e51f3758 	ldr	r3, [pc, #-1880]	; 2944 <.text+0x1d74>
    3098:	e08a3003 	add	r3, sl, r3
    309c:	e50b3090 	str	r3, [fp, #-144]
    30a0:	e3a01000 	mov	r1, #0	; 0x0
    30a4:	e50b108c 	str	r1, [fp, #-140]
    30a8:	e1550001 	cmp	r5, r1
    30ac:	0a000006 	beq	30cc <.text+0x24fc>
    30b0:	e5940008 	ldr	r0, [r4, #8]
    30b4:	e0890000 	add	r0, r9, r0
    30b8:	e1a01005 	mov	r1, r5
    30bc:	ebfff9a2 	bl	174c <match_version>
    30c0:	e3500000 	cmp	r0, #0	; 0x0
    30c4:	15953004 	ldrne	r3, [r5, #4]
    30c8:	150b308c 	strne	r3, [fp, #-140]
    30cc:	e51b1090 	ldr	r1, [fp, #-144]
    30d0:	e5983004 	ldr	r3, [r8, #4]
    30d4:	e0892003 	add	r2, r9, r3
    30d8:	e5943008 	ldr	r3, [r4, #8]
    30dc:	e089c003 	add	ip, r9, r3
    30e0:	e5d43004 	ldrb	r3, [r4, #4]
    30e4:	e3130002 	tst	r3, #2	; 0x2
    30e8:	151f37a8 	ldrne	r3, [pc, #-1960]	; 2948 <.text+0x1d78>
    30ec:	108a3003 	addne	r3, sl, r3
    30f0:	051f37ac 	ldreq	r3, [pc, #-1964]	; 294c <.text+0x1d7c>
    30f4:	008a3003 	addeq	r3, sl, r3
    30f8:	e58d3000 	str	r3, [sp]
    30fc:	e51b008c 	ldr	r0, [fp, #-140]
    3100:	e3500000 	cmp	r0, #0	; 0x0
    3104:	11a03000 	movne	r3, r0
    3108:	051f37c0 	ldreq	r3, [pc, #-1984]	; 2950 <.text+0x1d80>
    310c:	008a3003 	addeq	r3, sl, r3
    3110:	e58d3004 	str	r3, [sp, #4]
    3114:	e3a00001 	mov	r0, #1	; 0x1
    3118:	e1a0300c 	mov	r3, ip
    311c:	eb0025f2 	bl	c8ec <_dl_dprintf>
    3120:	e594300c 	ldr	r3, [r4, #12]
    3124:	e3530000 	cmp	r3, #0	; 0x0
    3128:	10844003 	addne	r4, r4, r3
    312c:	1affffdb 	bne	30a0 <.text+0x24d0>
    3130:	e598300c 	ldr	r3, [r8, #12]
    3134:	e3530000 	cmp	r3, #0	; 0x0
    3138:	0a000004 	beq	3150 <.text+0x2580>
    313c:	e0888003 	add	r8, r8, r3
    3140:	eaffffbb 	b	3034 <.text+0x2464>
    3144:	e5953000 	ldr	r3, [r5]
    3148:	e7931104 	ldr	r1, [r3, r4, lsl #2]
    314c:	eaffffcd 	b	3088 <.text+0x24b8>
    3150:	e596600c 	ldr	r6, [r6, #12]
    3154:	e3560000 	cmp	r6, #0	; 0x0
    3158:	1affff99 	bne	2fc4 <.text+0x23f4>
    315c:	e3a00000 	mov	r0, #0	; 0x0
    3160:	eb0036ee 	bl	10d20 <_Exit>
    3164:	e597313c 	ldr	r3, [r7, #316]
    3168:	e3530000 	cmp	r3, #0	; 0x0
    316c:	0a00004d 	beq	32a8 <.text+0x26d8>
    3170:	e51f3808 	ldr	r3, [pc, #-2056]	; 2970 <.text+0x1da0>
    3174:	e79a3003 	ldr	r3, [sl, r3]
    3178:	e59330a0 	ldr	r3, [r3, #160]
    317c:	e3530000 	cmp	r3, #0	; 0x0
    3180:	1a000048 	bne	32a8 <.text+0x26d8>
    3184:	e5973034 	ldr	r3, [r7, #52]
    3188:	e5939004 	ldr	r9, [r3, #4]
    318c:	e5973114 	ldr	r3, [r7, #276]
    3190:	e3530000 	cmp	r3, #0	; 0x0
    3194:	1a000008 	bne	31bc <.text+0x25ec>
    3198:	e51f084c 	ldr	r0, [pc, #-2124]	; 2954 <.text+0x1d84>
    319c:	e08a0000 	add	r0, sl, r0
    31a0:	e51f1840 	ldr	r1, [pc, #-2112]	; 2968 <.text+0x1d98>
    31a4:	e08a1001 	add	r1, sl, r1
    31a8:	e3a02d1b 	mov	r2, #1728	; 0x6c0
    31ac:	e2822001 	add	r2, r2, #1	; 0x1
    31b0:	e51f384c 	ldr	r3, [pc, #-2124]	; 296c <.text+0x1d9c>
    31b4:	e79a3003 	ldr	r3, [sl, r3]
    31b8:	eb003180 	bl	f7c0 <__GI___assert_fail>
    31bc:	e597313c 	ldr	r3, [r7, #316]
    31c0:	e5934004 	ldr	r4, [r3, #4]
    31c4:	e5973114 	ldr	r3, [r7, #276]
    31c8:	e5933004 	ldr	r3, [r3, #4]
    31cc:	e0846003 	add	r6, r4, r3
    31d0:	e5975158 	ldr	r5, [r7, #344]
    31d4:	e597315c 	ldr	r3, [r7, #348]
    31d8:	e0858103 	add	r8, r5, r3, lsl #2
    31dc:	e1550008 	cmp	r5, r8
    31e0:	31540006 	cmpcc	r4, r6
    31e4:	2a00001d 	bcs	3260 <.text+0x2690>
    31e8:	e5951000 	ldr	r1, [r5]
    31ec:	e1510007 	cmp	r1, r7
    31f0:	0a000016 	beq	3250 <.text+0x2680>
    31f4:	e5913000 	ldr	r3, [r1]
    31f8:	e3530000 	cmp	r3, #0	; 0x0
    31fc:	1a000017 	bne	3260 <.text+0x2690>
    3200:	e5913110 	ldr	r3, [r1, #272]
    3204:	e3530000 	cmp	r3, #0	; 0x0
    3208:	0a000014 	beq	3260 <.text+0x2690>
    320c:	e5932004 	ldr	r2, [r3, #4]
    3210:	e5943008 	ldr	r3, [r4, #8]
    3214:	e1520003 	cmp	r2, r3
    3218:	1a000010 	bne	3260 <.text+0x2690>
    321c:	e591311c 	ldr	r3, [r1, #284]
    3220:	e3530000 	cmp	r3, #0	; 0x0
    3224:	0a00000d 	beq	3260 <.text+0x2690>
    3228:	e5932004 	ldr	r2, [r3, #4]
    322c:	e5943004 	ldr	r3, [r4, #4]
    3230:	e1520003 	cmp	r2, r3
    3234:	1a000009 	bne	3260 <.text+0x2690>
    3238:	e5940000 	ldr	r0, [r4]
    323c:	e0890000 	add	r0, r9, r0
    3240:	eb0025b2 	bl	c910 <_dl_name_match_p>
    3244:	e3500000 	cmp	r0, #0	; 0x0
    3248:	0a000004 	beq	3260 <.text+0x2690>
    324c:	e2844014 	add	r4, r4, #20	; 0x14
    3250:	e2855004 	add	r5, r5, #4	; 0x4
    3254:	e1550008 	cmp	r5, r8
    3258:	31540006 	cmpcc	r4, r6
    325c:	3affffe1 	bcc	31e8 <.text+0x2618>
    3260:	e1550008 	cmp	r5, r8
    3264:	01540006 	cmpeq	r4, r6
    3268:	e51b1078 	ldr	r1, [fp, #-120]
    326c:	03a01001 	moveq	r1, #1	; 0x1
    3270:	e50b1078 	str	r1, [fp, #-120]
    3274:	e51f390c 	ldr	r3, [pc, #-2316]	; 2970 <.text+0x1da0>
    3278:	e79a3003 	ldr	r3, [sl, r3]
    327c:	e5933000 	ldr	r3, [r3]
    3280:	e3130001 	tst	r3, #1	; 0x1
    3284:	0a000007 	beq	32a8 <.text+0x26d8>
    3288:	e3510000 	cmp	r1, #0	; 0x0
    328c:	151f393c 	ldrne	r3, [pc, #-2364]	; 2958 <.text+0x1d88>
    3290:	108a1003 	addne	r1, sl, r3
    3294:	051f3940 	ldreq	r3, [pc, #-2368]	; 295c <.text+0x1d8c>
    3298:	008a1003 	addeq	r1, sl, r3
    329c:	e51f0944 	ldr	r0, [pc, #-2372]	; 2960 <.text+0x1d90>
    32a0:	e08a0000 	add	r0, sl, r0
    32a4:	eb002570 	bl	c86c <_dl_debug_printf>
    32a8:	e51f393c 	ldr	r3, [pc, #-2364]	; 2974 <.text+0x1da4>
    32ac:	e79a3003 	ldr	r3, [sl, r3]
    32b0:	e59301b8 	ldr	r0, [r3, #440]
    32b4:	eb00243d 	bl	c3b0 <_dl_debug_initialize>
    32b8:	e1a05000 	mov	r5, r0
    32bc:	e5973074 	ldr	r3, [r7, #116]
    32c0:	e3530000 	cmp	r3, #0	; 0x0
    32c4:	15830004 	strne	r0, [r3, #4]
    32c8:	e51f395c 	ldr	r3, [pc, #-2396]	; 2974 <.text+0x1da4>
    32cc:	e79a3003 	ldr	r3, [sl, r3]
    32d0:	e593322c 	ldr	r3, [r3, #556]
    32d4:	e3530000 	cmp	r3, #0	; 0x0
    32d8:	15830004 	strne	r0, [r3, #4]
    32dc:	e51f3970 	ldr	r3, [pc, #-2416]	; 2974 <.text+0x1da4>
    32e0:	e79a3003 	ldr	r3, [sl, r3]
    32e4:	e2872f56 	add	r2, r7, #344	; 0x158
    32e8:	e5832010 	str	r2, [r3, #16]
    32ec:	e5832008 	str	r2, [r3, #8]
    32f0:	e51f3988 	ldr	r3, [pc, #-2440]	; 2970 <.text+0x1da0>
    32f4:	e79a3003 	ldr	r3, [sl, r3]
    32f8:	e2833014 	add	r3, r3, #20	; 0x14
    32fc:	e8920003 	ldmia	r2, {r0, r1}
    3300:	e8830003 	stmia	r3, {r0, r1}
    3304:	e51b1078 	ldr	r1, [fp, #-120]
    3308:	e3510000 	cmp	r1, #0	; 0x0
    330c:	0a000025 	beq	33a8 <.text+0x27d8>
    3310:	e5973140 	ldr	r3, [r7, #320]
    3314:	e3530000 	cmp	r3, #0	; 0x0
    3318:	0a000013 	beq	336c <.text+0x279c>
    331c:	e5973118 	ldr	r3, [r7, #280]
    3320:	e3530000 	cmp	r3, #0	; 0x0
    3324:	1a000008 	bne	334c <.text+0x277c>
    3328:	e51f09cc 	ldr	r0, [pc, #-2508]	; 2964 <.text+0x1d94>
    332c:	e08a0000 	add	r0, sl, r0
    3330:	e51f19d0 	ldr	r1, [pc, #-2512]	; 2968 <.text+0x1d98>
    3334:	e08a1001 	add	r1, sl, r1
    3338:	e3a02e71 	mov	r2, #1808	; 0x710
    333c:	e282200f 	add	r2, r2, #15	; 0xf
    3340:	e51f39dc 	ldr	r3, [pc, #-2524]	; 296c <.text+0x1d9c>
    3344:	e79a3003 	ldr	r3, [sl, r3]
    3348:	eb00311c 	bl	f7c0 <__GI___assert_fail>
    334c:	e5973140 	ldr	r3, [r7, #320]
    3350:	e593c004 	ldr	ip, [r3, #4]
    3354:	e5973118 	ldr	r3, [r7, #280]
    3358:	e5932004 	ldr	r2, [r3, #4]
    335c:	e1a00007 	mov	r0, r7
    3360:	e1a0100c 	mov	r1, ip
    3364:	e08c2002 	add	r2, ip, r2
    3368:	eb002b0c 	bl	dfa0 <_dl_resolve_conflicts>
    336c:	e1a04007 	mov	r4, r7
    3370:	e3570000 	cmp	r7, #0	; 0x0
    3374:	0a000009 	beq	33a0 <.text+0x27d0>
    3378:	e5d43180 	ldrb	r3, [r4, #384]
    337c:	e3833004 	orr	r3, r3, #4	; 0x4
    3380:	e5c43180 	strb	r3, [r4, #384]
    3384:	e594321c 	ldr	r3, [r4, #540]
    3388:	e3530000 	cmp	r3, #0	; 0x0
    338c:	11a00004 	movne	r0, r4
    3390:	1b001c45 	blne	a4ac <_dl_protect_relro>
    3394:	e594400c 	ldr	r4, [r4, #12]
    3398:	e3540000 	cmp	r4, #0	; 0x0
    339c:	1afffff5 	bne	3378 <.text+0x27a8>
    33a0:	eb002e25 	bl	ec3c <_dl_sysdep_start_cleanup>
    33a4:	ea000037 	b	3488 <.text+0x28b8>
    33a8:	e51f3a40 	ldr	r3, [pc, #-2624]	; 2970 <.text+0x1da0>
    33ac:	e79a2003 	ldr	r2, [sl, r3]
    33b0:	e59230a0 	ldr	r3, [r2, #160]
    33b4:	e2536000 	subs	r6, r3, #0	; 0x0
    33b8:	13a06001 	movne	r6, #1	; 0x1
    33bc:	e5923028 	ldr	r3, [r2, #40]
    33c0:	e1863003 	orr	r3, r6, r3
    33c4:	e5823028 	str	r3, [r2, #40]
    33c8:	e1a04007 	mov	r4, r7
    33cc:	e597300c 	ldr	r3, [r7, #12]
    33d0:	e3530000 	cmp	r3, #0	; 0x0
    33d4:	0a000003 	beq	33e8 <.text+0x2818>
    33d8:	e594400c 	ldr	r4, [r4, #12]
    33dc:	e594300c 	ldr	r3, [r4, #12]
    33e0:	e3530000 	cmp	r3, #0	; 0x0
    33e4:	1afffffb 	bne	33d8 <.text+0x2808>
    33e8:	e594301c 	ldr	r3, [r4, #28]
    33ec:	e5933004 	ldr	r3, [r3, #4]
    33f0:	e3530000 	cmp	r3, #0	; 0x0
    33f4:	0a000004 	beq	340c <.text+0x283c>
    33f8:	e3a02001 	mov	r2, #1	; 0x1
    33fc:	e5832008 	str	r2, [r3, #8]
    3400:	e5933004 	ldr	r3, [r3, #4]
    3404:	e3530000 	cmp	r3, #0	; 0x0
    3408:	1afffffb 	bne	33fc <.text+0x282c>
    340c:	e51f3aa0 	ldr	r3, [pc, #-2720]	; 2974 <.text+0x1da4>
    3410:	e79a3003 	ldr	r3, [sl, r3]
    3414:	e2833f6e 	add	r3, r3, #440	; 0x1b8
    3418:	e1530004 	cmp	r3, r4
    341c:	0a000006 	beq	343c <.text+0x286c>
    3420:	e1a00004 	mov	r0, r4
    3424:	e59411c0 	ldr	r1, [r4, #448]
    3428:	e51f3ac0 	ldr	r3, [pc, #-2752]	; 2970 <.text+0x1da0>
    342c:	e79a3003 	ldr	r3, [sl, r3]
    3430:	e5932028 	ldr	r2, [r3, #40]
    3434:	e1a03006 	mov	r3, r6
    3438:	eb0015e8 	bl	8be0 <_dl_relocate_object>
    343c:	e5944010 	ldr	r4, [r4, #16]
    3440:	e3540000 	cmp	r4, #0	; 0x0
    3444:	1affffe7 	bne	33e8 <.text+0x2818>
    3448:	eb002dfb 	bl	ec3c <_dl_sysdep_start_cleanup>
    344c:	e51f3ae0 	ldr	r3, [pc, #-2784]	; 2974 <.text+0x1da4>
    3450:	e79a3003 	ldr	r3, [sl, r3]
    3454:	e59331a4 	ldr	r3, [r3, #420]
    3458:	e3530000 	cmp	r3, #0	; 0x0
    345c:	1b002798 	blne	d2c4 <_dl_start_profile>
    3460:	e51b3080 	ldr	r3, [fp, #-128]
    3464:	e3530000 	cmp	r3, #0	; 0x0
    3468:	0a000006 	beq	3488 <.text+0x28b8>
    346c:	e51f3b00 	ldr	r3, [pc, #-2816]	; 2974 <.text+0x1da4>
    3470:	e79a0003 	ldr	r0, [sl, r3]
    3474:	e2800f6e 	add	r0, r0, #440	; 0x1b8
    3478:	e59711c0 	ldr	r1, [r7, #448]
    347c:	e3a02000 	mov	r2, #0	; 0x0
    3480:	e1a03002 	mov	r3, r2
    3484:	eb0015d5 	bl	8be0 <_dl_relocate_object>
    3488:	e3a03001 	mov	r3, #1	; 0x1
    348c:	e585300c 	str	r3, [r5, #12]
    3490:	eb0023e0 	bl	c418 <_dl_debug_state>
    3494:	eb001119 	bl	7900 <_dl_unload_cache>
    3498:	e24bd028 	sub	sp, fp, #40	; 0x28
    349c:	e89daff0 	ldmia	sp, {r4, r5, r6, r7, r8, r9, sl, fp, sp, pc}

000034a0 <print_unresolved>:
    34a0:	e92d4400 	stmdb	sp!, {sl, lr}
    34a4:	e59fa048 	ldr	sl, [pc, #72]	; 34f4 <.text+0x2924>
    34a8:	e08fa00a 	add	sl, pc, sl
    34ac:	e1a0c001 	mov	ip, r1
    34b0:	e5d13000 	ldrb	r3, [r1]
    34b4:	e3530000 	cmp	r3, #0	; 0x0
    34b8:	1a000007 	bne	34dc <print_unresolved+0x3c>
    34bc:	e59f3034 	ldr	r3, [pc, #52]	; 34f8 <.text+0x2928>
    34c0:	e79a3003 	ldr	r3, [sl, r3]
    34c4:	e5933000 	ldr	r3, [r3]
    34c8:	e5931000 	ldr	r1, [r3]
    34cc:	e3510000 	cmp	r1, #0	; 0x0
    34d0:	11a0c001 	movne	ip, r1
    34d4:	059f3020 	ldreq	r3, [pc, #32]	; 34fc <.text+0x292c>
    34d8:	008ac003 	addeq	ip, sl, r3
    34dc:	e3a00002 	mov	r0, #2	; 0x2
    34e0:	e59f1018 	ldr	r1, [pc, #24]	; 3500 <.text+0x2930>
    34e4:	e08a1001 	add	r1, sl, r1
    34e8:	e1a0300c 	mov	r3, ip
    34ec:	eb0024fe 	bl	c8ec <_dl_dprintf>
    34f0:	e8bd8400 	ldmia	sp!, {sl, pc}
    34f4:	0001a0e4 	andeq	sl, r1, r4, ror #1
    34f8:	000001d8 	ldreqd	r0, [r0], -r8
    34fc:	ffff60bc 	swinv	0x00ff60bc
    3500:	ffff61cc 	swinv	0x00ff61cc

00003504 <print_missing_version>:
    3504:	e92d4400 	stmdb	sp!, {sl, lr}
    3508:	e24dd004 	sub	sp, sp, #4	; 0x4
    350c:	e59fa044 	ldr	sl, [pc, #68]	; 3558 <.text+0x2988>
    3510:	e08fa00a 	add	sl, pc, sl
    3514:	e1a0c001 	mov	ip, r1
    3518:	e1a01002 	mov	r1, r2
    351c:	e59f3038 	ldr	r3, [pc, #56]	; 355c <.text+0x298c>
    3520:	e79a3003 	ldr	r3, [sl, r3]
    3524:	e5933000 	ldr	r3, [r3]
    3528:	e5932000 	ldr	r2, [r3]
    352c:	e3520000 	cmp	r2, #0	; 0x0
    3530:	059f3028 	ldreq	r3, [pc, #40]	; 3560 <.text+0x2990>
    3534:	008a2003 	addeq	r2, sl, r3
    3538:	e58d1000 	str	r1, [sp]
    353c:	e3a00002 	mov	r0, #2	; 0x2
    3540:	e59f101c 	ldr	r1, [pc, #28]	; 3564 <.text+0x2994>
    3544:	e08a1001 	add	r1, sl, r1
    3548:	e1a0300c 	mov	r3, ip
    354c:	eb0024e6 	bl	c8ec <_dl_dprintf>
    3550:	e28dd004 	add	sp, sp, #4	; 0x4
    3554:	e8bd8400 	ldmia	sp!, {sl, pc}
    3558:	0001a07c 	andeq	sl, r1, ip, ror r0
    355c:	000001d8 	ldreqd	r0, [r0], -r8
    3560:	ffff58b0 	swinv	0x00ff58b0
    3564:	ffff61d8 	swinv	0x00ff61d8

00003568 <process_dl_debug>:
    3568:	e1a0c00d 	mov	ip, sp
    356c:	e92ddff0 	stmdb	sp!, {r4, r5, r6, r7, r8, r9, sl, fp, ip, lr, pc}
    3570:	e24cb004 	sub	fp, ip, #4	; 0x4
    3574:	e24dd010 	sub	sp, sp, #16	; 0x10
    3578:	e59fa20c 	ldr	sl, [pc, #524]	; 378c <.text+0x2bbc>
    357c:	e08fa00a 	add	sl, pc, sl
    3580:	e1a06000 	mov	r6, r0
    3584:	e5d03000 	ldrb	r3, [r0]
    3588:	e3530000 	cmp	r3, #0	; 0x0
    358c:	0a000056 	beq	36ec <process_dl_debug+0x184>
    3590:	e59f31f8 	ldr	r3, [pc, #504]	; 3790 <.text+0x2bc0>
    3594:	e79a3003 	ldr	r3, [sl, r3]
    3598:	e2833001 	add	r3, r3, #1	; 0x1
    359c:	e50b3030 	str	r3, [fp, #-48]
    35a0:	e59f31ec 	ldr	r3, [pc, #492]	; 3794 <.text+0x2bc4>
    35a4:	e79a3003 	ldr	r3, [sl, r3]
    35a8:	e50b302c 	str	r3, [fp, #-44]
    35ac:	e5d63000 	ldrb	r3, [r6]
    35b0:	e3530020 	cmp	r3, #32	; 0x20
    35b4:	1353002c 	cmpne	r3, #44	; 0x2c
    35b8:	0a000047 	beq	36dc <process_dl_debug+0x174>
    35bc:	e353003a 	cmp	r3, #58	; 0x3a
    35c0:	0a000045 	beq	36dc <process_dl_debug+0x174>
    35c4:	e3a08001 	mov	r8, #1	; 0x1
    35c8:	e5d63001 	ldrb	r3, [r6, #1]
    35cc:	e3530000 	cmp	r3, #0	; 0x0
    35d0:	13530020 	cmpne	r3, #32	; 0x20
    35d4:	0a00000c 	beq	360c <process_dl_debug+0xa4>
    35d8:	e353002c 	cmp	r3, #44	; 0x2c
    35dc:	0a00000a 	beq	360c <process_dl_debug+0xa4>
    35e0:	e353003a 	cmp	r3, #58	; 0x3a
    35e4:	0a000008 	beq	360c <process_dl_debug+0xa4>
    35e8:	e2888001 	add	r8, r8, #1	; 0x1
    35ec:	e7d63008 	ldrb	r3, [r6, r8]
    35f0:	e3530000 	cmp	r3, #0	; 0x0
    35f4:	13530020 	cmpne	r3, #32	; 0x20
    35f8:	0a000003 	beq	360c <process_dl_debug+0xa4>
    35fc:	e353002c 	cmp	r3, #44	; 0x2c
    3600:	0a000001 	beq	360c <process_dl_debug+0xa4>
    3604:	e353003a 	cmp	r3, #58	; 0x3a
    3608:	1afffff6 	bne	35e8 <process_dl_debug+0x80>
    360c:	e3a04000 	mov	r4, #0	; 0x0
    3610:	e59f3178 	ldr	r3, [pc, #376]	; 3790 <.text+0x2bc0>
    3614:	e79a7003 	ldr	r7, [sl, r3]
    3618:	e51b9030 	ldr	r9, [fp, #-48]
    361c:	e0643184 	rsb	r3, r4, r4, lsl #3
    3620:	e1a01183 	mov	r1, r3, lsl #3
    3624:	e0815007 	add	r5, r1, r7
    3628:	e7d13007 	ldrb	r3, [r1, r7]
    362c:	e1530008 	cmp	r3, r8
    3630:	1a000005 	bne	364c <process_dl_debug+0xe4>
    3634:	e1a00006 	mov	r0, r6
    3638:	e0811009 	add	r1, r1, r9
    363c:	e1a02008 	mov	r2, r8
    3640:	eb0037da 	bl	115b0 <bcmp>
    3644:	e3500000 	cmp	r0, #0	; 0x0
    3648:	0a000017 	beq	36ac <process_dl_debug+0x144>
    364c:	e2844001 	add	r4, r4, #1	; 0x1
    3650:	e3540009 	cmp	r4, #9	; 0x9
    3654:	9afffff0 	bls	361c <process_dl_debug+0xb4>
    3658:	e354000a 	cmp	r4, #10	; 0xa
    365c:	1a000010 	bne	36a4 <process_dl_debug+0x13c>
    3660:	e1a00006 	mov	r0, r6
    3664:	e1a01008 	mov	r1, r8
    3668:	eb003684 	bl	11080 <__strnlen>
    366c:	e1a02000 	mov	r2, r0
    3670:	e2803007 	add	r3, r0, #7	; 0x7
    3674:	e3c33003 	bic	r3, r3, #3	; 0x3
    3678:	e063d00d 	rsb	sp, r3, sp
    367c:	e28d0008 	add	r0, sp, #8	; 0x8
    3680:	e3a03000 	mov	r3, #0	; 0x0
    3684:	e7c03002 	strb	r3, [r0, r2]
    3688:	e1a01006 	mov	r1, r6
    368c:	eb003890 	bl	118d4 <memcpy>
    3690:	e1a02000 	mov	r2, r0
    3694:	e3a00002 	mov	r0, #2	; 0x2
    3698:	e59f10f8 	ldr	r1, [pc, #248]	; 3798 <.text+0x2bc8>
    369c:	e08a1001 	add	r1, sl, r1
    36a0:	eb002491 	bl	c8ec <_dl_dprintf>
    36a4:	e0866008 	add	r6, r6, r8
    36a8:	ea00000c 	b	36e0 <process_dl_debug+0x178>
    36ac:	e5d53034 	ldrb	r3, [r5, #52]
    36b0:	e5d52035 	ldrb	r2, [r5, #53]
    36b4:	e1833402 	orr	r3, r3, r2, lsl #8
    36b8:	e51b102c 	ldr	r1, [fp, #-44]
    36bc:	e5912000 	ldr	r2, [r1]
    36c0:	e1833002 	orr	r3, r3, r2
    36c4:	e5813000 	str	r3, [r1]
    36c8:	e3a02001 	mov	r2, #1	; 0x1
    36cc:	e59f30c8 	ldr	r3, [pc, #200]	; 379c <.text+0x2bcc>
    36d0:	e79a3003 	ldr	r3, [sl, r3]
    36d4:	e5832000 	str	r2, [r3]
    36d8:	eaffffde 	b	3658 <process_dl_debug+0xf0>
    36dc:	e2866001 	add	r6, r6, #1	; 0x1
    36e0:	e5d63000 	ldrb	r3, [r6]
    36e4:	e3530000 	cmp	r3, #0	; 0x0
    36e8:	1affffaf 	bne	35ac <process_dl_debug+0x44>
    36ec:	e59f30a0 	ldr	r3, [pc, #160]	; 3794 <.text+0x2bc4>
    36f0:	e79a3003 	ldr	r3, [sl, r3]
    36f4:	e5933000 	ldr	r3, [r3]
    36f8:	e3130c02 	tst	r3, #512	; 0x200
    36fc:	0a000020 	beq	3784 <process_dl_debug+0x21c>
    3700:	e3a00001 	mov	r0, #1	; 0x1
    3704:	e59f1094 	ldr	r1, [pc, #148]	; 37a0 <.text+0x2bd0>
    3708:	e08a1001 	add	r1, sl, r1
    370c:	eb002476 	bl	c8ec <_dl_dprintf>
    3710:	e3a04000 	mov	r4, #0	; 0x0
    3714:	e59f3074 	ldr	r3, [pc, #116]	; 3790 <.text+0x2bc0>
    3718:	e79a5003 	ldr	r5, [sl, r3]
    371c:	e59f3080 	ldr	r3, [pc, #128]	; 37a4 <.text+0x2bd4>
    3720:	e08a3003 	add	r3, sl, r3
    3724:	e2437003 	sub	r7, r3, #3	; 0x3
    3728:	e285600b 	add	r6, r5, #11	; 0xb
    372c:	e0643184 	rsb	r3, r4, r4, lsl #3
    3730:	e1a03183 	mov	r3, r3, lsl #3
    3734:	e7d32005 	ldrb	r2, [r3, r5]
    3738:	e285c001 	add	ip, r5, #1	; 0x1
    373c:	e0821007 	add	r1, r2, r7
    3740:	e58d1000 	str	r1, [sp]
    3744:	e0831006 	add	r1, r3, r6
    3748:	e58d1004 	str	r1, [sp, #4]
    374c:	e3a00001 	mov	r0, #1	; 0x1
    3750:	e59f1050 	ldr	r1, [pc, #80]	; 37a8 <.text+0x2bd8>
    3754:	e08a1001 	add	r1, sl, r1
    3758:	e083300c 	add	r3, r3, ip
    375c:	eb002462 	bl	c8ec <_dl_dprintf>
    3760:	e2844001 	add	r4, r4, #1	; 0x1
    3764:	e3540009 	cmp	r4, #9	; 0x9
    3768:	9affffef 	bls	372c <process_dl_debug+0x1c4>
    376c:	e3a00001 	mov	r0, #1	; 0x1
    3770:	e59f1034 	ldr	r1, [pc, #52]	; 37ac <.text+0x2bdc>
    3774:	e08a1001 	add	r1, sl, r1
    3778:	eb00245b 	bl	c8ec <_dl_dprintf>
    377c:	e3a00000 	mov	r0, #0	; 0x0
    3780:	eb003566 	bl	10d20 <_Exit>
    3784:	e24bd028 	sub	sp, fp, #40	; 0x28
    3788:	e89daff0 	ldmia	sp, {r4, r5, r6, r7, r8, r9, sl, fp, sp, pc}
    378c:	0001a010 	andeq	sl, r1, r0, lsl r0
    3790:	00000080 	andeq	r0, r0, r0, lsl #1
    3794:	00000210 	andeq	r0, r0, r0, lsl r2
    3798:	ffff61e4 	swinv	0x00ff61e4
    379c:	00000084 	andeq	r0, r0, r4, lsl #1
    37a0:	ffff621c 	swinv	0x00ff621c
    37a4:	ffff6258 	swinv	0x00ff6258
    37a8:	ffff6264 	swinv	0x00ff6264
    37ac:	ffff6270 	swinv	0x00ff6270

000037b0 <process_envvars>:
    37b0:	e1a0c00d 	mov	ip, sp
    37b4:	e92ddff0 	stmdb	sp!, {r4, r5, r6, r7, r8, r9, sl, fp, ip, lr, pc}
    37b8:	e24cb004 	sub	fp, ip, #4	; 0x4
    37bc:	e24dd018 	sub	sp, sp, #24	; 0x18
    37c0:	e59fa644 	ldr	sl, [pc, #1604]	; 3e0c <.text+0x323c>
    37c4:	e08fa00a 	add	sl, pc, sl
    37c8:	e1a06000 	mov	r6, r0
    37cc:	e59f363c 	ldr	r3, [pc, #1596]	; 3e10 <.text+0x3240>
    37d0:	e79a3003 	ldr	r3, [sl, r3]
    37d4:	e5933000 	ldr	r3, [r3]
    37d8:	e50b3030 	str	r3, [fp, #-48]
    37dc:	e3a07000 	mov	r7, #0	; 0x0
    37e0:	e1a08007 	mov	r8, r7
    37e4:	e59f3628 	ldr	r3, [pc, #1576]	; 3e14 <.text+0x3244>
    37e8:	e08a2003 	add	r2, sl, r3
    37ec:	e59f3624 	ldr	r3, [pc, #1572]	; 3e18 <.text+0x3248>
    37f0:	e79a3003 	ldr	r3, [sl, r3]
    37f4:	e5933000 	ldr	r3, [r3]
    37f8:	e1530007 	cmp	r3, r7
    37fc:	12822009 	addne	r2, r2, #9	; 0x9
    3800:	e59f3614 	ldr	r3, [pc, #1556]	; 3e1c <.text+0x324c>
    3804:	e79a3003 	ldr	r3, [sl, r3]
    3808:	e58320a4 	str	r2, [r3, #164]
    380c:	e59f3608 	ldr	r3, [pc, #1544]	; 3e1c <.text+0x324c>
    3810:	e79a9003 	ldr	r9, [sl, r3]
    3814:	e59f35fc 	ldr	r3, [pc, #1532]	; 3e18 <.text+0x3248>
    3818:	e79a3003 	ldr	r3, [sl, r3]
    381c:	e50b3034 	str	r3, [fp, #-52]
    3820:	e50b903c 	str	r9, [fp, #-60]
    3824:	ea000125 	b	3cc0 <process_envvars+0x510>
    3828:	e3a02000 	mov	r2, #0	; 0x0
    382c:	e7d43002 	ldrb	r3, [r4, r2]
    3830:	e1530002 	cmp	r3, r2
    3834:	1353003d 	cmpne	r3, #61	; 0x3d
    3838:	0a000004 	beq	3850 <process_envvars+0xa0>
    383c:	e2822001 	add	r2, r2, #1	; 0x1
    3840:	e7d43002 	ldrb	r3, [r4, r2]
    3844:	e3530000 	cmp	r3, #0	; 0x0
    3848:	1353003d 	cmpne	r3, #61	; 0x3d
    384c:	1afffffa 	bne	383c <process_envvars+0x8c>
    3850:	e7d43002 	ldrb	r3, [r4, r2]
    3854:	e353003d 	cmp	r3, #61	; 0x3d
    3858:	1a000118 	bne	3cc0 <process_envvars+0x510>
    385c:	e2423004 	sub	r3, r2, #4	; 0x4
    3860:	e3530010 	cmp	r3, #16	; 0x10
    3864:	908ff103 	addls	pc, pc, r3, lsl #2
    3868:	ea000114 	b	3cc0 <process_envvars+0x510>
    386c:	ea00000f 	b	38b0 <process_envvars+0x100>
    3870:	ea00001a 	b	38e0 <process_envvars+0x130>
    3874:	ea000111 	b	3cc0 <process_envvars+0x510>
    3878:	ea000022 	b	3908 <process_envvars+0x158>
    387c:	ea000047 	b	39a0 <process_envvars+0x1f0>
    3880:	ea00005e 	b	3a00 <process_envvars+0x250>
    3884:	ea00006a 	b	3a34 <process_envvars+0x284>
    3888:	ea000076 	b	3a68 <process_envvars+0x2b8>
    388c:	ea000082 	b	3a9c <process_envvars+0x2ec>
    3890:	ea0000a2 	b	3b20 <process_envvars+0x370>
    3894:	ea0000e2 	b	3c24 <process_envvars+0x474>
    3898:	ea000108 	b	3cc0 <process_envvars+0x510>
    389c:	ea0000f0 	b	3c64 <process_envvars+0x4b4>
    38a0:	ea000106 	b	3cc0 <process_envvars+0x510>
    38a4:	ea000105 	b	3cc0 <process_envvars+0x510>
    38a8:	ea000104 	b	3cc0 <process_envvars+0x510>
    38ac:	ea0000fc 	b	3ca4 <process_envvars+0x4f4>
    38b0:	e1a00004 	mov	r0, r4
    38b4:	e59f1564 	ldr	r1, [pc, #1380]	; 3e20 <.text+0x3250>
    38b8:	e08a1001 	add	r1, sl, r1
    38bc:	e3a02004 	mov	r2, #4	; 0x4
    38c0:	eb00373a 	bl	115b0 <bcmp>
    38c4:	e3500000 	cmp	r0, #0	; 0x0
    38c8:	1a0000fc 	bne	3cc0 <process_envvars+0x510>
    38cc:	e5d43005 	ldrb	r3, [r4, #5]
    38d0:	e2533000 	subs	r3, r3, #0	; 0x0
    38d4:	13a03001 	movne	r3, #1	; 0x1
    38d8:	e5893020 	str	r3, [r9, #32]
    38dc:	ea0000f7 	b	3cc0 <process_envvars+0x510>
    38e0:	e1a00004 	mov	r0, r4
    38e4:	e59f1538 	ldr	r1, [pc, #1336]	; 3e24 <.text+0x3254>
    38e8:	e08a1001 	add	r1, sl, r1
    38ec:	e3a02005 	mov	r2, #5	; 0x5
    38f0:	eb00372e 	bl	115b0 <bcmp>
    38f4:	e3500000 	cmp	r0, #0	; 0x0
    38f8:	1a0000f0 	bne	3cc0 <process_envvars+0x510>
    38fc:	e2840006 	add	r0, r4, #6	; 0x6
    3900:	ebffff18 	bl	3568 <process_dl_debug>
    3904:	ea0000ed 	b	3cc0 <process_envvars+0x510>
    3908:	e1a00004 	mov	r0, r4
    390c:	e59f1514 	ldr	r1, [pc, #1300]	; 3e28 <.text+0x3258>
    3910:	e08a1001 	add	r1, sl, r1
    3914:	e3a02007 	mov	r2, #7	; 0x7
    3918:	eb003724 	bl	115b0 <bcmp>
    391c:	e3500000 	cmp	r0, #0	; 0x0
    3920:	1a000006 	bne	3940 <process_envvars+0x190>
    3924:	e5d43008 	ldrb	r3, [r4, #8]
    3928:	e2533000 	subs	r3, r3, #0	; 0x0
    392c:	13a03001 	movne	r3, #1	; 0x1
    3930:	e59f24f4 	ldr	r2, [pc, #1268]	; 3e2c <.text+0x325c>
    3934:	e79a2002 	ldr	r2, [sl, r2]
    3938:	e5823000 	str	r3, [r2]
    393c:	ea0000df 	b	3cc0 <process_envvars+0x510>
    3940:	e1a00004 	mov	r0, r4
    3944:	e59f14e4 	ldr	r1, [pc, #1252]	; 3e30 <.text+0x3260>
    3948:	e08a1001 	add	r1, sl, r1
    394c:	e3a02007 	mov	r2, #7	; 0x7
    3950:	eb003716 	bl	115b0 <bcmp>
    3954:	e3500000 	cmp	r0, #0	; 0x0
    3958:	1a000004 	bne	3970 <process_envvars+0x1c0>
    395c:	e2843008 	add	r3, r4, #8	; 0x8
    3960:	e59f24cc 	ldr	r2, [pc, #1228]	; 3e34 <.text+0x3264>
    3964:	e79a2002 	ldr	r2, [sl, r2]
    3968:	e5823000 	str	r3, [r2]
    396c:	ea0000d3 	b	3cc0 <process_envvars+0x510>
    3970:	e1a00004 	mov	r0, r4
    3974:	e59f14bc 	ldr	r1, [pc, #1212]	; 3e38 <.text+0x3268>
    3978:	e08a1001 	add	r1, sl, r1
    397c:	e3a02007 	mov	r2, #7	; 0x7
    3980:	eb00370a 	bl	115b0 <bcmp>
    3984:	e3500000 	cmp	r0, #0	; 0x0
    3988:	1a0000cc 	bne	3cc0 <process_envvars+0x510>
    398c:	e5d43008 	ldrb	r3, [r4, #8]
    3990:	e3530000 	cmp	r3, #0	; 0x0
    3994:	12843008 	addne	r3, r4, #8	; 0x8
    3998:	158930a0 	strne	r3, [r9, #160]
    399c:	ea0000c7 	b	3cc0 <process_envvars+0x510>
    39a0:	e1a00004 	mov	r0, r4
    39a4:	e59f1490 	ldr	r1, [pc, #1168]	; 3e3c <.text+0x326c>
    39a8:	e08a1001 	add	r1, sl, r1
    39ac:	e3a02008 	mov	r2, #8	; 0x8
    39b0:	eb0036fe 	bl	115b0 <bcmp>
    39b4:	e3500000 	cmp	r0, #0	; 0x0
    39b8:	1a000004 	bne	39d0 <process_envvars+0x220>
    39bc:	e5d43009 	ldrb	r3, [r4, #9]
    39c0:	e2733001 	rsbs	r3, r3, #1	; 0x1
    39c4:	33a03000 	movcc	r3, #0	; 0x0
    39c8:	e5893028 	str	r3, [r9, #40]
    39cc:	ea0000bb 	b	3cc0 <process_envvars+0x510>
    39d0:	e1a00004 	mov	r0, r4
    39d4:	e59f1464 	ldr	r1, [pc, #1124]	; 3e40 <.text+0x3270>
    39d8:	e08a1001 	add	r1, sl, r1
    39dc:	e3a02008 	mov	r2, #8	; 0x8
    39e0:	eb0036f2 	bl	115b0 <bcmp>
    39e4:	e3500000 	cmp	r0, #0	; 0x0
    39e8:	1a0000b4 	bne	3cc0 <process_envvars+0x510>
    39ec:	e5d43009 	ldrb	r3, [r4, #9]
    39f0:	e2533000 	subs	r3, r3, #0	; 0x0
    39f4:	13a03001 	movne	r3, #1	; 0x1
    39f8:	e589302c 	str	r3, [r9, #44]
    39fc:	ea0000af 	b	3cc0 <process_envvars+0x510>
    3a00:	e51b2034 	ldr	r2, [fp, #-52]
    3a04:	e5923000 	ldr	r3, [r2]
    3a08:	e3530000 	cmp	r3, #0	; 0x0
    3a0c:	1a0000ab 	bne	3cc0 <process_envvars+0x510>
    3a10:	e1a00004 	mov	r0, r4
    3a14:	e59f1428 	ldr	r1, [pc, #1064]	; 3e44 <.text+0x3274>
    3a18:	e08a1001 	add	r1, sl, r1
    3a1c:	e3a02009 	mov	r2, #9	; 0x9
    3a20:	eb0036e2 	bl	115b0 <bcmp>
    3a24:	e3500000 	cmp	r0, #0	; 0x0
    3a28:	1a0000a4 	bne	3cc0 <process_envvars+0x510>
    3a2c:	eb002c83 	bl	ec40 <_dl_show_auxv>
    3a30:	ea0000a2 	b	3cc0 <process_envvars+0x510>
    3a34:	e1a00004 	mov	r0, r4
    3a38:	e59f1408 	ldr	r1, [pc, #1032]	; 3e48 <.text+0x3278>
    3a3c:	e08a1001 	add	r1, sl, r1
    3a40:	e3a0200a 	mov	r2, #10	; 0xa
    3a44:	eb0036d9 	bl	115b0 <bcmp>
    3a48:	e2503000 	subs	r3, r0, #0	; 0x0
    3a4c:	1a00009b 	bne	3cc0 <process_envvars+0x510>
    3a50:	e284000b 	add	r0, r4, #11	; 0xb
    3a54:	e1a01003 	mov	r1, r3
    3a58:	e1a02003 	mov	r2, r3
    3a5c:	eb002f98 	bl	f8c4 <__strtoul_internal>
    3a60:	e5890040 	str	r0, [r9, #64]
    3a64:	ea000095 	b	3cc0 <process_envvars+0x510>
    3a68:	e51b2034 	ldr	r2, [fp, #-52]
    3a6c:	e5923000 	ldr	r3, [r2]
    3a70:	e3530000 	cmp	r3, #0	; 0x0
    3a74:	1a000091 	bne	3cc0 <process_envvars+0x510>
    3a78:	e1a00004 	mov	r0, r4
    3a7c:	e59f13c8 	ldr	r1, [pc, #968]	; 3e4c <.text+0x327c>
    3a80:	e08a1001 	add	r1, sl, r1
    3a84:	e3a0200b 	mov	r2, #11	; 0xb
    3a88:	eb0036c8 	bl	115b0 <bcmp>
    3a8c:	e3500000 	cmp	r0, #0	; 0x0
    3a90:	0284300c 	addeq	r3, r4, #12	; 0xc
    3a94:	05893098 	streq	r3, [r9, #152]
    3a98:	ea000088 	b	3cc0 <process_envvars+0x510>
    3a9c:	e1a00004 	mov	r0, r4
    3aa0:	e59f13a8 	ldr	r1, [pc, #936]	; 3e50 <.text+0x3280>
    3aa4:	e08a1001 	add	r1, sl, r1
    3aa8:	e3a0200c 	mov	r2, #12	; 0xc
    3aac:	eb0036bf 	bl	115b0 <bcmp>
    3ab0:	e3500000 	cmp	r0, #0	; 0x0
    3ab4:	1a000004 	bne	3acc <process_envvars+0x31c>
    3ab8:	e284300d 	add	r3, r4, #13	; 0xd
    3abc:	e59f2390 	ldr	r2, [pc, #912]	; 3e54 <.text+0x3284>
    3ac0:	e79a2002 	ldr	r2, [sl, r2]
    3ac4:	e5823000 	str	r3, [r2]
    3ac8:	ea00007c 	b	3cc0 <process_envvars+0x510>
    3acc:	e1a00004 	mov	r0, r4
    3ad0:	e59f1380 	ldr	r1, [pc, #896]	; 3e58 <.text+0x3288>
    3ad4:	e08a1001 	add	r1, sl, r1
    3ad8:	e3a0200c 	mov	r2, #12	; 0xc
    3adc:	eb0036b3 	bl	115b0 <bcmp>
    3ae0:	e3500000 	cmp	r0, #0	; 0x0
    3ae4:	0284700d 	addeq	r7, r4, #13	; 0xd
    3ae8:	0a000074 	beq	3cc0 <process_envvars+0x510>
    3aec:	e51b2034 	ldr	r2, [fp, #-52]
    3af0:	e5923000 	ldr	r3, [r2]
    3af4:	e3530000 	cmp	r3, #0	; 0x0
    3af8:	1a000070 	bne	3cc0 <process_envvars+0x510>
    3afc:	e1a00004 	mov	r0, r4
    3b00:	e59f1354 	ldr	r1, [pc, #852]	; 3e5c <.text+0x328c>
    3b04:	e08a1001 	add	r1, sl, r1
    3b08:	e3a0200c 	mov	r2, #12	; 0xc
    3b0c:	eb0036a7 	bl	115b0 <bcmp>
    3b10:	e3500000 	cmp	r0, #0	; 0x0
    3b14:	03a03001 	moveq	r3, #1	; 0x1
    3b18:	05893030 	streq	r3, [r9, #48]
    3b1c:	ea000067 	b	3cc0 <process_envvars+0x510>
    3b20:	e1a00004 	mov	r0, r4
    3b24:	e59f1334 	ldr	r1, [pc, #820]	; 3e60 <.text+0x3290>
    3b28:	e08a1001 	add	r1, sl, r1
    3b2c:	e3a0200d 	mov	r2, #13	; 0xd
    3b30:	eb00369e 	bl	115b0 <bcmp>
    3b34:	e3500000 	cmp	r0, #0	; 0x0
    3b38:	1a000027 	bne	3bdc <process_envvars+0x42c>
    3b3c:	e50b0038 	str	r0, [fp, #-56]
    3b40:	e284400e 	add	r4, r4, #14	; 0xe
    3b44:	e1a05000 	mov	r5, r0
    3b48:	e1a00004 	mov	r0, r4
    3b4c:	e24b102c 	sub	r1, fp, #44	; 0x2c
    3b50:	e3a02000 	mov	r2, #0	; 0x0
    3b54:	e1a03002 	mov	r3, r2
    3b58:	eb002f59 	bl	f8c4 <__strtoul_internal>
    3b5c:	e35000fe 	cmp	r0, #254	; 0xfe
    3b60:	8a000009 	bhi	3b8c <process_envvars+0x3dc>
    3b64:	e51b302c 	ldr	r3, [fp, #-44]
    3b68:	e1540003 	cmp	r4, r3
    3b6c:	0a000006 	beq	3b8c <process_envvars+0x3dc>
    3b70:	e3550001 	cmp	r5, #1	; 0x1
    3b74:	8a000007 	bhi	3b98 <process_envvars+0x3e8>
    3b78:	e5d33000 	ldrb	r3, [r3]
    3b7c:	e3530000 	cmp	r3, #0	; 0x0
    3b80:	0a000004 	beq	3b98 <process_envvars+0x3e8>
    3b84:	e353002e 	cmp	r3, #46	; 0x2e
    3b88:	0a000002 	beq	3b98 <process_envvars+0x3e8>
    3b8c:	e3a03000 	mov	r3, #0	; 0x0
    3b90:	e50b3038 	str	r3, [fp, #-56]
    3b94:	ea00000c 	b	3bcc <process_envvars+0x41c>
    3b98:	e1a03185 	mov	r3, r5, lsl #3
    3b9c:	e2633010 	rsb	r3, r3, #16	; 0x10
    3ba0:	e51b2038 	ldr	r2, [fp, #-56]
    3ba4:	e1822310 	orr	r2, r2, r0, lsl r3
    3ba8:	e50b2038 	str	r2, [fp, #-56]
    3bac:	e51b002c 	ldr	r0, [fp, #-44]
    3bb0:	e5d03000 	ldrb	r3, [r0]
    3bb4:	e3530000 	cmp	r3, #0	; 0x0
    3bb8:	0a000003 	beq	3bcc <process_envvars+0x41c>
    3bbc:	e2855001 	add	r5, r5, #1	; 0x1
    3bc0:	e2804001 	add	r4, r0, #1	; 0x1
    3bc4:	e3550002 	cmp	r5, #2	; 0x2
    3bc8:	9affffde 	bls	3b48 <process_envvars+0x398>
    3bcc:	e51b3038 	ldr	r3, [fp, #-56]
    3bd0:	e3530000 	cmp	r3, #0	; 0x0
    3bd4:	15893008 	strne	r3, [r9, #8]
    3bd8:	ea000038 	b	3cc0 <process_envvars+0x510>
    3bdc:	e51b2034 	ldr	r2, [fp, #-52]
    3be0:	e5923000 	ldr	r3, [r2]
    3be4:	e3530000 	cmp	r3, #0	; 0x0
    3be8:	1a000034 	bne	3cc0 <process_envvars+0x510>
    3bec:	e1a00004 	mov	r0, r4
    3bf0:	e59f126c 	ldr	r1, [pc, #620]	; 3e64 <.text+0x3294>
    3bf4:	e08a1001 	add	r1, sl, r1
    3bf8:	e3a0200d 	mov	r2, #13	; 0xd
    3bfc:	eb00366b 	bl	115b0 <bcmp>
    3c00:	e3500000 	cmp	r0, #0	; 0x0
    3c04:	1a00002d 	bne	3cc0 <process_envvars+0x510>
    3c08:	e5d4300e 	ldrb	r3, [r4, #14]
    3c0c:	e3530031 	cmp	r3, #49	; 0x31
    3c10:	13a03000 	movne	r3, #0	; 0x0
    3c14:	03e03000 	mvneq	r3, #0	; 0x0
    3c18:	e51b203c 	ldr	r2, [fp, #-60]
    3c1c:	e582309c 	str	r3, [r2, #156]
    3c20:	ea000026 	b	3cc0 <process_envvars+0x510>
    3c24:	e51b2034 	ldr	r2, [fp, #-52]
    3c28:	e5923000 	ldr	r3, [r2]
    3c2c:	e3530000 	cmp	r3, #0	; 0x0
    3c30:	1a000022 	bne	3cc0 <process_envvars+0x510>
    3c34:	e1a00004 	mov	r0, r4
    3c38:	e59f1228 	ldr	r1, [pc, #552]	; 3e68 <.text+0x3298>
    3c3c:	e08a1001 	add	r1, sl, r1
    3c40:	e3a0200e 	mov	r2, #14	; 0xe
    3c44:	eb003659 	bl	115b0 <bcmp>
    3c48:	e3500000 	cmp	r0, #0	; 0x0
    3c4c:	1a00001b 	bne	3cc0 <process_envvars+0x510>
    3c50:	e5d4300f 	ldrb	r3, [r4, #15]
    3c54:	e3530000 	cmp	r3, #0	; 0x0
    3c58:	1284300f 	addne	r3, r4, #15	; 0xf
    3c5c:	158930a4 	strne	r3, [r9, #164]
    3c60:	ea000016 	b	3cc0 <process_envvars+0x510>
    3c64:	e1a00004 	mov	r0, r4
    3c68:	e59f11fc 	ldr	r1, [pc, #508]	; 3e6c <.text+0x329c>
    3c6c:	e08a1001 	add	r1, sl, r1
    3c70:	e3a02010 	mov	r2, #16	; 0x10
    3c74:	eb00364d 	bl	115b0 <bcmp>
    3c78:	e3500000 	cmp	r0, #0	; 0x0
    3c7c:	1a00000f 	bne	3cc0 <process_envvars+0x510>
    3c80:	e3a08003 	mov	r8, #3	; 0x3
    3c84:	e3a03001 	mov	r3, #1	; 0x1
    3c88:	e5893020 	str	r3, [r9, #32]
    3c8c:	e5993000 	ldr	r3, [r9]
    3c90:	e3833b01 	orr	r3, r3, #1024	; 0x400
    3c94:	e5893000 	str	r3, [r9]
    3c98:	e2843011 	add	r3, r4, #17	; 0x11
    3c9c:	e58930a8 	str	r3, [r9, #168]
    3ca0:	ea000006 	b	3cc0 <process_envvars+0x510>
    3ca4:	e1a00004 	mov	r0, r4
    3ca8:	e59f11c0 	ldr	r1, [pc, #448]	; 3e70 <.text+0x32a0>
    3cac:	e08a1001 	add	r1, sl, r1
    3cb0:	e3a02014 	mov	r2, #20	; 0x14
    3cb4:	eb00363d 	bl	115b0 <bcmp>
    3cb8:	e3500000 	cmp	r0, #0	; 0x0
    3cbc:	03a08003 	moveq	r8, #3	; 0x3
    3cc0:	e24b0030 	sub	r0, fp, #48	; 0x30
    3cc4:	eb002d7f 	bl	f2c8 <_dl_next_ld_env_entry>
    3cc8:	e2504000 	subs	r4, r0, #0	; 0x0
    3ccc:	1afffed5 	bne	3828 <process_envvars+0x78>
    3cd0:	e5868000 	str	r8, [r6]
    3cd4:	e59f313c 	ldr	r3, [pc, #316]	; 3e18 <.text+0x3248>
    3cd8:	e79a3003 	ldr	r3, [sl, r3]
    3cdc:	e5933000 	ldr	r3, [r3]
    3ce0:	e3530000 	cmp	r3, #0	; 0x0
    3ce4:	0a00001c 	beq	3d5c <process_envvars+0x5ac>
    3ce8:	e59f3184 	ldr	r3, [pc, #388]	; 3e74 <.text+0x32a4>
    3cec:	e79a4003 	ldr	r4, [sl, r3]
    3cf0:	e1a00004 	mov	r0, r4
    3cf4:	eb002d8a 	bl	f324 <unsetenv>
    3cf8:	e1a00004 	mov	r0, r4
    3cfc:	e3a01000 	mov	r1, #0	; 0x0
    3d00:	eb00347a 	bl	10ef0 <index>
    3d04:	e2804001 	add	r4, r0, #1	; 0x1
    3d08:	e5d03001 	ldrb	r3, [r0, #1]
    3d0c:	e3530000 	cmp	r3, #0	; 0x0
    3d10:	1afffff6 	bne	3cf0 <process_envvars+0x540>
    3d14:	e59f015c 	ldr	r0, [pc, #348]	; 3e78 <.text+0x32a8>
    3d18:	e08a0000 	add	r0, sl, r0
    3d1c:	e3a01000 	mov	r1, #0	; 0x0
    3d20:	eb0032c6 	bl	10840 <__access>
    3d24:	e3500000 	cmp	r0, #0	; 0x0
    3d28:	0a000006 	beq	3d48 <process_envvars+0x598>
    3d2c:	e59f0148 	ldr	r0, [pc, #328]	; 3e7c <.text+0x32ac>
    3d30:	e08a0000 	add	r0, sl, r0
    3d34:	eb002d7a 	bl	f324 <unsetenv>
    3d38:	e3a02000 	mov	r2, #0	; 0x0
    3d3c:	e59f30d8 	ldr	r3, [pc, #216]	; 3e1c <.text+0x324c>
    3d40:	e79a3003 	ldr	r3, [sl, r3]
    3d44:	e5832000 	str	r2, [r3]
    3d48:	e3580000 	cmp	r8, #0	; 0x0
    3d4c:	0a00002c 	beq	3e04 <process_envvars+0x654>
    3d50:	e3a00005 	mov	r0, #5	; 0x5
    3d54:	eb0033f1 	bl	10d20 <_Exit>
    3d58:	ea000029 	b	3e04 <process_envvars+0x654>
    3d5c:	e59f311c 	ldr	r3, [pc, #284]	; 3e80 <.text+0x32b0>
    3d60:	e79a3003 	ldr	r3, [sl, r3]
    3d64:	e5933000 	ldr	r3, [r3]
    3d68:	e3530000 	cmp	r3, #0	; 0x0
    3d6c:	13570000 	cmpne	r7, #0	; 0x0
    3d70:	0a000023 	beq	3e04 <process_envvars+0x654>
    3d74:	e1a0800d 	mov	r8, sp
    3d78:	e1a00007 	mov	r0, r7
    3d7c:	eb0034a7 	bl	11020 <strlen>
    3d80:	e1a05000 	mov	r5, r0
    3d84:	e2803012 	add	r3, r0, #18	; 0x12
    3d88:	e3c33003 	bic	r3, r3, #3	; 0x3
    3d8c:	e063d00d 	rsb	sp, r3, sp
    3d90:	e28d3004 	add	r3, sp, #4	; 0x4
    3d94:	e0803003 	add	r3, r0, r3
    3d98:	e283600b 	add	r6, r3, #11	; 0xb
    3d9c:	e3a04000 	mov	r4, #0	; 0x0
    3da0:	e5c3400b 	strb	r4, [r3, #11]
    3da4:	eb0033f1 	bl	10d70 <__getpid>
    3da8:	e58d4000 	str	r4, [sp]
    3dac:	e1a01fc0 	mov	r1, r0, asr #31
    3db0:	e1a02006 	mov	r2, r6
    3db4:	e3a0300a 	mov	r3, #10	; 0xa
    3db8:	eb002f1e 	bl	fa38 <_itoa>
    3dbc:	e3a0302e 	mov	r3, #46	; 0x2e
    3dc0:	e5603001 	strb	r3, [r0, #-1]!
    3dc4:	e0650000 	rsb	r0, r5, r0
    3dc8:	e1a01007 	mov	r1, r7
    3dcc:	e1a02005 	mov	r2, r5
    3dd0:	eb0036bf 	bl	118d4 <memcpy>
    3dd4:	e59f3040 	ldr	r3, [pc, #64]	; 3e1c <.text+0x324c>
    3dd8:	e79a4003 	ldr	r4, [sl, r3]
    3ddc:	e3a01b21 	mov	r1, #33792	; 0x8400
    3de0:	e2811041 	add	r1, r1, #65	; 0x41
    3de4:	e3a02f6d 	mov	r2, #436	; 0x1b4
    3de8:	e2822002 	add	r2, r2, #2	; 0x2
    3dec:	eb003257 	bl	10750 <__libc_open>
    3df0:	e5840024 	str	r0, [r4, #36]
    3df4:	e3700001 	cmn	r0, #1	; 0x1
    3df8:	03a03001 	moveq	r3, #1	; 0x1
    3dfc:	05843024 	streq	r3, [r4, #36]
    3e00:	e1a0d008 	mov	sp, r8
    3e04:	e24bd028 	sub	sp, fp, #40	; 0x28
    3e08:	e89daff0 	ldmia	sp, {r4, r5, r6, r7, r8, r9, sl, fp, sp, pc}
    3e0c:	00019dc8 	andeq	r9, r1, r8, asr #27
    3e10:	000001e4 	andeq	r0, r0, r4, ror #3
    3e14:	ffff4e5c 	swinv	0x00ff4e5c
    3e18:	00000200 	andeq	r0, r0, r0, lsl #4
    3e1c:	00000210 	andeq	r0, r0, r0, lsl r2
    3e20:	ffff6304 	swinv	0x00ff6304
    3e24:	ffff630c 	swinv	0x00ff630c
    3e28:	ffff6314 	swinv	0x00ff6314
    3e2c:	0000007c 	andeq	r0, r0, ip, ror r0
    3e30:	ffff631c 	swinv	0x00ff631c
    3e34:	00000070 	andeq	r0, r0, r0, ror r0
    3e38:	ffff6324 	swinv	0x00ff6324
    3e3c:	ffff632c 	swinv	0x00ff632c
    3e40:	ffff6338 	swinv	0x00ff6338
    3e44:	ffff6344 	swinv	0x00ff6344
    3e48:	ffff6350 	swinv	0x00ff6350
    3e4c:	ffff635c 	swinv	0x00ff635c
    3e50:	ffff6368 	swinv	0x00ff6368
    3e54:	00000064 	andeq	r0, r0, r4, rrx
    3e58:	ffff6378 	swinv	0x00ff6378
    3e5c:	ffff6388 	swinv	0x00ff6388
    3e60:	ffff6398 	swinv	0x00ff6398
    3e64:	ffff63a8 	swinv	0x00ff63a8
    3e68:	ffff63b8 	swinv	0x00ff63b8
    3e6c:	ffff63c8 	swinv	0x00ff63c8
    3e70:	ffff63dc 	swinv	0x00ff63dc
    3e74:	00000088 	andeq	r0, r0, r8, lsl #1
    3e78:	ffff63f4 	swinv	0x00ff63f4
    3e7c:	ffff6404 	swinv	0x00ff6404
    3e80:	00000084 	andeq	r0, r0, r4, lsl #1

00003e84 <print_statistics>:
    3e84:	e92d4430 	stmdb	sp!, {r4, r5, sl, lr}
    3e88:	e59fa0c0 	ldr	sl, [pc, #192]	; 3f50 <.text+0x3380>
    3e8c:	e08fa00a 	add	sl, pc, sl
    3e90:	e3a04000 	mov	r4, #0	; 0x0
    3e94:	e1a00004 	mov	r0, r4
    3e98:	e59f30b4 	ldr	r3, [pc, #180]	; 3f54 <.text+0x3384>
    3e9c:	e79a5003 	ldr	r5, [sl, r3]
    3ea0:	e0803080 	add	r3, r0, r0, lsl #1
    3ea4:	e7953183 	ldr	r3, [r5, r3, lsl #3]
    3ea8:	e3530000 	cmp	r3, #0	; 0x0
    3eac:	0a00001b 	beq	3f20 <print_statistics+0x9c>
    3eb0:	e2832f56 	add	r2, r3, #344	; 0x158
    3eb4:	e3a01000 	mov	r1, #0	; 0x0
    3eb8:	e5923004 	ldr	r3, [r2, #4]
    3ebc:	e1530001 	cmp	r3, r1
    3ec0:	9a000016 	bls	3f20 <print_statistics+0x9c>
    3ec4:	e592e000 	ldr	lr, [r2]
    3ec8:	e1a0c003 	mov	ip, r3
    3ecc:	e79e2101 	ldr	r2, [lr, r1, lsl #2]
    3ed0:	e5923000 	ldr	r3, [r2]
    3ed4:	e3530000 	cmp	r3, #0	; 0x0
    3ed8:	0a000006 	beq	3ef8 <print_statistics+0x74>
    3edc:	e59230bc 	ldr	r3, [r2, #188]
    3ee0:	e3530000 	cmp	r3, #0	; 0x0
    3ee4:	15933004 	ldrne	r3, [r3, #4]
    3ee8:	10844003 	addne	r4, r4, r3
    3eec:	e5923000 	ldr	r3, [r2]
    3ef0:	e3530000 	cmp	r3, #0	; 0x0
    3ef4:	1a000002 	bne	3f04 <print_statistics+0x80>
    3ef8:	e592311c 	ldr	r3, [r2, #284]
    3efc:	e3530000 	cmp	r3, #0	; 0x0
    3f00:	1a000003 	bne	3f14 <print_statistics+0x90>
    3f04:	e59230c0 	ldr	r3, [r2, #192]
    3f08:	e3530000 	cmp	r3, #0	; 0x0
    3f0c:	15933004 	ldrne	r3, [r3, #4]
    3f10:	10844003 	addne	r4, r4, r3
    3f14:	e2811001 	add	r1, r1, #1	; 0x1
    3f18:	e15c0001 	cmp	ip, r1
    3f1c:	8affffea 	bhi	3ecc <print_statistics+0x48>
    3f20:	e2800001 	add	r0, r0, #1	; 0x1
    3f24:	e350000f 	cmp	r0, #15	; 0xf
    3f28:	daffffdc 	ble	3ea0 <print_statistics+0x1c>
    3f2c:	e59f3020 	ldr	r3, [pc, #32]	; 3f54 <.text+0x3384>
    3f30:	e79a3003 	ldr	r3, [sl, r3]
    3f34:	e59f001c 	ldr	r0, [pc, #28]	; 3f58 <.text+0x3388>
    3f38:	e08a0000 	add	r0, sl, r0
    3f3c:	e2831f6a 	add	r1, r3, #424	; 0x1a8
    3f40:	e8910006 	ldmia	r1, {r1, r2}
    3f44:	e1a03004 	mov	r3, r4
    3f48:	eb002247 	bl	c86c <_dl_debug_printf>
    3f4c:	e8bd8430 	ldmia	sp!, {r4, r5, sl, pc}
    3f50:	00019700 	andeq	r9, r1, r0, lsl #14
    3f54:	0000023c 	andeq	r0, r0, ip, lsr r2
    3f58:	ffff6414 	swinv	0x00ff6414

00003f5c <is_dst>:
    3f5c:	e92d4030 	stmdb	sp!, {r4, r5, lr}
    3f60:	e1a05000 	mov	r5, r0
    3f64:	e1a04003 	mov	r4, r3
    3f68:	e3a0e000 	mov	lr, #0	; 0x0
    3f6c:	e5d13000 	ldrb	r3, [r1]
    3f70:	e353007b 	cmp	r3, #123	; 0x7b
    3f74:	028ee001 	addeq	lr, lr, #1	; 0x1
    3f78:	0081100e 	addeq	r1, r1, lr
    3f7c:	e3a00000 	mov	r0, #0	; 0x0
    3f80:	e7d1c000 	ldrb	ip, [r1, r0]
    3f84:	e7d23000 	ldrb	r3, [r2, r0]
    3f88:	e15c0003 	cmp	ip, r3
    3f8c:	1a000008 	bne	3fb4 <is_dst+0x58>
    3f90:	e15c0000 	cmp	ip, r0
    3f94:	0a000006 	beq	3fb4 <is_dst+0x58>
    3f98:	e2800001 	add	r0, r0, #1	; 0x1
    3f9c:	e7d1c000 	ldrb	ip, [r1, r0]
    3fa0:	e7d23000 	ldrb	r3, [r2, r0]
    3fa4:	e15c0003 	cmp	ip, r3
    3fa8:	1a000001 	bne	3fb4 <is_dst+0x58>
    3fac:	e35c0000 	cmp	ip, #0	; 0x0
    3fb0:	1afffff8 	bne	3f98 <is_dst+0x3c>
    3fb4:	e35e0000 	cmp	lr, #0	; 0x0
    3fb8:	0a000006 	beq	3fd8 <is_dst+0x7c>
    3fbc:	e7d13000 	ldrb	r3, [r1, r0]
    3fc0:	e353007d 	cmp	r3, #125	; 0x7d
    3fc4:	13a00000 	movne	r0, #0	; 0x0
    3fc8:	18bd8030 	ldmneia	sp!, {r4, r5, pc}
    3fcc:	e2411001 	sub	r1, r1, #1	; 0x1
    3fd0:	e2800002 	add	r0, r0, #2	; 0x2
    3fd4:	ea000009 	b	4000 <is_dst+0xa4>
    3fd8:	e7d13000 	ldrb	r3, [r1, r0]
    3fdc:	e3530000 	cmp	r3, #0	; 0x0
    3fe0:	1353002f 	cmpne	r3, #47	; 0x2f
    3fe4:	0a000005 	beq	4000 <is_dst+0xa4>
    3fe8:	e3540000 	cmp	r4, #0	; 0x0
    3fec:	0a000001 	beq	3ff8 <is_dst+0x9c>
    3ff0:	e353003a 	cmp	r3, #58	; 0x3a
    3ff4:	0a000001 	beq	4000 <is_dst+0xa4>
    3ff8:	e3a00000 	mov	r0, #0	; 0x0
    3ffc:	e8bd8030 	ldmia	sp!, {r4, r5, pc}
    4000:	e59d300c 	ldr	r3, [sp, #12]
    4004:	e3530000 	cmp	r3, #0	; 0x0
    4008:	08bd8030 	ldmeqia	sp!, {r4, r5, pc}
    400c:	e7d13000 	ldrb	r3, [r1, r0]
    4010:	e3530000 	cmp	r3, #0	; 0x0
    4014:	0a000003 	beq	4028 <is_dst+0xcc>
    4018:	e3540000 	cmp	r4, #0	; 0x0
    401c:	0a000009 	beq	4048 <is_dst+0xec>
    4020:	e353003a 	cmp	r3, #58	; 0x3a
    4024:	1a000007 	bne	4048 <is_dst+0xec>
    4028:	e2853001 	add	r3, r5, #1	; 0x1
    402c:	e1530001 	cmp	r3, r1
    4030:	08bd8030 	ldmeqia	sp!, {r4, r5, pc}
    4034:	e3540000 	cmp	r4, #0	; 0x0
    4038:	0a000002 	beq	4048 <is_dst+0xec>
    403c:	e5513002 	ldrb	r3, [r1, #-2]
    4040:	e353003a 	cmp	r3, #58	; 0x3a
    4044:	08bd8030 	ldmeqia	sp!, {r4, r5, pc}
    4048:	e3a00000 	mov	r0, #0	; 0x0
    404c:	e8bd8030 	ldmia	sp!, {r4, r5, pc}

00004050 <_dl_dst_count>:
    4050:	e92d45f0 	stmdb	sp!, {r4, r5, r6, r7, r8, sl, lr}
    4054:	e24dd004 	sub	sp, sp, #4	; 0x4
    4058:	e59fa0b0 	ldr	sl, [pc, #176]	; 4110 <.text+0x3540>
    405c:	e08fa00a 	add	sl, pc, sl
    4060:	e1a04000 	mov	r4, r0
    4064:	e1a06001 	mov	r6, r1
    4068:	e1a05000 	mov	r5, r0
    406c:	e3a07000 	mov	r7, #0	; 0x0
    4070:	e59f309c 	ldr	r3, [pc, #156]	; 4114 <.text+0x3544>
    4074:	e79a8003 	ldr	r8, [sl, r3]
    4078:	e2844001 	add	r4, r4, #1	; 0x1
    407c:	e5983000 	ldr	r3, [r8]
    4080:	e58d3000 	str	r3, [sp]
    4084:	e1a00005 	mov	r0, r5
    4088:	e1a01004 	mov	r1, r4
    408c:	e59f2084 	ldr	r2, [pc, #132]	; 4118 <.text+0x3548>
    4090:	e08a2002 	add	r2, sl, r2
    4094:	e1a03006 	mov	r3, r6
    4098:	ebffffaf 	bl	3f5c <is_dst>
    409c:	e3500000 	cmp	r0, #0	; 0x0
    40a0:	1a000011 	bne	40ec <_dl_dst_count+0x9c>
    40a4:	e58d0000 	str	r0, [sp]
    40a8:	e1a00005 	mov	r0, r5
    40ac:	e1a01004 	mov	r1, r4
    40b0:	e59f2064 	ldr	r2, [pc, #100]	; 411c <.text+0x354c>
    40b4:	e08a2002 	add	r2, sl, r2
    40b8:	e1a03006 	mov	r3, r6
    40bc:	ebffffa6 	bl	3f5c <is_dst>
    40c0:	e3500000 	cmp	r0, #0	; 0x0
    40c4:	1a000008 	bne	40ec <_dl_dst_count+0x9c>
    40c8:	e58d0000 	str	r0, [sp]
    40cc:	e1a00005 	mov	r0, r5
    40d0:	e1a01004 	mov	r1, r4
    40d4:	e59f2044 	ldr	r2, [pc, #68]	; 4120 <.text+0x3550>
    40d8:	e08a2002 	add	r2, sl, r2
    40dc:	e1a03006 	mov	r3, r6
    40e0:	ebffff9d 	bl	3f5c <is_dst>
    40e4:	e3500000 	cmp	r0, #0	; 0x0
    40e8:	0a000000 	beq	40f0 <_dl_dst_count+0xa0>
    40ec:	e2877001 	add	r7, r7, #1	; 0x1
    40f0:	e0840000 	add	r0, r4, r0
    40f4:	e3a01024 	mov	r1, #36	; 0x24
    40f8:	eb00337c 	bl	10ef0 <index>
    40fc:	e2504000 	subs	r4, r0, #0	; 0x0
    4100:	1affffdc 	bne	4078 <_dl_dst_count+0x28>
    4104:	e1a00007 	mov	r0, r7
    4108:	e28dd004 	add	sp, sp, #4	; 0x4
    410c:	e8bd85f0 	ldmia	sp!, {r4, r5, r6, r7, r8, sl, pc}
    4110:	00019530 	andeq	r9, r1, r0, lsr r5
    4114:	00000200 	andeq	r0, r0, r0, lsl #4
    4118:	ffff649c 	swinv	0x00ff649c
    411c:	ffff64a4 	swinv	0x00ff64a4
    4120:	ffff64b0 	swinv	0x00ff64b0

00004124 <_dl_dst_substitute>:
    4124:	e92d4ff0 	stmdb	sp!, {r4, r5, r6, r7, r8, r9, sl, fp, lr}
    4128:	e24dd00c 	sub	sp, sp, #12	; 0xc
    412c:	e59fa190 	ldr	sl, [pc, #400]	; 42c4 <.text+0x36f4>
    4130:	e08fa00a 	add	sl, pc, sl
    4134:	e58d0008 	str	r0, [sp, #8]
    4138:	e1a04001 	mov	r4, r1
    413c:	e1a08002 	mov	r8, r2
    4140:	e1a06003 	mov	r6, r3
    4144:	e1a09001 	mov	r9, r1
    4148:	e1a05002 	mov	r5, r2
    414c:	e1a07002 	mov	r7, r2
    4150:	e5d43000 	ldrb	r3, [r4]
    4154:	e3530024 	cmp	r3, #36	; 0x24
    4158:	1a00004a 	bne	4288 <_dl_dst_substitute+0x164>
    415c:	e3a02000 	mov	r2, #0	; 0x0
    4160:	e58d2004 	str	r2, [sp, #4]
    4164:	e2844001 	add	r4, r4, #1	; 0x1
    4168:	e59f3158 	ldr	r3, [pc, #344]	; 42c8 <.text+0x36f8>
    416c:	e79a3003 	ldr	r3, [sl, r3]
    4170:	e5933000 	ldr	r3, [r3]
    4174:	e58d3000 	str	r3, [sp]
    4178:	e1a00009 	mov	r0, r9
    417c:	e1a01004 	mov	r1, r4
    4180:	e59f2144 	ldr	r2, [pc, #324]	; 42cc <.text+0x36fc>
    4184:	e08a2002 	add	r2, sl, r2
    4188:	e1a03006 	mov	r3, r6
    418c:	ebffff72 	bl	3f5c <is_dst>
    4190:	e250b000 	subs	fp, r0, #0	; 0x0
    4194:	159d3008 	ldrne	r3, [sp, #8]
    4198:	1593319c 	ldrne	r3, [r3, #412]
    419c:	158d3004 	strne	r3, [sp, #4]
    41a0:	1a00001a 	bne	4210 <_dl_dst_substitute+0xec>
    41a4:	e3a03000 	mov	r3, #0	; 0x0
    41a8:	e58d3000 	str	r3, [sp]
    41ac:	e1a00009 	mov	r0, r9
    41b0:	e1a01004 	mov	r1, r4
    41b4:	e59f2114 	ldr	r2, [pc, #276]	; 42d0 <.text+0x3700>
    41b8:	e08a2002 	add	r2, sl, r2
    41bc:	e1a03006 	mov	r3, r6
    41c0:	ebffff65 	bl	3f5c <is_dst>
    41c4:	e250b000 	subs	fp, r0, #0	; 0x0
    41c8:	0a000004 	beq	41e0 <_dl_dst_substitute+0xbc>
    41cc:	e59f3100 	ldr	r3, [pc, #256]	; 42d4 <.text+0x3704>
    41d0:	e79a3003 	ldr	r3, [sl, r3]
    41d4:	e593300c 	ldr	r3, [r3, #12]
    41d8:	e58d3004 	str	r3, [sp, #4]
    41dc:	ea00000b 	b	4210 <_dl_dst_substitute+0xec>
    41e0:	e3a03000 	mov	r3, #0	; 0x0
    41e4:	e58d3000 	str	r3, [sp]
    41e8:	e1a00009 	mov	r0, r9
    41ec:	e1a01004 	mov	r1, r4
    41f0:	e59f20e0 	ldr	r2, [pc, #224]	; 42d8 <.text+0x3708>
    41f4:	e08a2002 	add	r2, sl, r2
    41f8:	e1a03006 	mov	r3, r6
    41fc:	ebffff56 	bl	3f5c <is_dst>
    4200:	e250b000 	subs	fp, r0, #0	; 0x0
    4204:	159f30d0 	ldrne	r3, [pc, #208]	; 42dc <.text+0x370c>
    4208:	108a3003 	addne	r3, sl, r3
    420c:	158d3004 	strne	r3, [sp, #4]
    4210:	e59d2004 	ldr	r2, [sp, #4]
    4214:	e3520000 	cmp	r2, #0	; 0x0
    4218:	13720001 	cmnne	r2, #1	; 0x1
    421c:	0a000005 	beq	4238 <_dl_dst_substitute+0x114>
    4220:	e1a00005 	mov	r0, r5
    4224:	e1a01002 	mov	r1, r2
    4228:	eb0035a2 	bl	118b8 <__stpcpy>
    422c:	e1a05000 	mov	r5, r0
    4230:	e084400b 	add	r4, r4, fp
    4234:	ea00001a 	b	42a4 <_dl_dst_substitute+0x180>
    4238:	e35b0001 	cmp	fp, #1	; 0x1
    423c:	93a03024 	movls	r3, #36	; 0x24
    4240:	94c53001 	strlsb	r3, [r5], #1
    4244:	9a000016 	bls	42a4 <_dl_dst_substitute+0x180>
    4248:	e1a05007 	mov	r5, r7
    424c:	e7f4300b 	ldrb	r3, [r4, fp]!
    4250:	e3530000 	cmp	r3, #0	; 0x0
    4254:	0a000015 	beq	42b0 <_dl_dst_substitute+0x18c>
    4258:	e3560000 	cmp	r6, #0	; 0x0
    425c:	0a000001 	beq	4268 <_dl_dst_substitute+0x144>
    4260:	e353003a 	cmp	r3, #58	; 0x3a
    4264:	0a00000e 	beq	42a4 <_dl_dst_substitute+0x180>
    4268:	e5f43001 	ldrb	r3, [r4, #1]!
    426c:	e3530000 	cmp	r3, #0	; 0x0
    4270:	0a00000b 	beq	42a4 <_dl_dst_substitute+0x180>
    4274:	e3560000 	cmp	r6, #0	; 0x0
    4278:	0afffffa 	beq	4268 <_dl_dst_substitute+0x144>
    427c:	e353003a 	cmp	r3, #58	; 0x3a
    4280:	1afffff8 	bne	4268 <_dl_dst_substitute+0x144>
    4284:	ea000006 	b	42a4 <_dl_dst_substitute+0x180>
    4288:	e4d43001 	ldrb	r3, [r4], #1
    428c:	e4c53001 	strb	r3, [r5], #1
    4290:	e3560000 	cmp	r6, #0	; 0x0
    4294:	0a000002 	beq	42a4 <_dl_dst_substitute+0x180>
    4298:	e5d43000 	ldrb	r3, [r4]
    429c:	e353003a 	cmp	r3, #58	; 0x3a
    42a0:	01a07005 	moveq	r7, r5
    42a4:	e5d43000 	ldrb	r3, [r4]
    42a8:	e3530000 	cmp	r3, #0	; 0x0
    42ac:	1affffa7 	bne	4150 <_dl_dst_substitute+0x2c>
    42b0:	e3a03000 	mov	r3, #0	; 0x0
    42b4:	e5c53000 	strb	r3, [r5]
    42b8:	e1a00008 	mov	r0, r8
    42bc:	e28dd00c 	add	sp, sp, #12	; 0xc
    42c0:	e8bd8ff0 	ldmia	sp!, {r4, r5, r6, r7, r8, r9, sl, fp, pc}
    42c4:	0001945c 	andeq	r9, r1, ip, asr r4
    42c8:	00000200 	andeq	r0, r0, r0, lsl #4
    42cc:	ffff649c 	swinv	0x00ff649c
    42d0:	ffff64a4 	swinv	0x00ff64a4
    42d4:	00000210 	andeq	r0, r0, r0, lsl r2
    42d8:	ffff64b0 	swinv	0x00ff64b0
    42dc:	ffff64b4 	swinv	0x00ff64b4

000042e0 <expand_dynamic_string_token>:
    42e0:	e92d44f0 	stmdb	sp!, {r4, r5, r6, r7, sl, lr}
    42e4:	e59fa130 	ldr	sl, [pc, #304]	; 441c <.text+0x384c>
    42e8:	e08fa00a 	add	sl, pc, sl
    42ec:	e1a06000 	mov	r6, r0
    42f0:	e1a07001 	mov	r7, r1
    42f4:	e3a04000 	mov	r4, #0	; 0x0
    42f8:	e1a00001 	mov	r0, r1
    42fc:	e3a01024 	mov	r1, #36	; 0x24
    4300:	eb0032fa 	bl	10ef0 <index>
    4304:	e3500000 	cmp	r0, #0	; 0x0
    4308:	0a000002 	beq	4318 <expand_dynamic_string_token+0x38>
    430c:	e3a01001 	mov	r1, #1	; 0x1
    4310:	ebffff4e 	bl	4050 <_dl_dst_count>
    4314:	e1a04000 	mov	r4, r0
    4318:	e2545000 	subs	r5, r4, #0	; 0x0
    431c:	1a00000c 	bne	4354 <expand_dynamic_string_token+0x74>
    4320:	e1a06007 	mov	r6, r7
    4324:	e1a00007 	mov	r0, r7
    4328:	eb00333c 	bl	11020 <strlen>
    432c:	e2804001 	add	r4, r0, #1	; 0x1
    4330:	e1a00004 	mov	r0, r4
    4334:	ebfff21c 	bl	bac <GLIBC_2.0+0xbac>
    4338:	e3500000 	cmp	r0, #0	; 0x0
    433c:	01a00005 	moveq	r0, r5
    4340:	08bd84f0 	ldmeqia	sp!, {r4, r5, r6, r7, sl, pc}
    4344:	e1a01007 	mov	r1, r7
    4348:	e1a02004 	mov	r2, r4
    434c:	eb003560 	bl	118d4 <memcpy>
    4350:	e8bd84f0 	ldmia	sp!, {r4, r5, r6, r7, sl, pc}
    4354:	e1a00007 	mov	r0, r7
    4358:	eb003330 	bl	11020 <strlen>
    435c:	e1a04000 	mov	r4, r0
    4360:	e3550000 	cmp	r5, #0	; 0x0
    4364:	0a000022 	beq	43f4 <expand_dynamic_string_token+0x114>
    4368:	e596319c 	ldr	r3, [r6, #412]
    436c:	e3530000 	cmp	r3, #0	; 0x0
    4370:	1a000014 	bne	43c8 <expand_dynamic_string_token+0xe8>
    4374:	e5963004 	ldr	r3, [r6, #4]
    4378:	e5d33000 	ldrb	r3, [r3]
    437c:	e3530000 	cmp	r3, #0	; 0x0
    4380:	0a000008 	beq	43a8 <expand_dynamic_string_token+0xc8>
    4384:	e59f0094 	ldr	r0, [pc, #148]	; 4420 <.text+0x3850>
    4388:	e08a0000 	add	r0, sl, r0
    438c:	e59f1090 	ldr	r1, [pc, #144]	; 4424 <.text+0x3854>
    4390:	e08a1001 	add	r1, sl, r1
    4394:	e3a02f52 	mov	r2, #328	; 0x148
    4398:	e2822003 	add	r2, r2, #3	; 0x3
    439c:	e59f3084 	ldr	r3, [pc, #132]	; 4428 <.text+0x3858>
    43a0:	e79a3003 	ldr	r3, [sl, r3]
    43a4:	eb002d05 	bl	f7c0 <__GI___assert_fail>
    43a8:	eb0027ca 	bl	e2d8 <_dl_get_origin>
    43ac:	e586019c 	str	r0, [r6, #412]
    43b0:	e3500000 	cmp	r0, #0	; 0x0
    43b4:	13700001 	cmnne	r0, #1	; 0x1
    43b8:	03a00000 	moveq	r0, #0	; 0x0
    43bc:	0a000005 	beq	43d8 <expand_dynamic_string_token+0xf8>
    43c0:	eb003316 	bl	11020 <strlen>
    43c4:	ea000003 	b	43d8 <expand_dynamic_string_token+0xf8>
    43c8:	e596019c 	ldr	r0, [r6, #412]
    43cc:	e3700001 	cmn	r0, #1	; 0x1
    43d0:	03a00000 	moveq	r0, #0	; 0x0
    43d4:	1b003311 	blne	11020 <strlen>
    43d8:	e59f304c 	ldr	r3, [pc, #76]	; 442c <.text+0x385c>
    43dc:	e79a3003 	ldr	r3, [sl, r3]
    43e0:	e5933010 	ldr	r3, [r3, #16]
    43e4:	e1500003 	cmp	r0, r3
    43e8:	21a03000 	movcs	r3, r0
    43ec:	e2433007 	sub	r3, r3, #7	; 0x7
    43f0:	e0244395 	mla	r4, r5, r3, r4
    43f4:	e2840001 	add	r0, r4, #1	; 0x1
    43f8:	ebfff1eb 	bl	bac <GLIBC_2.0+0xbac>
    43fc:	e2502000 	subs	r2, r0, #0	; 0x0
    4400:	01a00002 	moveq	r0, r2
    4404:	08bd84f0 	ldmeqia	sp!, {r4, r5, r6, r7, sl, pc}
    4408:	e1a00006 	mov	r0, r6
    440c:	e1a01007 	mov	r1, r7
    4410:	e3a03001 	mov	r3, #1	; 0x1
    4414:	ebffff42 	bl	4124 <_dl_dst_substitute>
    4418:	e8bd84f0 	ldmia	sp!, {r4, r5, r6, r7, sl, pc}
    441c:	000192a4 	andeq	r9, r1, r4, lsr #5
    4420:	ffff64b8 	swinv	0x00ff64b8
    4424:	ffff64d0 	swinv	0x00ff64d0
    4428:	00000094 	muleq	r0, r4, r0
    442c:	00000210 	andeq	r0, r0, r0, lsl r2

00004430 <add_name_to_object>:
    4430:	e92d44f0 	stmdb	sp!, {r4, r5, r6, r7, sl, lr}
    4434:	e59fa0bc 	ldr	sl, [pc, #188]	; 44f8 <.text+0x3928>
    4438:	e08fa00a 	add	sl, pc, sl
    443c:	e1a05001 	mov	r5, r1
    4440:	e3a06000 	mov	r6, #0	; 0x0
    4444:	e590401c 	ldr	r4, [r0, #28]
    4448:	e1540006 	cmp	r4, r6
    444c:	0a000008 	beq	4474 <add_name_to_object+0x44>
    4450:	e1a00005 	mov	r0, r5
    4454:	e5941000 	ldr	r1, [r4]
    4458:	eb0032e4 	bl	10ff0 <strcmp>
    445c:	e3500000 	cmp	r0, #0	; 0x0
    4460:	08bd84f0 	ldmeqia	sp!, {r4, r5, r6, r7, sl, pc}
    4464:	e1a06004 	mov	r6, r4
    4468:	e5944004 	ldr	r4, [r4, #4]
    446c:	e3540000 	cmp	r4, #0	; 0x0
    4470:	1afffff6 	bne	4450 <add_name_to_object+0x20>
    4474:	e1a00005 	mov	r0, r5
    4478:	eb0032e8 	bl	11020 <strlen>
    447c:	e2807001 	add	r7, r0, #1	; 0x1
    4480:	e280000d 	add	r0, r0, #13	; 0xd
    4484:	ebfff1c8 	bl	bac <GLIBC_2.0+0xbac>
    4488:	e2504000 	subs	r4, r0, #0	; 0x0
    448c:	1a000005 	bne	44a8 <add_name_to_object+0x78>
    4490:	e280000c 	add	r0, r0, #12	; 0xc
    4494:	e1a01005 	mov	r1, r5
    4498:	e1a02004 	mov	r2, r4
    449c:	e59f3058 	ldr	r3, [pc, #88]	; 44fc <.text+0x392c>
    44a0:	e08a3003 	add	r3, sl, r3
    44a4:	eb001ce0 	bl	b82c <_dl_signal_error>
    44a8:	e3560000 	cmp	r6, #0	; 0x0
    44ac:	1a000007 	bne	44d0 <add_name_to_object+0xa0>
    44b0:	e59f0048 	ldr	r0, [pc, #72]	; 4500 <.text+0x3930>
    44b4:	e08a0000 	add	r0, sl, r0
    44b8:	e59f1044 	ldr	r1, [pc, #68]	; 4504 <.text+0x3934>
    44bc:	e08a1001 	add	r1, sl, r1
    44c0:	e3a02e17 	mov	r2, #368	; 0x170
    44c4:	e59f303c 	ldr	r3, [pc, #60]	; 4508 <.text+0x3938>
    44c8:	e79a3003 	ldr	r3, [sl, r3]
    44cc:	eb002cbb 	bl	f7c0 <__GI___assert_fail>
    44d0:	e284000c 	add	r0, r4, #12	; 0xc
    44d4:	e1a01005 	mov	r1, r5
    44d8:	e1a02007 	mov	r2, r7
    44dc:	eb0034fc 	bl	118d4 <memcpy>
    44e0:	e5840000 	str	r0, [r4]
    44e4:	e3a03000 	mov	r3, #0	; 0x0
    44e8:	e5843004 	str	r3, [r4, #4]
    44ec:	e5843008 	str	r3, [r4, #8]
    44f0:	e5864004 	str	r4, [r6, #4]
    44f4:	e8bd84f0 	ldmia	sp!, {r4, r5, r6, r7, sl, pc}
    44f8:	00019154 	andeq	r9, r1, r4, asr r1
    44fc:	ffff64dc 	swinv	0x00ff64dc
    4500:	ffff64f8 	swinv	0x00ff64f8
    4504:	ffff64d0 	swinv	0x00ff64d0
    4508:	00000098 	muleq	r0, r8, r0

0000450c <fillin_rpath>:
    450c:	e92d4ff0 	stmdb	sp!, {r4, r5, r6, r7, r8, r9, sl, fp, lr}
    4510:	e24dd01c 	sub	sp, sp, #28	; 0x1c
    4514:	e59fa310 	ldr	sl, [pc, #784]	; 482c <.text+0x3c5c>
    4518:	e08fa00a 	add	sl, pc, sl
    451c:	e58d0018 	str	r0, [sp, #24]
    4520:	e58d1014 	str	r1, [sp, #20]
    4524:	e58d2010 	str	r2, [sp, #16]
    4528:	e58d300c 	str	r3, [sp, #12]
    452c:	e59d9044 	ldr	r9, [sp, #68]
    4530:	e3a08000 	mov	r8, #0	; 0x0
    4534:	e59f32f4 	ldr	r3, [pc, #756]	; 4830 <.text+0x3c60>
    4538:	e79ab003 	ldr	fp, [sl, r3]
    453c:	e59f32f0 	ldr	r3, [pc, #752]	; 4834 <.text+0x3c64>
    4540:	e79a3003 	ldr	r3, [sl, r3]
    4544:	e58d3000 	str	r3, [sp]
    4548:	ea0000ab 	b	47fc <fillin_rpath+0x2f0>
    454c:	e58d0008 	str	r0, [sp, #8]
    4550:	ea000038 	b	4638 <fillin_rpath+0x12c>
    4554:	e1a00006 	mov	r0, r6
    4558:	eb0032b0 	bl	11020 <strlen>
    455c:	e2505000 	subs	r5, r0, #0	; 0x0
    4560:	059f32d0 	ldreq	r3, [pc, #720]	; 4838 <.text+0x3c68>
    4564:	079a6003 	ldreq	r6, [sl, r3]
    4568:	e3550001 	cmp	r5, #1	; 0x1
    456c:	9a00000a 	bls	459c <fillin_rpath+0x90>
    4570:	e0863005 	add	r3, r6, r5
    4574:	e5533001 	ldrb	r3, [r3, #-1]
    4578:	e353002f 	cmp	r3, #47	; 0x2f
    457c:	1a000006 	bne	459c <fillin_rpath+0x90>
    4580:	e2455001 	sub	r5, r5, #1	; 0x1
    4584:	e3550001 	cmp	r5, #1	; 0x1
    4588:	9a000003 	bls	459c <fillin_rpath+0x90>
    458c:	e0863005 	add	r3, r6, r5
    4590:	e5533001 	ldrb	r3, [r3, #-1]
    4594:	e353002f 	cmp	r3, #47	; 0x2f
    4598:	0afffff8 	beq	4580 <fillin_rpath+0x74>
    459c:	e3550000 	cmp	r5, #0	; 0x0
    45a0:	0a000005 	beq	45bc <fillin_rpath+0xb0>
    45a4:	e0863005 	add	r3, r6, r5
    45a8:	e5533001 	ldrb	r3, [r3, #-1]
    45ac:	e353002f 	cmp	r3, #47	; 0x2f
    45b0:	13a0302f 	movne	r3, #47	; 0x2f
    45b4:	17c63005 	strneb	r3, [r6, r5]
    45b8:	12855001 	addne	r5, r5, #1	; 0x1
    45bc:	e59d100c 	ldr	r1, [sp, #12]
    45c0:	e3510000 	cmp	r1, #0	; 0x0
    45c4:	0a00001e 	beq	4644 <fillin_rpath+0x138>
    45c8:	e59f326c 	ldr	r3, [pc, #620]	; 483c <.text+0x3c6c>
    45cc:	e79a7003 	ldr	r7, [sl, r3]
    45d0:	e3a02001 	mov	r2, #1	; 0x1
    45d4:	e58d2008 	str	r2, [sp, #8]
    45d8:	e5d63000 	ldrb	r3, [r6]
    45dc:	e353002f 	cmp	r3, #47	; 0x2f
    45e0:	1a000014 	bne	4638 <fillin_rpath+0x12c>
    45e4:	e3a04000 	mov	r4, #0	; 0x0
    45e8:	e59f3250 	ldr	r3, [pc, #592]	; 4840 <.text+0x3c70>
    45ec:	e79a3003 	ldr	r3, [sl, r3]
    45f0:	e58d3004 	str	r3, [sp, #4]
    45f4:	e59d1004 	ldr	r1, [sp, #4]
    45f8:	e7913104 	ldr	r3, [r1, r4, lsl #2]
    45fc:	e1530005 	cmp	r3, r5
    4600:	1a000005 	bne	461c <fillin_rpath+0x110>
    4604:	e1a00007 	mov	r0, r7
    4608:	e1a01006 	mov	r1, r6
    460c:	e1a02005 	mov	r2, r5
    4610:	eb0033e6 	bl	115b0 <bcmp>
    4614:	e3500000 	cmp	r0, #0	; 0x0
    4618:	0affffcb 	beq	454c <fillin_rpath+0x40>
    461c:	e59d2004 	ldr	r2, [sp, #4]
    4620:	e7923104 	ldr	r3, [r2, r4, lsl #2]
    4624:	e0873003 	add	r3, r7, r3
    4628:	e2837001 	add	r7, r3, #1	; 0x1
    462c:	e2844001 	add	r4, r4, #1	; 0x1
    4630:	e3540001 	cmp	r4, #1	; 0x1
    4634:	9affffee 	bls	45f4 <fillin_rpath+0xe8>
    4638:	e59d3008 	ldr	r3, [sp, #8]
    463c:	e3530000 	cmp	r3, #0	; 0x0
    4640:	1a00006d 	bne	47fc <fillin_rpath+0x2f0>
    4644:	e59b41b0 	ldr	r4, [fp, #432]
    4648:	e3540000 	cmp	r4, #0	; 0x0
    464c:	0a00001d 	beq	46c8 <fillin_rpath+0x1bc>
    4650:	e5943010 	ldr	r3, [r4, #16]
    4654:	e1530005 	cmp	r3, r5
    4658:	1a000005 	bne	4674 <fillin_rpath+0x168>
    465c:	e1a00006 	mov	r0, r6
    4660:	e594100c 	ldr	r1, [r4, #12]
    4664:	e1a02005 	mov	r2, r5
    4668:	eb0033d0 	bl	115b0 <bcmp>
    466c:	e3500000 	cmp	r0, #0	; 0x0
    4670:	0a000003 	beq	4684 <fillin_rpath+0x178>
    4674:	e5944000 	ldr	r4, [r4]
    4678:	e3540000 	cmp	r4, #0	; 0x0
    467c:	1afffff3 	bne	4650 <fillin_rpath+0x144>
    4680:	ea000010 	b	46c8 <fillin_rpath+0x1bc>
    4684:	e3540000 	cmp	r4, #0	; 0x0
    4688:	0a00000e 	beq	46c8 <fillin_rpath+0x1bc>
    468c:	e3a02000 	mov	r2, #0	; 0x0
    4690:	e1520008 	cmp	r2, r8
    4694:	2a000006 	bcs	46b4 <fillin_rpath+0x1a8>
    4698:	e59d1014 	ldr	r1, [sp, #20]
    469c:	e7913102 	ldr	r3, [r1, r2, lsl #2]
    46a0:	e1530004 	cmp	r3, r4
    46a4:	0a000002 	beq	46b4 <fillin_rpath+0x1a8>
    46a8:	e2822001 	add	r2, r2, #1	; 0x1
    46ac:	e1520008 	cmp	r2, r8
    46b0:	3afffff8 	bcc	4698 <fillin_rpath+0x18c>
    46b4:	e1520008 	cmp	r2, r8
    46b8:	059d2014 	ldreq	r2, [sp, #20]
    46bc:	07824108 	streq	r4, [r2, r8, lsl #2]
    46c0:	02888001 	addeq	r8, r8, #1	; 0x1
    46c4:	ea00004c 	b	47fc <fillin_rpath+0x2f0>
    46c8:	e3590000 	cmp	r9, #0	; 0x0
    46cc:	03a07000 	moveq	r7, #0	; 0x0
    46d0:	0a000002 	beq	46e0 <fillin_rpath+0x1d4>
    46d4:	e1a00009 	mov	r0, r9
    46d8:	eb003250 	bl	11020 <strlen>
    46dc:	e2807001 	add	r7, r0, #1	; 0x1
    46e0:	e59f314c 	ldr	r3, [pc, #332]	; 4834 <.text+0x3c64>
    46e4:	e79a3003 	ldr	r3, [sl, r3]
    46e8:	e5930000 	ldr	r0, [r3]
    46ec:	e0870100 	add	r0, r7, r0, lsl #2
    46f0:	e0800005 	add	r0, r0, r5
    46f4:	e2800015 	add	r0, r0, #21	; 0x15
    46f8:	ebfff12b 	bl	bac <GLIBC_2.0+0xbac>
    46fc:	e2504000 	subs	r4, r0, #0	; 0x0
    4700:	1a000005 	bne	471c <fillin_rpath+0x210>
    4704:	e280000c 	add	r0, r0, #12	; 0xc
    4708:	e1a01004 	mov	r1, r4
    470c:	e1a02004 	mov	r2, r4
    4710:	e59f312c 	ldr	r3, [pc, #300]	; 4844 <.text+0x3c74>
    4714:	e08a3003 	add	r3, sl, r3
    4718:	eb001c43 	bl	b82c <_dl_signal_error>
    471c:	e59f3110 	ldr	r3, [pc, #272]	; 4834 <.text+0x3c64>
    4720:	e79a3003 	ldr	r3, [sl, r3]
    4724:	e5930000 	ldr	r0, [r3]
    4728:	e0840100 	add	r0, r4, r0, lsl #2
    472c:	e2800014 	add	r0, r0, #20	; 0x14
    4730:	e584000c 	str	r0, [r4, #12]
    4734:	e1a01006 	mov	r1, r6
    4738:	e1a02005 	mov	r2, r5
    473c:	eb003437 	bl	11820 <__mempcpy>
    4740:	e3a03000 	mov	r3, #0	; 0x0
    4744:	e5c03000 	strb	r3, [r0]
    4748:	e5845010 	str	r5, [r4, #16]
    474c:	e59f30f4 	ldr	r3, [pc, #244]	; 4848 <.text+0x3c78>
    4750:	e79a2003 	ldr	r2, [sl, r3]
    4754:	e5923000 	ldr	r3, [r2]
    4758:	e1550003 	cmp	r5, r3
    475c:	85825000 	strhi	r5, [r2]
    4760:	e5d63000 	ldrb	r3, [r6]
    4764:	e353002f 	cmp	r3, #47	; 0x2f
    4768:	13a00002 	movne	r0, #2	; 0x2
    476c:	03a00000 	moveq	r0, #0	; 0x0
    4770:	e3a02000 	mov	r2, #0	; 0x0
    4774:	e59d1000 	ldr	r1, [sp]
    4778:	e5913000 	ldr	r3, [r1]
    477c:	e1520003 	cmp	r2, r3
    4780:	2a000007 	bcs	47a4 <fillin_rpath+0x298>
    4784:	e59f30a8 	ldr	r3, [pc, #168]	; 4834 <.text+0x3c64>
    4788:	e79a1003 	ldr	r1, [sl, r3]
    478c:	e0843102 	add	r3, r4, r2, lsl #2
    4790:	e5830014 	str	r0, [r3, #20]
    4794:	e2822001 	add	r2, r2, #1	; 0x1
    4798:	e5913000 	ldr	r3, [r1]
    479c:	e1520003 	cmp	r2, r3
    47a0:	3afffff9 	bcc	478c <fillin_rpath+0x280>
    47a4:	e59d2040 	ldr	r2, [sp, #64]
    47a8:	e5842004 	str	r2, [r4, #4]
    47ac:	e3590000 	cmp	r9, #0	; 0x0
    47b0:	03a03000 	moveq	r3, #0	; 0x0
    47b4:	05843008 	streq	r3, [r4, #8]
    47b8:	0a000009 	beq	47e4 <fillin_rpath+0x2d8>
    47bc:	e59f3070 	ldr	r3, [pc, #112]	; 4834 <.text+0x3c64>
    47c0:	e79a3003 	ldr	r3, [sl, r3]
    47c4:	e5930000 	ldr	r0, [r3]
    47c8:	e0850100 	add	r0, r5, r0, lsl #2
    47cc:	e0800004 	add	r0, r0, r4
    47d0:	e2800015 	add	r0, r0, #21	; 0x15
    47d4:	e1a01009 	mov	r1, r9
    47d8:	e1a02007 	mov	r2, r7
    47dc:	eb00343c 	bl	118d4 <memcpy>
    47e0:	e5840008 	str	r0, [r4, #8]
    47e4:	e59b31b0 	ldr	r3, [fp, #432]
    47e8:	e5843000 	str	r3, [r4]
    47ec:	e58b41b0 	str	r4, [fp, #432]
    47f0:	e59d3014 	ldr	r3, [sp, #20]
    47f4:	e7834108 	str	r4, [r3, r8, lsl #2]
    47f8:	e2888001 	add	r8, r8, #1	; 0x1
    47fc:	e28d0018 	add	r0, sp, #24	; 0x18
    4800:	e59d1010 	ldr	r1, [sp, #16]
    4804:	eb002cb8 	bl	faec <__strsep>
    4808:	e1a06000 	mov	r6, r0
    480c:	e3500000 	cmp	r0, #0	; 0x0
    4810:	1affff4f 	bne	4554 <fillin_rpath+0x48>
    4814:	e3a03000 	mov	r3, #0	; 0x0
    4818:	e59d1014 	ldr	r1, [sp, #20]
    481c:	e7813108 	str	r3, [r1, r8, lsl #2]
    4820:	e59d0014 	ldr	r0, [sp, #20]
    4824:	e28dd01c 	add	sp, sp, #28	; 0x1c
    4828:	e8bd8ff0 	ldmia	sp!, {r4, r5, r6, r7, r8, r9, sl, fp, pc}
    482c:	00019074 	andeq	r9, r1, r4, ror r0
    4830:	0000023c 	andeq	r0, r0, ip, lsr r2
    4834:	000000a0 	andeq	r0, r0, r0, lsr #1
    4838:	0000009c 	muleq	r0, ip, r0
    483c:	0000008c 	andeq	r0, r0, ip, lsl #1
    4840:	00000090 	muleq	r0, r0, r0
    4844:	ffff6510 	swinv	0x00ff6510
    4848:	000000a4 	andeq	r0, r0, r4, lsr #1

0000484c <decompose_rpath>:
    484c:	e92d45f0 	stmdb	sp!, {r4, r5, r6, r7, r8, sl, lr}
    4850:	e24dd008 	sub	sp, sp, #8	; 0x8
    4854:	e59fa188 	ldr	sl, [pc, #392]	; 49e4 <.text+0x3e14>
    4858:	e08fa00a 	add	sl, pc, sl
    485c:	e1a06000 	mov	r6, r0
    4860:	e1a00002 	mov	r0, r2
    4864:	e1a08003 	mov	r8, r3
    4868:	e5927004 	ldr	r7, [r2, #4]
    486c:	e59f3174 	ldr	r3, [pc, #372]	; 49e8 <.text+0x3e18>
    4870:	e79a3003 	ldr	r3, [sl, r3]
    4874:	e593c094 	ldr	ip, [r3, #148]
    4878:	e35c0000 	cmp	ip, #0	; 0x0
    487c:	0a000034 	beq	4954 <decompose_rpath+0x108>
    4880:	e59f3164 	ldr	r3, [pc, #356]	; 49ec <.text+0x3e1c>
    4884:	e79a3003 	ldr	r3, [sl, r3]
    4888:	e5933000 	ldr	r3, [r3]
    488c:	e3530000 	cmp	r3, #0	; 0x0
    4890:	1a00002f 	bne	4954 <decompose_rpath+0x108>
    4894:	e1a0200c 	mov	r2, ip
    4898:	e1a0e007 	mov	lr, r7
    489c:	e5d2c000 	ldrb	ip, [r2]
    48a0:	e5d73000 	ldrb	r3, [r7]
    48a4:	e15c0003 	cmp	ip, r3
    48a8:	1a000007 	bne	48cc <decompose_rpath+0x80>
    48ac:	e35c0000 	cmp	ip, #0	; 0x0
    48b0:	0a000005 	beq	48cc <decompose_rpath+0x80>
    48b4:	e5f2c001 	ldrb	ip, [r2, #1]!
    48b8:	e5fe3001 	ldrb	r3, [lr, #1]!
    48bc:	e15c0003 	cmp	ip, r3
    48c0:	1a000001 	bne	48cc <decompose_rpath+0x80>
    48c4:	e35c0000 	cmp	ip, #0	; 0x0
    48c8:	1afffff9 	bne	48b4 <decompose_rpath+0x68>
    48cc:	e5de3000 	ldrb	r3, [lr]
    48d0:	e3530000 	cmp	r3, #0	; 0x0
    48d4:	1a000011 	bne	4920 <decompose_rpath+0xd4>
    48d8:	e5d23000 	ldrb	r3, [r2]
    48dc:	e353003a 	cmp	r3, #58	; 0x3a
    48e0:	13530000 	cmpne	r3, #0	; 0x0
    48e4:	1a00000d 	bne	4920 <decompose_rpath+0xd4>
    48e8:	e3a00001 	mov	r0, #1	; 0x1
    48ec:	e3a01004 	mov	r1, #4	; 0x4
    48f0:	ebfff0a7 	bl	b94 <GLIBC_2.0+0xb94>
    48f4:	e2505000 	subs	r5, r0, #0	; 0x0
    48f8:	15865000 	strne	r5, [r6]
    48fc:	13a03001 	movne	r3, #1	; 0x1
    4900:	15863004 	strne	r3, [r6, #4]
    4904:	1a000034 	bne	49dc <decompose_rpath+0x190>
    4908:	e59f30e0 	ldr	r3, [pc, #224]	; 49f0 <.text+0x3e20>
    490c:	e08a3003 	add	r3, sl, r3
    4910:	e3a0000c 	mov	r0, #12	; 0xc
    4914:	e3a01000 	mov	r1, #0	; 0x0
    4918:	e1a02001 	mov	r2, r1
    491c:	eb001bc2 	bl	b82c <_dl_signal_error>
    4920:	e5d23000 	ldrb	r3, [r2]
    4924:	e3530000 	cmp	r3, #0	; 0x0
    4928:	0a000009 	beq	4954 <decompose_rpath+0x108>
    492c:	e4d23001 	ldrb	r3, [r2], #1
    4930:	e353003a 	cmp	r3, #58	; 0x3a
    4934:	0a000003 	beq	4948 <decompose_rpath+0xfc>
    4938:	e5d23000 	ldrb	r3, [r2]
    493c:	e3530000 	cmp	r3, #0	; 0x0
    4940:	1afffff9 	bne	492c <decompose_rpath+0xe0>
    4944:	ea000002 	b	4954 <decompose_rpath+0x108>
    4948:	e5d23000 	ldrb	r3, [r2]
    494c:	e3530000 	cmp	r3, #0	; 0x0
    4950:	1affffd0 	bne	4898 <decompose_rpath+0x4c>
    4954:	ebfffe61 	bl	42e0 <expand_dynamic_string_token>
    4958:	e2504000 	subs	r4, r0, #0	; 0x0
    495c:	059f3090 	ldreq	r3, [pc, #144]	; 49f4 <.text+0x3e24>
    4960:	008a3003 	addeq	r3, sl, r3
    4964:	0affffe9 	beq	4910 <decompose_rpath+0xc4>
    4968:	e3a00000 	mov	r0, #0	; 0x0
    496c:	e1a02004 	mov	r2, r4
    4970:	e5d43000 	ldrb	r3, [r4]
    4974:	e1530000 	cmp	r3, r0
    4978:	0a000005 	beq	4994 <decompose_rpath+0x148>
    497c:	e5d23000 	ldrb	r3, [r2]
    4980:	e353003a 	cmp	r3, #58	; 0x3a
    4984:	02800001 	addeq	r0, r0, #1	; 0x1
    4988:	e5f23001 	ldrb	r3, [r2, #1]!
    498c:	e3530000 	cmp	r3, #0	; 0x0
    4990:	1afffff9 	bne	497c <decompose_rpath+0x130>
    4994:	e1a00100 	mov	r0, r0, lsl #2
    4998:	e2800008 	add	r0, r0, #8	; 0x8
    499c:	ebfff082 	bl	bac <GLIBC_2.0+0xbac>
    49a0:	e2505000 	subs	r5, r0, #0	; 0x0
    49a4:	0affffd7 	beq	4908 <decompose_rpath+0xbc>
    49a8:	e58d8000 	str	r8, [sp]
    49ac:	e58d7004 	str	r7, [sp, #4]
    49b0:	e1a00004 	mov	r0, r4
    49b4:	e1a01005 	mov	r1, r5
    49b8:	e59f2038 	ldr	r2, [pc, #56]	; 49f8 <.text+0x3e28>
    49bc:	e08a2002 	add	r2, sl, r2
    49c0:	e3a03000 	mov	r3, #0	; 0x0
    49c4:	ebfffed0 	bl	450c <fillin_rpath>
    49c8:	e1a00004 	mov	r0, r4
    49cc:	ebfff079 	bl	bb8 <GLIBC_2.0+0xbb8>
    49d0:	e5865000 	str	r5, [r6]
    49d4:	e3a03001 	mov	r3, #1	; 0x1
    49d8:	e5863004 	str	r3, [r6, #4]
    49dc:	e28dd008 	add	sp, sp, #8	; 0x8
    49e0:	e8bd85f0 	ldmia	sp!, {r4, r5, r6, r7, r8, sl, pc}
    49e4:	00018d34 	andeq	r8, r1, r4, lsr sp
    49e8:	00000210 	andeq	r0, r0, r0, lsl r2
    49ec:	00000200 	andeq	r0, r0, r0, lsl #4
    49f0:	ffff6510 	swinv	0x00ff6510
    49f4:	ffff6534 	swinv	0x00ff6534
    49f8:	ffff6558 	swinv	0x00ff6558

000049fc <cache_rpath>:
    49fc:	e52de004 	str	lr, [sp, #-4]!
    4a00:	e1a0c000 	mov	ip, r0
    4a04:	e1a00001 	mov	r0, r1
    4a08:	e1a01002 	mov	r1, r2
    4a0c:	e1a0e003 	mov	lr, r3
    4a10:	e5903000 	ldr	r3, [r0]
    4a14:	e3730001 	cmn	r3, #1	; 0x1
    4a18:	03a00000 	moveq	r0, #0	; 0x0
    4a1c:	049df004 	ldreq	pc, [sp], #4
    4a20:	e5903000 	ldr	r3, [r0]
    4a24:	e3530000 	cmp	r3, #0	; 0x0
    4a28:	13a00001 	movne	r0, #1	; 0x1
    4a2c:	149df004 	ldrne	pc, [sp], #4
    4a30:	e08c3102 	add	r3, ip, r2, lsl #2
    4a34:	e5932020 	ldr	r2, [r3, #32]
    4a38:	e3520000 	cmp	r2, #0	; 0x0
    4a3c:	03e03000 	mvneq	r3, #0	; 0x0
    4a40:	05803000 	streq	r3, [r0]
    4a44:	01a00002 	moveq	r0, r2
    4a48:	049df004 	ldreq	pc, [sp], #4
    4a4c:	e59c2034 	ldr	r2, [ip, #52]
    4a50:	e08c3101 	add	r3, ip, r1, lsl #2
    4a54:	e5933020 	ldr	r3, [r3, #32]
    4a58:	e5922004 	ldr	r2, [r2, #4]
    4a5c:	e5931004 	ldr	r1, [r3, #4]
    4a60:	e0821001 	add	r1, r2, r1
    4a64:	e1a0200c 	mov	r2, ip
    4a68:	e1a0300e 	mov	r3, lr
    4a6c:	ebffff76 	bl	484c <decompose_rpath>
    4a70:	e3a00001 	mov	r0, #1	; 0x1
    4a74:	e49df004 	ldr	pc, [sp], #4

00004a78 <_dl_init_paths>:
    4a78:	e1a0c00d 	mov	ip, sp
    4a7c:	e92ddff0 	stmdb	sp!, {r4, r5, r6, r7, r8, r9, sl, fp, ip, lr, pc}
    4a80:	e24cb004 	sub	fp, ip, #4	; 0x4
    4a84:	e24dd008 	sub	sp, sp, #8	; 0x8
    4a88:	e59fa3c8 	ldr	sl, [pc, #968]	; 4e58 <.text+0x4288>
    4a8c:	e08fa00a 	add	sl, pc, sl
    4a90:	e1a08000 	mov	r8, r0
    4a94:	e59f33c0 	ldr	r3, [pc, #960]	; 4e5c <.text+0x428c>
    4a98:	e79a3003 	ldr	r3, [sl, r3]
    4a9c:	e283000c 	add	r0, r3, #12	; 0xc
    4aa0:	e8900003 	ldmia	r0, {r0, r1}
    4aa4:	e59f33b4 	ldr	r3, [pc, #948]	; 4e60 <.text+0x4290>
    4aa8:	e79a2003 	ldr	r2, [sl, r3]
    4aac:	e59f33b0 	ldr	r3, [pc, #944]	; 4e64 <.text+0x4294>
    4ab0:	e79a3003 	ldr	r3, [sl, r3]
    4ab4:	eb0028dd 	bl	ee30 <_dl_important_hwcaps>
    4ab8:	e59f33a8 	ldr	r3, [pc, #936]	; 4e68 <.text+0x4298>
    4abc:	e79a3003 	ldr	r3, [sl, r3]
    4ac0:	e5830000 	str	r0, [r3]
    4ac4:	e3a0000c 	mov	r0, #12	; 0xc
    4ac8:	ebfff037 	bl	bac <GLIBC_2.0+0xbac>
    4acc:	e59f3398 	ldr	r3, [pc, #920]	; 4e6c <.text+0x429c>
    4ad0:	e79a3003 	ldr	r3, [sl, r3]
    4ad4:	e5830000 	str	r0, [r3]
    4ad8:	e2507000 	subs	r7, r0, #0	; 0x0
    4adc:	1a000005 	bne	4af8 <_dl_init_paths+0x80>
    4ae0:	e59f3388 	ldr	r3, [pc, #904]	; 4e70 <.text+0x42a0>
    4ae4:	e08a3003 	add	r3, sl, r3
    4ae8:	e3a0000c 	mov	r0, #12	; 0xc
    4aec:	e3a01000 	mov	r1, #0	; 0x0
    4af0:	e1a02001 	mov	r2, r1
    4af4:	eb001b4c 	bl	b82c <_dl_signal_error>
    4af8:	e59f3360 	ldr	r3, [pc, #864]	; 4e60 <.text+0x4290>
    4afc:	e79a3003 	ldr	r3, [sl, r3]
    4b00:	e5930000 	ldr	r0, [r3]
    4b04:	e1a00100 	mov	r0, r0, lsl #2
    4b08:	e2800027 	add	r0, r0, #39	; 0x27
    4b0c:	e3a01014 	mov	r1, #20	; 0x14
    4b10:	eb0034ae 	bl	11dd0 <__udivsi3>
    4b14:	e1a06000 	mov	r6, r0
    4b18:	e59f334c 	ldr	r3, [pc, #844]	; 4e6c <.text+0x429c>
    4b1c:	e79a4003 	ldr	r4, [sl, r3]
    4b20:	e5945000 	ldr	r5, [r4]
    4b24:	e0800100 	add	r0, r0, r0, lsl #2
    4b28:	e1a00300 	mov	r0, r0, lsl #6
    4b2c:	ebfff01e 	bl	bac <GLIBC_2.0+0xbac>
    4b30:	e5850000 	str	r0, [r5]
    4b34:	e5943000 	ldr	r3, [r4]
    4b38:	e5933000 	ldr	r3, [r3]
    4b3c:	e3530000 	cmp	r3, #0	; 0x0
    4b40:	059f332c 	ldreq	r3, [pc, #812]	; 4e74 <.text+0x42a4>
    4b44:	008a3003 	addeq	r3, sl, r3
    4b48:	0affffe6 	beq	4ae8 <_dl_init_paths+0x70>
    4b4c:	e59f3318 	ldr	r3, [pc, #792]	; 4e6c <.text+0x429c>
    4b50:	e79a3003 	ldr	r3, [sl, r3]
    4b54:	e3a01000 	mov	r1, #0	; 0x0
    4b58:	e5831004 	str	r1, [r3, #4]
    4b5c:	e5933000 	ldr	r3, [r3]
    4b60:	e5932000 	ldr	r2, [r3]
    4b64:	e59f330c 	ldr	r3, [pc, #780]	; 4e78 <.text+0x42a8>
    4b68:	e79a3003 	ldr	r3, [sl, r3]
    4b6c:	e58321b0 	str	r2, [r3, #432]
    4b70:	e59f3304 	ldr	r3, [pc, #772]	; 4e7c <.text+0x42ac>
    4b74:	e79a4003 	ldr	r4, [sl, r3]
    4b78:	e59f3300 	ldr	r3, [pc, #768]	; 4e80 <.text+0x42b0>
    4b7c:	e79a9003 	ldr	r9, [sl, r3]
    4b80:	e0865106 	add	r5, r6, r6, lsl #2
    4b84:	e4872004 	str	r2, [r7], #4
    4b88:	e59f32f4 	ldr	r3, [pc, #756]	; 4e84 <.text+0x42b4>
    4b8c:	e08a3003 	add	r3, sl, r3
    4b90:	e5823004 	str	r3, [r2, #4]
    4b94:	e3a03000 	mov	r3, #0	; 0x0
    4b98:	e5823008 	str	r3, [r2, #8]
    4b9c:	e582400c 	str	r4, [r2, #12]
    4ba0:	e7993101 	ldr	r3, [r9, r1, lsl #2]
    4ba4:	e5823010 	str	r3, [r2, #16]
    4ba8:	e0843003 	add	r3, r4, r3
    4bac:	e2834001 	add	r4, r3, #1	; 0x1
    4bb0:	e592300c 	ldr	r3, [r2, #12]
    4bb4:	e5d33000 	ldrb	r3, [r3]
    4bb8:	e353002f 	cmp	r3, #47	; 0x2f
    4bbc:	0a000007 	beq	4be0 <_dl_init_paths+0x168>
    4bc0:	e59f02c0 	ldr	r0, [pc, #704]	; 4e88 <.text+0x42b8>
    4bc4:	e08a0000 	add	r0, sl, r0
    4bc8:	e59f12bc 	ldr	r1, [pc, #700]	; 4e8c <.text+0x42bc>
    4bcc:	e08a1001 	add	r1, sl, r1
    4bd0:	e3a02e2b 	mov	r2, #688	; 0x2b0
    4bd4:	e59f32b4 	ldr	r3, [pc, #692]	; 4e90 <.text+0x42c0>
    4bd8:	e79a3003 	ldr	r3, [sl, r3]
    4bdc:	eb002af7 	bl	f7c0 <__GI___assert_fail>
    4be0:	e3a00000 	mov	r0, #0	; 0x0
    4be4:	e59f3274 	ldr	r3, [pc, #628]	; 4e60 <.text+0x4290>
    4be8:	e79a3003 	ldr	r3, [sl, r3]
    4bec:	e5933000 	ldr	r3, [r3]
    4bf0:	e1500003 	cmp	r0, r3
    4bf4:	2a000008 	bcs	4c1c <_dl_init_paths+0x1a4>
    4bf8:	e1a0e000 	mov	lr, r0
    4bfc:	e59f325c 	ldr	r3, [pc, #604]	; 4e60 <.text+0x4290>
    4c00:	e79ac003 	ldr	ip, [sl, r3]
    4c04:	e0823100 	add	r3, r2, r0, lsl #2
    4c08:	e583e014 	str	lr, [r3, #20]
    4c0c:	e2800001 	add	r0, r0, #1	; 0x1
    4c10:	e59c3000 	ldr	r3, [ip]
    4c14:	e1500003 	cmp	r0, r3
    4c18:	3afffff9 	bcc	4c04 <_dl_init_paths+0x18c>
    4c1c:	e2811001 	add	r1, r1, #1	; 0x1
    4c20:	e3510002 	cmp	r1, #2	; 0x2
    4c24:	10823105 	addne	r3, r2, r5, lsl #2
    4c28:	03a03000 	moveq	r3, #0	; 0x0
    4c2c:	e5823000 	str	r3, [r2]
    4c30:	e0863106 	add	r3, r6, r6, lsl #2
    4c34:	e0822103 	add	r2, r2, r3, lsl #2
    4c38:	e3510001 	cmp	r1, #1	; 0x1
    4c3c:	9affffd0 	bls	4b84 <_dl_init_paths+0x10c>
    4c40:	e3a02009 	mov	r2, #9	; 0x9
    4c44:	e59f3248 	ldr	r3, [pc, #584]	; 4e94 <.text+0x42c4>
    4c48:	e79a3003 	ldr	r3, [sl, r3]
    4c4c:	e5832000 	str	r2, [r3]
    4c50:	e3a03000 	mov	r3, #0	; 0x0
    4c54:	e5873000 	str	r3, [r7]
    4c58:	e59f3218 	ldr	r3, [pc, #536]	; 4e78 <.text+0x42a8>
    4c5c:	e79a3003 	ldr	r3, [sl, r3]
    4c60:	e5934000 	ldr	r4, [r3]
    4c64:	e3540000 	cmp	r4, #0	; 0x0
    4c68:	0a00002d 	beq	4d24 <_dl_init_paths+0x2ac>
    4c6c:	e5d43180 	ldrb	r3, [r4, #384]
    4c70:	e2033003 	and	r3, r3, #3	; 0x3
    4c74:	e3530002 	cmp	r3, #2	; 0x2
    4c78:	1a000008 	bne	4ca0 <_dl_init_paths+0x228>
    4c7c:	e59f0214 	ldr	r0, [pc, #532]	; 4e98 <.text+0x42c8>
    4c80:	e08a0000 	add	r0, sl, r0
    4c84:	e59f1200 	ldr	r1, [pc, #512]	; 4e8c <.text+0x42bc>
    4c88:	e08a1001 	add	r1, sl, r1
    4c8c:	e3a02d0b 	mov	r2, #704	; 0x2c0
    4c90:	e2822002 	add	r2, r2, #2	; 0x2
    4c94:	e59f31f4 	ldr	r3, [pc, #500]	; 4e90 <.text+0x42c0>
    4c98:	e79a3003 	ldr	r3, [sl, r3]
    4c9c:	eb002ac7 	bl	f7c0 <__GI___assert_fail>
    4ca0:	e5942094 	ldr	r2, [r4, #148]
    4ca4:	e3520000 	cmp	r2, #0	; 0x0
    4ca8:	0a00000b 	beq	4cdc <_dl_init_paths+0x264>
    4cac:	e5943034 	ldr	r3, [r4, #52]
    4cb0:	e5933004 	ldr	r3, [r3, #4]
    4cb4:	e5921004 	ldr	r1, [r2, #4]
    4cb8:	e2840f77 	add	r0, r4, #476	; 0x1dc
    4cbc:	e0831001 	add	r1, r3, r1
    4cc0:	e1a02004 	mov	r2, r4
    4cc4:	e59f31d0 	ldr	r3, [pc, #464]	; 4e9c <.text+0x42cc>
    4cc8:	e08a3003 	add	r3, sl, r3
    4ccc:	ebfffede 	bl	484c <decompose_rpath>
    4cd0:	e3e03000 	mvn	r3, #0	; 0x0
    4cd4:	e584318c 	str	r3, [r4, #396]
    4cd8:	ea000011 	b	4d24 <_dl_init_paths+0x2ac>
    4cdc:	e3e03000 	mvn	r3, #0	; 0x0
    4ce0:	e58431dc 	str	r3, [r4, #476]
    4ce4:	e594205c 	ldr	r2, [r4, #92]
    4ce8:	e3520000 	cmp	r2, #0	; 0x0
    4cec:	03e03000 	mvneq	r3, #0	; 0x0
    4cf0:	0584318c 	streq	r3, [r4, #396]
    4cf4:	0a00000a 	beq	4d24 <_dl_init_paths+0x2ac>
    4cf8:	e5943034 	ldr	r3, [r4, #52]
    4cfc:	e5933004 	ldr	r3, [r3, #4]
    4d00:	e5921004 	ldr	r1, [r2, #4]
    4d04:	e2840f63 	add	r0, r4, #396	; 0x18c
    4d08:	e0831001 	add	r1, r3, r1
    4d0c:	e1a02004 	mov	r2, r4
    4d10:	e59f3188 	ldr	r3, [pc, #392]	; 4ea0 <.text+0x42d0>
    4d14:	e08a3003 	add	r3, sl, r3
    4d18:	ebfffecb 	bl	484c <decompose_rpath>
    4d1c:	e3a03000 	mov	r3, #0	; 0x0
    4d20:	e5843190 	str	r3, [r4, #400]
    4d24:	e3580000 	cmp	r8, #0	; 0x0
    4d28:	0a00003e 	beq	4e28 <_dl_init_paths+0x3b0>
    4d2c:	e5d83000 	ldrb	r3, [r8]
    4d30:	e3530000 	cmp	r3, #0	; 0x0
    4d34:	0a00003b 	beq	4e28 <_dl_init_paths+0x3b0>
    4d38:	e1a04008 	mov	r4, r8
    4d3c:	e1a00008 	mov	r0, r8
    4d40:	eb0030b6 	bl	11020 <strlen>
    4d44:	e1a02000 	mov	r2, r0
    4d48:	e2803007 	add	r3, r0, #7	; 0x7
    4d4c:	e3c33003 	bic	r3, r3, #3	; 0x3
    4d50:	e063d00d 	rsb	sp, r3, sp
    4d54:	e28d0008 	add	r0, sp, #8	; 0x8
    4d58:	e1a01008 	mov	r1, r8
    4d5c:	e2822001 	add	r2, r2, #1	; 0x1
    4d60:	eb0032db 	bl	118d4 <memcpy>
    4d64:	e1a05000 	mov	r5, r0
    4d68:	e3a00001 	mov	r0, #1	; 0x1
    4d6c:	e5d83000 	ldrb	r3, [r8]
    4d70:	e3530000 	cmp	r3, #0	; 0x0
    4d74:	0a000006 	beq	4d94 <_dl_init_paths+0x31c>
    4d78:	e5d43000 	ldrb	r3, [r4]
    4d7c:	e243303a 	sub	r3, r3, #58	; 0x3a
    4d80:	e3530001 	cmp	r3, #1	; 0x1
    4d84:	92800001 	addls	r0, r0, #1	; 0x1
    4d88:	e5f43001 	ldrb	r3, [r4, #1]!
    4d8c:	e3530000 	cmp	r3, #0	; 0x0
    4d90:	1afffff8 	bne	4d78 <_dl_init_paths+0x300>
    4d94:	e1a00100 	mov	r0, r0, lsl #2
    4d98:	e2800004 	add	r0, r0, #4	; 0x4
    4d9c:	ebffef82 	bl	bac <GLIBC_2.0+0xbac>
    4da0:	e59f30fc 	ldr	r3, [pc, #252]	; 4ea4 <.text+0x42d4>
    4da4:	e79a3003 	ldr	r3, [sl, r3]
    4da8:	e5830000 	str	r0, [r3]
    4dac:	e3500000 	cmp	r0, #0	; 0x0
    4db0:	059f30bc 	ldreq	r3, [pc, #188]	; 4e74 <.text+0x42a4>
    4db4:	008a3003 	addeq	r3, sl, r3
    4db8:	0affff4a 	beq	4ae8 <_dl_init_paths+0x70>
    4dbc:	e59f30e0 	ldr	r3, [pc, #224]	; 4ea4 <.text+0x42d4>
    4dc0:	e79a4003 	ldr	r4, [sl, r3]
    4dc4:	e59f30dc 	ldr	r3, [pc, #220]	; 4ea8 <.text+0x42d8>
    4dc8:	e08a3003 	add	r3, sl, r3
    4dcc:	e58d3000 	str	r3, [sp]
    4dd0:	e3a03000 	mov	r3, #0	; 0x0
    4dd4:	e58d3004 	str	r3, [sp, #4]
    4dd8:	e1a00005 	mov	r0, r5
    4ddc:	e5941000 	ldr	r1, [r4]
    4de0:	e59f20c4 	ldr	r2, [pc, #196]	; 4eac <.text+0x42dc>
    4de4:	e08a2002 	add	r2, sl, r2
    4de8:	e59f30c0 	ldr	r3, [pc, #192]	; 4eb0 <.text+0x42e0>
    4dec:	e79a3003 	ldr	r3, [sl, r3]
    4df0:	e5933000 	ldr	r3, [r3]
    4df4:	ebfffdc4 	bl	450c <fillin_rpath>
    4df8:	e5940000 	ldr	r0, [r4]
    4dfc:	e5903000 	ldr	r3, [r0]
    4e00:	e3530000 	cmp	r3, #0	; 0x0
    4e04:	1a000002 	bne	4e14 <_dl_init_paths+0x39c>
    4e08:	ebffef6a 	bl	bb8 <GLIBC_2.0+0xbb8>
    4e0c:	e3e03000 	mvn	r3, #0	; 0x0
    4e10:	e5843000 	str	r3, [r4]
    4e14:	e3a03000 	mov	r3, #0	; 0x0
    4e18:	e59f2084 	ldr	r2, [pc, #132]	; 4ea4 <.text+0x42d4>
    4e1c:	e79a2002 	ldr	r2, [sl, r2]
    4e20:	e5823004 	str	r3, [r2, #4]
    4e24:	ea000003 	b	4e38 <_dl_init_paths+0x3c0>
    4e28:	e3e03000 	mvn	r3, #0	; 0x0
    4e2c:	e59f2070 	ldr	r2, [pc, #112]	; 4ea4 <.text+0x42d4>
    4e30:	e79a2002 	ldr	r2, [sl, r2]
    4e34:	e5823000 	str	r3, [r2]
    4e38:	e59f3038 	ldr	r3, [pc, #56]	; 4e78 <.text+0x42a8>
    4e3c:	e79a3003 	ldr	r3, [sl, r3]
    4e40:	e59321b0 	ldr	r2, [r3, #432]
    4e44:	e59f3010 	ldr	r3, [pc, #16]	; 4e5c <.text+0x428c>
    4e48:	e79a3003 	ldr	r3, [sl, r3]
    4e4c:	e58320b0 	str	r2, [r3, #176]
    4e50:	e24bd028 	sub	sp, fp, #40	; 0x28
    4e54:	e89daff0 	ldmia	sp, {r4, r5, r6, r7, r8, r9, sl, fp, sp, pc}
    4e58:	00018b00 	andeq	r8, r1, r0, lsl #22
    4e5c:	00000210 	andeq	r0, r0, r0, lsl r2
    4e60:	000000a0 	andeq	r0, r0, r0, lsr #1
    4e64:	000000ac 	andeq	r0, r0, ip, lsr #1
    4e68:	000000b0 	streqh	r0, [r0], -r0
    4e6c:	000000b4 	streqh	r0, [r0], -r4
    4e70:	ffff655c 	swinv	0x00ff655c
    4e74:	ffff6510 	swinv	0x00ff6510
    4e78:	0000023c 	andeq	r0, r0, ip, lsr r2
    4e7c:	0000008c 	andeq	r0, r0, ip, lsl #1
    4e80:	00000090 	muleq	r0, r0, r0
    4e84:	ffff657c 	swinv	0x00ff657c
    4e88:	ffff6590 	swinv	0x00ff6590
    4e8c:	ffff64d0 	swinv	0x00ff64d0
    4e90:	000000a8 	andeq	r0, r0, r8, lsr #1
    4e94:	000000a4 	andeq	r0, r0, r4, lsr #1
    4e98:	ffff65ac 	swinv	0x00ff65ac
    4e9c:	ffff65c4 	swinv	0x00ff65c4
    4ea0:	ffff65cc 	swinv	0x00ff65cc
    4ea4:	000000b8 	streqh	r0, [r0], -r8
    4ea8:	ffff65d4 	swinv	0x00ff65d4
    4eac:	ffff65e4 	swinv	0x00ff65e4
    4eb0:	00000200 	andeq	r0, r0, r0, lsl #4

00004eb4 <lose>:
    4eb4:	e59fa0c4 	ldr	sl, [pc, #196]	; 4f80 <.text+0x43b0>
    4eb8:	e08fa00a 	add	sl, pc, sl
    4ebc:	e1a07000 	mov	r7, r0
    4ec0:	e1a00001 	mov	r0, r1
    4ec4:	e1a06002 	mov	r6, r2
    4ec8:	e1a05003 	mov	r5, r3
    4ecc:	e59d4000 	ldr	r4, [sp]
    4ed0:	e3710001 	cmn	r1, #1	; 0x1
    4ed4:	1b002e29 	blne	10780 <__close>
    4ed8:	e3540000 	cmp	r4, #0	; 0x0
    4edc:	0a000020 	beq	4f64 <lose+0xb0>
    4ee0:	e594300c 	ldr	r3, [r4, #12]
    4ee4:	e3530000 	cmp	r3, #0	; 0x0
    4ee8:	0a000008 	beq	4f10 <lose+0x5c>
    4eec:	e59f0090 	ldr	r0, [pc, #144]	; 4f84 <.text+0x43b4>
    4ef0:	e08a0000 	add	r0, sl, r0
    4ef4:	e59f108c 	ldr	r1, [pc, #140]	; 4f88 <.text+0x43b8>
    4ef8:	e08a1001 	add	r1, sl, r1
    4efc:	e3a02fc6 	mov	r2, #792	; 0x318
    4f00:	e2822003 	add	r2, r2, #3	; 0x3
    4f04:	e59f3080 	ldr	r3, [pc, #128]	; 4f8c <.text+0x43bc>
    4f08:	e79a3003 	ldr	r3, [sl, r3]
    4f0c:	eb002a2b 	bl	f7c0 <__GI___assert_fail>
    4f10:	e5941010 	ldr	r1, [r4, #16]
    4f14:	e3510000 	cmp	r1, #0	; 0x0
    4f18:	15942010 	ldrne	r2, [r4, #16]
    4f1c:	13a03000 	movne	r3, #0	; 0x0
    4f20:	1582300c 	strne	r3, [r2, #12]
    4f24:	1a000004 	bne	4f3c <lose+0x88>
    4f28:	e5943018 	ldr	r3, [r4, #24]
    4f2c:	e0833083 	add	r3, r3, r3, lsl #1
    4f30:	e59f2058 	ldr	r2, [pc, #88]	; 4f90 <.text+0x43c0>
    4f34:	e79a2002 	ldr	r2, [sl, r2]
    4f38:	e7821183 	str	r1, [r2, r3, lsl #3]
    4f3c:	e5943018 	ldr	r3, [r4, #24]
    4f40:	e0833083 	add	r3, r3, r3, lsl #1
    4f44:	e59f2044 	ldr	r2, [pc, #68]	; 4f90 <.text+0x43c0>
    4f48:	e79a2002 	ldr	r2, [sl, r2]
    4f4c:	e0822183 	add	r2, r2, r3, lsl #3
    4f50:	e5923004 	ldr	r3, [r2, #4]
    4f54:	e2433001 	sub	r3, r3, #1	; 0x1
    4f58:	e5823004 	str	r3, [r2, #4]
    4f5c:	e1a00004 	mov	r0, r4
    4f60:	ebffef14 	bl	bb8 <GLIBC_2.0+0xbb8>
    4f64:	e1a00005 	mov	r0, r5
    4f68:	ebffef12 	bl	bb8 <GLIBC_2.0+0xbb8>
    4f6c:	e1a00007 	mov	r0, r7
    4f70:	e1a01006 	mov	r1, r6
    4f74:	e3a02000 	mov	r2, #0	; 0x0
    4f78:	e59d3004 	ldr	r3, [sp, #4]
    4f7c:	eb001a2a 	bl	b82c <_dl_signal_error>
    4f80:	000186d4 	ldreqd	r8, [r1], -r4
    4f84:	ffff65e8 	swinv	0x00ff65e8
    4f88:	ffff64d0 	swinv	0x00ff64d0
    4f8c:	000000bc 	streqh	r0, [r0], -ip
    4f90:	0000023c 	andeq	r0, r0, ip, lsr r2

00004f94 <_dl_map_object_from_fd>:
    4f94:	e1a0c00d 	mov	ip, sp
    4f98:	e92ddff0 	stmdb	sp!, {r4, r5, r6, r7, r8, r9, sl, fp, ip, lr, pc}
    4f9c:	e24cb004 	sub	fp, ip, #4	; 0x4
    4fa0:	e24dd0b0 	sub	sp, sp, #176	; 0xb0
    4fa4:	e59faf8c 	ldr	sl, [pc, #3980]	; 5f38 <.text+0x5368>
    4fa8:	e08fa00a 	add	sl, pc, sl
    4fac:	e50b008c 	str	r0, [fp, #-140]
    4fb0:	e50b1090 	str	r1, [fp, #-144]
    4fb4:	e1a04002 	mov	r4, r2
    4fb8:	e50b3094 	str	r3, [fp, #-148]
    4fbc:	e99b0180 	ldmib	fp, {r7, r8}
    4fc0:	e59b6014 	ldr	r6, [fp, #20]
    4fc4:	e3a05000 	mov	r5, #0	; 0x0
    4fc8:	e50b50a4 	str	r5, [fp, #-164]
    4fcc:	e3a00003 	mov	r0, #3	; 0x3
    4fd0:	e24b2088 	sub	r2, fp, #136	; 0x88
    4fd4:	eb002dcc 	bl	1070c <__GI___fxstat64>
    4fd8:	e1500005 	cmp	r0, r5
    4fdc:	aa00001c 	bge	5054 <_dl_map_object_from_fd+0xc0>
    4fe0:	e59f3f54 	ldr	r3, [pc, #3924]	; 5f3c <.text+0x536c>
    4fe4:	e08a2003 	add	r2, sl, r3
    4fe8:	e59f3f50 	ldr	r3, [pc, #3920]	; 5f40 <.text+0x5370>
    4fec:	e79a3003 	ldr	r3, [sl, r3]
    4ff0:	e5933000 	ldr	r3, [r3]
    4ff4:	e50b30a4 	str	r3, [fp, #-164]
    4ff8:	e58d5000 	str	r5, [sp]
    4ffc:	e58d2004 	str	r2, [sp, #4]
    5000:	e51b00a4 	ldr	r0, [fp, #-164]
    5004:	e24b1090 	sub	r1, fp, #144	; 0x90
    5008:	e8910006 	ldmia	r1, {r1, r2}
    500c:	e51b3094 	ldr	r3, [fp, #-148]
    5010:	ebffffa7 	bl	4eb4 <lose>
    5014:	e59f3f28 	ldr	r3, [pc, #3880]	; 5f44 <.text+0x5374>
    5018:	e08a2003 	add	r2, sl, r3
    501c:	e51bd0ac 	ldr	sp, [fp, #-172]
    5020:	eafffff0 	b	4fe8 <_dl_map_object_from_fd+0x54>
    5024:	e59f3f1c 	ldr	r3, [pc, #3868]	; 5f48 <.text+0x5378>
    5028:	e08a2003 	add	r2, sl, r3
    502c:	e51bd0ac 	ldr	sp, [fp, #-172]
    5030:	eaffffec 	b	4fe8 <_dl_map_object_from_fd+0x54>
    5034:	e59f3f10 	ldr	r3, [pc, #3856]	; 5f4c <.text+0x537c>
    5038:	e08a2003 	add	r2, sl, r3
    503c:	e51bd0ac 	ldr	sp, [fp, #-172]
    5040:	eaffffec 	b	4ff8 <_dl_map_object_from_fd+0x64>
    5044:	e59f3f04 	ldr	r3, [pc, #3844]	; 5f50 <.text+0x5380>
    5048:	e08a2003 	add	r2, sl, r3
    504c:	e51bd0ac 	ldr	sp, [fp, #-172]
    5050:	eaffffe8 	b	4ff8 <_dl_map_object_from_fd+0x64>
    5054:	e0863086 	add	r3, r6, r6, lsl #1
    5058:	e59f2ef4 	ldr	r2, [pc, #3828]	; 5f54 <.text+0x5384>
    505c:	e79a2002 	ldr	r2, [sl, r2]
    5060:	e7925183 	ldr	r5, [r2, r3, lsl #3]
    5064:	e3550000 	cmp	r5, #0	; 0x0
    5068:	0a000017 	beq	50cc <_dl_map_object_from_fd+0x138>
    506c:	e51b1030 	ldr	r1, [fp, #-48]
    5070:	e5d53181 	ldrb	r3, [r5, #385]
    5074:	e3130010 	tst	r3, #16	; 0x10
    5078:	1a000010 	bne	50c0 <_dl_map_object_from_fd+0x12c>
    507c:	e2852f75 	add	r2, r5, #468	; 0x1d4
    5080:	e59531d4 	ldr	r3, [r5, #468]
    5084:	e1530001 	cmp	r3, r1
    5088:	1a00000c 	bne	50c0 <_dl_map_object_from_fd+0x12c>
    508c:	e5922004 	ldr	r2, [r2, #4]
    5090:	e51b302c 	ldr	r3, [fp, #-44]
    5094:	e1520003 	cmp	r2, r3
    5098:	1a000008 	bne	50c0 <_dl_map_object_from_fd+0x12c>
    509c:	e2850f73 	add	r0, r5, #460	; 0x1cc
    50a0:	e59521cc 	ldr	r2, [r5, #460]
    50a4:	e51b3088 	ldr	r3, [fp, #-136]
    50a8:	e1520003 	cmp	r2, r3
    50ac:	1a000003 	bne	50c0 <_dl_map_object_from_fd+0x12c>
    50b0:	e5902004 	ldr	r2, [r0, #4]
    50b4:	e51b3084 	ldr	r3, [fp, #-132]
    50b8:	e1520003 	cmp	r2, r3
    50bc:	0a000369 	beq	5e68 <_dl_map_object_from_fd+0xed4>
    50c0:	e595500c 	ldr	r5, [r5, #12]
    50c4:	e3550000 	cmp	r5, #0	; 0x0
    50c8:	1affffe8 	bne	5070 <_dl_map_object_from_fd+0xdc>
    50cc:	e3560000 	cmp	r6, #0	; 0x0
    50d0:	0a00002b 	beq	5184 <_dl_map_object_from_fd+0x1f0>
    50d4:	e59f3e78 	ldr	r3, [pc, #3704]	; 5f54 <.text+0x5384>
    50d8:	e79a1003 	ldr	r1, [sl, r3]
    50dc:	e2810fe3 	add	r0, r1, #908	; 0x38c
    50e0:	e591238c 	ldr	r2, [r1, #908]
    50e4:	e51b3030 	ldr	r3, [fp, #-48]
    50e8:	e1530002 	cmp	r3, r2
    50ec:	1a00000c 	bne	5124 <_dl_map_object_from_fd+0x190>
    50f0:	e5902004 	ldr	r2, [r0, #4]
    50f4:	e51b302c 	ldr	r3, [fp, #-44]
    50f8:	e1530002 	cmp	r3, r2
    50fc:	1a000008 	bne	5124 <_dl_map_object_from_fd+0x190>
    5100:	e2810fe1 	add	r0, r1, #900	; 0x384
    5104:	e5912384 	ldr	r2, [r1, #900]
    5108:	e51b3088 	ldr	r3, [fp, #-136]
    510c:	e1530002 	cmp	r3, r2
    5110:	1a000003 	bne	5124 <_dl_map_object_from_fd+0x190>
    5114:	e5902004 	ldr	r2, [r0, #4]
    5118:	e51b3084 	ldr	r3, [fp, #-132]
    511c:	e1530002 	cmp	r3, r2
    5120:	0a000006 	beq	5140 <_dl_map_object_from_fd+0x1ac>
    5124:	e51b008c 	ldr	r0, [fp, #-140]
    5128:	e59f1e24 	ldr	r1, [pc, #3620]	; 5f54 <.text+0x5384>
    512c:	e79a1001 	ldr	r1, [sl, r1]
    5130:	e2811f6e 	add	r1, r1, #440	; 0x1b8
    5134:	eb001df5 	bl	c910 <_dl_name_match_p>
    5138:	e3500000 	cmp	r0, #0	; 0x0
    513c:	0a000010 	beq	5184 <_dl_map_object_from_fd+0x1f0>
    5140:	e59b000c 	ldr	r0, [fp, #12]
    5144:	e88d0041 	stmia	sp, {r0, r6}
    5148:	e51b0094 	ldr	r0, [fp, #-148]
    514c:	e51b108c 	ldr	r1, [fp, #-140]
    5150:	e1a02008 	mov	r2, r8
    5154:	e1a03007 	mov	r3, r7
    5158:	eb000dec 	bl	8910 <_dl_new_object>
    515c:	e2505000 	subs	r5, r0, #0	; 0x0
    5160:	0a00001f 	beq	51e4 <_dl_map_object_from_fd+0x250>
    5164:	e59f3de8 	ldr	r3, [pc, #3560]	; 5f54 <.text+0x5384>
    5168:	e79a3003 	ldr	r3, [sl, r3]
    516c:	e2833f6e 	add	r3, r3, #440	; 0x1b8
    5170:	e5853014 	str	r3, [r5, #20]
    5174:	e51b0090 	ldr	r0, [fp, #-144]
    5178:	eb002d80 	bl	10780 <__close>
    517c:	e1a00005 	mov	r0, r5
    5180:	ea00036a 	b	5f30 <_dl_map_object_from_fd+0xf9c>
    5184:	e59b100c 	ldr	r1, [fp, #12]
    5188:	e3110004 	tst	r1, #4	; 0x4
    518c:	13a00000 	movne	r0, #0	; 0x0
    5190:	1a000366 	bne	5f30 <_dl_map_object_from_fd+0xf9c>
    5194:	e59f3dbc 	ldr	r3, [pc, #3516]	; 5f58 <.text+0x5388>
    5198:	e79a3003 	ldr	r3, [sl, r3]
    519c:	e5933000 	ldr	r3, [r3]
    51a0:	e3130040 	tst	r3, #64	; 0x40
    51a4:	0a000004 	beq	51bc <_dl_map_object_from_fd+0x228>
    51a8:	e59f0dac 	ldr	r0, [pc, #3500]	; 5f5c <.text+0x538c>
    51ac:	e08a0000 	add	r0, sl, r0
    51b0:	e51b108c 	ldr	r1, [fp, #-140]
    51b4:	e1a02006 	mov	r2, r6
    51b8:	eb001dab 	bl	c86c <_dl_debug_printf>
    51bc:	e2849004 	add	r9, r4, #4	; 0x4
    51c0:	e59b200c 	ldr	r2, [fp, #12]
    51c4:	e88d0044 	stmia	sp, {r2, r6}
    51c8:	e51b0094 	ldr	r0, [fp, #-148]
    51cc:	e51b108c 	ldr	r1, [fp, #-140]
    51d0:	e1a02008 	mov	r2, r8
    51d4:	e1a03007 	mov	r3, r7
    51d8:	eb000dcc 	bl	8910 <_dl_new_object>
    51dc:	e2505000 	subs	r5, r0, #0	; 0x0
    51e0:	1a000002 	bne	51f0 <_dl_map_object_from_fd+0x25c>
    51e4:	e59f3d74 	ldr	r3, [pc, #3444]	; 5f60 <.text+0x5390>
    51e8:	e08a2003 	add	r2, sl, r3
    51ec:	eaffff7d 	b	4fe8 <_dl_map_object_from_fd+0x54>
    51f0:	e5993018 	ldr	r3, [r9, #24]
    51f4:	e5853150 	str	r3, [r5, #336]
    51f8:	e5d92010 	ldrb	r2, [r9, #16]
    51fc:	e5d93011 	ldrb	r3, [r9, #17]
    5200:	e1823403 	orr	r3, r2, r3, lsl #8
    5204:	e50b30a0 	str	r3, [fp, #-160]
    5208:	e599302c 	ldr	r3, [r9, #44]
    520c:	e5c53154 	strb	r3, [r5, #340]
    5210:	e1a03443 	mov	r3, r3, asr #8
    5214:	e5c53155 	strb	r3, [r5, #341]
    5218:	e5d9202c 	ldrb	r2, [r9, #44]
    521c:	e5d9302d 	ldrb	r3, [r9, #45]
    5220:	e1823403 	orr	r3, r2, r3, lsl #8
    5224:	e1a03283 	mov	r3, r3, lsl #5
    5228:	e50b309c 	str	r3, [fp, #-156]
    522c:	e599101c 	ldr	r1, [r9, #28]
    5230:	e0832001 	add	r2, r3, r1
    5234:	e5943000 	ldr	r3, [r4]
    5238:	e1520003 	cmp	r2, r3
    523c:	90844001 	addls	r4, r4, r1
    5240:	91a03004 	movls	r3, r4
    5244:	92833004 	addls	r3, r3, #4	; 0x4
    5248:	950b3098 	strls	r3, [fp, #-152]
    524c:	9a000012 	bls	529c <_dl_map_object_from_fd+0x308>
    5250:	e51b009c 	ldr	r0, [fp, #-156]
    5254:	e2803006 	add	r3, r0, #6	; 0x6
    5258:	e3c33003 	bic	r3, r3, #3	; 0x3
    525c:	e063d00d 	rsb	sp, r3, sp
    5260:	e28d1024 	add	r1, sp, #36	; 0x24
    5264:	e50b1098 	str	r1, [fp, #-152]
    5268:	e51b0090 	ldr	r0, [fp, #-144]
    526c:	e599101c 	ldr	r1, [r9, #28]
    5270:	e3a02000 	mov	r2, #0	; 0x0
    5274:	eb002d65 	bl	10810 <__libc_lseek>
    5278:	e51b0090 	ldr	r0, [fp, #-144]
    527c:	e51b1098 	ldr	r1, [fp, #-152]
    5280:	e51b209c 	ldr	r2, [fp, #-156]
    5284:	eb002d49 	bl	107b0 <__libc_read>
    5288:	e51b209c 	ldr	r2, [fp, #-156]
    528c:	e1500002 	cmp	r0, r2
    5290:	159f3ccc 	ldrne	r3, [pc, #3276]	; 5f64 <.text+0x5394>
    5294:	108a2003 	addne	r2, sl, r3
    5298:	1affff52 	bne	4fe8 <_dl_map_object_from_fd+0x54>
    529c:	e3a03007 	mov	r3, #7	; 0x7
    52a0:	e50b30a8 	str	r3, [fp, #-168]
    52a4:	e50bd0ac 	str	sp, [fp, #-172]
    52a8:	e5d52154 	ldrb	r2, [r5, #340]
    52ac:	e5d53155 	ldrb	r3, [r5, #341]
    52b0:	e1822403 	orr	r2, r2, r3, lsl #8
    52b4:	e0823082 	add	r3, r2, r2, lsl #1
    52b8:	e1a03183 	mov	r3, r3, lsl #3
    52bc:	e2833006 	add	r3, r3, #6	; 0x6
    52c0:	e3c333ff 	bic	r3, r3, #-67108861	; 0xfc000003
    52c4:	e3c3350e 	bic	r3, r3, #58720256	; 0x3800000
    52c8:	e063d00d 	rsb	sp, r3, sp
    52cc:	e28d0024 	add	r0, sp, #36	; 0x24
    52d0:	e50b00b0 	str	r0, [fp, #-176]
    52d4:	e3a08000 	mov	r8, #0	; 0x0
    52d8:	e1a06008 	mov	r6, r8
    52dc:	e51b0098 	ldr	r0, [fp, #-152]
    52e0:	e0802282 	add	r2, r0, r2, lsl #5
    52e4:	e1520000 	cmp	r2, r0
    52e8:	9a00006c 	bls	54a0 <_dl_map_object_from_fd+0x50c>
    52ec:	e59f3c64 	ldr	r3, [pc, #3172]	; 5f58 <.text+0x5388>
    52f0:	e79ae003 	ldr	lr, [sl, r3]
    52f4:	e5902000 	ldr	r2, [r0]
    52f8:	e3520006 	cmp	r2, #6	; 0x6
    52fc:	05903008 	ldreq	r3, [r0, #8]
    5300:	0585314c 	streq	r3, [r5, #332]
    5304:	0a00005d 	beq	5480 <_dl_map_object_from_fd+0x4ec>
    5308:	8a000004 	bhi	5320 <_dl_map_object_from_fd+0x38c>
    530c:	e3520001 	cmp	r2, #1	; 0x1
    5310:	0a00001a 	beq	5380 <_dl_map_object_from_fd+0x3ec>
    5314:	e3520002 	cmp	r2, #2	; 0x2
    5318:	0a000010 	beq	5360 <_dl_map_object_from_fd+0x3cc>
    531c:	ea000057 	b	5480 <_dl_map_object_from_fd+0x4ec>
    5320:	e59f3c40 	ldr	r3, [pc, #3136]	; 5f68 <.text+0x5398>
    5324:	e1520003 	cmp	r2, r3
    5328:	05901018 	ldreq	r1, [r0, #24]
    532c:	050b10a8 	streq	r1, [fp, #-168]
    5330:	0a000052 	beq	5480 <_dl_map_object_from_fd+0x4ec>
    5334:	8a000002 	bhi	5344 <_dl_map_object_from_fd+0x3b0>
    5338:	e3520007 	cmp	r2, #7	; 0x7
    533c:	0a000049 	beq	5468 <_dl_map_object_from_fd+0x4d4>
    5340:	ea00004e 	b	5480 <_dl_map_object_from_fd+0x4ec>
    5344:	e59f3c20 	ldr	r3, [pc, #3104]	; 5f6c <.text+0x539c>
    5348:	e1520003 	cmp	r2, r3
    534c:	05903008 	ldreq	r3, [r0, #8]
    5350:	05853218 	streq	r3, [r5, #536]
    5354:	05903014 	ldreq	r3, [r0, #20]
    5358:	0585321c 	streq	r3, [r5, #540]
    535c:	ea000047 	b	5480 <_dl_map_object_from_fd+0x4ec>
    5360:	e5903008 	ldr	r3, [r0, #8]
    5364:	e5853008 	str	r3, [r5, #8]
    5368:	e5903014 	ldr	r3, [r0, #20]
    536c:	e1a031a3 	mov	r3, r3, lsr #3
    5370:	e5c53156 	strb	r3, [r5, #342]
    5374:	e1a03443 	mov	r3, r3, asr #8
    5378:	e5c53157 	strb	r3, [r5, #343]
    537c:	ea00003f 	b	5480 <_dl_map_object_from_fd+0x4ec>
    5380:	e59e3004 	ldr	r3, [lr, #4]
    5384:	e2433001 	sub	r3, r3, #1	; 0x1
    5388:	e590201c 	ldr	r2, [r0, #28]
    538c:	e1130002 	tst	r3, r2
    5390:	1affff2b 	bne	5044 <_dl_map_object_from_fd+0xb0>
    5394:	e2801008 	add	r1, r0, #8	; 0x8
    5398:	e8110006 	ldmda	r1, {r1, r2}
    539c:	e0422001 	sub	r2, r2, r1
    53a0:	e590301c 	ldr	r3, [r0, #28]
    53a4:	e2433001 	sub	r3, r3, #1	; 0x1
    53a8:	e1120003 	tst	r2, r3
    53ac:	1affff20 	bne	5034 <_dl_map_object_from_fd+0xa0>
    53b0:	e0881088 	add	r1, r8, r8, lsl #1
    53b4:	e1a01181 	mov	r1, r1, lsl #3
    53b8:	e51b20b0 	ldr	r2, [fp, #-176]
    53bc:	e0824001 	add	r4, r2, r1
    53c0:	e2888001 	add	r8, r8, #1	; 0x1
    53c4:	e59e3004 	ldr	r3, [lr, #4]
    53c8:	e2633000 	rsb	r3, r3, #0	; 0x0
    53cc:	e5902008 	ldr	r2, [r0, #8]
    53d0:	e003c002 	and	ip, r3, r2
    53d4:	e51b30b0 	ldr	r3, [fp, #-176]
    53d8:	e783c001 	str	ip, [r3, r1]
    53dc:	e5903008 	ldr	r3, [r0, #8]
    53e0:	e5902010 	ldr	r2, [r0, #16]
    53e4:	e0833002 	add	r3, r3, r2
    53e8:	e59e2004 	ldr	r2, [lr, #4]
    53ec:	e0833002 	add	r3, r3, r2
    53f0:	e2433001 	sub	r3, r3, #1	; 0x1
    53f4:	e2622000 	rsb	r2, r2, #0	; 0x0
    53f8:	e0033002 	and	r3, r3, r2
    53fc:	e5843004 	str	r3, [r4, #4]
    5400:	e5903008 	ldr	r3, [r0, #8]
    5404:	e5902010 	ldr	r2, [r0, #16]
    5408:	e0833002 	add	r3, r3, r2
    540c:	e5843008 	str	r3, [r4, #8]
    5410:	e5903008 	ldr	r3, [r0, #8]
    5414:	e5902014 	ldr	r2, [r0, #20]
    5418:	e0833002 	add	r3, r3, r2
    541c:	e584300c 	str	r3, [r4, #12]
    5420:	e59e3004 	ldr	r3, [lr, #4]
    5424:	e2633000 	rsb	r3, r3, #0	; 0x0
    5428:	e5902004 	ldr	r2, [r0, #4]
    542c:	e0033002 	and	r3, r3, r2
    5430:	e5843010 	str	r3, [r4, #16]
    5434:	e3580001 	cmp	r8, #1	; 0x1
    5438:	9a000002 	bls	5448 <_dl_map_object_from_fd+0x4b4>
    543c:	e5143014 	ldr	r3, [r4, #-20]
    5440:	e153000c 	cmp	r3, ip
    5444:	13a06001 	movne	r6, #1	; 0x1
    5448:	e5902018 	ldr	r2, [r0, #24]
    544c:	e2022007 	and	r2, r2, #7	; 0x7
    5450:	e1a02102 	mov	r2, r2, lsl #2
    5454:	e59f3b14 	ldr	r3, [pc, #2836]	; 5f70 <.text+0x53a0>
    5458:	e1a03253 	mov	r3, r3, asr r2
    545c:	e203300f 	and	r3, r3, #15	; 0xf
    5460:	e5843014 	str	r3, [r4, #20]
    5464:	ea000005 	b	5480 <_dl_map_object_from_fd+0x4ec>
    5468:	e3a00000 	mov	r0, #0	; 0x0
    546c:	e50b00a4 	str	r0, [fp, #-164]
    5470:	e59f3afc 	ldr	r3, [pc, #2812]	; 5f74 <.text+0x53a4>
    5474:	e08a2003 	add	r2, sl, r3
    5478:	e51bd0ac 	ldr	sp, [fp, #-172]
    547c:	eafffedd 	b	4ff8 <_dl_map_object_from_fd+0x64>
    5480:	e2800020 	add	r0, r0, #32	; 0x20
    5484:	e5d53154 	ldrb	r3, [r5, #340]
    5488:	e5d52155 	ldrb	r2, [r5, #341]
    548c:	e1833402 	orr	r3, r3, r2, lsl #8
    5490:	e51b2098 	ldr	r2, [fp, #-152]
    5494:	e0823283 	add	r3, r2, r3, lsl #5
    5498:	e1530000 	cmp	r3, r0
    549c:	8affff94 	bhi	52f4 <_dl_map_object_from_fd+0x360>
    54a0:	e3580000 	cmp	r8, #0	; 0x0
    54a4:	1a000003 	bne	54b8 <_dl_map_object_from_fd+0x524>
    54a8:	e59f3ac8 	ldr	r3, [pc, #2760]	; 5f78 <.text+0x53a8>
    54ac:	e08a2003 	add	r2, sl, r3
    54b0:	e51bd0ac 	ldr	sp, [fp, #-172]
    54b4:	eafffecf 	b	4ff8 <_dl_map_object_from_fd+0x64>
    54b8:	e51b40b0 	ldr	r4, [fp, #-176]
    54bc:	e0883088 	add	r3, r8, r8, lsl #1
    54c0:	e0843183 	add	r3, r4, r3, lsl #3
    54c4:	e513300c 	ldr	r3, [r3, #-12]
    54c8:	e5942000 	ldr	r2, [r4]
    54cc:	e0623003 	rsb	r3, r2, r3
    54d0:	e50b309c 	str	r3, [fp, #-156]
    54d4:	e51b30a0 	ldr	r3, [fp, #-160]
    54d8:	e3530003 	cmp	r3, #3	; 0x3
    54dc:	1a000026 	bne	557c <_dl_map_object_from_fd+0x5e8>
    54e0:	e59f3a70 	ldr	r3, [pc, #2672]	; 5f58 <.text+0x5388>
    54e4:	e79a3003 	ldr	r3, [sl, r3]
    54e8:	e593009c 	ldr	r0, [r3, #156]
    54ec:	e51b1090 	ldr	r1, [fp, #-144]
    54f0:	e58d1000 	str	r1, [sp]
    54f4:	e5943010 	ldr	r3, [r4, #16]
    54f8:	e58d3004 	str	r3, [sp, #4]
    54fc:	e0020000 	and	r0, r2, r0
    5500:	e51b109c 	ldr	r1, [fp, #-156]
    5504:	e5942014 	ldr	r2, [r4, #20]
    5508:	e3a03b02 	mov	r3, #2048	; 0x800
    550c:	e2833002 	add	r3, r3, #2	; 0x2
    5510:	eb002dc6 	bl	10c30 <__mmap>
    5514:	e58501a0 	str	r0, [r5, #416]
    5518:	e3700001 	cmn	r0, #1	; 0x1
    551c:	1a000003 	bne	5530 <_dl_map_object_from_fd+0x59c>
    5520:	e59f3a54 	ldr	r3, [pc, #2644]	; 5f7c <.text+0x53ac>
    5524:	e08a2003 	add	r2, sl, r3
    5528:	e51bd0ac 	ldr	sp, [fp, #-172]
    552c:	eafffead 	b	4fe8 <_dl_map_object_from_fd+0x54>
    5530:	e59531a0 	ldr	r3, [r5, #416]
    5534:	e51b009c 	ldr	r0, [fp, #-156]
    5538:	e0802003 	add	r2, r0, r3
    553c:	e58521a4 	str	r2, [r5, #420]
    5540:	e5942000 	ldr	r2, [r4]
    5544:	e0620003 	rsb	r0, r2, r3
    5548:	e5850000 	str	r0, [r5]
    554c:	e3560000 	cmp	r6, #0	; 0x0
    5550:	0a00002d 	beq	560c <_dl_map_object_from_fd+0x678>
    5554:	e5941004 	ldr	r1, [r4, #4]
    5558:	e0883088 	add	r3, r8, r8, lsl #1
    555c:	e51b20b0 	ldr	r2, [fp, #-176]
    5560:	e0823183 	add	r3, r2, r3, lsl #3
    5564:	e513300c 	ldr	r3, [r3, #-12]
    5568:	e0800001 	add	r0, r0, r1
    556c:	e0611003 	rsb	r1, r1, r3
    5570:	e3a02000 	mov	r2, #0	; 0x0
    5574:	eb002dd1 	bl	10cc0 <__mprotect>
    5578:	ea000023 	b	560c <_dl_map_object_from_fd+0x678>
    557c:	e59b300c 	ldr	r3, [fp, #12]
    5580:	e3130202 	tst	r3, #536870912	; 0x20000000
    5584:	1a000003 	bne	5598 <_dl_map_object_from_fd+0x604>
    5588:	e59f39f0 	ldr	r3, [pc, #2544]	; 5f80 <.text+0x53b0>
    558c:	e08a2003 	add	r2, sl, r3
    5590:	e51bd0ac 	ldr	sp, [fp, #-172]
    5594:	eafffe97 	b	4ff8 <_dl_map_object_from_fd+0x64>
    5598:	e5943000 	ldr	r3, [r4]
    559c:	e5952000 	ldr	r2, [r5]
    55a0:	e0833002 	add	r3, r3, r2
    55a4:	e58531a0 	str	r3, [r5, #416]
    55a8:	e51b009c 	ldr	r0, [fp, #-156]
    55ac:	e0803003 	add	r3, r0, r3
    55b0:	e58531a4 	str	r3, [r5, #420]
    55b4:	e0883088 	add	r3, r8, r8, lsl #1
    55b8:	e51b10b0 	ldr	r1, [fp, #-176]
    55bc:	e0813183 	add	r3, r1, r3, lsl #3
    55c0:	e1530004 	cmp	r3, r4
    55c4:	9a00006b 	bls	5778 <_dl_map_object_from_fd+0x7e4>
    55c8:	e5941004 	ldr	r1, [r4, #4]
    55cc:	e594c000 	ldr	ip, [r4]
    55d0:	e151000c 	cmp	r1, ip
    55d4:	9a00000c 	bls	560c <_dl_map_object_from_fd+0x678>
    55d8:	e5950000 	ldr	r0, [r5]
    55dc:	e5942014 	ldr	r2, [r4, #20]
    55e0:	e51b3090 	ldr	r3, [fp, #-144]
    55e4:	e58d3000 	str	r3, [sp]
    55e8:	e5943010 	ldr	r3, [r4, #16]
    55ec:	e58d3004 	str	r3, [sp, #4]
    55f0:	e080000c 	add	r0, r0, ip
    55f4:	e06c1001 	rsb	r1, ip, r1
    55f8:	e3a03e81 	mov	r3, #2064	; 0x810
    55fc:	e2833002 	add	r3, r3, #2	; 0x2
    5600:	eb002d8a 	bl	10c30 <__mmap>
    5604:	e3700001 	cmn	r0, #1	; 0x1
    5608:	0affffc4 	beq	5520 <_dl_map_object_from_fd+0x58c>
    560c:	e5943014 	ldr	r3, [r4, #20]
    5610:	e3130004 	tst	r3, #4	; 0x4
    5614:	15953000 	ldrne	r3, [r5]
    5618:	15942004 	ldrne	r2, [r4, #4]
    561c:	10833002 	addne	r3, r3, r2
    5620:	158531a8 	strne	r3, [r5, #424]
    5624:	e595314c 	ldr	r3, [r5, #332]
    5628:	e3530000 	cmp	r3, #0	; 0x0
    562c:	1a00000f 	bne	5670 <_dl_map_object_from_fd+0x6dc>
    5630:	e594c010 	ldr	ip, [r4, #16]
    5634:	e599001c 	ldr	r0, [r9, #28]
    5638:	e15c0000 	cmp	ip, r0
    563c:	8a00000b 	bhi	5670 <_dl_map_object_from_fd+0x6dc>
    5640:	e594e000 	ldr	lr, [r4]
    5644:	e894000a 	ldmia	r4, {r1, r3}
    5648:	e0433001 	sub	r3, r3, r1
    564c:	e083300c 	add	r3, r3, ip
    5650:	e5d9202c 	ldrb	r2, [r9, #44]
    5654:	e5d9102d 	ldrb	r1, [r9, #45]
    5658:	e1822401 	orr	r2, r2, r1, lsl #8
    565c:	e0802282 	add	r2, r0, r2, lsl #5
    5660:	e1530002 	cmp	r3, r2
    5664:	208e3000 	addcs	r3, lr, r0
    5668:	206c3003 	rsbcs	r3, ip, r3
    566c:	2585314c 	strcs	r3, [r5, #332]
    5670:	e2840008 	add	r0, r4, #8	; 0x8
    5674:	e8900003 	ldmia	r0, {r0, r1}
    5678:	e1510000 	cmp	r1, r0
    567c:	9a000037 	bls	5760 <_dl_map_object_from_fd+0x7cc>
    5680:	e5953000 	ldr	r3, [r5]
    5684:	e0837000 	add	r7, r3, r0
    5688:	e0833001 	add	r3, r3, r1
    568c:	e50b30b4 	str	r3, [fp, #-180]
    5690:	e59f38c0 	ldr	r3, [pc, #2240]	; 5f58 <.text+0x5388>
    5694:	e79a3003 	ldr	r3, [sl, r3]
    5698:	e5933004 	ldr	r3, [r3, #4]
    569c:	e0876003 	add	r6, r7, r3
    56a0:	e2466001 	sub	r6, r6, #1	; 0x1
    56a4:	e2633000 	rsb	r3, r3, #0	; 0x0
    56a8:	e0066003 	and	r6, r6, r3
    56ac:	e51b20b4 	ldr	r2, [fp, #-180]
    56b0:	e1560002 	cmp	r6, r2
    56b4:	21a06002 	movcs	r6, r2
    56b8:	e1560007 	cmp	r6, r7
    56bc:	9a000018 	bls	5724 <_dl_map_object_from_fd+0x790>
    56c0:	e5942014 	ldr	r2, [r4, #20]
    56c4:	e3120002 	tst	r2, #2	; 0x2
    56c8:	1a000008 	bne	56f0 <_dl_map_object_from_fd+0x75c>
    56cc:	e59f3884 	ldr	r3, [pc, #2180]	; 5f58 <.text+0x5388>
    56d0:	e79a3003 	ldr	r3, [sl, r3]
    56d4:	e5931004 	ldr	r1, [r3, #4]
    56d8:	e2610000 	rsb	r0, r1, #0	; 0x0
    56dc:	e0000007 	and	r0, r0, r7
    56e0:	e3822002 	orr	r2, r2, #2	; 0x2
    56e4:	eb002d75 	bl	10cc0 <__mprotect>
    56e8:	e3500000 	cmp	r0, #0	; 0x0
    56ec:	bafffe4c 	blt	5024 <_dl_map_object_from_fd+0x90>
    56f0:	e1a00007 	mov	r0, r7
    56f4:	e3a01000 	mov	r1, #0	; 0x0
    56f8:	e0672006 	rsb	r2, r7, r6
    56fc:	eb003023 	bl	11790 <memset>
    5700:	e5942014 	ldr	r2, [r4, #20]
    5704:	e3120002 	tst	r2, #2	; 0x2
    5708:	1a000005 	bne	5724 <_dl_map_object_from_fd+0x790>
    570c:	e59f3844 	ldr	r3, [pc, #2116]	; 5f58 <.text+0x5388>
    5710:	e79a3003 	ldr	r3, [sl, r3]
    5714:	e5931004 	ldr	r1, [r3, #4]
    5718:	e2610000 	rsb	r0, r1, #0	; 0x0
    571c:	e0000007 	and	r0, r0, r7
    5720:	eb002d66 	bl	10cc0 <__mprotect>
    5724:	e51b30b4 	ldr	r3, [fp, #-180]
    5728:	e1530006 	cmp	r3, r6
    572c:	9a00000b 	bls	5760 <_dl_map_object_from_fd+0x7cc>
    5730:	e3e03000 	mvn	r3, #0	; 0x0
    5734:	e58d3000 	str	r3, [sp]
    5738:	e2833001 	add	r3, r3, #1	; 0x1
    573c:	e58d3004 	str	r3, [sp, #4]
    5740:	e1a00006 	mov	r0, r6
    5744:	e51b20b4 	ldr	r2, [fp, #-180]
    5748:	e0661002 	rsb	r1, r6, r2
    574c:	e5942014 	ldr	r2, [r4, #20]
    5750:	e2833032 	add	r3, r3, #50	; 0x32
    5754:	eb002d35 	bl	10c30 <__mmap>
    5758:	e3700001 	cmn	r0, #1	; 0x1
    575c:	0afffe2c 	beq	5014 <_dl_map_object_from_fd+0x80>
    5760:	e2844018 	add	r4, r4, #24	; 0x18
    5764:	e0883088 	add	r3, r8, r8, lsl #1
    5768:	e51b00b0 	ldr	r0, [fp, #-176]
    576c:	e0803183 	add	r3, r0, r3, lsl #3
    5770:	e1530004 	cmp	r3, r4
    5774:	8affff93 	bhi	55c8 <_dl_map_object_from_fd+0x634>
    5778:	e51bd0ac 	ldr	sp, [fp, #-172]
    577c:	e5953008 	ldr	r3, [r5, #8]
    5780:	e3530000 	cmp	r3, #0	; 0x0
    5784:	15953008 	ldrne	r3, [r5, #8]
    5788:	15952000 	ldrne	r2, [r5]
    578c:	10833002 	addne	r3, r3, r2
    5790:	15853008 	strne	r3, [r5, #8]
    5794:	1a000004 	bne	57ac <_dl_map_object_from_fd+0x818>
    5798:	e51b10a0 	ldr	r1, [fp, #-160]
    579c:	e3510003 	cmp	r1, #3	; 0x3
    57a0:	059f37dc 	ldreq	r3, [pc, #2012]	; 5f84 <.text+0x53b4>
    57a4:	008a2003 	addeq	r2, sl, r3
    57a8:	0afffe12 	beq	4ff8 <_dl_map_object_from_fd+0x64>
    57ac:	e1a06005 	mov	r6, r5
    57b0:	e3a0e000 	mov	lr, #0	; 0x0
    57b4:	e5952008 	ldr	r2, [r5, #8]
    57b8:	e152000e 	cmp	r2, lr
    57bc:	0a000122 	beq	5c4c <_dl_map_object_from_fd+0xcb8>
    57c0:	e2850020 	add	r0, r5, #32	; 0x20
    57c4:	e5923000 	ldr	r3, [r2]
    57c8:	e153000e 	cmp	r3, lr
    57cc:	0a000030 	beq	5894 <_dl_map_object_from_fd+0x900>
    57d0:	e5923000 	ldr	r3, [r2]
    57d4:	e3530021 	cmp	r3, #33	; 0x21
    57d8:	d7802103 	strle	r2, [r0, r3, lsl #2]
    57dc:	da000029 	ble	5888 <_dl_map_object_from_fd+0x8f4>
    57e0:	e5921000 	ldr	r1, [r2]
    57e4:	e261346f 	rsb	r3, r1, #1862270976	; 0x6f000000
    57e8:	e28338ff 	add	r3, r3, #16711680	; 0xff0000
    57ec:	e2833cff 	add	r3, r3, #65280	; 0xff00
    57f0:	e28330ff 	add	r3, r3, #255	; 0xff
    57f4:	e353000f 	cmp	r3, #15	; 0xf
    57f8:	92613207 	rsbls	r3, r1, #1879048192	; 0x70000000
    57fc:	92833021 	addls	r3, r3, #33	; 0x21
    5800:	97802103 	strls	r2, [r0, r3, lsl #2]
    5804:	9a00001f 	bls	5888 <_dl_map_object_from_fd+0x8f4>
    5808:	e5923000 	ldr	r3, [r2]
    580c:	e1a03083 	mov	r3, r3, lsl #1
    5810:	e1a010c3 	mov	r1, r3, asr #1
    5814:	e1e03001 	mvn	r3, r1
    5818:	e3530002 	cmp	r3, #2	; 0x2
    581c:	92613031 	rsbls	r3, r1, #49	; 0x31
    5820:	97802103 	strls	r2, [r0, r3, lsl #2]
    5824:	9a000017 	bls	5888 <_dl_map_object_from_fd+0x8f4>
    5828:	e5921000 	ldr	r1, [r2]
    582c:	e261346f 	rsb	r3, r1, #1862270976	; 0x6f000000
    5830:	e28338ff 	add	r3, r3, #16711680	; 0xff0000
    5834:	e2833cfd 	add	r3, r3, #64768	; 0xfd00
    5838:	e28330ff 	add	r3, r3, #255	; 0xff
    583c:	e353000b 	cmp	r3, #11	; 0xb
    5840:	8a000005 	bhi	585c <_dl_map_object_from_fd+0x8c8>
    5844:	e261346f 	rsb	r3, r1, #1862270976	; 0x6f000000
    5848:	e28338ff 	add	r3, r3, #16711680	; 0xff0000
    584c:	e2833cfe 	add	r3, r3, #65024	; 0xfe00
    5850:	e2833034 	add	r3, r3, #52	; 0x34
    5854:	e7802103 	str	r2, [r0, r3, lsl #2]
    5858:	ea00000a 	b	5888 <_dl_map_object_from_fd+0x8f4>
    585c:	e5921000 	ldr	r1, [r2]
    5860:	e261346f 	rsb	r3, r1, #1862270976	; 0x6f000000
    5864:	e28338ff 	add	r3, r3, #16711680	; 0xff0000
    5868:	e2833cfe 	add	r3, r3, #65024	; 0xfe00
    586c:	e28330ff 	add	r3, r3, #255	; 0xff
    5870:	e3530009 	cmp	r3, #9	; 0x9
    5874:	9261346f 	rsbls	r3, r1, #1862270976	; 0x6f000000
    5878:	928338ff 	addls	r3, r3, #16711680	; 0xff0000
    587c:	92833cff 	addls	r3, r3, #65280	; 0xff00
    5880:	92833040 	addls	r3, r3, #64	; 0x40
    5884:	97802103 	strls	r2, [r0, r3, lsl #2]
    5888:	e5b23008 	ldr	r3, [r2, #8]!
    588c:	e3530000 	cmp	r3, #0	; 0x0
    5890:	1affffce 	bne	57d0 <_dl_map_object_from_fd+0x83c>
    5894:	e5963000 	ldr	r3, [r6]
    5898:	e3530000 	cmp	r3, #0	; 0x0
    589c:	0a0000a1 	beq	5b28 <_dl_map_object_from_fd+0xb94>
    58a0:	e1a04003 	mov	r4, r3
    58a4:	e3a0c000 	mov	ip, #0	; 0x0
    58a8:	e5903010 	ldr	r3, [r0, #16]
    58ac:	e153000c 	cmp	r3, ip
    58b0:	0a00000d 	beq	58ec <_dl_map_object_from_fd+0x958>
    58b4:	e15e000c 	cmp	lr, ip
    58b8:	05902010 	ldreq	r2, [r0, #16]
    58bc:	05923004 	ldreq	r3, [r2, #4]
    58c0:	00843003 	addeq	r3, r4, r3
    58c4:	05823004 	streq	r3, [r2, #4]
    58c8:	0a000007 	beq	58ec <_dl_map_object_from_fd+0x958>
    58cc:	e5933000 	ldr	r3, [r3]
    58d0:	e58e3000 	str	r3, [lr]
    58d4:	e5903010 	ldr	r3, [r0, #16]
    58d8:	e5933004 	ldr	r3, [r3, #4]
    58dc:	e0843003 	add	r3, r4, r3
    58e0:	e58e3004 	str	r3, [lr, #4]
    58e4:	e28cc001 	add	ip, ip, #1	; 0x1
    58e8:	e580e010 	str	lr, [r0, #16]
    58ec:	e590300c 	ldr	r3, [r0, #12]
    58f0:	e3530000 	cmp	r3, #0	; 0x0
    58f4:	0a00000f 	beq	5938 <_dl_map_object_from_fd+0x9a4>
    58f8:	e35e0000 	cmp	lr, #0	; 0x0
    58fc:	0590200c 	ldreq	r2, [r0, #12]
    5900:	05923004 	ldreq	r3, [r2, #4]
    5904:	00843003 	addeq	r3, r4, r3
    5908:	05823004 	streq	r3, [r2, #4]
    590c:	0a000009 	beq	5938 <_dl_map_object_from_fd+0x9a4>
    5910:	e1a0218c 	mov	r2, ip, lsl #3
    5914:	e082100e 	add	r1, r2, lr
    5918:	e5933000 	ldr	r3, [r3]
    591c:	e782300e 	str	r3, [r2, lr]
    5920:	e590300c 	ldr	r3, [r0, #12]
    5924:	e5933004 	ldr	r3, [r3, #4]
    5928:	e0843003 	add	r3, r4, r3
    592c:	e5813004 	str	r3, [r1, #4]
    5930:	e28cc001 	add	ip, ip, #1	; 0x1
    5934:	e580100c 	str	r1, [r0, #12]
    5938:	e5903014 	ldr	r3, [r0, #20]
    593c:	e3530000 	cmp	r3, #0	; 0x0
    5940:	0a00000f 	beq	5984 <_dl_map_object_from_fd+0x9f0>
    5944:	e35e0000 	cmp	lr, #0	; 0x0
    5948:	05902014 	ldreq	r2, [r0, #20]
    594c:	05923004 	ldreq	r3, [r2, #4]
    5950:	00843003 	addeq	r3, r4, r3
    5954:	05823004 	streq	r3, [r2, #4]
    5958:	0a000009 	beq	5984 <_dl_map_object_from_fd+0x9f0>
    595c:	e1a0218c 	mov	r2, ip, lsl #3
    5960:	e082100e 	add	r1, r2, lr
    5964:	e5933000 	ldr	r3, [r3]
    5968:	e782300e 	str	r3, [r2, lr]
    596c:	e5903014 	ldr	r3, [r0, #20]
    5970:	e5933004 	ldr	r3, [r3, #4]
    5974:	e0843003 	add	r3, r4, r3
    5978:	e5813004 	str	r3, [r1, #4]
    597c:	e28cc001 	add	ip, ip, #1	; 0x1
    5980:	e5801014 	str	r1, [r0, #20]
    5984:	e5903018 	ldr	r3, [r0, #24]
    5988:	e3530000 	cmp	r3, #0	; 0x0
    598c:	0a00000f 	beq	59d0 <_dl_map_object_from_fd+0xa3c>
    5990:	e35e0000 	cmp	lr, #0	; 0x0
    5994:	05902018 	ldreq	r2, [r0, #24]
    5998:	05923004 	ldreq	r3, [r2, #4]
    599c:	00843003 	addeq	r3, r4, r3
    59a0:	05823004 	streq	r3, [r2, #4]
    59a4:	0a000009 	beq	59d0 <_dl_map_object_from_fd+0xa3c>
    59a8:	e1a0218c 	mov	r2, ip, lsl #3
    59ac:	e082100e 	add	r1, r2, lr
    59b0:	e5933000 	ldr	r3, [r3]
    59b4:	e782300e 	str	r3, [r2, lr]
    59b8:	e5903018 	ldr	r3, [r0, #24]
    59bc:	e5933004 	ldr	r3, [r3, #4]
    59c0:	e0843003 	add	r3, r4, r3
    59c4:	e5813004 	str	r3, [r1, #4]
    59c8:	e28cc001 	add	ip, ip, #1	; 0x1
    59cc:	e5801018 	str	r1, [r0, #24]
    59d0:	e590301c 	ldr	r3, [r0, #28]
    59d4:	e3530000 	cmp	r3, #0	; 0x0
    59d8:	0a00000f 	beq	5a1c <_dl_map_object_from_fd+0xa88>
    59dc:	e35e0000 	cmp	lr, #0	; 0x0
    59e0:	0590201c 	ldreq	r2, [r0, #28]
    59e4:	05923004 	ldreq	r3, [r2, #4]
    59e8:	00843003 	addeq	r3, r4, r3
    59ec:	05823004 	streq	r3, [r2, #4]
    59f0:	0a000009 	beq	5a1c <_dl_map_object_from_fd+0xa88>
    59f4:	e1a0218c 	mov	r2, ip, lsl #3
    59f8:	e082100e 	add	r1, r2, lr
    59fc:	e5933000 	ldr	r3, [r3]
    5a00:	e782300e 	str	r3, [r2, lr]
    5a04:	e590301c 	ldr	r3, [r0, #28]
    5a08:	e5933004 	ldr	r3, [r3, #4]
    5a0c:	e0843003 	add	r3, r4, r3
    5a10:	e5813004 	str	r3, [r1, #4]
    5a14:	e28cc001 	add	ip, ip, #1	; 0x1
    5a18:	e580101c 	str	r1, [r0, #28]
    5a1c:	e5903044 	ldr	r3, [r0, #68]
    5a20:	e3530000 	cmp	r3, #0	; 0x0
    5a24:	0a00000f 	beq	5a68 <_dl_map_object_from_fd+0xad4>
    5a28:	e35e0000 	cmp	lr, #0	; 0x0
    5a2c:	05902044 	ldreq	r2, [r0, #68]
    5a30:	05923004 	ldreq	r3, [r2, #4]
    5a34:	00843003 	addeq	r3, r4, r3
    5a38:	05823004 	streq	r3, [r2, #4]
    5a3c:	0a000009 	beq	5a68 <_dl_map_object_from_fd+0xad4>
    5a40:	e1a0218c 	mov	r2, ip, lsl #3
    5a44:	e082100e 	add	r1, r2, lr
    5a48:	e5933000 	ldr	r3, [r3]
    5a4c:	e782300e 	str	r3, [r2, lr]
    5a50:	e5903044 	ldr	r3, [r0, #68]
    5a54:	e5933004 	ldr	r3, [r3, #4]
    5a58:	e0843003 	add	r3, r4, r3
    5a5c:	e5813004 	str	r3, [r1, #4]
    5a60:	e28cc001 	add	ip, ip, #1	; 0x1
    5a64:	e5801044 	str	r1, [r0, #68]
    5a68:	e590305c 	ldr	r3, [r0, #92]
    5a6c:	e3530000 	cmp	r3, #0	; 0x0
    5a70:	0a00000f 	beq	5ab4 <_dl_map_object_from_fd+0xb20>
    5a74:	e35e0000 	cmp	lr, #0	; 0x0
    5a78:	0590205c 	ldreq	r2, [r0, #92]
    5a7c:	05923004 	ldreq	r3, [r2, #4]
    5a80:	00843003 	addeq	r3, r4, r3
    5a84:	05823004 	streq	r3, [r2, #4]
    5a88:	0a000009 	beq	5ab4 <_dl_map_object_from_fd+0xb20>
    5a8c:	e1a0218c 	mov	r2, ip, lsl #3
    5a90:	e082100e 	add	r1, r2, lr
    5a94:	e5933000 	ldr	r3, [r3]
    5a98:	e782300e 	str	r3, [r2, lr]
    5a9c:	e590305c 	ldr	r3, [r0, #92]
    5aa0:	e5933004 	ldr	r3, [r3, #4]
    5aa4:	e0843003 	add	r3, r4, r3
    5aa8:	e5813004 	str	r3, [r1, #4]
    5aac:	e28cc001 	add	ip, ip, #1	; 0x1
    5ab0:	e580105c 	str	r1, [r0, #92]
    5ab4:	e59030c4 	ldr	r3, [r0, #196]
    5ab8:	e3530000 	cmp	r3, #0	; 0x0
    5abc:	0a00000f 	beq	5b00 <_dl_map_object_from_fd+0xb6c>
    5ac0:	e35e0000 	cmp	lr, #0	; 0x0
    5ac4:	059020c4 	ldreq	r2, [r0, #196]
    5ac8:	05923004 	ldreq	r3, [r2, #4]
    5acc:	00843003 	addeq	r3, r4, r3
    5ad0:	05823004 	streq	r3, [r2, #4]
    5ad4:	0a000009 	beq	5b00 <_dl_map_object_from_fd+0xb6c>
    5ad8:	e1a0218c 	mov	r2, ip, lsl #3
    5adc:	e082100e 	add	r1, r2, lr
    5ae0:	e5933000 	ldr	r3, [r3]
    5ae4:	e782300e 	str	r3, [r2, lr]
    5ae8:	e59030c4 	ldr	r3, [r0, #196]
    5aec:	e5933004 	ldr	r3, [r3, #4]
    5af0:	e0843003 	add	r3, r4, r3
    5af4:	e5813004 	str	r3, [r1, #4]
    5af8:	e28cc001 	add	ip, ip, #1	; 0x1
    5afc:	e58010c4 	str	r1, [r0, #196]
    5b00:	e35c0008 	cmp	ip, #8	; 0x8
    5b04:	da000007 	ble	5b28 <_dl_map_object_from_fd+0xb94>
    5b08:	e59f0478 	ldr	r0, [pc, #1144]	; 5f88 <.text+0x53b8>
    5b0c:	e08a0000 	add	r0, sl, r0
    5b10:	e59f1474 	ldr	r1, [pc, #1140]	; 5f8c <.text+0x53bc>
    5b14:	e08a1001 	add	r1, sl, r1
    5b18:	e3a0206a 	mov	r2, #106	; 0x6a
    5b1c:	e59f346c 	ldr	r3, [pc, #1132]	; 5f90 <.text+0x53c0>
    5b20:	e79a3003 	ldr	r3, [sl, r3]
    5b24:	eb002725 	bl	f7c0 <__GI___assert_fail>
    5b28:	e5903050 	ldr	r3, [r0, #80]
    5b2c:	e3530000 	cmp	r3, #0	; 0x0
    5b30:	0a00000b 	beq	5b64 <_dl_map_object_from_fd+0xbd0>
    5b34:	e5933004 	ldr	r3, [r3, #4]
    5b38:	e3530011 	cmp	r3, #17	; 0x11
    5b3c:	13530007 	cmpne	r3, #7	; 0x7
    5b40:	0a000007 	beq	5b64 <_dl_map_object_from_fd+0xbd0>
    5b44:	e59f0448 	ldr	r0, [pc, #1096]	; 5f94 <.text+0x53c4>
    5b48:	e08a0000 	add	r0, sl, r0
    5b4c:	e59f1438 	ldr	r1, [pc, #1080]	; 5f8c <.text+0x53bc>
    5b50:	e08a1001 	add	r1, sl, r1
    5b54:	e3a02075 	mov	r2, #117	; 0x75
    5b58:	e59f3430 	ldr	r3, [pc, #1072]	; 5f90 <.text+0x53c0>
    5b5c:	e79a3003 	ldr	r3, [sl, r3]
    5b60:	eb002716 	bl	f7c0 <__GI___assert_fail>
    5b64:	e590301c 	ldr	r3, [r0, #28]
    5b68:	e3530000 	cmp	r3, #0	; 0x0
    5b6c:	0a00000b 	beq	5ba0 <_dl_map_object_from_fd+0xc0c>
    5b70:	e5903024 	ldr	r3, [r0, #36]
    5b74:	e5933004 	ldr	r3, [r3, #4]
    5b78:	e353000c 	cmp	r3, #12	; 0xc
    5b7c:	0a000007 	beq	5ba0 <_dl_map_object_from_fd+0xc0c>
    5b80:	e59f0410 	ldr	r0, [pc, #1040]	; 5f98 <.text+0x53c8>
    5b84:	e08a0000 	add	r0, sl, r0
    5b88:	e59f13fc 	ldr	r1, [pc, #1020]	; 5f8c <.text+0x53bc>
    5b8c:	e08a1001 	add	r1, sl, r1
    5b90:	e3a0207a 	mov	r2, #122	; 0x7a
    5b94:	e59f33f4 	ldr	r3, [pc, #1012]	; 5f90 <.text+0x53c0>
    5b98:	e79a3003 	ldr	r3, [sl, r3]
    5b9c:	eb002707 	bl	f7c0 <__GI___assert_fail>
    5ba0:	e5903044 	ldr	r3, [r0, #68]
    5ba4:	e3530000 	cmp	r3, #0	; 0x0
    5ba8:	0a00000b 	beq	5bdc <_dl_map_object_from_fd+0xc48>
    5bac:	e590304c 	ldr	r3, [r0, #76]
    5bb0:	e5933004 	ldr	r3, [r3, #4]
    5bb4:	e3530008 	cmp	r3, #8	; 0x8
    5bb8:	0a000007 	beq	5bdc <_dl_map_object_from_fd+0xc48>
    5bbc:	e59f03d8 	ldr	r0, [pc, #984]	; 5f9c <.text+0x53cc>
    5bc0:	e08a0000 	add	r0, sl, r0
    5bc4:	e59f13c0 	ldr	r1, [pc, #960]	; 5f8c <.text+0x53bc>
    5bc8:	e08a1001 	add	r1, sl, r1
    5bcc:	e3a0207e 	mov	r2, #126	; 0x7e
    5bd0:	e59f33b8 	ldr	r3, [pc, #952]	; 5f90 <.text+0x53c0>
    5bd4:	e79a3003 	ldr	r3, [sl, r3]
    5bd8:	eb0026f8 	bl	f7c0 <__GI___assert_fail>
    5bdc:	e5903078 	ldr	r3, [r0, #120]
    5be0:	e3530000 	cmp	r3, #0	; 0x0
    5be4:	0a00000c 	beq	5c1c <_dl_map_object_from_fd+0xc88>
    5be8:	e5933004 	ldr	r3, [r3, #4]
    5bec:	e58631fc 	str	r3, [r6, #508]
    5bf0:	e3130002 	tst	r3, #2	; 0x2
    5bf4:	15903078 	ldrne	r3, [r0, #120]
    5bf8:	15803040 	strne	r3, [r0, #64]
    5bfc:	e59631fc 	ldr	r3, [r6, #508]
    5c00:	e3130004 	tst	r3, #4	; 0x4
    5c04:	15903078 	ldrne	r3, [r0, #120]
    5c08:	15803058 	strne	r3, [r0, #88]
    5c0c:	e59631fc 	ldr	r3, [r6, #508]
    5c10:	e3130008 	tst	r3, #8	; 0x8
    5c14:	15903078 	ldrne	r3, [r0, #120]
    5c18:	15803060 	strne	r3, [r0, #96]
    5c1c:	e5903098 	ldr	r3, [r0, #152]
    5c20:	e3530000 	cmp	r3, #0	; 0x0
    5c24:	0a000004 	beq	5c3c <_dl_map_object_from_fd+0xca8>
    5c28:	e5933004 	ldr	r3, [r3, #4]
    5c2c:	e58631f8 	str	r3, [r6, #504]
    5c30:	e3130001 	tst	r3, #1	; 0x1
    5c34:	15903098 	ldrne	r3, [r0, #152]
    5c38:	15803060 	strne	r3, [r0, #96]
    5c3c:	e5903074 	ldr	r3, [r0, #116]
    5c40:	e3530000 	cmp	r3, #0	; 0x0
    5c44:	13a03000 	movne	r3, #0	; 0x0
    5c48:	1580303c 	strne	r3, [r0, #60]
    5c4c:	e59531f8 	ldr	r3, [r5, #504]
    5c50:	e3130040 	tst	r3, #64	; 0x40
    5c54:	0a000012 	beq	5ca4 <_dl_map_object_from_fd+0xd10>
    5c58:	e59b200c 	ldr	r2, [fp, #12]
    5c5c:	e3520000 	cmp	r2, #0	; 0x0
    5c60:	aa00000f 	bge	5ca4 <_dl_map_object_from_fd+0xd10>
    5c64:	e59501a0 	ldr	r0, [r5, #416]
    5c68:	e2853f69 	add	r3, r5, #420	; 0x1a4
    5c6c:	e813000a 	ldmda	r3, {r1, r3}
    5c70:	e0431001 	sub	r1, r3, r1
    5c74:	eb002c05 	bl	10c90 <__munmap>
    5c78:	e595001c 	ldr	r0, [r5, #28]
    5c7c:	e5903008 	ldr	r3, [r0, #8]
    5c80:	e3530000 	cmp	r3, #0	; 0x0
    5c84:	0bffebcb 	bleq	bb8 <GLIBC_2.0+0xbb8>
    5c88:	e5d53180 	ldrb	r3, [r5, #384]
    5c8c:	e1b033a3 	movs	r3, r3, lsr #7
    5c90:	1595014c 	ldrne	r0, [r5, #332]
    5c94:	1bffebc7 	blne	bb8 <GLIBC_2.0+0xbb8>
    5c98:	e59f3300 	ldr	r3, [pc, #768]	; 5fa0 <.text+0x53d0>
    5c9c:	e08a2003 	add	r2, sl, r3
    5ca0:	eafffcd4 	b	4ff8 <_dl_map_object_from_fd+0x64>
    5ca4:	e595314c 	ldr	r3, [r5, #332]
    5ca8:	e3530000 	cmp	r3, #0	; 0x0
    5cac:	1595314c 	ldrne	r3, [r5, #332]
    5cb0:	15952000 	ldrne	r2, [r5]
    5cb4:	10833002 	addne	r3, r3, r2
    5cb8:	1585314c 	strne	r3, [r5, #332]
    5cbc:	1a000013 	bne	5d10 <_dl_map_object_from_fd+0xd7c>
    5cc0:	e5d9002c 	ldrb	r0, [r9, #44]
    5cc4:	e5d9302d 	ldrb	r3, [r9, #45]
    5cc8:	e1800403 	orr	r0, r0, r3, lsl #8
    5ccc:	e1a00280 	mov	r0, r0, lsl #5
    5cd0:	ebffebb5 	bl	bac <GLIBC_2.0+0xbac>
    5cd4:	e3500000 	cmp	r0, #0	; 0x0
    5cd8:	059f32c4 	ldreq	r3, [pc, #708]	; 5fa4 <.text+0x53d4>
    5cdc:	008a2003 	addeq	r2, sl, r3
    5ce0:	0afffcc0 	beq	4fe8 <_dl_map_object_from_fd+0x54>
    5ce4:	e5d9202c 	ldrb	r2, [r9, #44]
    5ce8:	e5d9302d 	ldrb	r3, [r9, #45]
    5cec:	e1822403 	orr	r2, r2, r3, lsl #8
    5cf0:	e51b1098 	ldr	r1, [fp, #-152]
    5cf4:	e1a02282 	mov	r2, r2, lsl #5
    5cf8:	eb002ef5 	bl	118d4 <memcpy>
    5cfc:	e585014c 	str	r0, [r5, #332]
    5d00:	e5d53180 	ldrb	r3, [r5, #384]
    5d04:	e1e03c83 	mvn	r3, r3, lsl #25
    5d08:	e1e03ca3 	mvn	r3, r3, lsr #25
    5d0c:	e5c53180 	strb	r3, [r5, #384]
    5d10:	e59f323c 	ldr	r3, [pc, #572]	; 5f54 <.text+0x5384>
    5d14:	e79a1003 	ldr	r1, [sl, r3]
    5d18:	e59133e0 	ldr	r3, [r1, #992]
    5d1c:	e51b00a8 	ldr	r0, [fp, #-168]
    5d20:	e1c03003 	bic	r3, r0, r3
    5d24:	e3130001 	tst	r3, #1	; 0x1
    5d28:	0a00000c 	beq	5d60 <_dl_map_object_from_fd+0xdcc>
    5d2c:	e59f3274 	ldr	r3, [pc, #628]	; 5fa8 <.text+0x53d8>
    5d30:	e79a2003 	ldr	r2, [sl, r3]
    5d34:	e5923000 	ldr	r3, [r2]
    5d38:	e3833007 	orr	r3, r3, #7	; 0x7
    5d3c:	e5823000 	str	r3, [r2]
    5d40:	e59b0010 	ldr	r0, [fp, #16]
    5d44:	e1a0e00f 	mov	lr, pc
    5d48:	e591f3e4 	ldr	pc, [r1, #996]
    5d4c:	e3500000 	cmp	r0, #0	; 0x0
    5d50:	e50b00a4 	str	r0, [fp, #-164]
    5d54:	159f3250 	ldrne	r3, [pc, #592]	; 5fac <.text+0x53dc>
    5d58:	108a2003 	addne	r2, sl, r3
    5d5c:	1afffca5 	bne	4ff8 <_dl_map_object_from_fd+0x64>
    5d60:	e51b0090 	ldr	r0, [fp, #-144]
    5d64:	eb002a85 	bl	10780 <__close>
    5d68:	e3500000 	cmp	r0, #0	; 0x0
    5d6c:	159f323c 	ldrne	r3, [pc, #572]	; 5fb0 <.text+0x53e0>
    5d70:	108a2003 	addne	r2, sl, r3
    5d74:	1afffc9b 	bne	4fe8 <_dl_map_object_from_fd+0x54>
    5d78:	e3e01000 	mvn	r1, #0	; 0x0
    5d7c:	e50b1090 	str	r1, [fp, #-144]
    5d80:	e5d52180 	ldrb	r2, [r5, #384]
    5d84:	e2023003 	and	r3, r2, #3	; 0x3
    5d88:	e51b00a0 	ldr	r0, [fp, #-160]
    5d8c:	e3530001 	cmp	r3, #1	; 0x1
    5d90:	03500002 	cmpeq	r0, #2	; 0x2
    5d94:	03c23003 	biceq	r3, r2, #3	; 0x3
    5d98:	05c53180 	streqb	r3, [r5, #384]
    5d9c:	e5953150 	ldr	r3, [r5, #336]
    5da0:	e5952000 	ldr	r2, [r5]
    5da4:	e0833002 	add	r3, r3, r2
    5da8:	e5853150 	str	r3, [r5, #336]
    5dac:	e59f31a4 	ldr	r3, [pc, #420]	; 5f58 <.text+0x5388>
    5db0:	e79a3003 	ldr	r3, [sl, r3]
    5db4:	e5933000 	ldr	r3, [r3]
    5db8:	e3130040 	tst	r3, #64	; 0x40
    5dbc:	0a000014 	beq	5e14 <_dl_map_object_from_fd+0xe80>
    5dc0:	e58d2000 	str	r2, [sp]
    5dc4:	e3a03008 	mov	r3, #8	; 0x8
    5dc8:	e58d3004 	str	r3, [sp, #4]
    5dcc:	e51b109c 	ldr	r1, [fp, #-156]
    5dd0:	e58d1008 	str	r1, [sp, #8]
    5dd4:	e58d300c 	str	r3, [sp, #12]
    5dd8:	e5952150 	ldr	r2, [r5, #336]
    5ddc:	e58d2010 	str	r2, [sp, #16]
    5de0:	e58d3014 	str	r3, [sp, #20]
    5de4:	e595214c 	ldr	r2, [r5, #332]
    5de8:	e58d2018 	str	r2, [sp, #24]
    5dec:	e58d301c 	str	r3, [sp, #28]
    5df0:	e5d52154 	ldrb	r2, [r5, #340]
    5df4:	e5d51155 	ldrb	r1, [r5, #341]
    5df8:	e1822311 	orr	r2, r2, r1, lsl r3
    5dfc:	e58d2020 	str	r2, [sp, #32]
    5e00:	e59f01ac 	ldr	r0, [pc, #428]	; 5fb4 <.text+0x53e4>
    5e04:	e08a0000 	add	r0, sl, r0
    5e08:	e1a01003 	mov	r1, r3
    5e0c:	e5952008 	ldr	r2, [r5, #8]
    5e10:	eb001a95 	bl	c86c <_dl_debug_printf>
    5e14:	e1a00005 	mov	r0, r5
    5e18:	eb0009f6 	bl	85f8 <_dl_setup_hash>
    5e1c:	e59b200c 	ldr	r2, [fp, #12]
    5e20:	e3120008 	tst	r2, #8	; 0x8
    5e24:	1a000025 	bne	5ec0 <_dl_map_object_from_fd+0xf2c>
    5e28:	e5953060 	ldr	r3, [r5, #96]
    5e2c:	e3530000 	cmp	r3, #0	; 0x0
    5e30:	0a000022 	beq	5ec0 <_dl_map_object_from_fd+0xf2c>
    5e34:	e2853f56 	add	r3, r5, #344	; 0x158
    5e38:	e59521c0 	ldr	r2, [r5, #448]
    5e3c:	e5922000 	ldr	r2, [r2]
    5e40:	e1530002 	cmp	r3, r2
    5e44:	0a00001d 	beq	5ec0 <_dl_map_object_from_fd+0xf2c>
    5e48:	e3a00004 	mov	r0, #4	; 0x4
    5e4c:	ebffeb56 	bl	bac <GLIBC_2.0+0xbac>
    5e50:	e5850160 	str	r0, [r5, #352]
    5e54:	e3500000 	cmp	r0, #0	; 0x0
    5e58:	1a00000b 	bne	5e8c <_dl_map_object_from_fd+0xef8>
    5e5c:	e59f3154 	ldr	r3, [pc, #340]	; 5fb8 <.text+0x53e8>
    5e60:	e08a2003 	add	r2, sl, r3
    5e64:	eafffc5f 	b	4fe8 <_dl_map_object_from_fd+0x54>
    5e68:	e51b0090 	ldr	r0, [fp, #-144]
    5e6c:	eb002a43 	bl	10780 <__close>
    5e70:	e51b0094 	ldr	r0, [fp, #-148]
    5e74:	ebffeb4f 	bl	bb8 <GLIBC_2.0+0xbb8>
    5e78:	e1a00005 	mov	r0, r5
    5e7c:	e51b108c 	ldr	r1, [fp, #-140]
    5e80:	ebfff96a 	bl	4430 <add_name_to_object>
    5e84:	e1a00005 	mov	r0, r5
    5e88:	ea000028 	b	5f30 <_dl_map_object_from_fd+0xf9c>
    5e8c:	e5953160 	ldr	r3, [r5, #352]
    5e90:	e5835000 	str	r5, [r3]
    5e94:	e3a03001 	mov	r3, #1	; 0x1
    5e98:	e5853164 	str	r3, [r5, #356]
    5e9c:	e59511c0 	ldr	r1, [r5, #448]
    5ea0:	e59521bc 	ldr	r2, [r5, #444]
    5ea4:	e1a02102 	mov	r2, r2, lsl #2
    5ea8:	e2810004 	add	r0, r1, #4	; 0x4
    5eac:	e2422004 	sub	r2, r2, #4	; 0x4
    5eb0:	eb002de8 	bl	11658 <memmove>
    5eb4:	e59521c0 	ldr	r2, [r5, #448]
    5eb8:	e2853e16 	add	r3, r5, #352	; 0x160
    5ebc:	e5823000 	str	r3, [r2]
    5ec0:	e59531f8 	ldr	r3, [r5, #504]
    5ec4:	e3130020 	tst	r3, #32	; 0x20
    5ec8:	159f3084 	ldrne	r3, [pc, #132]	; 5f54 <.text+0x5384>
    5ecc:	179a3003 	ldrne	r3, [sl, r3]
    5ed0:	158351a0 	strne	r5, [r3, #416]
    5ed4:	e2852f73 	add	r2, r5, #460	; 0x1cc
    5ed8:	e24b3088 	sub	r3, fp, #136	; 0x88
    5edc:	e8930003 	ldmia	r3, {r0, r1}
    5ee0:	e8820003 	stmia	r2, {r0, r1}
    5ee4:	e2853f75 	add	r3, r5, #468	; 0x1d4
    5ee8:	e24b2030 	sub	r2, fp, #48	; 0x30
    5eec:	e8920006 	ldmia	r2, {r1, r2}
    5ef0:	e8830006 	stmia	r3, {r1, r2}
    5ef4:	e59f305c 	ldr	r3, [pc, #92]	; 5f58 <.text+0x5388>
    5ef8:	e79a3003 	ldr	r3, [sl, r3]
    5efc:	e59330a0 	ldr	r3, [r3, #160]
    5f00:	e3530000 	cmp	r3, #0	; 0x0
    5f04:	0a000008 	beq	5f2c <_dl_map_object_from_fd+0xf98>
    5f08:	e5952058 	ldr	r2, [r5, #88]
    5f0c:	e3520000 	cmp	r2, #0	; 0x0
    5f10:	0a000005 	beq	5f2c <_dl_map_object_from_fd+0xf98>
    5f14:	e5953034 	ldr	r3, [r5, #52]
    5f18:	e5933004 	ldr	r3, [r3, #4]
    5f1c:	e5921004 	ldr	r1, [r2, #4]
    5f20:	e1a00005 	mov	r0, r5
    5f24:	e0831001 	add	r1, r3, r1
    5f28:	ebfff940 	bl	4430 <add_name_to_object>
    5f2c:	e1a00005 	mov	r0, r5
    5f30:	e24bd028 	sub	sp, fp, #40	; 0x28
    5f34:	e89daff0 	ldmia	sp, {r4, r5, r6, r7, r8, r9, sl, fp, sp, pc}
    5f38:	000185e4 	andeq	r8, r1, r4, ror #11
    5f3c:	ffff6604 	swinv	0x00ff6604
    5f40:	00000238 	andeq	r0, r0, r8, lsr r2
    5f44:	ffff6620 	swinv	0x00ff6620
    5f48:	ffff663c 	swinv	0x00ff663c
    5f4c:	ffff6660 	swinv	0x00ff6660
    5f50:	ffff6698 	swinv	0x00ff6698
    5f54:	0000023c 	andeq	r0, r0, ip, lsr r2
    5f58:	00000210 	andeq	r0, r0, r0, lsl r2
    5f5c:	ffff66c4 	swinv	0x00ff66c4
    5f60:	ffff66ec 	swinv	0x00ff66ec
    5f64:	ffff6714 	swinv	0x00ff6714
    5f68:	6474e551 	ldrvsbt	lr, [r4], #-1361
    5f6c:	6474e552 	ldrvsbt	lr, [r4], #-1362
    5f70:	73516240 	cmpvc	r1, #4	; 0x4
    5f74:	ffff672c 	swinv	0x00ff672c
    5f78:	ffff6744 	swinv	0x00ff6744
    5f7c:	ffff676c 	swinv	0x00ff676c
    5f80:	ffff6798 	swinv	0x00ff6798
    5f84:	ffff67bc 	swinv	0x00ff67bc
    5f88:	ffff56d0 	swinv	0x00ff56d0
    5f8c:	ffff56dc 	swinv	0x00ff56dc
    5f90:	000000c0 	andeq	r0, r0, r0, asr #1
    5f94:	ffff5f68 	swinv	0x00ff5f68
    5f98:	ffff5fa0 	swinv	0x00ff5fa0
    5f9c:	ffff5708 	swinv	0x00ff5708
    5fa0:	ffff67e0 	swinv	0x00ff67e0
    5fa4:	ffff6804 	swinv	0x00ff6804
    5fa8:	000001dc 	ldreqd	r0, [r0], -ip
    5fac:	ffff6830 	swinv	0x00ff6830
    5fb0:	ffff686c 	swinv	0x00ff686c
    5fb4:	ffff688c 	swinv	0x00ff688c
    5fb8:	ffff68f0 	swinv	0x00ff68f0

00005fbc <print_search_path>:
    5fbc:	e1a0c00d 	mov	ip, sp
    5fc0:	e92ddff0 	stmdb	sp!, {r4, r5, r6, r7, r8, r9, sl, fp, ip, lr, pc}
    5fc4:	e24cb004 	sub	fp, ip, #4	; 0x4
    5fc8:	e24dd010 	sub	sp, sp, #16	; 0x10
    5fcc:	e59fa1bc 	ldr	sl, [pc, #444]	; 6190 <.text+0x55c0>
    5fd0:	e08fa00a 	add	sl, pc, sl
    5fd4:	e1a06000 	mov	r6, r0
    5fd8:	e1a09001 	mov	r9, r1
    5fdc:	e1a08002 	mov	r8, r2
    5fe0:	e50bd02c 	str	sp, [fp, #-44]
    5fe4:	e59f31a8 	ldr	r3, [pc, #424]	; 6194 <.text+0x55c4>
    5fe8:	e79a3003 	ldr	r3, [sl, r3]
    5fec:	e5933000 	ldr	r3, [r3]
    5ff0:	e59f21a0 	ldr	r2, [pc, #416]	; 6198 <.text+0x55c8>
    5ff4:	e79a2002 	ldr	r2, [sl, r2]
    5ff8:	e5922000 	ldr	r2, [r2]
    5ffc:	e0833002 	add	r3, r3, r2
    6000:	e2833006 	add	r3, r3, #6	; 0x6
    6004:	e3c33003 	bic	r3, r3, #3	; 0x3
    6008:	e063d00d 	rsb	sp, r3, sp
    600c:	e1a0500d 	mov	r5, sp
    6010:	e3a02001 	mov	r2, #1	; 0x1
    6014:	e50b2030 	str	r2, [fp, #-48]
    6018:	e59f017c 	ldr	r0, [pc, #380]	; 619c <.text+0x55cc>
    601c:	e08a0000 	add	r0, sl, r0
    6020:	eb001a11 	bl	c86c <_dl_debug_printf>
    6024:	e5963000 	ldr	r3, [r6]
    6028:	e1a02003 	mov	r2, r3
    602c:	e3530000 	cmp	r3, #0	; 0x0
    6030:	0a000041 	beq	613c <print_search_path+0x180>
    6034:	e5933004 	ldr	r3, [r3, #4]
    6038:	e1530009 	cmp	r3, r9
    603c:	1a00003e 	bne	613c <print_search_path+0x180>
    6040:	e59f3158 	ldr	r3, [pc, #344]	; 61a0 <.text+0x55d0>
    6044:	e79a3003 	ldr	r3, [sl, r3]
    6048:	e50b3038 	str	r3, [fp, #-56]
    604c:	e1a00005 	mov	r0, r5
    6050:	e282100c 	add	r1, r2, #12	; 0xc
    6054:	e8910006 	ldmia	r1, {r1, r2}
    6058:	eb002df0 	bl	11820 <__mempcpy>
    605c:	e1a07000 	mov	r7, r0
    6060:	e3a04000 	mov	r4, #0	; 0x0
    6064:	e51b2038 	ldr	r2, [fp, #-56]
    6068:	e5923000 	ldr	r3, [r2]
    606c:	e1540003 	cmp	r4, r3
    6070:	2a00002b 	bcs	6124 <print_search_path+0x168>
    6074:	e59f3128 	ldr	r3, [pc, #296]	; 61a4 <.text+0x55d4>
    6078:	e79a3003 	ldr	r3, [sl, r3]
    607c:	e50b3034 	str	r3, [fp, #-52]
    6080:	e5963000 	ldr	r3, [r6]
    6084:	e0833104 	add	r3, r3, r4, lsl #2
    6088:	e5933014 	ldr	r3, [r3, #20]
    608c:	e3530001 	cmp	r3, #1	; 0x1
    6090:	0a00001e 	beq	6110 <print_search_path+0x154>
    6094:	e51b2034 	ldr	r2, [fp, #-52]
    6098:	e5923000 	ldr	r3, [r2]
    609c:	e1a02184 	mov	r2, r4, lsl #3
    60a0:	e082c003 	add	ip, r2, r3
    60a4:	e1a00007 	mov	r0, r7
    60a8:	e7921003 	ldr	r1, [r2, r3]
    60ac:	e59c2004 	ldr	r2, [ip, #4]
    60b0:	eb002dda 	bl	11820 <__mempcpy>
    60b4:	e1550000 	cmp	r5, r0
    60b8:	0a000005 	beq	60d4 <print_search_path+0x118>
    60bc:	e2853001 	add	r3, r5, #1	; 0x1
    60c0:	e1530000 	cmp	r3, r0
    60c4:	1a000005 	bne	60e0 <print_search_path+0x124>
    60c8:	e5d53000 	ldrb	r3, [r5]
    60cc:	e353002f 	cmp	r3, #47	; 0x2f
    60d0:	1a000002 	bne	60e0 <print_search_path+0x124>
    60d4:	e3a03000 	mov	r3, #0	; 0x0
    60d8:	e5c03000 	strb	r3, [r0]
    60dc:	ea000001 	b	60e8 <print_search_path+0x12c>
    60e0:	e3a03000 	mov	r3, #0	; 0x0
    60e4:	e5403001 	strb	r3, [r0, #-1]
    60e8:	e51b3030 	ldr	r3, [fp, #-48]
    60ec:	e3530000 	cmp	r3, #0	; 0x0
    60f0:	159f30b0 	ldrne	r3, [pc, #176]	; 61a8 <.text+0x55d8>
    60f4:	108a0003 	addne	r0, sl, r3
    60f8:	059f30ac 	ldreq	r3, [pc, #172]	; 61ac <.text+0x55dc>
    60fc:	008a0003 	addeq	r0, sl, r3
    6100:	e1a01005 	mov	r1, r5
    6104:	eb0019e8 	bl	c8ac <_dl_debug_printf_c>
    6108:	e3a02000 	mov	r2, #0	; 0x0
    610c:	e50b2030 	str	r2, [fp, #-48]
    6110:	e2844001 	add	r4, r4, #1	; 0x1
    6114:	e51b2038 	ldr	r2, [fp, #-56]
    6118:	e5923000 	ldr	r3, [r2]
    611c:	e1540003 	cmp	r4, r3
    6120:	3affffd6 	bcc	6080 <print_search_path+0xc4>
    6124:	e5b62004 	ldr	r2, [r6, #4]!
    6128:	e3520000 	cmp	r2, #0	; 0x0
    612c:	0a000002 	beq	613c <print_search_path+0x180>
    6130:	e5923004 	ldr	r3, [r2, #4]
    6134:	e1530009 	cmp	r3, r9
    6138:	0affffc3 	beq	604c <print_search_path+0x90>
    613c:	e3580000 	cmp	r8, #0	; 0x0
    6140:	0a00000b 	beq	6174 <print_search_path+0x1b8>
    6144:	e5d83000 	ldrb	r3, [r8]
    6148:	e3530000 	cmp	r3, #0	; 0x0
    614c:	11a02008 	movne	r2, r8
    6150:	059f3058 	ldreq	r3, [pc, #88]	; 61b0 <.text+0x55e0>
    6154:	079a3003 	ldreq	r3, [sl, r3]
    6158:	05933000 	ldreq	r3, [r3]
    615c:	05932000 	ldreq	r2, [r3]
    6160:	e59f004c 	ldr	r0, [pc, #76]	; 61b4 <.text+0x55e4>
    6164:	e08a0000 	add	r0, sl, r0
    6168:	e1a01009 	mov	r1, r9
    616c:	eb0019ce 	bl	c8ac <_dl_debug_printf_c>
    6170:	ea000003 	b	6184 <print_search_path+0x1c8>
    6174:	e59f003c 	ldr	r0, [pc, #60]	; 61b8 <.text+0x55e8>
    6178:	e08a0000 	add	r0, sl, r0
    617c:	e1a01009 	mov	r1, r9
    6180:	eb0019c9 	bl	c8ac <_dl_debug_printf_c>
    6184:	e51bd02c 	ldr	sp, [fp, #-44]
    6188:	e24bd028 	sub	sp, fp, #40	; 0x28
    618c:	e89daff0 	ldmia	sp, {r4, r5, r6, r7, r8, r9, sl, fp, sp, pc}
    6190:	000175bc 	streqh	r7, [r1], -ip
    6194:	000000a4 	andeq	r0, r0, r4, lsr #1
    6198:	000000ac 	andeq	r0, r0, ip, lsr #1
    619c:	ffff690c 	swinv	0x00ff690c
    61a0:	000000a0 	andeq	r0, r0, r0, lsr #1
    61a4:	000000b0 	streqh	r0, [r0], -r0
    61a8:	ffff691c 	swinv	0x00ff691c
    61ac:	ffff6920 	swinv	0x00ff6920
    61b0:	000001d8 	ldreqd	r0, [r0], -r8
    61b4:	ffff6924 	swinv	0x00ff6924
    61b8:	ffff693c 	swinv	0x00ff693c

000061bc <open_verify>:
    61bc:	e1a0c00d 	mov	ip, sp
    61c0:	e92ddff0 	stmdb	sp!, {r4, r5, r6, r7, r8, r9, sl, fp, ip, lr, pc}
    61c4:	e24cb004 	sub	fp, ip, #4	; 0x4
    61c8:	e24dd02c 	sub	sp, sp, #44	; 0x2c
    61cc:	e59fa34c 	ldr	sl, [pc, #844]	; 6520 <.text+0x5950>
    61d0:	e08fa00a 	add	sl, pc, sl
    61d4:	e50b004c 	str	r0, [fp, #-76]
    61d8:	e1a08001 	mov	r8, r1
    61dc:	e3a04000 	mov	r4, #0	; 0x0
    61e0:	e1a09004 	mov	r9, r4
    61e4:	e1a01004 	mov	r1, r4
    61e8:	eb002958 	bl	10750 <__libc_open>
    61ec:	e1a07000 	mov	r7, r0
    61f0:	e3700001 	cmn	r0, #1	; 0x1
    61f4:	0a0000c6 	beq	6514 <open_verify+0x358>
    61f8:	e59f3324 	ldr	r3, [pc, #804]	; 6524 <.text+0x5954>
    61fc:	e79a6003 	ldr	r6, [sl, r3]
    6200:	e5864000 	str	r4, [r6]
    6204:	e2884004 	add	r4, r8, #4	; 0x4
    6208:	e1a01004 	mov	r1, r4
    620c:	e3a02c02 	mov	r2, #512	; 0x200
    6210:	eb002966 	bl	107b0 <__libc_read>
    6214:	e5880000 	str	r0, [r8]
    6218:	e1a05004 	mov	r5, r4
    621c:	e3500033 	cmp	r0, #51	; 0x33
    6220:	ca00000b 	bgt	6254 <open_verify+0x98>
    6224:	e5969000 	ldr	r9, [r6]
    6228:	e3590000 	cmp	r9, #0	; 0x0
    622c:	059f32f4 	ldreq	r3, [pc, #756]	; 6528 <.text+0x5958>
    6230:	008a4003 	addeq	r4, sl, r3
    6234:	159f32f0 	ldrne	r3, [pc, #752]	; 652c <.text+0x595c>
    6238:	108a4003 	addne	r4, sl, r3
    623c:	e3a03000 	mov	r3, #0	; 0x0
    6240:	e88d0018 	stmia	sp, {r3, r4}
    6244:	e1a00009 	mov	r0, r9
    6248:	e1a01007 	mov	r1, r7
    624c:	e51b204c 	ldr	r2, [fp, #-76]
    6250:	ebfffb17 	bl	4eb4 <lose>
    6254:	e1a00004 	mov	r0, r4
    6258:	e59f32d0 	ldr	r3, [pc, #720]	; 6530 <.text+0x5960>
    625c:	e79a1003 	ldr	r1, [sl, r3]
    6260:	e3a02007 	mov	r2, #7	; 0x7
    6264:	eb002cd1 	bl	115b0 <bcmp>
    6268:	e3500000 	cmp	r0, #0	; 0x0
    626c:	0a000027 	beq	6310 <open_verify+0x154>
    6270:	e5d43007 	ldrb	r3, [r4, #7]
    6274:	e3530061 	cmp	r3, #97	; 0x61
    6278:	13530000 	cmpne	r3, #0	; 0x0
    627c:	1a000023 	bne	6310 <open_verify+0x154>
    6280:	e5d43008 	ldrb	r3, [r4, #8]
    6284:	e3530000 	cmp	r3, #0	; 0x0
    6288:	1a000020 	bne	6310 <open_verify+0x154>
    628c:	e5942000 	ldr	r2, [r4]
    6290:	e59f329c 	ldr	r3, [pc, #668]	; 6534 <.text+0x5964>
    6294:	e1520003 	cmp	r2, r3
    6298:	159f3298 	ldrne	r3, [pc, #664]	; 6538 <.text+0x5968>
    629c:	108a4003 	addne	r4, sl, r3
    62a0:	1affffe5 	bne	623c <open_verify+0x80>
    62a4:	e5d43004 	ldrb	r3, [r4, #4]
    62a8:	e3530001 	cmp	r3, #1	; 0x1
    62ac:	1a000089 	bne	64d8 <open_verify+0x31c>
    62b0:	e5d43005 	ldrb	r3, [r4, #5]
    62b4:	e3530001 	cmp	r3, #1	; 0x1
    62b8:	159f327c 	ldrne	r3, [pc, #636]	; 653c <.text+0x596c>
    62bc:	108a4003 	addne	r4, sl, r3
    62c0:	1affffdd 	bne	623c <open_verify+0x80>
    62c4:	e5d43006 	ldrb	r3, [r4, #6]
    62c8:	e3530001 	cmp	r3, #1	; 0x1
    62cc:	159f326c 	ldrne	r3, [pc, #620]	; 6540 <.text+0x5970>
    62d0:	108a4003 	addne	r4, sl, r3
    62d4:	1affffd8 	bne	623c <open_verify+0x80>
    62d8:	e5d43007 	ldrb	r3, [r4, #7]
    62dc:	e3530000 	cmp	r3, #0	; 0x0
    62e0:	13530061 	cmpne	r3, #97	; 0x61
    62e4:	159f3258 	ldrne	r3, [pc, #600]	; 6544 <.text+0x5974>
    62e8:	108a4003 	addne	r4, sl, r3
    62ec:	1affffd2 	bne	623c <open_verify+0x80>
    62f0:	e5d43008 	ldrb	r3, [r4, #8]
    62f4:	e3530000 	cmp	r3, #0	; 0x0
    62f8:	159f3248 	ldrne	r3, [pc, #584]	; 6548 <.text+0x5978>
    62fc:	108a4003 	addne	r4, sl, r3
    6300:	1affffcd 	bne	623c <open_verify+0x80>
    6304:	e59f3240 	ldr	r3, [pc, #576]	; 654c <.text+0x597c>
    6308:	e08a4003 	add	r4, sl, r3
    630c:	eaffffca 	b	623c <open_verify+0x80>
    6310:	e5953014 	ldr	r3, [r5, #20]
    6314:	e3530001 	cmp	r3, #1	; 0x1
    6318:	159f3230 	ldrne	r3, [pc, #560]	; 6550 <.text+0x5980>
    631c:	108a4003 	addne	r4, sl, r3
    6320:	1affffc5 	bne	623c <open_verify+0x80>
    6324:	e5d53012 	ldrb	r3, [r5, #18]
    6328:	e5d52013 	ldrb	r2, [r5, #19]
    632c:	e1833402 	orr	r3, r3, r2, lsl #8
    6330:	e3530028 	cmp	r3, #40	; 0x28
    6334:	1a000067 	bne	64d8 <open_verify+0x31c>
    6338:	e5d52010 	ldrb	r2, [r5, #16]
    633c:	e5d53011 	ldrb	r3, [r5, #17]
    6340:	e1823403 	orr	r3, r2, r3, lsl #8
    6344:	e3530003 	cmp	r3, #3	; 0x3
    6348:	0a000003 	beq	635c <open_verify+0x1a0>
    634c:	e3530002 	cmp	r3, #2	; 0x2
    6350:	159f31fc 	ldrne	r3, [pc, #508]	; 6554 <.text+0x5984>
    6354:	108a4003 	addne	r4, sl, r3
    6358:	1affffb7 	bne	623c <open_verify+0x80>
    635c:	e5d5302a 	ldrb	r3, [r5, #42]
    6360:	e5d5202b 	ldrb	r2, [r5, #43]
    6364:	e1833402 	orr	r3, r3, r2, lsl #8
    6368:	e3530020 	cmp	r3, #32	; 0x20
    636c:	159f31e4 	ldrne	r3, [pc, #484]	; 6558 <.text+0x5988>
    6370:	108a4003 	addne	r4, sl, r3
    6374:	1affffb0 	bne	623c <open_verify+0x80>
    6378:	e5d5202c 	ldrb	r2, [r5, #44]
    637c:	e5d5302d 	ldrb	r3, [r5, #45]
    6380:	e1824403 	orr	r4, r2, r3, lsl #8
    6384:	e1a04284 	mov	r4, r4, lsl #5
    6388:	e595101c 	ldr	r1, [r5, #28]
    638c:	e0842001 	add	r2, r4, r1
    6390:	e5983000 	ldr	r3, [r8]
    6394:	e1520003 	cmp	r2, r3
    6398:	90886001 	addls	r6, r8, r1
    639c:	92866004 	addls	r6, r6, #4	; 0x4
    63a0:	9a000014 	bls	63f8 <open_verify+0x23c>
    63a4:	e2843006 	add	r3, r4, #6	; 0x6
    63a8:	e3c333ff 	bic	r3, r3, #-67108861	; 0xfc000003
    63ac:	e3c3350f 	bic	r3, r3, #62914560	; 0x3c00000
    63b0:	e063d00d 	rsb	sp, r3, sp
    63b4:	e28d6008 	add	r6, sp, #8	; 0x8
    63b8:	e1a00007 	mov	r0, r7
    63bc:	e595101c 	ldr	r1, [r5, #28]
    63c0:	e3a02000 	mov	r2, #0	; 0x0
    63c4:	eb002911 	bl	10810 <__libc_lseek>
    63c8:	e1a00007 	mov	r0, r7
    63cc:	e1a01006 	mov	r1, r6
    63d0:	e1a02004 	mov	r2, r4
    63d4:	eb0028f5 	bl	107b0 <__libc_read>
    63d8:	e1500004 	cmp	r0, r4
    63dc:	0a000005 	beq	63f8 <open_verify+0x23c>
    63e0:	e59f313c 	ldr	r3, [pc, #316]	; 6524 <.text+0x5954>
    63e4:	e79a3003 	ldr	r3, [sl, r3]
    63e8:	e5939000 	ldr	r9, [r3]
    63ec:	e59f3138 	ldr	r3, [pc, #312]	; 652c <.text+0x595c>
    63f0:	e08a4003 	add	r4, sl, r3
    63f4:	eaffff90 	b	623c <open_verify+0x80>
    63f8:	e1a04006 	mov	r4, r6
    63fc:	e5d5302c 	ldrb	r3, [r5, #44]
    6400:	e5d5202d 	ldrb	r2, [r5, #45]
    6404:	e1833402 	orr	r3, r3, r2, lsl #8
    6408:	e0863283 	add	r3, r6, r3, lsl #5
    640c:	e1530006 	cmp	r3, r6
    6410:	9a00003f 	bls	6514 <open_verify+0x358>
    6414:	e5943000 	ldr	r3, [r4]
    6418:	e3530004 	cmp	r3, #4	; 0x4
    641c:	1a000035 	bne	64f8 <open_verify+0x33c>
    6420:	e5943010 	ldr	r3, [r4, #16]
    6424:	e3530020 	cmp	r3, #32	; 0x20
    6428:	1a000032 	bne	64f8 <open_verify+0x33c>
    642c:	e594301c 	ldr	r3, [r4, #28]
    6430:	e3530003 	cmp	r3, #3	; 0x3
    6434:	9a00002f 	bls	64f8 <open_verify+0x33c>
    6438:	e5941004 	ldr	r1, [r4, #4]
    643c:	e2812020 	add	r2, r1, #32	; 0x20
    6440:	e5983000 	ldr	r3, [r8]
    6444:	e1520003 	cmp	r2, r3
    6448:	90883001 	addls	r3, r8, r1
    644c:	92839004 	addls	r9, r3, #4	; 0x4
    6450:	9a00000a 	bls	6480 <open_verify+0x2c4>
    6454:	e1a00007 	mov	r0, r7
    6458:	e5941004 	ldr	r1, [r4, #4]
    645c:	e3a02000 	mov	r2, #0	; 0x0
    6460:	eb0028ea 	bl	10810 <__libc_lseek>
    6464:	e24b9048 	sub	r9, fp, #72	; 0x48
    6468:	e1a00007 	mov	r0, r7
    646c:	e1a01009 	mov	r1, r9
    6470:	e3a02020 	mov	r2, #32	; 0x20
    6474:	eb0028cd 	bl	107b0 <__libc_read>
    6478:	e3500020 	cmp	r0, #32	; 0x20
    647c:	1affffd7 	bne	63e0 <open_verify+0x224>
    6480:	e1a00009 	mov	r0, r9
    6484:	e59f30d0 	ldr	r3, [pc, #208]	; 655c <.text+0x598c>
    6488:	e79a1003 	ldr	r1, [sl, r3]
    648c:	e3a02010 	mov	r2, #16	; 0x10
    6490:	eb002c46 	bl	115b0 <bcmp>
    6494:	e3500000 	cmp	r0, #0	; 0x0
    6498:	1a000016 	bne	64f8 <open_verify+0x33c>
    649c:	e5d92014 	ldrb	r2, [r9, #20]
    64a0:	e5d93018 	ldrb	r3, [r9, #24]
    64a4:	e0832402 	add	r2, r3, r2, lsl #8
    64a8:	e5d9301c 	ldrb	r3, [r9, #28]
    64ac:	e0832402 	add	r2, r3, r2, lsl #8
    64b0:	e5993010 	ldr	r3, [r9, #16]
    64b4:	e3530000 	cmp	r3, #0	; 0x0
    64b8:	1a000006 	bne	64d8 <open_verify+0x31c>
    64bc:	e59f309c 	ldr	r3, [pc, #156]	; 6560 <.text+0x5990>
    64c0:	e79a3003 	ldr	r3, [sl, r3]
    64c4:	e5933008 	ldr	r3, [r3, #8]
    64c8:	e3530000 	cmp	r3, #0	; 0x0
    64cc:	0a000010 	beq	6514 <open_verify+0x358>
    64d0:	e1530002 	cmp	r3, r2
    64d4:	2a00000e 	bcs	6514 <open_verify+0x358>
    64d8:	e1a00007 	mov	r0, r7
    64dc:	eb0028a7 	bl	10780 <__close>
    64e0:	e3a03002 	mov	r3, #2	; 0x2
    64e4:	e59f2038 	ldr	r2, [pc, #56]	; 6524 <.text+0x5954>
    64e8:	e79a2002 	ldr	r2, [sl, r2]
    64ec:	e5823000 	str	r3, [r2]
    64f0:	e3e07000 	mvn	r7, #0	; 0x0
    64f4:	ea000006 	b	6514 <open_verify+0x358>
    64f8:	e2844020 	add	r4, r4, #32	; 0x20
    64fc:	e5d5302c 	ldrb	r3, [r5, #44]
    6500:	e5d5202d 	ldrb	r2, [r5, #45]
    6504:	e1833402 	orr	r3, r3, r2, lsl #8
    6508:	e0863283 	add	r3, r6, r3, lsl #5
    650c:	e1530004 	cmp	r3, r4
    6510:	8affffbf 	bhi	6414 <open_verify+0x258>
    6514:	e1a00007 	mov	r0, r7
    6518:	e24bd028 	sub	sp, fp, #40	; 0x28
    651c:	e89daff0 	ldmia	sp, {r4, r5, r6, r7, r8, r9, sl, fp, sp, pc}
    6520:	000173bc 	streqh	r7, [r1], -ip
    6524:	00000238 	andeq	r0, r0, r8, lsr r2
    6528:	ffff6944 	swinv	0x00ff6944
    652c:	ffff6714 	swinv	0x00ff6714
    6530:	000000c4 	andeq	r0, r0, r4, asr #1
    6534:	464c457f 	undefined
    6538:	ffff6954 	swinv	0x00ff6954
    653c:	ffff6968 	swinv	0x00ff6968
    6540:	ffff6994 	swinv	0x00ff6994
    6544:	ffff69c8 	swinv	0x00ff69c8
    6548:	ffff69e0 	swinv	0x00ff69e0
    654c:	ffff6a00 	swinv	0x00ff6a00
    6550:	ffff6a10 	swinv	0x00ff6a10
    6554:	ffff6a3c 	swinv	0x00ff6a3c
    6558:	ffff6a64 	swinv	0x00ff6a64
    655c:	000000c8 	andeq	r0, r0, r8, asr #1
    6560:	00000210 	andeq	r0, r0, r0, lsl r2

00006564 <open_path>:
    6564:	e1a0c00d 	mov	ip, sp
    6568:	e92ddff0 	stmdb	sp!, {r4, r5, r6, r7, r8, r9, sl, fp, ip, lr, pc}
    656c:	e24cb004 	sub	fp, ip, #4	; 0x4
    6570:	e24dd084 	sub	sp, sp, #132	; 0x84
    6574:	e59fa314 	ldr	sl, [pc, #788]	; 6890 <.text+0x5cc0>
    6578:	e08fa00a 	add	sl, pc, sl
    657c:	e50b008c 	str	r0, [fp, #-140]
    6580:	e50b1090 	str	r1, [fp, #-144]
    6584:	e50b2094 	str	r2, [fp, #-148]
    6588:	e50b3098 	str	r3, [fp, #-152]
    658c:	e5939000 	ldr	r9, [r3]
    6590:	e3e06000 	mvn	r6, #0	; 0x0
    6594:	e3a01000 	mov	r1, #0	; 0x0
    6598:	e50b10a0 	str	r1, [fp, #-160]
    659c:	e50b109c 	str	r1, [fp, #-156]
    65a0:	e59f32ec 	ldr	r3, [pc, #748]	; 6894 <.text+0x5cc4>
    65a4:	e79a3003 	ldr	r3, [sl, r3]
    65a8:	e5933000 	ldr	r3, [r3]
    65ac:	e59f22e4 	ldr	r2, [pc, #740]	; 6898 <.text+0x5cc8>
    65b0:	e79a2002 	ldr	r2, [sl, r2]
    65b4:	e5922000 	ldr	r2, [r2]
    65b8:	e0833002 	add	r3, r3, r2
    65bc:	e51b2090 	ldr	r2, [fp, #-144]
    65c0:	e0833002 	add	r3, r3, r2
    65c4:	e2833006 	add	r3, r3, #6	; 0x6
    65c8:	e3c33003 	bic	r3, r3, #3	; 0x3
    65cc:	e063d00d 	rsb	sp, r3, sp
    65d0:	e1a0700d 	mov	r7, sp
    65d4:	e59f32c0 	ldr	r3, [pc, #704]	; 689c <.text+0x5ccc>
    65d8:	e79a3003 	ldr	r3, [sl, r3]
    65dc:	e50b30ac 	str	r3, [fp, #-172]
    65e0:	e5995000 	ldr	r5, [r9]
    65e4:	e3a08000 	mov	r8, #0	; 0x0
    65e8:	e50b80a4 	str	r8, [fp, #-164]
    65ec:	e51b10ac 	ldr	r1, [fp, #-172]
    65f0:	e5913000 	ldr	r3, [r1]
    65f4:	e3130001 	tst	r3, #1	; 0x1
    65f8:	0a000008 	beq	6620 <open_path+0xbc>
    65fc:	e5953004 	ldr	r3, [r5, #4]
    6600:	e51b209c 	ldr	r2, [fp, #-156]
    6604:	e1530002 	cmp	r3, r2
    6608:	0a000004 	beq	6620 <open_path+0xbc>
    660c:	e50b309c 	str	r3, [fp, #-156]
    6610:	e1a00009 	mov	r0, r9
    6614:	e1a01003 	mov	r1, r3
    6618:	e5952008 	ldr	r2, [r5, #8]
    661c:	ebfffe66 	bl	5fbc <print_search_path>
    6620:	e1a00007 	mov	r0, r7
    6624:	e285100c 	add	r1, r5, #12	; 0xc
    6628:	e8910006 	ldmia	r1, {r1, r2}
    662c:	eb002c7b 	bl	11820 <__mempcpy>
    6630:	e50b00a8 	str	r0, [fp, #-168]
    6634:	e3a04000 	mov	r4, #0	; 0x0
    6638:	e3760001 	cmn	r6, #1	; 0x1
    663c:	1a000067 	bne	67e0 <open_path+0x27c>
    6640:	e59f3258 	ldr	r3, [pc, #600]	; 68a0 <.text+0x5cd0>
    6644:	e79a3003 	ldr	r3, [sl, r3]
    6648:	e5933000 	ldr	r3, [r3]
    664c:	e1540003 	cmp	r4, r3
    6650:	2a000060 	bcs	67d8 <open_path+0x274>
    6654:	e0853104 	add	r3, r5, r4, lsl #2
    6658:	e5933014 	ldr	r3, [r3, #20]
    665c:	e3530001 	cmp	r3, #1	; 0x1
    6660:	0a000054 	beq	67b8 <open_path+0x254>
    6664:	e59f3238 	ldr	r3, [pc, #568]	; 68a4 <.text+0x5cd4>
    6668:	e79a3003 	ldr	r3, [sl, r3]
    666c:	e5932000 	ldr	r2, [r3]
    6670:	e1a03184 	mov	r3, r4, lsl #3
    6674:	e083c002 	add	ip, r3, r2
    6678:	e51b00a8 	ldr	r0, [fp, #-168]
    667c:	e7931002 	ldr	r1, [r3, r2]
    6680:	e59c2004 	ldr	r2, [ip, #4]
    6684:	eb002c65 	bl	11820 <__mempcpy>
    6688:	e51b108c 	ldr	r1, [fp, #-140]
    668c:	e51b2090 	ldr	r2, [fp, #-144]
    6690:	eb002c62 	bl	11820 <__mempcpy>
    6694:	e0670000 	rsb	r0, r7, r0
    6698:	e50b00a4 	str	r0, [fp, #-164]
    669c:	e51b10ac 	ldr	r1, [fp, #-172]
    66a0:	e5913000 	ldr	r3, [r1]
    66a4:	e3130001 	tst	r3, #1	; 0x1
    66a8:	159f01f8 	ldrne	r0, [pc, #504]	; 68a8 <.text+0x5cd8>
    66ac:	108a0000 	addne	r0, sl, r0
    66b0:	11a01007 	movne	r1, r7
    66b4:	1b00186c 	blne	c86c <_dl_debug_printf>
    66b8:	e1a00007 	mov	r0, r7
    66bc:	e59b1008 	ldr	r1, [fp, #8]
    66c0:	ebfffebd 	bl	61bc <open_verify>
    66c4:	e1a06000 	mov	r6, r0
    66c8:	e0852104 	add	r2, r5, r4, lsl #2
    66cc:	e5923014 	ldr	r3, [r2, #20]
    66d0:	e3530000 	cmp	r3, #0	; 0x0
    66d4:	1a000019 	bne	6740 <open_path+0x1dc>
    66d8:	e3700001 	cmn	r0, #1	; 0x1
    66dc:	12833002 	addne	r3, r3, #2	; 0x2
    66e0:	15823014 	strne	r3, [r2, #20]
    66e4:	1a000015 	bne	6740 <open_path+0x1dc>
    66e8:	e51b10a4 	ldr	r1, [fp, #-164]
    66ec:	e51b2090 	ldr	r2, [fp, #-144]
    66f0:	e0623001 	rsb	r3, r2, r1
    66f4:	e0873003 	add	r3, r7, r3
    66f8:	e3a02000 	mov	r2, #0	; 0x0
    66fc:	e5432001 	strb	r2, [r3, #-1]
    6700:	e3a00003 	mov	r0, #3	; 0x3
    6704:	e1a01007 	mov	r1, r7
    6708:	e24b2088 	sub	r2, fp, #136	; 0x88
    670c:	eb0027ed 	bl	106c8 <__GI___xstat64>
    6710:	e3500000 	cmp	r0, #0	; 0x0
    6714:	1a000006 	bne	6734 <open_path+0x1d0>
    6718:	e51b3078 	ldr	r3, [fp, #-120]
    671c:	e2033a0f 	and	r3, r3, #61440	; 0xf000
    6720:	e3530901 	cmp	r3, #16384	; 0x4000
    6724:	00853104 	addeq	r3, r5, r4, lsl #2
    6728:	03a01002 	moveq	r1, #2	; 0x2
    672c:	05831014 	streq	r1, [r3, #20]
    6730:	0a000002 	beq	6740 <open_path+0x1dc>
    6734:	e0852104 	add	r2, r5, r4, lsl #2
    6738:	e3a03001 	mov	r3, #1	; 0x1
    673c:	e5823014 	str	r3, [r2, #20]
    6740:	e0853104 	add	r3, r5, r4, lsl #2
    6744:	e5933014 	ldr	r3, [r3, #20]
    6748:	e3530002 	cmp	r3, #2	; 0x2
    674c:	03888001 	orreq	r8, r8, #1	; 0x1
    6750:	e3760001 	cmn	r6, #1	; 0x1
    6754:	0a000017 	beq	67b8 <open_path+0x254>
    6758:	e51b2094 	ldr	r2, [fp, #-148]
    675c:	e3520000 	cmp	r2, #0	; 0x0
    6760:	0a000014 	beq	67b8 <open_path+0x254>
    6764:	e59f3140 	ldr	r3, [pc, #320]	; 68ac <.text+0x5cdc>
    6768:	e79a3003 	ldr	r3, [sl, r3]
    676c:	e5933000 	ldr	r3, [r3]
    6770:	e3530000 	cmp	r3, #0	; 0x0
    6774:	0a00000f 	beq	67b8 <open_path+0x254>
    6778:	e3a00003 	mov	r0, #3	; 0x3
    677c:	e1a01006 	mov	r1, r6
    6780:	e24b2088 	sub	r2, fp, #136	; 0x88
    6784:	eb0027e0 	bl	1070c <__GI___fxstat64>
    6788:	e3500000 	cmp	r0, #0	; 0x0
    678c:	1a000002 	bne	679c <open_path+0x238>
    6790:	e51b3078 	ldr	r3, [fp, #-120]
    6794:	e3130b02 	tst	r3, #2048	; 0x800
    6798:	1a000006 	bne	67b8 <open_path+0x254>
    679c:	e1a00006 	mov	r0, r6
    67a0:	eb0027f6 	bl	10780 <__close>
    67a4:	e3e06000 	mvn	r6, #0	; 0x0
    67a8:	e59f3100 	ldr	r3, [pc, #256]	; 68b0 <.text+0x5ce0>
    67ac:	e79a3003 	ldr	r3, [sl, r3]
    67b0:	e3a01002 	mov	r1, #2	; 0x2
    67b4:	e5831000 	str	r1, [r3]
    67b8:	e2844001 	add	r4, r4, #1	; 0x1
    67bc:	e3760001 	cmn	r6, #1	; 0x1
    67c0:	1a000006 	bne	67e0 <open_path+0x27c>
    67c4:	e59f30d4 	ldr	r3, [pc, #212]	; 68a0 <.text+0x5cd0>
    67c8:	e79a3003 	ldr	r3, [sl, r3]
    67cc:	e5933000 	ldr	r3, [r3]
    67d0:	e1540003 	cmp	r4, r3
    67d4:	3affff9e 	bcc	6654 <open_path+0xf0>
    67d8:	e3760001 	cmn	r6, #1	; 0x1
    67dc:	0a00000e 	beq	681c <open_path+0x2b8>
    67e0:	e51b00a4 	ldr	r0, [fp, #-164]
    67e4:	ebffe8f0 	bl	bac <GLIBC_2.0+0xbac>
    67e8:	e59b3004 	ldr	r3, [fp, #4]
    67ec:	e5830000 	str	r0, [r3]
    67f0:	e3500000 	cmp	r0, #0	; 0x0
    67f4:	0a000004 	beq	680c <open_path+0x2a8>
    67f8:	e1a01007 	mov	r1, r7
    67fc:	e51b20a4 	ldr	r2, [fp, #-164]
    6800:	eb002c33 	bl	118d4 <memcpy>
    6804:	e1a00006 	mov	r0, r6
    6808:	ea00001e 	b	6888 <open_path+0x324>
    680c:	e1a00006 	mov	r0, r6
    6810:	eb0027da 	bl	10780 <__close>
    6814:	e3e00000 	mvn	r0, #0	; 0x0
    6818:	ea00001a 	b	6888 <open_path+0x324>
    681c:	e3580000 	cmp	r8, #0	; 0x0
    6820:	0a000007 	beq	6844 <open_path+0x2e0>
    6824:	e59f3084 	ldr	r3, [pc, #132]	; 68b0 <.text+0x5ce0>
    6828:	e79a3003 	ldr	r3, [sl, r3]
    682c:	e5933000 	ldr	r3, [r3]
    6830:	e3530002 	cmp	r3, #2	; 0x2
    6834:	0a000002 	beq	6844 <open_path+0x2e0>
    6838:	e353000d 	cmp	r3, #13	; 0xd
    683c:	13e00000 	mvnne	r0, #0	; 0x0
    6840:	1a000010 	bne	6888 <open_path+0x324>
    6844:	e51b20a0 	ldr	r2, [fp, #-160]
    6848:	e1822008 	orr	r2, r2, r8
    684c:	e50b20a0 	str	r2, [fp, #-160]
    6850:	e5b93004 	ldr	r3, [r9, #4]!
    6854:	e3530000 	cmp	r3, #0	; 0x0
    6858:	1affff60 	bne	65e0 <open_path+0x7c>
    685c:	e3520000 	cmp	r2, #0	; 0x0
    6860:	1a000007 	bne	6884 <open_path+0x320>
    6864:	e51b1098 	ldr	r1, [fp, #-152]
    6868:	e5913004 	ldr	r3, [r1, #4]
    686c:	e3530000 	cmp	r3, #0	; 0x0
    6870:	15910000 	ldrne	r0, [r1]
    6874:	1bffe8cf 	blne	bb8 <GLIBC_2.0+0xbb8>
    6878:	e3e03000 	mvn	r3, #0	; 0x0
    687c:	e51b2098 	ldr	r2, [fp, #-152]
    6880:	e5823000 	str	r3, [r2]
    6884:	e3e00000 	mvn	r0, #0	; 0x0
    6888:	e24bd028 	sub	sp, fp, #40	; 0x28
    688c:	e89daff0 	ldmia	sp, {r4, r5, r6, r7, r8, r9, sl, fp, sp, pc}
    6890:	00017014 	andeq	r7, r1, r4, lsl r0
    6894:	000000a4 	andeq	r0, r0, r4, lsr #1
    6898:	000000ac 	andeq	r0, r0, ip, lsr #1
    689c:	00000210 	andeq	r0, r0, r0, lsl r2
    68a0:	000000a0 	andeq	r0, r0, r0, lsr #1
    68a4:	000000b0 	streqh	r0, [r0], -r0
    68a8:	ffff6a90 	swinv	0x00ff6a90
    68ac:	00000200 	andeq	r0, r0, r0, lsl #4
    68b0:	00000238 	andeq	r0, r0, r8, lsr r2

000068b4 <_dl_map_object>:
    68b4:	e92d4ff0 	stmdb	sp!, {r4, r5, r6, r7, r8, r9, sl, fp, lr}
    68b8:	e24dde23 	sub	sp, sp, #560	; 0x230
    68bc:	e59fa6d4 	ldr	sl, [pc, #1748]	; 6f98 <.text+0x63c8>
    68c0:	e08fa00a 	add	sl, pc, sl
    68c4:	e1a06000 	mov	r6, r0
    68c8:	e1a05001 	mov	r5, r1
    68cc:	e1a0b002 	mov	fp, r2
    68d0:	e58d3020 	str	r3, [sp, #32]
    68d4:	e59d925c 	ldr	r9, [sp, #604]
    68d8:	e3590000 	cmp	r9, #0	; 0x0
    68dc:	aa000008 	bge	6904 <_dl_map_object+0x50>
    68e0:	e59f06b4 	ldr	r0, [pc, #1716]	; 6f9c <.text+0x63cc>
    68e4:	e08a0000 	add	r0, sl, r0
    68e8:	e59f16b0 	ldr	r1, [pc, #1712]	; 6fa0 <.text+0x63d0>
    68ec:	e08a1001 	add	r1, sl, r1
    68f0:	e3a02e71 	mov	r2, #1808	; 0x710
    68f4:	e282200c 	add	r2, r2, #12	; 0xc
    68f8:	e59f36a4 	ldr	r3, [pc, #1700]	; 6fa4 <.text+0x63d4>
    68fc:	e79a3003 	ldr	r3, [sl, r3]
    6900:	eb0023ae 	bl	f7c0 <__GI___assert_fail>
    6904:	e359000f 	cmp	r9, #15	; 0xf
    6908:	da000008 	ble	6930 <_dl_map_object+0x7c>
    690c:	e59f0694 	ldr	r0, [pc, #1684]	; 6fa8 <.text+0x63d8>
    6910:	e08a0000 	add	r0, sl, r0
    6914:	e59f1684 	ldr	r1, [pc, #1668]	; 6fa0 <.text+0x63d0>
    6918:	e08a1001 	add	r1, sl, r1
    691c:	e3a02e71 	mov	r2, #1808	; 0x710
    6920:	e282200d 	add	r2, r2, #13	; 0xd
    6924:	e59f3678 	ldr	r3, [pc, #1656]	; 6fa4 <.text+0x63d4>
    6928:	e79a3003 	ldr	r3, [sl, r3]
    692c:	eb0023a3 	bl	f7c0 <__GI___assert_fail>
    6930:	e0893089 	add	r3, r9, r9, lsl #1
    6934:	e59f2670 	ldr	r2, [pc, #1648]	; 6fac <.text+0x63dc>
    6938:	e79a2002 	ldr	r2, [sl, r2]
    693c:	e7924183 	ldr	r4, [r2, r3, lsl #3]
    6940:	e3540000 	cmp	r4, #0	; 0x0
    6944:	0a000023 	beq	69d8 <_dl_map_object+0x124>
    6948:	e5d43181 	ldrb	r3, [r4, #385]
    694c:	e3130002 	tst	r3, #2	; 0x2
    6950:	1a00001d 	bne	69cc <_dl_map_object+0x118>
    6954:	e3130010 	tst	r3, #16	; 0x10
    6958:	1a00001b 	bne	69cc <_dl_map_object+0x118>
    695c:	e1a00005 	mov	r0, r5
    6960:	e1a01004 	mov	r1, r4
    6964:	eb0017e9 	bl	c910 <_dl_name_match_p>
    6968:	e3500000 	cmp	r0, #0	; 0x0
    696c:	1a000014 	bne	69c4 <_dl_map_object+0x110>
    6970:	e5d43181 	ldrb	r3, [r4, #385]
    6974:	e3130001 	tst	r3, #1	; 0x1
    6978:	1a000013 	bne	69cc <_dl_map_object+0x118>
    697c:	e5940058 	ldr	r0, [r4, #88]
    6980:	e3500000 	cmp	r0, #0	; 0x0
    6984:	0a000010 	beq	69cc <_dl_map_object+0x118>
    6988:	e5943034 	ldr	r3, [r4, #52]
    698c:	e5932004 	ldr	r2, [r3, #4]
    6990:	e5903004 	ldr	r3, [r0, #4]
    6994:	e0827003 	add	r7, r2, r3
    6998:	e1a00005 	mov	r0, r5
    699c:	e1a01007 	mov	r1, r7
    69a0:	eb002992 	bl	10ff0 <strcmp>
    69a4:	e3500000 	cmp	r0, #0	; 0x0
    69a8:	1a000007 	bne	69cc <_dl_map_object+0x118>
