
test_debug:     file format elf32-littlearm

Disassembly of section .init:

00008344 <_init>:
    8344:	e52de004 	str	lr, [sp, #-4]!
    8348:	eb000021 	bl	83d4 <call_gmon_start>
    834c:	eb000043 	bl	8460 <frame_dummy>
    8350:	eb0000b5 	bl	862c <__do_global_ctors_aux>
    8354:	e49df004 	ldr	pc, [sp], #4
Disassembly of section .plt:

00008358 <.plt>:
    8358:	e52de004 	str	lr, [sp, #-4]!
    835c:	e59fe004 	ldr	lr, [pc, #4]	; 8368 <.plt+0x10>
    8360:	e08fe00e 	add	lr, pc, lr
    8364:	e5bef008 	ldr	pc, [lr, #8]!
    8368:	0000840c 	andeq	r8, r0, ip, lsl #8
    836c:	e28fc600 	add	ip, pc, #0	; 0x0
    8370:	e28cca08 	add	ip, ip, #32768	; 0x8000
    8374:	e5bcf40c 	ldr	pc, [ip, #1036]!
    8378:	e28fc600 	add	ip, pc, #0	; 0x0
    837c:	e28cca08 	add	ip, ip, #32768	; 0x8000
    8380:	e5bcf404 	ldr	pc, [ip, #1028]!
    8384:	e28fc600 	add	ip, pc, #0	; 0x0
    8388:	e28cca08 	add	ip, ip, #32768	; 0x8000
    838c:	e5bcf3fc 	ldr	pc, [ip, #1020]!
    8390:	e28fc600 	add	ip, pc, #0	; 0x0
    8394:	e28cca08 	add	ip, ip, #32768	; 0x8000
    8398:	e5bcf3f4 	ldr	pc, [ip, #1012]!
Disassembly of section .text:

0000839c <_start>:
    839c:	e59fc024 	ldr	ip, [pc, #36]	; 83c8 <.text+0x2c>
    83a0:	e3a0b000 	mov	fp, #0	; 0x0
    83a4:	e49d1004 	ldr	r1, [sp], #4
    83a8:	e1a0200d 	mov	r2, sp
    83ac:	e52d2004 	str	r2, [sp, #-4]!
    83b0:	e52d0004 	str	r0, [sp, #-4]!
    83b4:	e59f0010 	ldr	r0, [pc, #16]	; 83cc <.text+0x30>
    83b8:	e59f3010 	ldr	r3, [pc, #16]	; 83d0 <.text+0x34>
    83bc:	e52dc004 	str	ip, [sp, #-4]!
    83c0:	ebffffef 	bl	8384 <.text-0x18>
    83c4:	ebffffe8 	bl	836c <.text-0x30>
    83c8:	000085cc 	andeq	r8, r0, ip, asr #11
    83cc:	00008514 	andeq	r8, r0, r4, lsl r5
    83d0:	00008568 	andeq	r8, r0, r8, ror #10

000083d4 <call_gmon_start>:
    83d4:	e92d4400 	stmdb	sp!, {sl, lr}
    83d8:	e59fa01c 	ldr	sl, [pc, #28]	; 83fc <.text+0x60>
    83dc:	e08fa00a 	add	sl, pc, sl
    83e0:	e59f3018 	ldr	r3, [pc, #24]	; 8400 <.text+0x64>
    83e4:	e79a3003 	ldr	r3, [sl, r3]
    83e8:	e3530000 	cmp	r3, #0	; 0x0
    83ec:	08bd8400 	ldmeqia	sp!, {sl, pc}
    83f0:	e1a0e00f 	mov	lr, pc
    83f4:	e1a0f003 	mov	pc, r3
    83f8:	e8bd8400 	ldmia	sp!, {sl, pc}
    83fc:	00008390 	muleq	r0, r0, r3
    8400:	00000020 	andeq	r0, r0, r0, lsr #32

00008404 <__do_global_dtors_aux>:
    8404:	e92d4030 	stmdb	sp!, {r4, r5, lr}
    8408:	e59f5040 	ldr	r5, [pc, #64]	; 8450 <.text+0xb4>
    840c:	e5d53000 	ldrb	r3, [r5]
    8410:	e3530000 	cmp	r3, #0	; 0x0
    8414:	18bd8030 	ldmneia	sp!, {r4, r5, pc}
    8418:	e59f4034 	ldr	r4, [pc, #52]	; 8454 <.text+0xb8>
    841c:	ea000004 	b	8434 <__do_global_dtors_aux+0x30>
    8420:	e5943000 	ldr	r3, [r4]
    8424:	e2833004 	add	r3, r3, #4	; 0x4
    8428:	e5843000 	str	r3, [r4]
    842c:	e1a0e00f 	mov	lr, pc
    8430:	e1a0f002 	mov	pc, r2
    8434:	e5943000 	ldr	r3, [r4]
    8438:	e5932000 	ldr	r2, [r3]
    843c:	e3520000 	cmp	r2, #0	; 0x0
    8440:	1afffff6 	bne	8420 <__do_global_dtors_aux+0x1c>
    8444:	e3a03001 	mov	r3, #1	; 0x1
    8448:	e5c53000 	strb	r3, [r5]
    844c:	e8bd8030 	ldmia	sp!, {r4, r5, pc}
    8450:	000107a4 	andeq	r0, r1, r4, lsr #15
    8454:	00010690 	muleq	r1, r0, r6

00008458 <call___do_global_dtors_aux>:
    8458:	e52de004 	str	lr, [sp, #-4]!
    845c:	e49df004 	ldr	pc, [sp], #4

00008460 <frame_dummy>:
    8460:	e59f0018 	ldr	r0, [pc, #24]	; 8480 <.text+0xe4>
    8464:	e5903000 	ldr	r3, [r0]
    8468:	e3530000 	cmp	r3, #0	; 0x0
    846c:	01a0f00e 	moveq	pc, lr
    8470:	e59f300c 	ldr	r3, [pc, #12]	; 8484 <.text+0xe8>
    8474:	e3530000 	cmp	r3, #0	; 0x0
    8478:	01a0f00e 	moveq	pc, lr
    847c:	eaffffbd 	b	8378 <.text-0x24>
    8480:	00010770 	andeq	r0, r1, r0, ror r7
    8484:	00000000 	andeq	r0, r0, r0

00008488 <call_frame_dummy>:
    8488:	e52de004 	str	lr, [sp, #-4]!
    848c:	e49df004 	ldr	pc, [sp], #4

00008490 <C>:
    8490:	e1a0c00d 	mov	ip, sp
    8494:	e92dd800 	stmdb	sp!, {fp, ip, lr, pc}
    8498:	e24cb004 	sub	fp, ip, #4	; 0x4
    849c:	e24dd004 	sub	sp, sp, #4	; 0x4
    84a0:	e50b0010 	str	r0, [fp, #-16]
    84a4:	e51b2010 	ldr	r2, [fp, #-16]
    84a8:	e3a03012 	mov	r3, #18	; 0x12
    84ac:	e5823000 	str	r3, [r2]   // r3=0x12, r2=0
    84b0:	e89da808 	ldmia	sp, {r3, fp, sp, pc}

000084b4 <B>:
    84b4:	e1a0c00d 	mov	ip, sp
    84b8:	e92dd800 	stmdb	sp!, {fp, ip, lr, pc}
    84bc:	e24cb004 	sub	fp, ip, #4	; 0x4
    84c0:	e24dd004 	sub	sp, sp, #4	; 0x4
    84c4:	e50b0010 	str	r0, [fp, #-16]
    84c8:	e51b0010 	ldr	r0, [fp, #-16]
    84cc:	ebffffef 	bl	8490 <C>
    84d0:	e89da808 	ldmia	sp, {r3, fp, sp, pc}

000084d4 <A>:
    84d4:	e1a0c00d 	mov	ip, sp
    84d8:	e92dd800 	stmdb	sp!, {fp, ip, lr, pc}
    84dc:	e24cb004 	sub	fp, ip, #4	; 0x4
    84e0:	e24dd004 	sub	sp, sp, #4	; 0x4
    84e4:	e50b0010 	str	r0, [fp, #-16]
    84e8:	e51b0010 	ldr	r0, [fp, #-16]
    84ec:	ebfffff0 	bl	84b4 <B>
    84f0:	e89da808 	ldmia	sp, {r3, fp, sp, pc}

000084f4 <A2>:
    84f4:	e1a0c00d 	mov	ip, sp
    84f8:	e92dd800 	stmdb	sp!, {fp, ip, lr, pc}
    84fc:	e24cb004 	sub	fp, ip, #4	; 0x4
    8500:	e24dd004 	sub	sp, sp, #4	; 0x4
    8504:	e50b0010 	str	r0, [fp, #-16]
    8508:	e51b0010 	ldr	r0, [fp, #-16]
    850c:	ebffffdf 	bl	8490 <C>
    8510:	e89da808 	ldmia	sp, {r3, fp, sp, pc}

00008514 <main>:
    8514:	e1a0c00d 	mov	ip, sp
    8518:	e92dd800 	stmdb	sp!, {fp, ip, lr, pc}
    851c:	e24cb004 	sub	fp, ip, #4	; 0x4
    8520:	e24dd010 	sub	sp, sp, #16	; 0x10
    8524:	e50b0010 	str	r0, [fp, #-16]
    8528:	e50b1014 	str	r1, [fp, #-20]
    852c:	e3a03000 	mov	r3, #0	; 0x0
    8530:	e50b301c 	str	r3, [fp, #-28]
    8534:	e24b3018 	sub	r3, fp, #24	; 0x18
    8538:	e1a00003 	mov	r0, r3
    853c:	ebffffec 	bl	84f4 <A2>
    8540:	e59f001c 	ldr	r0, [pc, #28]	; 8564 <.text+0x1c8>
    8544:	e51b1018 	ldr	r1, [fp, #-24]
    8548:	ebffff90 	bl	8390 <.text-0xc>
    854c:	e51b001c 	ldr	r0, [fp, #-28]
    8550:	ebffffdf 	bl	84d4 <A>
    8554:	e3a03000 	mov	r3, #0	; 0x0
    8558:	e1a00003 	mov	r0, r3
    855c:	e24bd00c 	sub	sp, fp, #12	; 0xc
    8560:	e89da800 	ldmia	sp, {fp, sp, pc}
    8564:	0000867c 	andeq	r8, r0, ip, ror r6

00008568 <__libc_csu_init>:
    8568:	e92d4470 	stmdb	sp!, {r4, r5, r6, sl, lr}
    856c:	e59fa04c 	ldr	sl, [pc, #76]	; 85c0 <.text+0x224>
    8570:	e08fa00a 	add	sl, pc, sl
    8574:	ebffff72 	bl	8344 <_init>
    8578:	e3a04000 	mov	r4, #0	; 0x0
    857c:	e59f3040 	ldr	r3, [pc, #64]	; 85c4 <.text+0x228>
    8580:	e79a3003 	ldr	r3, [sl, r3]
    8584:	e59f203c 	ldr	r2, [pc, #60]	; 85c8 <.text+0x22c>
    8588:	e79a2002 	ldr	r2, [sl, r2]
    858c:	e0623003 	rsb	r3, r2, r3
    8590:	e1540143 	cmp	r4, r3, asr #2
    8594:	28bd8470 	ldmcsia	sp!, {r4, r5, r6, sl, pc}
    8598:	e1a06002 	mov	r6, r2
    859c:	e59f3020 	ldr	r3, [pc, #32]	; 85c4 <.text+0x228>
    85a0:	e79a3003 	ldr	r3, [sl, r3]
    85a4:	e0625003 	rsb	r5, r2, r3
    85a8:	e1a0e00f 	mov	lr, pc
    85ac:	e796f104 	ldr	pc, [r6, r4, lsl #2]
    85b0:	e2844001 	add	r4, r4, #1	; 0x1
    85b4:	e1540145 	cmp	r4, r5, asr #2
    85b8:	3afffffa 	bcc	85a8 <__libc_csu_init+0x40>
    85bc:	e8bd8470 	ldmia	sp!, {r4, r5, r6, sl, pc}
    85c0:	000081fc 	streqd	r8, [r0], -ip
    85c4:	00000028 	andeq	r0, r0, r8, lsr #32
    85c8:	0000002c 	andeq	r0, r0, ip, lsr #32

000085cc <__libc_csu_fini>:
    85cc:	e92d4430 	stmdb	sp!, {r4, r5, sl, lr}
    85d0:	e59fa048 	ldr	sl, [pc, #72]	; 8620 <.text+0x284>
    85d4:	e08fa00a 	add	sl, pc, sl
    85d8:	e59f3044 	ldr	r3, [pc, #68]	; 8624 <.text+0x288>
    85dc:	e79a2003 	ldr	r2, [sl, r3]
    85e0:	e59f3040 	ldr	r3, [pc, #64]	; 8628 <.text+0x28c>
    85e4:	e79a3003 	ldr	r3, [sl, r3]
    85e8:	e0634002 	rsb	r4, r3, r2
    85ec:	e1a04144 	mov	r4, r4, asr #2
    85f0:	e2444001 	sub	r4, r4, #1	; 0x1
    85f4:	e3740001 	cmn	r4, #1	; 0x1
    85f8:	0a000006 	beq	8618 <__libc_csu_fini+0x4c>
    85fc:	e59f3024 	ldr	r3, [pc, #36]	; 8628 <.text+0x28c>
    8600:	e79a5003 	ldr	r5, [sl, r3]
    8604:	e1a0e00f 	mov	lr, pc
    8608:	e795f104 	ldr	pc, [r5, r4, lsl #2]
    860c:	e2444001 	sub	r4, r4, #1	; 0x1
    8610:	e3740001 	cmn	r4, #1	; 0x1
    8614:	1afffffa 	bne	8604 <__libc_csu_fini+0x38>
    8618:	eb000013 	bl	866c <_fini>
    861c:	e8bd8430 	ldmia	sp!, {r4, r5, sl, pc}
    8620:	00008198 	muleq	r0, r8, r1
    8624:	0000001c 	andeq	r0, r0, ip, lsl r0
    8628:	00000024 	andeq	r0, r0, r4, lsr #32

0000862c <__do_global_ctors_aux>:
    862c:	e92d4010 	stmdb	sp!, {r4, lr}
    8630:	e59f3028 	ldr	r3, [pc, #40]	; 8660 <.text+0x2c4>
    8634:	e2434004 	sub	r4, r3, #4	; 0x4
    8638:	e5132004 	ldr	r2, [r3, #-4]
    863c:	e3720001 	cmn	r2, #1	; 0x1
    8640:	08bd8010 	ldmeqia	sp!, {r4, pc}
    8644:	e1a03002 	mov	r3, r2
    8648:	e1a0e00f 	mov	lr, pc
    864c:	e1a0f003 	mov	pc, r3
    8650:	e5343004 	ldr	r3, [r4, #-4]!
    8654:	e3730001 	cmn	r3, #1	; 0x1
    8658:	1afffffa 	bne	8648 <__do_global_ctors_aux+0x1c>
    865c:	e8bd8010 	ldmia	sp!, {r4, pc}
    8660:	00010764 	andeq	r0, r1, r4, ror #14

00008664 <call___do_global_ctors_aux>:
    8664:	e52de004 	str	lr, [sp, #-4]!
    8668:	e49df004 	ldr	pc, [sp], #4
Disassembly of section .fini:

0000866c <_fini>:
    866c:	e52de004 	str	lr, [sp, #-4]!
    8670:	ebffff63 	bl	8404 <__do_global_dtors_aux>
    8674:	e49df004 	ldr	pc, [sp], #4