
leds_elf:     file format elf32-littlearm

Disassembly of section .text:

00000000 <_start>:
   0:	e3a00453 	mov	r0, #1392508928	; 0x53000000
   4:	e3a01000 	mov	r1, #0	; 0x0
   8:	e5801000 	str	r1, [r0]
   c:	e3a0da01 	mov	sp, #4096	; 0x1000
  10:	eb00000b 	bl	44 <main>

00000014 <halt_loop>:
  14:	eafffffe 	b	14 <halt_loop>

00000018 <wait>:
  18:	e24dd004 	sub	sp, sp, #4	; 0x4
  1c:	e58d0000 	str	r0, [sp]
  20:	e59d3000 	ldr	r3, [sp]
  24:	e3530000 	cmp	r3, #0	; 0x0
  28:	0a000003 	beq	3c <wait+0x24>
  2c:	e59d3000 	ldr	r3, [sp]
  30:	e2433001 	sub	r3, r3, #1	; 0x1
  34:	e58d3000 	str	r3, [sp]
  38:	eafffff8 	b	20 <wait+0x8>
  3c:	e28dd004 	add	sp, sp, #4	; 0x4
  40:	e1a0f00e 	mov	pc, lr

00000044 <main>:
  44:	e52de004 	str	lr, [sp, #-4]!
  48:	e24dd004 	sub	sp, sp, #4	; 0x4
  4c:	e3a03000 	mov	r3, #0	; 0x0
  50:	e58d3000 	str	r3, [sp]
  54:	e3a03456 	mov	r3, #1442840576	; 0x56000000
  58:	e2833050 	add	r3, r3, #80	; 0x50
  5c:	e3a02c15 	mov	r2, #5376	; 0x1500
  60:	e5832000 	str	r2, [r3]
  64:	e3a00c75 	mov	r0, #29952	; 0x7500
  68:	e2800030 	add	r0, r0, #48	; 0x30
  6c:	ebffffe9 	bl	18 <wait>
  70:	e3a02456 	mov	r2, #1442840576	; 0x56000000
  74:	e2822054 	add	r2, r2, #84	; 0x54
  78:	e59d3000 	ldr	r3, [sp]
  7c:	e1a03203 	mov	r3, r3, lsl #4
  80:	e1e03003 	mvn	r3, r3
  84:	e5823000 	str	r3, [r2]
  88:	e59d3000 	ldr	r3, [sp]
  8c:	e2833001 	add	r3, r3, #1	; 0x1
  90:	e58d3000 	str	r3, [sp]
  94:	e3530008 	cmp	r3, #8	; 0x8
  98:	1afffff1 	bne	64 <main+0x20>
  9c:	e3a03000 	mov	r3, #0	; 0x0
  a0:	e58d3000 	str	r3, [sp]
  a4:	eaffffee 	b	64 <main+0x20>